 cgamex86

 Timestamp is 57a86f5b (Mon Aug  8 21:39:07 2016)

 Preferred load address is 30000000

 Start         Length     Name                   Class
 0001:00000000 0000025fH .text                   CODE
 0001:00000260 00087e77H .text$mn                CODE
 0002:00000000 00000100H .idata$5                DATA
 0002:00000100 00000004H .00cfg                  DATA
 0002:00000104 00000004H .CRT$XCA                DATA
 0002:00000108 00000004H .CRT$XCZ                DATA
 0002:0000010c 00000004H .CRT$XIA                DATA
 0002:00000110 0000000cH .CRT$XIC                DATA
 0002:0000011c 00000004H .CRT$XIZ                DATA
 0002:00000120 00000004H .CRT$XPA                DATA
 0002:00000124 00000008H .CRT$XPX                DATA
 0002:0000012c 00000004H .CRT$XPXA               DATA
 0002:00000130 00000004H .CRT$XPZ                DATA
 0002:00000134 00000004H .CRT$XTA                DATA
 0002:00000138 00000004H .CRT$XTZ                DATA
 0002:00000140 00022d84H .rdata                  DATA
 0002:00022ec4 00000000H .rdata$r                DATA
 0002:00022ed0 0000000cH .rdata$sxdata           DATA
 0002:00022ee0 00000010H .rdata$zETW0            DATA
 0002:00022ef0 00000077H .rdata$zETW1            DATA
 0002:00022f67 0000002cH .rdata$zETW2            DATA
 0002:00022f93 00000001H .rdata$zETW9            DATA
 0002:00022f94 0000036cH .rdata$zzzdbg           DATA
 0002:00023300 00000004H .rtc$IAA                DATA
 0002:00023304 00000004H .rtc$IZZ                DATA
 0002:00023308 00000004H .rtc$TAA                DATA
 0002:0002330c 00000004H .rtc$TZZ                DATA
 0002:00023310 0000038cH .xdata$x                DATA
 0002:000236a0 00000059H .edata                  DATA
 0002:000236fc 00000028H .idata$2                DATA
 0002:00023724 00000014H .idata$3                DATA
 0002:00023738 00000100H .idata$4                DATA
 0002:00023838 000004a0H .idata$6                DATA
 0003:00000000 0000b0b0H .data                   DATA
 0003:0000b0b0 00000000H .data$r                 DATA
 0003:0000b0c0 00860934H .bss                    DATA
 0004:00000000 00000088H .gfids$x                DATA
 0004:00000088 0000001cH .gfids$y                DATA
 0005:00000000 000000a0H .rsrc$01                DATA
 0005:000000a0 000004b8H .rsrc$02                DATA

  Address         Publics by Value              Rva+Base       Lib:Object

 0000:00000000       ___guard_iat_count         00000000     <absolute>
 0000:00000000       ___guard_longjmp_table     00000000     <absolute>
 0000:00000000       ___guard_fids_table        00000000     <absolute>
 0000:00000000       ___guard_longjmp_count     00000000     <absolute>
 0000:00000000       ___guard_iat_table         00000000     <absolute>
 0000:00000000       __except_list              00000000     <absolute>
 0000:00000000       ___guard_fids_count        00000000     <absolute>
 0000:00000003       ___safe_se_handler_count   00000003     <absolute>
 0000:00000100       ___guard_flags             00000100     <absolute>
 0000:00000000       ___ImageBase               30000000     <linker-defined>
 0001:00000000       ?TraceLoggingRegister@__vcrt_trace_logging_provider@@YAJPBU_TlgProvider_t@1@PBU_GUID@@P6GX1KE_K2PAU_EVENT_FILTER_DESCRIPTOR@@PAX@Z4@Z 30001000 f i libvcruntime:telemetry.obj
 0001:0000005d       ?TraceLoggingSetInformation@__vcrt_trace_logging_provider@@YAJPBU_TlgProvider_t@1@W4_EVENT_INFO_CLASS@@PAXK@Z 3000105d f i libvcruntime:telemetry.obj
 0001:00000088       ?TraceLoggingUnregister@__vcrt_trace_logging_provider@@YAXPBU_TlgProvider_t@1@@Z 30001088 f i libvcruntime:telemetry.obj
 0001:000000a7       ?_TlgCreateSz@__vcrt_trace_logging_provider@@YAXPAU_EVENT_DATA_DESCRIPTOR@@PBD@Z 300010a7 f i libvcruntime:telemetry.obj
 0001:000000df       ?_TlgCreateWsz@__vcrt_trace_logging_provider@@YAXPAU_EVENT_DATA_DESCRIPTOR@@PB_W@Z 300010df f i libvcruntime:telemetry.obj
 0001:00000123       ?_TlgEnableCallback@__vcrt_trace_logging_provider@@YGXPBU_GUID@@KE_K1PAU_EVENT_FILTER_DESCRIPTOR@@PAX@Z 30001123 f i libvcruntime:telemetry.obj
 0001:0000019b       ?_TlgKeywordOn@__vcrt_trace_logging_provider@@YAEPBU_TlgProvider_t@1@_K@Z 3000119b f i libvcruntime:telemetry.obj
 0001:000001d7       ?_TlgWrite@__vcrt_trace_logging_provider@@YAJPBU_TlgProvider_t@1@PBXPBU_GUID@@2IPAU_EVENT_DATA_DESCRIPTOR@@@Z 300011d7 f i libvcruntime:telemetry.obj
 0001:00000260       _G_SetAnimalVehicleFunctions 30001260 f   AnimalNPC.obj
 0001:00000540       _BG_AttachToRancor         30001540 f   bg_g2_utils.obj
 0001:000007a0       _BG_GetRootSurfNameWithVariant 300017a0 f   bg_g2_utils.obj
 0001:00000830       _BG_AddPredictableEventToPlayerstate 30001830 f   bg_misc.obj
 0001:00000870       _BG_Alloc                  30001870 f   bg_misc.obj
 0001:000008c0       _BG_CanItemBeGrabbed       300018c0 f   bg_misc.obj
 0001:00000bd0       _BG_CanUseFPNow            30001bd0 f   bg_misc.obj
 0001:00000cc0       _BG_CycleForce             30001cc0 f   bg_misc.obj
 0001:00000da0       _BG_CycleInven             30001da0 f   bg_misc.obj
 0001:00000e70       _BG_EmplacedView           30001e70 f   bg_misc.obj
 0001:00000f30       _BG_EvaluateTrajectory     30001f30 f   bg_misc.obj
 0001:000011a0       _BG_EvaluateTrajectoryDelta 300021a0 f   bg_misc.obj
 0001:000013b0       _BG_FileExists             300023b0 f   bg_misc.obj
 0001:000013f0       _BG_FindItemForHoldable    300023f0 f   bg_misc.obj
 0001:00001450       _BG_FindItemForPowerup     30002450 f   bg_misc.obj
 0001:000014b0       _BG_FindItemForWeapon      300024b0 f   bg_misc.obj
 0001:000014f0       _BG_GetItemIndexByTag      300024f0 f   bg_misc.obj
 0001:00001530       _BG_HasYsalamiri           30002530 f   bg_misc.obj
 0001:00001570       _BG_IsItemSelectable       30002570 f   bg_misc.obj
 0001:00001590       _BG_IsValidCharacterModel  30002590 f   bg_misc.obj
 0001:000015f0       _BG_ModelCache             300025f0 f   bg_misc.obj
 0001:00001620       _BG_ParseField             30002620 f   bg_misc.obj
 0001:00001760       _BG_PlayerStateToEntityState 30002760 f   bg_misc.obj
 0001:00001c20       _BG_PlayerTouchesItem      30002c20 f   bg_misc.obj
 0001:00001cb0       _BG_ProperForceIndex       30002cb0 f   bg_misc.obj
 0001:00001ce0       _BG_TempAlloc              30002ce0 f   bg_misc.obj
 0001:00001d20       _BG_TempFree               30002d20 f   bg_misc.obj
 0001:00001d70       _BG_TouchJumpPad           30002d70 f   bg_misc.obj
 0001:00001df0       _BG_ValidateSkinForTeam    30002df0 f   bg_misc.obj
 0001:00002050       ___local_stdio_scanf_options 30003050 f i bg_misc.obj
 0001:00002060       _sscanf                    30003060 f i bg_misc.obj
 0001:00002090       _vectoyaw                  30003090 f   bg_misc.obj
 0001:00002140       _BG_AnimLength             30003140 f   bg_panimate.obj
 0001:000021a0       _BG_AnimsetAlloc           300031a0 f   bg_panimate.obj
 0001:000021d0       _BG_FlippingAnim           300031d0 f   bg_panimate.obj
 0001:000022b0       _BG_FullBodyTauntAnim      300032b0 f   bg_panimate.obj
 0001:000022f0       _BG_InBackFlip             300032f0 f   bg_panimate.obj
 0001:00002310       _BG_InDeathAnim            30003310 f   bg_panimate.obj
 0001:00002350       _BG_InGrappleMove          30003350 f   bg_panimate.obj
 0001:000023a0       _BG_InKataAnim             300033a0 f   bg_panimate.obj
 0001:000023c0       _BG_InKnockDownOnly        300033c0 f   bg_panimate.obj
 0001:000023e0       _BG_InReboundHold          300033e0 f   bg_panimate.obj
 0001:00002400       _BG_InReboundJump          30003400 f   bg_panimate.obj
 0001:00002420       _BG_InRoll                 30003420 f   bg_panimate.obj
 0001:000024b0       _BG_InSaberLock            300034b0 f   bg_panimate.obj
 0001:00002570       _BG_InSaberLockOld         30003570 f   bg_panimate.obj
 0001:000025b0       _BG_InSaberStandAnim       300035b0 f   bg_panimate.obj
 0001:000025e0       _BG_InSpecialJump          300035e0 f   bg_panimate.obj
 0001:000026e0       _BG_InitAnimsets           300036e0 f   bg_panimate.obj
 0001:00002700       _BG_KickMove               30003700 f   bg_panimate.obj
 0001:00002720       _BG_KickingAnim            30003720 f   bg_panimate.obj
 0001:00002780       _BG_ParseAnimationEvtFile  30003780 f   bg_panimate.obj
 0001:00002a70       _BG_ParseAnimationFile     30003a70 f   bg_panimate.obj
 0001:00002da0       _BG_SaberInAttack          30003da0 f   bg_panimate.obj
 0001:00002dd0       _BG_SaberInIdle            30003dd0 f   bg_panimate.obj
 0001:00002de0       _BG_SaberInKata            30003de0 f   bg_panimate.obj
 0001:00002e00       _BG_SaberInSpecial         30003e00 f   bg_panimate.obj
 0001:00002e20       _BG_SaberInSpecialAttack   30003e20 f   bg_panimate.obj
 0001:00002f80       _BG_SaberInTransitionAny   30003f80 f   bg_panimate.obj
 0001:00002fb0       _BG_SaberLockBreakAnim     30003fb0 f   bg_panimate.obj
 0001:00003070       _BG_SaberStartTransAnim    30004070 f   bg_panimate.obj
 0001:00003140       _BG_SetAnim                30004140 f   bg_panimate.obj
 0001:000031f0       _BG_SetAnimFinal           300041f0 f   bg_panimate.obj
 0001:00003460       _BG_SpinningSaberAnim      30004460 f   bg_panimate.obj
 0001:00003700       _BG_SuperBreakLoseAnim     30004700 f   bg_panimate.obj
 0001:00003790       _BG_SuperBreakWinAnim      30004790 f   bg_panimate.obj
 0001:00003820       _CheckAnimFrameForEventType 30004820 f   bg_panimate.obj
 0001:00003860       _PM_AnimLength             30004860 f   bg_panimate.obj
 0001:000038e0       _PM_CanRollFromSoulCal     300048e0 f   bg_panimate.obj
 0001:00003910       _PM_ContinueLegsAnim       30004910 f   bg_panimate.obj
 0001:00003960       _PM_ForceLegsAnim          30004960 f   bg_panimate.obj
 0001:00003a00       _PM_InKnockDown            30004a00 f   bg_panimate.obj
 0001:00003a60       _PM_InOnGroundAnim         30004a60 f   bg_panimate.obj
 0001:00003aa0       _PM_InRollComplete         30004aa0 f   bg_panimate.obj
 0001:00003ad0       _PM_InSaberAnim            30004ad0 f   bg_panimate.obj
 0001:00003af0       _PM_JumpingAnim            30004af0 f   bg_panimate.obj
 0001:00003b10       _PM_LandingAnim            30004b10 f   bg_panimate.obj
 0001:00003b60       _PM_PainAnim               30004b60 f   bg_panimate.obj
 0001:00003b80       _PM_SaberBounceForAttack   30004b80 f   bg_panimate.obj
 0001:00003c00       _PM_SaberInKnockaway       30004c00 f   bg_panimate.obj
 0001:00003c20       _PM_SaberInParry           30004c20 f   bg_panimate.obj
 0001:00003c40       _PM_SaberInReflect         30004c40 f   bg_panimate.obj
 0001:00003c60       _PM_SaberInReturn          30004c60 f   bg_panimate.obj
 0001:00003c80       _PM_SaberInStart           30004c80 f   bg_panimate.obj
 0001:00003ca0       _PM_SaberInTransition      30004ca0 f   bg_panimate.obj
 0001:00003cc0       _PM_SetAnim                30004cc0 f   bg_panimate.obj
 0001:00003cf0       _PM_StartTorsoAnim         30004cf0 f   bg_panimate.obj
 0001:00003d20       _ParseAnimationEvtBlock    30004d20 f   bg_panimate.obj
 0001:00004230       _BG_AdjustClientSpeed      30005230 f   bg_pmove.obj
 0001:000045a0       _BG_CmdForRoll             300055a0 f   bg_pmove.obj
 0001:00004770       _BG_G2ATSTAngles           30005770 f   bg_pmove.obj
 0001:00004d80       _BG_G2PlayerAngles         30005d80 f   bg_pmove.obj
 0001:000059e0       _BG_IK_MoveArm             300069e0 f   bg_pmove.obj
 0001:00005ea0       _BG_InKnockDown            30006ea0 f   bg_pmove.obj
 0001:00005ef0       _BG_InRoll2                30006ef0 f   bg_pmove.obj
 0001:00005f80       _BG_InSlopeAnim            30006f80 f   bg_pmove.obj
 0001:00005fa0       _BG_KnockDownable          30006fa0 f   bg_pmove.obj
 0001:00005fc0       _BG_SabersOff              30006fc0 f   bg_pmove.obj
 0001:000061b0       _BG_UnrestrainedPitchRoll  300071b0 f   bg_pmove.obj
 0001:00006200       _BG_UpdateLookAngles       30007200 f   bg_pmove.obj
 0001:000063d0       _BG_VehicleAdjustBBoxForOrientation 300073d0 f   bg_pmove.obj
 0001:00006850       _BG_VehicleTurnRateForSpeed 30007850 f   bg_pmove.obj
 0001:00006ac0       _PM_AddEvent               30007ac0 f   bg_pmove.obj
 0001:00006ae0       _PM_AddTouchEnt            30007ae0 f   bg_pmove.obj
 0001:00006b30       _PM_AdjustAngleForWallJump 30007b30 f   bg_pmove.obj
 0001:00006f90       _PM_AdjustAngleForWallRun  30007f90 f   bg_pmove.obj
 0001:000073b0       _PM_AdjustAngleForWallRunUp 300083b0 f   bg_pmove.obj
 0001:000077e0       _PM_AdjustAttackStates     300087e0 f   bg_pmove.obj
 0001:00007b00       _PM_AdjustStandAnimForSlope 30008b00 f   bg_pmove.obj
 0001:00008390       _PM_BGEntForNum            30009390 f   bg_pmove.obj
 0001:000083c0       _PM_BeginWeaponChange      300093c0 f   bg_pmove.obj
 0001:00008460       _PM_CheckDualForwardJumpDuck 30009460 f   bg_pmove.obj
 0001:000088e0       _PM_CheckFixMins           300098e0 f   bg_pmove.obj
 0001:0000a570       _PM_ClipVelocity           3000b570 f   bg_pmove.obj
 0001:0000b800       _PM_FinishWeaponChange     3000c800 f   bg_pmove.obj
 0001:0000bd00       _PM_FootSlopeTrace         3000cd00 f   bg_pmove.obj
 0001:0000c700       _PM_ForceJumpingUp         3000d700 f   bg_pmove.obj
 0001:0000ca30       _PM_GetOkWeaponForVehicle  3000da30 f   bg_pmove.obj
 0001:0000ca70       _PM_GetSaberStance         3000da70 f   bg_pmove.obj
 0001:0000cb00       _PM_GrabWallForJump        3000db00 f   bg_pmove.obj
 0001:0000d0b0       _PM_HoverTrace             3000e0b0 f   bg_pmove.obj
 0001:0000d590       _PM_LegsSlopeBackTransition 3000e590 f   bg_pmove.obj
 0001:0000d630       _PM_MoveForKata            3000e630 f   bg_pmove.obj
 0001:0000da60       _PM_RocketLock             3000ea60 f   bg_pmove.obj
 0001:0000ddc0       _PM_RunningAnim            3000edc0 f   bg_pmove.obj
 0001:0000de10       _PM_SetForceJumpZStart     3000ee10 f   bg_pmove.obj
 0001:0000df40       _PM_SetPMViewAngle         3000ef40 f   bg_pmove.obj
 0001:0000dfc0       _PM_SetSpecialMoveValues   3000efc0 f   bg_pmove.obj
 0001:0000e530       _PM_SwimmingAnim           3000f530 f   bg_pmove.obj
 0001:0000e870       _PM_UpdateViewAngles       3000f870 f   bg_pmove.obj
 0001:0000ea80       _PM_Use                    3000fa80 f   bg_pmove.obj
 0001:0000eae0       _PM_VehFaceHyperspacePoint 3000fae0 f   bg_pmove.obj
 0001:0000ede0       _PM_VehForcedTurning       3000fde0 f   bg_pmove.obj
 0001:0000f040       _PM_VehicleViewAngles      30010040 f   bg_pmove.obj
 0001:0000f1f0       _PM_VehicleWeaponAnimate   300101f0 f   bg_pmove.obj
 0001:0000fb10       _PM_WalkingAnim            30010b10 f   bg_pmove.obj
 0001:000114f0       _PM_WeaponOkOnVehicle      300124f0 f   bg_pmove.obj
 0001:00011510       _PM_pitch_roll_for_slope   30012510 f   bg_pmove.obj
 0001:00011860       _Pmove                     30012860 f   bg_pmove.obj
 0001:00011910       _PmoveSingle               30012910 f   bg_pmove.obj
 0001:00012e50       _BG_CheckIncrementLockAnim 30013e50 f   bg_saber.obj
 0001:00012f00       _BG_EnoughForcePowerForMove 30013f00 f   bg_saber.obj
 0001:00012f30       _BG_ForcePowerDrain        30013f30 f   bg_saber.obj
 0001:00012ff0       _PM_BrokenParryForParry    30013ff0 f   bg_saber.obj
 0001:00013100       _PM_CanBackstab            30014100 f   bg_saber.obj
 0001:00013250       _PM_CanDoKata              30014250 f   bg_saber.obj
 0001:00013330       _PM_CheckAltKickAttack     30014330 f   bg_saber.obj
 0001:00013380       _PM_CheckStabDown          30014380 f   bg_saber.obj
 0001:00013500       _PM_GroundDistance         30014500 f   bg_saber.obj
 0001:000135e0       _PM_KickMoveForConditions  300145e0 f   bg_saber.obj
 0001:00013620       _PM_SaberAnimTransitionAnim 30014620 f   bg_saber.obj
 0001:000137a0       _PM_SaberAttackChainAngle  300147a0 f   bg_saber.obj
 0001:000137e0       _PM_SaberAttackForMovement 300147e0 f   bg_saber.obj
 0001:00014550       _PM_SaberBackflipAttackMove 30015550 f   bg_saber.obj
 0001:00014570       _PM_SaberFlipOverAttackMove 30015570 f   bg_saber.obj
 0001:00014630       _PM_SaberInBounce          30015630 f   bg_saber.obj
 0001:00014660       _PM_SaberInBrokenParry     30015660 f   bg_saber.obj
 0001:00014690       _PM_SaberJumpAttackMove    30015690 f   bg_saber.obj
 0001:00014750       _PM_SaberKataDone          30015750 f   bg_saber.obj
 0001:00014880       _PM_SaberLockBreak         30015880 f   bg_saber.obj
 0001:00014c40       _PM_SaberLockLoseAnim      30015c40 f   bg_saber.obj
 0001:00014d00       _PM_SaberLockResultAnim    30015d00 f   bg_saber.obj
 0001:00014de0       _PM_SaberLockWinAnim       30015de0 f   bg_saber.obj
 0001:00014f40       _PM_SaberLocked            30015f40 f   bg_saber.obj
 0001:00015330       _PM_SaberLungeAttackMove   30016330 f   bg_saber.obj
 0001:000153d0       _PM_SaberMoveQuadrantForMovement 300163d0 f   bg_saber.obj
 0001:00015430       _PM_SaberPowerCheck        30016430 f   bg_saber.obj
 0001:00015490       _PM_SetSaberMove           30016490 f   bg_saber.obj
 0001:00015ac0       _PM_WalkableGroundDistance 30016ac0 f   bg_saber.obj
 0001:00015bc0       _PM_WeaponLightsaber       30016bc0 f   bg_saber.obj
 0001:00017900       _PM_irand_timesync         30018900 f   bg_saber.obj
 0001:00017960       _BG_ParseLiteral           30018960 f   bg_saberLoad.obj
 0001:000179c0       _BG_SI_SetDesiredLength    300189c0 f   bg_saberLoad.obj
 0001:00017a20       _BG_SI_SetLength           30018a20 f   bg_saberLoad.obj
 0001:00017a60       _BG_SI_SetLengthGradual    30018a60 f   bg_saberLoad.obj
 0001:00017b80       _TranslateSaberColor       30018b80 f   bg_saberLoad.obj
 0001:00017c40       _TranslateSaberStyle       30018c40 f   bg_saberLoad.obj
 0001:00017d00       _WP_RemoveSaber            30018d00 f   bg_saberLoad.obj
 0001:00017da0       _WP_SaberLoadParms         30018da0 f   bg_saberLoad.obj
 0001:00017ec0       _WP_SaberParseParm         30018ec0 f   bg_saberLoad.obj
 0001:00018000       _WP_SaberParseParms        30019000 f   bg_saberLoad.obj
 0001:00018ac0       _WP_SaberSetDefaults       30019ac0 f   bg_saberLoad.obj
 0001:00018cf0       _WP_SaberValidForPlayerInMP 30019cf0 f   bg_saberLoad.obj
 0001:00018d50       _WP_SetSaber               30019d50 f   bg_saberLoad.obj
 0001:00018e00       _BG_PrecacheSabersForSiegeTeam 30019e00 f   bg_saga.obj
 0001:00018ee0       _BG_SiegeFindClassByName   30019ee0 f   bg_saga.obj
 0001:00018f30       _BG_SiegeFindClassIndexByName 30019f30 f   bg_saga.obj
 0001:00018f80       _BG_SiegeFindTeamForTheme  30019f80 f   bg_saga.obj
 0001:00018fe0       _BG_SiegeFindThemeForTeam  30019fe0 f   bg_saga.obj
 0001:00019000       _BG_SiegeGetPairedValue    3001a000 f   bg_saga.obj
 0001:00019260       _BG_SiegeGetValueGroup     3001a260 f   bg_saga.obj
 0001:00019570       _BG_SiegeLoadClasses       3001a570 f   bg_saga.obj
 0001:00019640       _BG_SiegeLoadTeams         3001a640 f   bg_saga.obj
 0001:00019970       _BG_SiegeParseClassFile    3001a970 f   bg_saga.obj
 0001:0001a250       _BG_SiegeSetTeamTheme      3001b250 f   bg_saga.obj
 0001:0001a280       _BG_SiegeStripTabs         3001b280 f   bg_saga.obj
 0001:0001a2c0       _BG_SiegeTranslateForcePowers 3001b2c0 f   bg_saga.obj
 0001:0001a490       _BG_SiegeTranslateGenericTable 3001b490 f   bg_saga.obj
 0001:0001a570       _PM_GroundSlideOkay        3001b570 f   bg_slidemove.obj
 0001:0001a5f0       _PM_SlideMove              3001b5f0 f   bg_slidemove.obj
 0001:0001ae50       _PM_StepSlideMove          3001be50 f   bg_slidemove.obj
 0001:0001b450       _PM_VehicleImpact          3001c450 f   bg_slidemove.obj
 0001:0001bad0       _AttachRidersGeneric       3001cad0 f   bg_vehicleLoad.obj
 0001:0001bb80       _BG_GetVehicleModelName    3001cb80 f   bg_vehicleLoad.obj
 0001:0001bbd0       _BG_GetVehicleSkinName     3001cbd0 f   bg_vehicleLoad.obj
 0001:0001c210       _BG_SetSharedVehicleFunctions 3001d210 f   bg_vehicleLoad.obj
 0001:0001c260       _BG_VehWeaponLoadParms     3001d260 f   bg_vehicleLoad.obj
 0001:0001c3e0       _BG_VehicleClampData       3001d3e0 f   bg_vehicleLoad.obj
 0001:0001c480       _BG_VehicleGetIndex        3001d480 f   bg_vehicleLoad.obj
 0001:0001c490       _BG_VehicleLoadParms       3001d490 f   bg_vehicleLoad.obj
 0001:0001c750       _VEH_LoadVehWeapon         3001d750 f   bg_vehicleLoad.obj
 0001:0001c940       _VEH_LoadVehicle           3001d940 f   bg_vehicleLoad.obj
 0001:0001d2a0       _VEH_VehWeaponIndexForName 3001e2a0 f   bg_vehicleLoad.obj
 0001:0001d340       _VEH_VehicleIndexForName   3001e340 f   bg_vehicleLoad.obj
 0001:0001d3e0       _BG_FighterUpdate          3001e3e0 f   FighterNPC.obj
 0001:0001d780       _FighterIsLanded           3001e780 f   FighterNPC.obj
 0001:0001d7d0       _FighterIsLanding          3001e7d0 f   FighterNPC.obj
 0001:0001d910       _FighterOverValidLandingSurface 3001e910 f   FighterNPC.obj
 0001:0001d950       _FighterPitchAdjust        3001e950 f   FighterNPC.obj
 0001:0001dad0       _FighterPitchClamp         3001ead0 f   FighterNPC.obj
 0001:0001dcf0       _FighterYawAdjust          3001ecf0 f   FighterNPC.obj
 0001:0001de80       _G_CreateFighterNPC        3001ee80 f   FighterNPC.obj
 0001:0001de80       _G_CreateSpeederNPC        3001ee80 f   SpeederNPC.obj
 0001:0001de80       _G_CreateWalkerNPC         3001ee80 f   WalkerNPC.obj
 0001:0001de80       _G_CreateAnimalNPC         3001ee80 f   AnimalNPC.obj
 0001:0001ded0       _G_SetFighterVehicleFunctions 3001eed0 f   FighterNPC.obj
 0001:0001f260       _AngleDelta                30020260 f   q_math.obj
 0001:0001f2c0       _AngleMod                  300202c0 f   q_math.obj
 0001:0001f2c0       _AngleNormalize360         300202c0 f   q_math.obj
 0001:0001f300       _AngleNormalize180         30020300 f   q_math.obj
 0001:0001f360       _AngleSubtract             30020360 f   q_math.obj
 0001:0001f3e0       _AngleVectors              300203e0 f   q_math.obj
 0001:0001f5a0       _AnglesSubtract            300205a0 f   q_math.obj
 0001:0001f6f0       _AnglesToAxis              300206f0 f   q_math.obj
 0001:0001f750       _AxisClear                 30020750 f   q_math.obj
 0001:0001f7a0       _AxisCopy                  300207a0 f   q_math.obj
 0001:0001f7e0       _ByteToDir                 300207e0 f   q_math.obj
 0001:0001f840       _LerpAngle                 30020840 f   q_math.obj
 0001:0001f8a0       _MatrixMultiply            300208a0 f   q_math.obj
 0001:0001fa30       _PerpendicularVector       30020a30 f   q_math.obj
 0001:0001fbe0       _Q_fabs                    30020be0 f   q_math.obj
 0001:0001fbf0       _Q_random                  30020bf0 f   q_math.obj
 0001:0001fc20       _RotateAroundDirection     30020c20 f   q_math.obj
 0001:0001fce0       _RotatePointAroundVector   30020ce0 f   q_math.obj
 0001:000200d0       _VectorNormalize           300210d0 f   q_math.obj
 0001:00020180       _VectorNormalize2          30021180 f   q_math.obj
 0001:00020230       _flrand                    30021230 f   q_math.obj
 0001:00020290       _vectoangles               30021290 f   q_math.obj
 0001:00020410       _COM_BeginParseSession     30021410 f   q_shared.obj
 0001:00020440       _COM_Parse                 30021440 f   q_shared.obj
 0001:00020460       _COM_ParseExt              30021460 f   q_shared.obj
 0001:000205d0       _COM_ParseFloat            300215d0 f   q_shared.obj
 0001:00020610       _COM_ParseInt              30021610 f   q_shared.obj
 0001:00020650       _COM_ParseString           30021650 f   q_shared.obj
 0001:00020690       _COM_StripExtension        30021690 f   q_shared.obj
 0001:000206c0       _Com_sprintf               300216c0 f   q_shared.obj
 0001:00020780       _GetIDForString            30021780 f   q_shared.obj
 0001:000207d0       _GetStringForID            300217d0 f   q_shared.obj
 0001:00020810       _Info_ValueForKey          30021810 f   q_shared.obj
 0001:00020900       _Q_CleanStr                30021900 f   q_shared.obj
 0001:00020950       _Q_irand                   30021950 f   q_shared.obj
 0001:00020970       _Q_strcat                  30021970 f   q_shared.obj
 0001:00020a00       _Q_stricmp                 30021a00 f   q_shared.obj
 0001:00020a30       _Q_stricmpn                30021a30 f   q_shared.obj
 0001:00020ab0       _Q_strncmp                 30021ab0 f   q_shared.obj
 0001:00020b00       _Q_strncpyz                30021b00 f   q_shared.obj
 0001:00020b60       _Q_strrchr                 30021b60 f   q_shared.obj
 0001:00020b90       _Q_strupr                  30021b90 f   q_shared.obj
 0001:00020bc0       _SkipBracedSection         30021bc0 f   q_shared.obj
 0001:00020d20       _SkipRestOfLine            30021d20 f   q_shared.obj
 0001:00020d50       ___local_stdio_printf_options 30021d50 f i q_shared.obj
 0001:00020d60       _va                        30021d60 f   q_shared.obj
 0001:00020db0       _G_SetSpeederVehicleFunctions 30021db0 f   SpeederNPC.obj
 0001:000210d0       _ProcessOrientCommands     300220d0 f   SpeederNPC.obj
 0001:00021210       _G_SetWalkerVehicleFunctions 30022210 f   WalkerNPC.obj
 0001:000214c0       _WalkerYawAdjust           300224c0 f   WalkerNPC.obj
 0001:00021590       _ItemParse_mouseExitText   30022590 f   ui_shared.obj
 0001:000215b0       _ItemParse_action          300225b0 f   ui_shared.obj
 0001:000215d0       _ItemParse_cvarTest        300225d0 f   ui_shared.obj
 0001:000215f0       _ItemParse_cvar            300225f0 f   ui_shared.obj
 0001:00021670       _ItemParse_font            30022670 f   ui_shared.obj
 0001:000216a0       _ItemParse_maxChars        300226a0 f   ui_shared.obj
 0001:000216f0       _Script_Show               300226f0 f   ui_shared.obj
 0001:00021740       _Script_Hide               30022740 f   ui_shared.obj
 0001:00021790       _ItemParse_maxPaintChars   30022790 f   ui_shared.obj
 0001:000217e0       _Script_FadeIn             300227e0 f   ui_shared.obj
 0001:00021830       _ItemParse_maxLineChars    30022830 f   ui_shared.obj
 0001:00021880       _Script_FadeOut            30022880 f   ui_shared.obj
 0001:000218d0       _ItemParse_lineHeight      300228d0 f   ui_shared.obj
 0001:00021920       _Script_Open               30022920 f   ui_shared.obj
 0001:00021960       _ItemParse_cvarFloat       30022960 f   ui_shared.obj
 0001:000219e0       _Script_Close              300229e0 f   ui_shared.obj
 0001:00021a40       _ItemParse_cvarStrList     30022a40 f   ui_shared.obj
 0001:00021b90       _ItemParse_cvarFloatList   30022b90 f   ui_shared.obj
 0001:00021cb0       _ItemParse_addColorRange   30022cb0 f   ui_shared.obj
 0001:00021d30       _Script_Defer              30022d30 f   ui_shared.obj
 0001:00021d80       _ItemParse_enableCvar      30022d80 f   ui_shared.obj
 0001:00021dc0       _Script_RunDeferred        30022dc0 f   ui_shared.obj
 0001:00021df0       _ItemParse_disableCvar     30022df0 f   ui_shared.obj
 0001:00021e30       _Script_Transition         30022e30 f   ui_shared.obj
 0001:00021ef0       _ItemParse_showCvar        30022ef0 f   ui_shared.obj
 0001:00021f30       _ItemParse_hideCvar        30022f30 f   ui_shared.obj
 0001:00021f70       _ItemParse_Appearance_slot 30022f70 f   ui_shared.obj
 0001:00021f90       _Script_Disable            30022f90 f   ui_shared.obj
 0001:00022030       _Script_Scale              30023030 f   ui_shared.obj
 0001:00022190       _Script_Orbit              30023190 f   ui_shared.obj
 0001:000222b0       _Script_SetFocus           300232b0 f   ui_shared.obj
 0001:00022360       _Script_SetPlayerModel     30023360 f   ui_shared.obj
 0001:000223b0       _Script_Transition2        300233b0 f   ui_shared.obj
 0001:00022480       _Script_SetCvar            30023480 f   ui_shared.obj
 0001:00022500       _Script_SetCvarToCvar      30023500 f   ui_shared.obj
 0001:000225b0       _Script_Exec               300235b0 f   ui_shared.obj
 0001:00022610       _Script_Play               30023610 f   ui_shared.obj
 0001:00022670       _Script_playLooped         30023670 f   ui_shared.obj
 0001:000226e0       _ItemParse_name            300236e0 f   ui_shared.obj
 0001:00022700       _ItemParse_focusSound      30023700 f   ui_shared.obj
 0001:00022750       _ItemParse_text            30023750 f   ui_shared.obj
 0001:00022770       _ItemParse_descText        30023770 f   ui_shared.obj
 0001:00022790       _MenuParse_soundLoop       30023790 f   ui_shared.obj
 0001:00022790       _ItemParse_text2           30023790 f   ui_shared.obj
 0001:000227b0       _ItemParse_text2alignx     300237b0 f   ui_shared.obj
 0001:000227d0       _ItemParse_text2aligny     300237d0 f   ui_shared.obj
 0001:000227f0       _MenuParse_font            300237f0 f   ui_shared.obj
 0001:00022850       _ItemParse_group           30023850 f   ui_shared.obj
 0001:00022870       _MenuParse_name            30023870 f   ui_shared.obj
 0001:000228b0       _MenuParse_fullscreen      300238b0 f   ui_shared.obj
 0001:000228d0       _MenuParse_rect            300238d0 f   ui_shared.obj
 0001:00022930       _MenuParse_style           30023930 f   ui_shared.obj
 0001:00022970       _ItemParse_asset_model     30023970 f   ui_shared.obj
 0001:000229a0       _MenuParse_onOpen          300239a0 f   ui_shared.obj
 0001:000229c0       _MenuParse_onClose         300239c0 f   ui_shared.obj
 0001:000229e0       _ItemParse_asset_shader    300239e0 f   ui_shared.obj
 0001:00022a30       _ItemParse_model_origin    30023a30 f   ui_shared.obj
 0001:00022a90       _MenuParse_onAccept        30023a90 f   ui_shared.obj
 0001:00022ab0       _MenuParse_onESC           30023ab0 f   ui_shared.obj
 0001:00022ad0       _MenuParse_border          30023ad0 f   ui_shared.obj
 0001:00022ad0       _ItemParse_border          30023ad0 f   ui_shared.obj
 0001:00022af0       _ItemParse_bordersize      30023af0 f   ui_shared.obj
 0001:00022af0       _MenuParse_borderSize      30023af0 f   ui_shared.obj
 0001:00022b10       _ItemParse_model_rotation  30023b10 f   ui_shared.obj
 0001:00022b40       _MenuParse_backcolor       30023b40 f   ui_shared.obj
 0001:00022bf0       _ItemParse_model_angle     30023bf0 f   ui_shared.obj
 0001:00022c20       _ItemParse_model_g2mins    30023c20 f   ui_shared.obj
 0001:00022c80       _MenuParse_descAlignment   30023c80 f   ui_shared.obj
 0001:00022cc0       _ItemParse_model_g2maxs    30023cc0 f   ui_shared.obj
 0001:00022d20       _MenuParse_descX           30023d20 f   ui_shared.obj
 0001:00022d40       _ItemParse_model_g2scale   30023d40 f   ui_shared.obj
 0001:00022da0       _MenuParse_descY           30023da0 f   ui_shared.obj
 0001:00022dc0       _MenuParse_descScale       30023dc0 f   ui_shared.obj
 0001:00022de0       _ItemParse_model_g2skin    30023de0 f   ui_shared.obj
 0001:00022e40       _MenuParse_descColor       30023e40 f   ui_shared.obj
 0001:00022f00       _ItemParse_model_g2anim    30023f00 f   ui_shared.obj
 0001:00022fa0       _MenuParse_forecolor       30023fa0 f   ui_shared.obj
 0001:00023090       _MenuParse_bordercolor     30024090 f   ui_shared.obj
 0001:00023150       _MenuParse_focuscolor      30024150 f   ui_shared.obj
 0001:00023210       _ItemParse_rectcvar        30024210 f   ui_shared.obj
 0001:00023340       _MenuParse_disablecolor    30024340 f   ui_shared.obj
 0001:00023400       _ItemParse_rect            30024400 f   ui_shared.obj
 0001:00023460       _ItemParse_flag            30024460 f   ui_shared.obj
 0001:00023500       _ItemParse_style           30024500 f   ui_shared.obj
 0001:00023540       _ItemParse_decoration      30024540 f   ui_shared.obj
 0001:00023560       _ItemParse_notselectable   30024560 f   ui_shared.obj
 0001:000235a0       _MenuParse_ownerdrawFlag   300245a0 f   ui_shared.obj
 0001:000235a0       _ItemParse_ownerdrawFlag   300245a0 f   ui_shared.obj
 0001:000235d0       _ItemParse_scrollhidden    300245d0 f   ui_shared.obj
 0001:00023610       _MenuParse_ownerdraw       30024610 f   ui_shared.obj
 0001:00023630       _ItemParse_wrapped         30024630 f   ui_shared.obj
 0001:00023650       _MenuParse_popup           30024650 f   ui_shared.obj
 0001:00023670       _ItemParse_autowrapped     30024670 f   ui_shared.obj
 0001:00023690       _MenuParse_outOfBounds     30024690 f   ui_shared.obj
 0001:000236b0       _ItemParse_horizontalscroll 300246b0 f   ui_shared.obj
 0001:000236d0       _ItemParse_type            300246d0 f   ui_shared.obj
 0001:00023710       _Script_SetColor           30024710 f   ui_shared.obj
 0001:000237f0       _ItemParse_elementwidth    300247f0 f   ui_shared.obj
 0001:000237f0       _ItemParse_model_fovx      300247f0 f   ui_shared.obj
 0001:00023820       _MenuParse_fadeClamp       30024820 f   ui_shared.obj
 0001:00023840       _ItemParse_elementheight   30024840 f   ui_shared.obj
 0001:00023840       _ItemParse_model_fovy      30024840 f   ui_shared.obj
 0001:00023870       _ItemParse_textalignx      30024870 f   ui_shared.obj
 0001:00023870       _MenuParse_fadeAmount      30024870 f   ui_shared.obj
 0001:00023890       _ItemParse_special         30024890 f   ui_shared.obj
 0001:00023890       _ItemParse_feeder          30024890 f   ui_shared.obj
 0001:000238b0       _MenuParse_fadeCycle       300248b0 f   ui_shared.obj
 0001:000238b0       _ItemParse_align           300248b0 f   ui_shared.obj
 0001:000238d0       _Script_SetAsset           300248d0 f   ui_shared.obj
 0001:00023900       _ItemParse_elementtype     30024900 f   ui_shared.obj
 0001:00023940       _MenuParse_itemDef         30024940 f   ui_shared.obj
 0001:00023a10       _Script_SetBackground      30024a10 f   ui_shared.obj
 0001:00023a60       _ItemParse_columns         30024a60 f   ui_shared.obj
 0001:00023b20       _Script_SetItemRectCvar    30024b20 f   ui_shared.obj
 0001:00023d00       _MenuParse_appearanceIncrement 30024d00 f   ui_shared.obj
 0001:00023d20       _Script_SetItemBackground  30024d20 f   ui_shared.obj
 0001:00023da0       _Script_SetItemText        30024da0 f   ui_shared.obj
 0001:00023e20       _ItemParse_visible         30024e20 f   ui_shared.obj
 0001:00023e20       _MenuParse_visible         30024e20 f   ui_shared.obj
 0001:00023e60       _ItemParse_ownerdraw       30024e60 f   ui_shared.obj
 0001:00023e90       _ItemParse_isCharacter     30024e90 f   ui_shared.obj
 0001:00023ee0       _Script_SetTeamColor       30024ee0 f   ui_shared.obj
 0001:00023f20       _ItemParse_textalign       30024f20 f   ui_shared.obj
 0001:00023f60       _Script_SetItemColor       30024f60 f   ui_shared.obj
 0001:000240d0       _ItemParse_textaligny      300250d0 f   ui_shared.obj
 0001:000240f0       _ItemParse_textscale       300250f0 f   ui_shared.obj
 0001:00024110       _ItemParse_textstyle       30025110 f   ui_shared.obj
 0001:00024130       _ItemParse_invertyesno     30025130 f   ui_shared.obj
 0001:00024150       _Script_SetItemColorCvar   30025150 f   ui_shared.obj
 0001:000243a0       _ItemParse_xoffset         300253a0 f   ui_shared.obj
 0001:000243c0       _ItemParse_backcolor       300253c0 f   ui_shared.obj
 0001:00024470       _ItemParse_forecolor       30025470 f   ui_shared.obj
 0001:00024560       _ItemParse_bordercolor     30025560 f   ui_shared.obj
 0001:00024620       _ItemParse_outlinecolor    30025620 f   ui_shared.obj
 0001:00024620       _MenuParse_outlinecolor    30025620 f   ui_shared.obj
 0001:00024640       _Script_SetItemRect        30025640 f   ui_shared.obj
 0001:00024710       _MenuParse_background      30025710 f   ui_shared.obj
 0001:00024710       _ItemParse_background      30025710 f   ui_shared.obj
 0001:00024760       _ItemParse_cinematic       30025760 f   ui_shared.obj
 0001:00024760       _MenuParse_cinematic       30025760 f   ui_shared.obj
 0001:00024780       _ItemParse_doubleClick     30025780 f   ui_shared.obj
 0001:000247c0       _ItemParse_onFocus         300257c0 f   ui_shared.obj
 0001:000247e0       _ItemParse_leaveFocus      300257e0 f   ui_shared.obj
 0001:00024800       _ItemParse_mouseEnter      30025800 f   ui_shared.obj
 0001:00024820       _ItemParse_mouseExit       30025820 f   ui_shared.obj
 0001:00024840       _ItemParse_mouseEnterText  30025840 f   ui_shared.obj
 0001:00024860       _BindingIDFromName         30025860 f   ui_shared.obj
 0001:000248a0       _Color_Parse               300258a0 f   ui_shared.obj
 0001:000248f0       _Controls_GetConfig        300258f0 f   ui_shared.obj
 0001:000249a0       _Controls_SetConfig        300259a0 f   ui_shared.obj
 0001:000249f0       _Display_CaptureItem       300259f0 f   ui_shared.obj
 0001:00024b60       _Display_CursorType        30025b60 f   ui_shared.obj
 0001:00024bf0       _Display_HandleKey         30025bf0 f   ui_shared.obj
 0001:00024c20       _Display_MouseMove         30025c20 f   ui_shared.obj
 0001:00024d20       _Display_VisibleMenuCount  30025d20 f   ui_shared.obj
 0001:00024e70       _Float_Parse               30025e70 f   ui_shared.obj
 0001:00024eb0       _Init_Display              30025eb0 f   ui_shared.obj
 0001:00024ec0       _Int_Parse                 30025ec0 f   ui_shared.obj
 0001:00024f00       _Item_Action               30025f00 f   ui_shared.obj
 0001:00024f20       _Item_Bind_HandleKey       30025f20 f   ui_shared.obj
 0001:000251f0       _Item_EnableShowViaCvar    300261f0 f   ui_shared.obj
 0001:00025310       _Item_HandleAccept         30026310 f   ui_shared.obj
 0001:00025340       _Item_HandleKey            30026340 f   ui_shared.obj
 0001:000254a0       _Item_Init                 300264a0 f   ui_shared.obj
 0001:00025500       _Item_ListBox_HandleKey    30026500 f   ui_shared.obj
 0001:00025970       _Item_ListBox_MouseEnter   30026970 f   ui_shared.obj
 0001:00025b50       _Item_ListBox_OverLB       30026b50 f   ui_shared.obj
 0001:00025fb0       _Item_ListBox_ThumbPosition 30026fb0 f   ui_shared.obj
 0001:000260e0       _Item_MouseEnter           300270e0 f   ui_shared.obj
 0001:00026280       _Item_MouseLeave           30027280 f   ui_shared.obj
 0001:000262c0       _Item_Multi_FindCvarByValue 300272c0 f   ui_shared.obj
 0001:000263a0       _Item_Multi_HandleKey      300273a0 f   ui_shared.obj
 0001:00026550       _Item_OwnerDraw_HandleKey  30027550 f   ui_shared.obj
 0001:00026600       _Item_Parse                30027600 f   ui_shared.obj
 0001:00026750       _Item_RunScript            30027750 f   ui_shared.obj
 0001:00026840       _Item_SetFocus             30027840 f   ui_shared.obj
 0001:000269e0       _Item_SetScreenCoords      300279e0 f   ui_shared.obj
 0001:00026a80       _Item_SetupKeywordHash     30027a80 f   ui_shared.obj
 0001:00026b30       _Item_Slider_HandleKey     30027b30 f   ui_shared.obj
 0001:00026ca0       _Item_Slider_OverSlider    30027ca0 f   ui_shared.obj
 0001:00026d10       _Item_Slider_ThumbPosition 30027d10 f   ui_shared.obj
 0001:00026dd0       _Item_StartCapture         30027dd0 f   ui_shared.obj
 0001:00027050       _Item_TextField_HandleKey  30028050 f   ui_shared.obj
 0001:00027710       _Item_TextScroll_HandleKey 30028710 f   ui_shared.obj
 0001:00027880       _Item_TextScroll_OverLB    30028880 f   ui_shared.obj
 0001:00027a70       _Item_ValidateTypeData     30028a70 f   ui_shared.obj
 0001:00027b70       _Item_YesNo_HandleKey      30028b70 f   ui_shared.obj
 0001:00027c60       _Leaving_EditField         30028c60 f   ui_shared.obj
 0001:00027c90       _Menu_ClearFocus           30028c90 f   ui_shared.obj
 0001:00027de0       _Menu_FadeItemByName       30028de0 f   ui_shared.obj
 0001:00027e40       _Menu_FindItemByName       30028e40 f   ui_shared.obj
 0001:00027ea0       _Menu_GetFocused           30028ea0 f   ui_shared.obj
 0001:00027ee0       _Menu_GetMatchingItemByNumber 30028ee0 f   ui_shared.obj
 0001:00027f60       _Menu_HandleKey            30028f60 f   ui_shared.obj
 0001:00028480       _Menu_HandleMouseMove      30029480 f   ui_shared.obj
 0001:00028680       _Menu_Init                 30029680 f   ui_shared.obj
 0001:00028710       _Menu_ItemDisable          30029710 f   ui_shared.obj
 0001:00028760       _Menu_ItemsMatchingGroup   30029760 f   ui_shared.obj
 0001:000287e0       _Menu_New                  300297e0 f   ui_shared.obj
 0001:00028850       _Menu_OrbitItemByName      30029850 f   ui_shared.obj
 0001:00028a20       _Menu_Parse                30029a20 f   ui_shared.obj
 0001:00028b70       _Menu_Reset                30029b70 f   ui_shared.obj
 0001:00028b80       _Menu_ScrollFeeder         30029b80 f   ui_shared.obj
 0001:00028ff0       _Menu_SetFeederSelection   30029ff0 f   ui_shared.obj
 0001:000290c0       _Menu_SetItemBackground    3002a0c0 f   ui_shared.obj
 0001:00029120       _Menu_SetItemText          3002a120 f   ui_shared.obj
 0001:000291e0       _Menu_SetNextCursorItem    3002a1e0 f   ui_shared.obj
 0001:000292e0       _Menu_SetPrevCursorItem    3002a2e0 f   ui_shared.obj
 0001:000293e0       _Menu_SetupKeywordHash     3002a3e0 f   ui_shared.obj
 0001:00029490       _Menu_ShowItemByName       3002a490 f   ui_shared.obj
 0001:00029500       _Menu_TransitionItemByName 3002a500 f   ui_shared.obj
 0001:00029610       _Menu_UpdatePosition       3002a610 f   ui_shared.obj
 0001:00029720       _Menus_ActivateByName      3002a720 f   ui_shared.obj
 0001:00029870       _Menus_CloseAll            3002a870 f   ui_shared.obj
 0001:00029910       _Menus_CloseByName         3002a910 f   ui_shared.obj
 0001:00029990       _Menus_FindByName          3002a990 f   ui_shared.obj
 0001:000299e0       _Menus_HandleOOBClick      3002a9e0 f   ui_shared.obj
 0001:00029b90       _PC_Color_Parse            3002ab90 f   ui_shared.obj
 0001:00029c30       _PC_Float_Parse            3002ac30 f   ui_shared.obj
 0001:00029cd0       _PC_Int_Parse              3002acd0 f   ui_shared.obj
 0001:00029d60       _PC_Script_Parse           3002ad60 f   ui_shared.obj
 0001:00029e70       _PC_SourceError            3002ae70 f   ui_shared.obj
 0001:00029ee0       _PC_String_Parse           3002aee0 f   ui_shared.obj
 0001:00029f50       _ParseRect                 3002af50 f   ui_shared.obj
 0001:00029fb0       _Rect_ContainsPoint        3002afb0 f   ui_shared.obj
 0001:0002a000       _Rect_Parse                3002b000 f   ui_shared.obj
 0001:0002a6b0       _String_Alloc              3002b6b0 f   ui_shared.obj
 0001:0002a7c0       _String_Init               3002b7c0 f   ui_shared.obj
 0001:0002a810       _String_Parse              3002b810 f   ui_shared.obj
 0001:0002a850       _UI_Alloc                  3002b850 f   ui_shared.obj
 0001:0002a8b0       _UI_CleanupGhoul2          3002b8b0 f   ui_shared.obj
 0001:0002a940       _CG_TargetCommand_f        3002b940 f   cg_consolecmds.obj
 0001:0002ae00       _CG_ConsoleCommand         3002be00 f   cg_consolecmds.obj
 0001:0002ae50       _CG_InitConsoleCommands    3002be50 f   cg_consolecmds.obj
 0001:0002b050       _CG_AddLagometerFrameInfo  3002c050 f   cg_draw.obj
 0001:0002b080       _CG_AddLagometerSnapshotInfo 3002c080 f   cg_draw.obj
 0001:0002b0e0       _CG_CalcEWebMuzzlePoint    3002c0e0 f   cg_draw.obj
 0001:0002b210       _CG_CalcVehicleMuzzlePoint 3002c210 f   cg_draw.obj
 0001:0002b400       _CG_CenterPrint            3002c400 f   cg_draw.obj
 0001:0002b470       _CG_ChatBox_AddString      3002c470 f   cg_draw.obj
 0001:0002b5e0       _CG_ChatBox_ArrayInsert    3002c5e0 f   cg_draw.obj
 0001:0002b790       _CG_ChatBox_StrInsert      3002c790 f   cg_draw.obj
 0001:0002b810       _CG_CheckTargetVehicle     3002c810 f   cg_draw.obj
 0001:0002cae0       _CG_Draw3DModel            3002dae0 f   cg_draw.obj
 0001:0002cc20       _CG_DrawActive             3002dc20 f   cg_draw.obj
 0001:0002d100       _CG_DrawArmor              3002e100 f   cg_draw.obj
 0001:0002d2c0       _CG_DrawBracketedEntities  3002e2c0 f   cg_draw.obj
 0001:0002d930       _CG_DrawCloakFuel          3002e930 f   cg_draw.obj
 0001:0002e770       _CG_DrawDuelistHealth      3002f770 f   cg_draw.obj
 0001:0002e830       _CG_DrawEWebHealth         3002f830 f   cg_draw.obj
 0001:0002eee0       _CG_DrawFlagModel          3002fee0 f   cg_draw.obj
 0001:0002f0c0       _CG_DrawFlagStatus         300300c0 f   cg_draw.obj
 0001:0002f2f0       _CG_DrawForcePower         300302f0 f   cg_draw.obj
 0001:0002f490       _CG_DrawForceSelect        30030490 f   cg_draw.obj
 0001:0002f770       _CG_DrawGenericTimerBar    30030770 f   cg_draw.obj
 0001:0002f8a0       _CG_DrawHUD                300308a0 f   cg_draw.obj
 0001:0002fc90       _CG_DrawHaqrBar            30030c90 f   cg_draw.obj
 0001:0002fe50       _CG_DrawHealth             30030e50 f   cg_draw.obj
 0001:0002ff70       _CG_DrawHealthBar          30030f70 f   cg_draw.obj
 0001:00030100       _CG_DrawHealthBarRough     30031100 f   cg_draw.obj
 0001:00030310       _CG_DrawInvenSelect        30031310 f   cg_draw.obj
 0001:000306d0       _CG_DrawJetpackFuel        300316d0 f   cg_draw.obj
 0001:00030ed0       _CG_DrawRadar              30031ed0 f   cg_draw.obj
 0001:000327a0       _CG_DrawSiegeInfo          300337a0 f   cg_draw.obj
 0001:00032b20       _CG_DrawSiegeMessage       30033b20 f   cg_draw.obj
 0001:00032b60       _CG_DrawSiegeMessageNonMenu 30033b60 f   cg_draw.obj
 0001:00033230       _CG_DrawTeamBackground     30034230 f   cg_draw.obj
 0001:00033a30       _CG_DrawVehicleAmmo        30034a30 f   cg_draw.obj
 0001:00033ba0       _CG_DrawVehicleAmmoLower   30034ba0 f   cg_draw.obj
 0001:00033d10       _CG_DrawVehicleAmmoUpper   30034d10 f   cg_draw.obj
 0001:00033e80       _CG_DrawVehicleArmor       30034e80 f   cg_draw.obj
 0001:00033fb0       _CG_DrawVehicleDamage      30034fb0 f   cg_draw.obj
 0001:000340f0       _CG_DrawVehicleDamageHUD   300350f0 f   cg_draw.obj
 0001:000343e0       _CG_DrawVehicleHud         300353e0 f   cg_draw.obj
 0001:000345b0       _CG_DrawVehicleShields     300355b0 f   cg_draw.obj
 0001:000346e0       _CG_DrawVehicleSpeed       300356e0 f   cg_draw.obj
 0001:00034860       _CG_DrawVehicleTurboRecharge 30035860 f   cg_draw.obj
 0001:00034950       _CG_DrawVehicleWeaponsLinked 30035950 f   cg_draw.obj
 0001:000359c0       _CG_InATST                 300369c0 f   cg_draw.obj
 0001:00035a00       _CG_InFighter              30036a00 f   cg_draw.obj
 0001:00035a40       _CG_SaberClashFlare        30036a40 f   cg_draw.obj
 0001:00035c40       _CG_SanitizeString         30036c40 f   cg_draw.obj
 0001:00036360       _CG_Text_Height            30037360 f   cg_draw.obj
 0001:000363b0       _CG_Text_Paint             300373b0 f   cg_draw.obj
 0001:00036460       _CG_Text_Width             30037460 f   cg_draw.obj
 0001:000364b0       _CG_WorldCoordToScreenCoord 300374b0 f   cg_draw.obj
 0001:000364f0       _CG_WorldCoordToScreenCoordFloat 300374f0 f   cg_draw.obj
 0001:00036630       _sprintf                   30037630 f i cg_draw.obj
 0001:00036670       _CG_ColorForGivenHealth    30037670 f   cg_drawtools.obj
 0001:00036700       _CG_ColorForHealth         30037700 f   cg_drawtools.obj
 0001:00036780       _CG_DrawBigString          30037780 f   cg_drawtools.obj
 0001:000367d0       _CG_DrawNumField           300377d0 f   cg_drawtools.obj
 0001:00036af0       _CG_DrawPic                30037af0 f   cg_drawtools.obj
 0001:00036b50       _CG_DrawRect               30037b50 f   cg_drawtools.obj
 0001:00036be0       _CG_DrawRotatePic          30037be0 f   cg_drawtools.obj
 0001:00036c50       _CG_DrawRotatePic2         30037c50 f   cg_drawtools.obj
 0001:00036cc0       _CG_DrawSides              30037cc0 f   cg_drawtools.obj
 0001:00036da0       _CG_DrawSmallString        30037da0 f   cg_drawtools.obj
 0001:00036df0       _CG_DrawStringExt          30037df0 f   cg_drawtools.obj
 0001:000370e0       _CG_DrawStrlen             300380e0 f   cg_drawtools.obj
 0001:00037120       _CG_DrawTopBottom          30038120 f   cg_drawtools.obj
 0001:00037200       _CG_FadeColor              30038200 f   cg_drawtools.obj
 0001:00037280       _CG_FillRect               30038280 f   cg_drawtools.obj
 0001:00037300       _CG_GetColorForHealth      30038300 f   cg_drawtools.obj
 0001:000373e0       _CG_TileClear              300383e0 f   cg_drawtools.obj
 0001:00037690       _UI_DrawProportionalString 30038690 f   cg_drawtools.obj
 0001:00037740       _UI_DrawScaledProportionalString 30038740 f   cg_drawtools.obj
 0001:000377f0       _CGDEBUG_SaberColor        300387f0 f   cg_effects.obj
 0001:00037fb0       _CG_Chunks                 30038fb0 f   cg_effects.obj
 0001:00038680       _CG_DoGlass                30039680 f   cg_effects.obj
 0001:00038cd0       _CG_GlassShatter           30039cd0 f   cg_effects.obj
 0001:00038d30       _CG_InitGlass              30039d30 f   cg_effects.obj
 0001:00038e00       _CG_MiscModelExplosion     30039e00 f   cg_effects.obj
 0001:00039050       _CG_ScorePlum              3003a050 f   cg_effects.obj
 0001:000391b0       _CG_SmokePuff              3003a1b0 f   cg_effects.obj
 0001:00039350       _CG_TestLine               3003a350 f   cg_effects.obj
 0001:00039490       _CG_AddBracketedEnt        3003a490 f   cg_ents.obj
 0001:00039650       _CG_AddPacketEntities      3003a650 f   cg_ents.obj
 0001:00039990       _CG_AddRadarEnt            3003a990 f   cg_ents.obj
 0001:000399c0       _CG_AdjustPositionForMover 3003a9c0 f   cg_ents.obj
 0001:00039ab0       _CG_Beam                   3003aab0 f   cg_ents.obj
 0001:00039bc0       _CG_CalcEntityLerpPositions 3003abc0 f   cg_ents.obj
 0001:00039cf0       _CG_Cube                   3003acf0 f   cg_ents.obj
 0001:00039ea0       _CG_Disintegration         3003aea0 f   cg_ents.obj
 0001:0003c2c0       _CG_GreyItem               3003d2c0 f   cg_ents.obj
 0001:0003cfd0       _CG_ManualEntityRender     3003dfd0 f   cg_ents.obj
 0001:0003daf0       _CG_PlayDoorLoopSound      3003eaf0 f   cg_ents.obj
 0001:0003dbd0       _CG_PlayDoorSound          3003ebd0 f   cg_ents.obj
 0001:0003de20       _CG_PositionEntityOnTag    3003ee20 f   cg_ents.obj
 0001:0003df60       _CG_PositionRotatedEntityOnTag 3003ef60 f   cg_ents.obj
 0001:0003e0a0       _CG_ROFF_NotetrackCallback 3003f0a0 f   cg_ents.obj
 0001:0003e600       _CG_S_AddLoopingSound      3003f600 f   cg_ents.obj
 0001:0003e6d0       _CG_S_AddRealLoopingSound  3003f6d0 f   cg_ents.obj
 0001:0003e6e0       _CG_S_StopLoopingSound     3003f6e0 f   cg_ents.obj
 0001:0003e770       _CG_S_UpdateLoopingSounds  3003f770 f   cg_ents.obj
 0001:0003e840       _CG_SetEntitySoundPosition 3003f840 f   cg_ents.obj
 0001:0003e8d0       _CG_SetGhoul2Info          3003f8d0 f   cg_ents.obj
 0001:0003ea00       _CG_Special                3003fa00 f   cg_ents.obj
 0001:0003eb00       _FX_AddOrientedLine        3003fb00 f   cg_ents.obj
 0001:0003ec50       _FX_DrawPortableShield     3003fc50 f   cg_ents.obj
 0001:0003edf0       _ScaleModelAxis            3003fdf0 f   cg_ents.obj
 0001:0003eef0       _CG_CalcVehMuzzle          3003fef0 f   cg_event.obj
 0001:0003f010       _CG_CheckEvents            30040010 f   cg_event.obj
 0001:0003f0c0       _CG_EntityEvent            300400c0 f   cg_event.obj
 0001:00042960       _CG_G2MarkEvent            30043960 f   cg_event.obj
 0001:00042bc0       _CG_GetCTFMessageEvent     30043bc0 f   cg_event.obj
 0001:00042c30       _CG_GetStringForVoiceSound 30043c30 f   cg_event.obj
 0001:00042c80       _CG_InClientBitflags       30043c80 f   cg_event.obj
 0001:00042e90       _CG_LocalTimingBar         30043e90 f   cg_event.obj
 0001:000434f0       _CG_PainEvent              300444f0 f   cg_event.obj
 0001:00043560       _CG_PlaceString            30044560 f   cg_event.obj
 0001:000436f0       _CG_PrintCTFMessage        300446f0 f   cg_event.obj
 0001:000438a0       _CG_ReattachLimb           300448a0 f   cg_event.obj
 0001:00043900       _CG_ToggleBinoculars       30044900 f   cg_event.obj
 0001:00043a90       _CG_VehMuzzleFireFX        30044a90 f   cg_event.obj
 0001:00043bc0       _DoFall                    30044bc0 f   cg_event.obj
 0001:00043cf0       _CG_DrawInformation        30044cf0 f   cg_info.obj
 0001:00044630       _CG_LoadBar                30045630 f   cg_info.obj
 0001:00044730       _CG_LoadingClient          30045730 f   cg_info.obj
 0001:00044790       _CG_LoadingItem            30045790 f   cg_info.obj
 0001:00044800       _CG_LoadingString          30045800 f   cg_info.obj
 0001:00044820       _CG_ClearLightStyles       30045820 f   cg_light.obj
 0001:00044900       _CG_RunLightStyles         30045900 f   cg_light.obj
 0001:000449a0       _CG_SetLightstyle          300459a0 f   cg_light.obj
 0001:00044b20       _CG_AddFadeRGB             30045b20 f   cg_localents.obj
 0001:00044e20       _CG_AddFragment            30045e20 f   cg_localents.obj
 0001:00045030       _CG_AddLocalEntities       30046030 f   cg_localents.obj
 0001:00045310       _CG_AddOLine               30046310 f   cg_localents.obj
 0001:00045550       _CG_AddRefEntity           30046550 f   cg_localents.obj
 0001:000456c0       _CG_AddScorePlum           300466c0 f   cg_localents.obj
 0001:00045bb0       _CG_AllocLocalEntity       30046bb0 f   cg_localents.obj
 0001:00045c30       _CG_BloodTrail             30046c30 f   cg_localents.obj
 0001:00045d00       _CG_FragmentBounceMark     30046d00 f   cg_localents.obj
 0001:00045d30       _CG_FragmentBounceSound    30046d30 f   cg_localents.obj
 0001:00045dc0       _CG_FreeLocalEntity        30046dc0 f   cg_localents.obj
 0001:00045e00       _CG_InitLocalEntities      30046e00 f   cg_localents.obj
 0001:00045e60       _CG_ReflectVelocity        30046e60 f   cg_localents.obj
 0001:00045fa0       _BG_GetTime                30046fa0 f   cg_main.obj
 0001:00046050       _CG_Argv                   30047050 f   cg_main.obj
 0001:00046070       _CG_AssetCache             30047070 f   cg_main.obj
 0001:00046180       _CG_Asset_Parse            30047180 f   cg_main.obj
 0001:00046650       _CG_BuildSpectatorString   30047650 f   cg_main.obj
 0001:000466d0       _CG_ConfigString           300476d0 f   cg_main.obj
 0001:00046700       _CG_CreateModelFromSpawnEnt 30047700 f   cg_main.obj
 0001:00046920       _CG_CreateWeatherZoneFromSpawnEnt 30047920 f   cg_main.obj
 0001:00046950       _CG_CrosshairPlayer        30047950 f   cg_main.obj
 0001:00046c60       _CG_DestroyAllGhoul2       30047c60 f   cg_main.obj
 0001:00046d00       _CG_DrawMiscEnts           30047d00 f   cg_main.obj
 0001:00046e20       _CG_Error                  30047e20 f   cg_main.obj
 0001:000473e0       _CG_GetLocationString      300483e0 f   cg_main.obj
 0001:00047410       _CG_GetStringEdString      30048410 f   cg_main.obj
 0001:000474d0       _CG_Init                   300484d0 f   cg_main.obj
 0001:000479d0       _CG_LastAttacker           300489d0 f   cg_main.obj
 0001:000479f0       _CG_LoadHudMenu            300489f0 f   cg_main.obj
 0001:00047c20       _CG_LoadMenus              30048c20 f   cg_main.obj
 0001:00047d50       _CG_Load_Menu              30048d50 f   cg_main.obj
 0001:00047e90       _CG_MiscEnt                30048e90 f   cg_main.obj
 0001:00048030       _CG_NewString              30049030 f   cg_main.obj
 0001:000480e0       _CG_NextForcePower_f       300490e0 f   cg_main.obj
 0001:000481a0       _CG_NextInventory_f        300491a0 f   cg_main.obj
 0001:00048230       _CG_NoUseableForce         30049230 f   cg_main.obj
 0001:00048270       _CG_DeferMenuScript        30049270 f   cg_newDraw.obj
 0001:00048270       _ItemParse_isSaber2        30049270 f   ui_shared.obj
 0001:00048270       _ItemParse_isSaber         30049270 f   ui_shared.obj
 0001:00048370       _CG_ParseSiegeState        30049370 f   cg_main.obj
 0001:00048430       _CG_ParseSpawnVars         30049430 f   cg_main.obj
 0001:00048610       _CG_ParseWeatherEffect     30049610 f   cg_main.obj
 0001:00048650       _CG_PrevForcePower_f       30049650 f   cg_main.obj
 0001:00048710       _CG_PrevInventory_f        30049710 f   cg_main.obj
 0001:000487a0       _CG_Printf                 300497a0 f   cg_main.obj
 0001:00048970       _CG_RegisterCvars          30049970 f   cg_main.obj
 0001:0004aa90       _CG_SetScoreSelection      3004ba90 f   cg_main.obj
 0001:0004ab40       _CG_Shutdown               3004bb40 f   cg_main.obj
 0001:0004ab80       _CG_SiegeCountCvars        3004bb80 f   cg_main.obj
 0001:0004adc0       _CG_SpawnCGameEntFromVars  3004bdc0 f   cg_main.obj
 0001:0004af60       _CG_StartMusic             3004bf60 f   cg_main.obj
 0001:0004afe0       _CG_Text_PaintWithCursor   3004bfe0 f   cg_main.obj
 0001:0004b030       _CG_TransitionPermanent    3004c030 f   cg_main.obj
 0001:0004b0f0       _CG_UpdateCvars            3004c0f0 f   cg_main.obj
 0001:0004b460       _Com_Error                 3004c460 f   cg_main.obj
 0001:0004b4b0       _Com_Printf                3004c4b0 f   cg_main.obj
 0001:0004b500       _vmMain                    3004c500 f   cg_main.obj
 0001:0004b840       _CG_AddMarks               3004c840 f   cg_marks.obj
 0001:0004b9c0       _CG_AddParticleToScene     3004c9c0 f   cg_marks.obj
 0001:0004d650       _CG_AddParticles           3004e650 f   cg_marks.obj
 0001:0004d9d0       _CG_AllocMark              3004e9d0 f   cg_marks.obj
 0001:0004da60       _CG_ClearParticles         3004ea60 f   cg_marks.obj
 0001:0004daf0       _CG_ImpactMark             3004eaf0 f   cg_marks.obj
 0001:0004df60       _CG_InitMarkPolys          3004ef60 f   cg_marks.obj
 0001:0004dfc0       _CG_EventHandling          3004efc0 f   cg_newDraw.obj
 0001:0004dff0       _CG_GameTypeString         3004eff0 f   cg_newDraw.obj
 0001:0004e050       _CG_GetGameStatusText      3004f050 f   cg_newDraw.obj
 0001:0004e160       _CG_GetKillerText          3004f160 f   cg_newDraw.obj
 0001:0004e1a0       _CG_GetSelectedPlayer      3004f1a0 f   cg_newDraw.obj
 0001:0004e1c0       _CG_GetTeamColor           3004f1c0 f   cg_newDraw.obj
 0001:0004e230       _CG_GetValue               3004f230 f   cg_newDraw.obj
 0001:0004e3a0       _CG_KeyEvent               3004f3a0 f   cg_newDraw.obj
 0001:0004e450       _CG_MouseEvent             3004f450 f   cg_newDraw.obj
 0001:0004e520       _CG_OtherTeamHasFlag       3004f520 f   cg_newDraw.obj
 0001:0004e560       _CG_OwnerDrawVisible       3004f560 f   cg_newDraw.obj
 0001:0004e6a0       _CG_RunMenuScript          3004f6a0 f   cg_newDraw.obj
 0001:0004e6a0       _BG_ClearAnimsets          3004f6a0 f   bg_panimate.obj
 0001:0004e6a0       ___except_validate_context_record 3004f6a0 f   libvcruntime:jbcxrval.obj
 0001:0004e6a0       ___except_validate_jump_buffer 3004f6a0 f   libvcruntime:jbcxrval.obj
 0001:0004e6a0       _CG_OwnerDraw              3004f6a0 f   cg_newDraw.obj
 0001:0004e6a0       @_guard_check_icall_nop@4  3004f6a0 f   LIBCMT:guard_support.obj
 0001:0004e6b0       _CG_StatusHandle           3004f6b0 f   cg_newDraw.obj
 0001:0004e710       _CG_YourTeamHasFlag        3004f710 f   cg_newDraw.obj
 0001:0004e750       _CG_ActualLoadDeferredPlayers 3004f750 f   cg_players.obj
 0001:0004eac0       _CG_AddGhoul2Mark          3004fac0 f   cg_players.obj
 0001:0004ec80       _CG_AddRefEntityWithPowerups 3004fc80 f   cg_players.obj
 0001:0004ecd0       _CG_AddSaberBlade          3004fcd0 f   cg_players.obj
 0001:0004f8b0       _CG_CacheG2AnimInfo        300508b0 f   cg_players.obj
 0001:0004fa60       _CG_CheckThirdPersonAlpha  30050a60 f   cg_players.obj
 0001:0004fd10       _CG_CleanJetpackGhoul2     30050d10 f   cg_players.obj
 0001:0004ff70       _CG_CreateNPCClient        30050f70 f   cg_players.obj
 0001:0004ff90       _CG_CreateSaberMarks       30050f90 f   cg_players.obj
 0001:00050aa0       _CG_CustomSound            30051aa0 f   cg_players.obj
 0001:00050e20       _CG_DestroyNPCClient       30051e20 f   cg_players.obj
 0001:00050e40       _CG_DoSaber                30051e40 f   cg_players.obj
 0001:00051660       _CG_DrawPlayerShield       30052660 f   cg_players.obj
 0001:000517d0       _CG_DrawPlayerSphere       300527d0 f   cg_players.obj
 0001:000528f0       _CG_G2AnimEntModelLoad     300538f0 f   cg_players.obj
 0001:00052f40       _CG_G2Animated             30053f40 f   cg_players.obj
 0001:00053120       _CG_G2EvIndexForModel      30054120 f   cg_players.obj
 0001:00053620       _CG_G2PlayerHeadAnims      30054620 f   cg_players.obj
 0001:00053970       _CG_G2SaberEffects         30054970 f   cg_players.obj
 0001:00053aa0       _CG_G2ServerBoneAngles     30054aa0 f   cg_players.obj
 0001:00053dc0       _CG_G2SkelForModel         30054dc0 f   cg_players.obj
 0001:00053e20       _CG_G2TraceCollide         30054e20 f   cg_players.obj
 0001:00053f80       _CG_HandleAppendedSkin     30054f80 f   cg_players.obj
 0001:00054110       _CG_InitJetpackGhoul2      30055110 f   cg_players.obj
 0001:00054170       _CG_IsMindTricked          30055170 f   cg_players.obj
 0001:00054210       _CG_LoadCISounds           30055210 f   cg_players.obj
 0001:00054600       _CG_LoadClientInfo         30055600 f   cg_players.obj
 0001:00054920       _CG_LoadDeferredPlayers    30055920 f   cg_players.obj
 0001:00054930       _CG_NewClientInfo          30055930 f   cg_players.obj
 0001:00055410       _CG_ParseSurfsFile         30056410 f   cg_players.obj
 0001:000555d0       _CG_Player                 300565d0 f   cg_players.obj
 0001:00059b20       _CG_PlayerAnimEventDo      3005ab20 f   cg_players.obj
 0001:00059d20       _CG_PlayerAnimEvents       3005ad20 f   cg_players.obj
 0001:0005a640       _CG_PlayerHitFX            3005b640 f   cg_players.obj
 0001:0005aa30       _CG_PlayerShieldHit        3005ba30 f   cg_players.obj
 0001:0005ae20       _CG_RadiusForCent          3005be20 f   cg_players.obj
 0001:0005af20       _CG_RagDoll                3005bf20 f   cg_players.obj
 0001:0005c610       _CG_ResetPlayerEntity      3005d610 f   cg_players.obj
 0001:0005cc60       _CG_SaberCompWork          3005dc60 f   cg_players.obj
 0001:0005d870       _CG_ThereIsAMaster         3005e870 f   cg_players.obj
 0001:0005d8a0       _CG_TriggerAnimSounds      3005e8a0 f   cg_players.obj
 0001:0005da00       _CG_VehicleAttachDroidUnit 3005ea00 f   cg_players.obj
 0001:0005e3c0       _CG_VehicleShouldDrawShields 3005f3c0 f   cg_players.obj
 0001:0005e790       _CG_CheckLocalSounds       3005f790 f   cg_playerstate.obj
 0001:0005e960       _CG_CheckPlayerstateEvents 3005f960 f   cg_playerstate.obj
 0001:0005ea50       _CG_DamageFeedback         3005fa50 f   cg_playerstate.obj
 0001:0005eda0       _CG_Respawn                3005fda0 f   cg_playerstate.obj
 0001:0005edd0       _CG_TransitionPlayerState  3005fdd0 f   cg_playerstate.obj
 0001:0005eef0       _CG_BuildSolidList         3005fef0 f   cg_predict.obj
 0001:0005f4a0       _CG_G2Trace                300604a0 f   cg_predict.obj
 0001:0005f870       _CG_PmoveClientPointerUpdate 30060870 f   cg_predict.obj
 0001:0005f900       _CG_PointContents          30060900 f   cg_predict.obj
 0001:0005f980       _CG_PredictPlayerState     30060980 f   cg_predict.obj
 0001:00060dc0       _CG_Trace                  30061dc0 f   cg_predict.obj
 0001:00060e40       _CG_UsingEWeb              30061e40 f   cg_predict.obj
 0001:00060f20       _CG_InitSiegeMode          30061f20 f   cg_saga.obj
 0001:00061600       _CG_ParseSiegeExtendedData 30062600 f   cg_saga.obj
 0001:000617d0       _CG_ParseSiegeObjectiveStatus 300627d0 f   cg_saga.obj
 0001:00061a20       _CG_PrecachePlayersForSiegeTeam 30062a20 f   cg_saga.obj
 0001:00061b50       _CG_PrecacheSiegeObjectiveAssetsForTeam 30062b50 f   cg_saga.obj
 0001:00061d00       _CG_SetSiegeTimerCvar      30062d00 f   cg_saga.obj
 0001:00061d70       _CG_SiegeBriefingDisplay   30062d70 f   cg_saga.obj
 0001:00062220       _CG_SiegeGetObjectiveDescription 30063220 f   cg_saga.obj
 0001:000622c0       _CG_SiegeGetObjectiveFinal 300632c0 f   cg_saga.obj
 0001:00062400       _CG_SiegeObjectiveCompleted 30063400 f   cg_saga.obj
 0001:000625a0       _CG_SiegeRoundOver         300635a0 f   cg_saga.obj
 0001:00062c90       _CG_DrawOldScoreboard      30063c90 f   cg_scoreboard.obj
 0001:00063590       _CG_GetClassCount          30064590 f   cg_scoreboard.obj
 0001:000635f0       _CG_GetTeamCount           300645f0 f   cg_scoreboard.obj
 0001:00063640       _CG_GetTeamNonScoreCount   30064640 f   cg_scoreboard.obj
 0001:000639a0       _CG_CheckSVStringEdRef     300649a0 f   cg_servercmds.obj
 0001:00064060       _CG_ExecuteNewServerCommands 30065060 f   cg_servercmds.obj
 0001:000640a0       _CG_HandleNPCSounds        300650a0 f   cg_servercmds.obj
 0001:00064550       _CG_KillCEntityG2          30065550 f   cg_servercmds.obj
 0001:000646c0       _CG_KillCEntityInstances   300656c0 f   cg_servercmds.obj
 0001:00064b40       _CG_ParseServerinfo        30065b40 f   cg_servercmds.obj
 0001:00065000       _CG_PrecacheNPCSounds      30066000 f   cg_servercmds.obj
 0001:00065d40       _CG_SetConfigValues        30066d40 f   cg_servercmds.obj
 0001:00065e70       _CG_ShaderStateChanged     30066e70 f   cg_servercmds.obj
 0001:00065fe0       _SetCustomSoundForType     30066fe0 f   cg_servercmds.obj
 0001:00066080       _SetDuelistHealthsFromConfigString 30067080 f   cg_servercmds.obj
 0001:00066150       _CG_ProcessSnapshots       30067150 f   cg_snapshot.obj
 0001:000663a0       _CG_SetInitialSnapshot     300673a0 f   cg_snapshot.obj
 0001:00066800       _strap_G2API_AnimateG2Models 30067800 f   cg_strap.obj
 0001:00066810       _strap_G2API_GetBoltMatrix 30067810 f   cg_strap.obj
 0001:00066820       _strap_G2API_GetBoltMatrix_NoRecNoRot 30067820 f   cg_strap.obj
 0001:00066830       _strap_G2API_GetBoneAnim   30067830 f   cg_strap.obj
 0001:00066840       _strap_G2API_IKMove        30067840 f   cg_strap.obj
 0001:00066850       _strap_G2API_SetBoneAngles 30067850 f   cg_strap.obj
 0001:00066860       _strap_G2API_SetBoneAnim   30067860 f   cg_strap.obj
 0001:000668a0       _strap_G2API_SetBoneIKState 300678a0 f   cg_strap.obj
 0001:000668b0       _dllEntry                  300678b0 f   cg_syscalls.obj
 0001:000668c0       _trap_AS_AddPrecacheEntry  300678c0 f   cg_syscalls.obj
 0001:000668e0       _trap_AS_GetBModelSound    300678e0 f   cg_syscalls.obj
 0001:00066900       _trap_AS_ParseSets         30067900 f   cg_syscalls.obj
 0001:00066910       _trap_AddCommand           30067910 f   cg_syscalls.obj
 0001:00066930       _trap_AnyLanguage_ReadCharFromString 30067930 f   cg_syscalls.obj
 0001:00066950       _trap_Argc                 30067950 f   cg_syscalls.obj
 0001:00066960       _trap_Args                 30067960 f   cg_syscalls.obj
 0001:00066980       _trap_Argv                 30067980 f   cg_syscalls.obj
 0001:000669a0       _trap_CG_RegisterSharedMemory 300679a0 f   cg_syscalls.obj
 0001:000669c0       _trap_CIN_DrawCinematic    300679c0 f   cg_syscalls.obj
 0001:000669e0       _trap_CIN_PlayCinematic    300679e0 f   cg_syscalls.obj
 0001:00066a10       _trap_CIN_RunCinematic     30067a10 f   cg_syscalls.obj
 0001:00066a30       _trap_CIN_SetExtents       30067a30 f   cg_syscalls.obj
 0001:00066a60       _trap_CIN_StopCinematic    30067a60 f   cg_syscalls.obj
 0001:00066a80       _trap_CM_BoxTrace          30067a80 f   cg_syscalls.obj
 0001:00066ab0       _trap_CM_InlineModel       30067ab0 f   cg_syscalls.obj
 0001:00066ad0       _trap_CM_LoadMap           30067ad0 f   cg_syscalls.obj
 0001:00066af0       _trap_CM_MarkFragments     30067af0 f   cg_syscalls.obj
 0001:00066b20       _trap_CM_NumInlineModels   30067b20 f   cg_syscalls.obj
 0001:00066b30       _trap_CM_PointContents     30067b30 f   cg_syscalls.obj
 0001:00066b50       _trap_CM_TempBoxModel      30067b50 f   cg_syscalls.obj
 0001:00066b70       _trap_CM_TransformedBoxTrace 30067b70 f   cg_syscalls.obj
 0001:00066ba0       _trap_CM_TransformedPointContents 30067ba0 f   cg_syscalls.obj
 0001:00066bc0       _trap_Cvar_Register        30067bc0 f   cg_syscalls.obj
 0001:00066be0       _trap_Cvar_Set             30067be0 f   cg_syscalls.obj
 0001:00066c00       _trap_Cvar_Update          30067c00 f   cg_syscalls.obj
 0001:00066c20       _trap_Cvar_VariableStringBuffer 30067c20 f   cg_syscalls.obj
 0001:00066c40       _trap_Error                30067c40 f   cg_syscalls.obj
 0001:00066c60       _trap_FS_FCloseFile        30067c60 f   cg_syscalls.obj
 0001:00066c80       _trap_FS_FOpenFile         30067c80 f   cg_syscalls.obj
 0001:00066ca0       _trap_FS_GetFileList       30067ca0 f   cg_syscalls.obj
 0001:00066cc0       _trap_FS_Read              30067cc0 f   cg_syscalls.obj
 0001:00066ce0       _trap_FX_AddBezier         30067ce0 f   cg_syscalls.obj
 0001:00066d00       _trap_FX_AddElectricity    30067d00 f   cg_syscalls.obj
 0001:00066d20       _trap_FX_AddLine           30067d20 f   cg_syscalls.obj
 0001:00066db0       _trap_FX_AddPoly           30067db0 f   cg_syscalls.obj
 0001:00066dd0       _trap_FX_AddPrimitive      30067dd0 f   cg_syscalls.obj
 0001:00066df0       _trap_FX_AddScheduledEffects 30067df0 f   cg_syscalls.obj
 0001:00066e10       _trap_FX_AddSprite         30067e10 f   cg_syscalls.obj
 0001:00066e30       _trap_FX_AdjustTime        30067e30 f   cg_syscalls.obj
 0001:00066e50       _trap_FX_FreeSystem        30067e50 f   cg_syscalls.obj
 0001:00066e60       _trap_FX_InitSystem        30067e60 f   cg_syscalls.obj
 0001:00066e80       _trap_FX_PlayBoltedEffectID 30067e80 f   cg_syscalls.obj
 0001:00066eb0       _trap_FX_PlayEffectID      30067eb0 f   cg_syscalls.obj
 0001:00066ee0       _trap_FX_PlayEntityEffectID 30067ee0 f   cg_syscalls.obj
 0001:00066f10       _trap_FX_PlayPortalEffectID 30067f10 f   cg_syscalls.obj
 0001:00066f30       _trap_FX_RegisterEffect    30067f30 f   cg_syscalls.obj
 0001:00066f50       _trap_G2API_AbsurdSmoothing 30067f50 f   cg_syscalls.obj
 0001:00066f70       _trap_G2API_AddBolt        30067f70 f   cg_syscalls.obj
 0001:00066f90       _trap_G2API_AddSkinGore    30067f90 f   cg_syscalls.obj
 0001:00066fb0       _trap_G2API_AnimateG2Models 30067fb0 f   cg_syscalls.obj
 0001:00066fd0       _trap_G2API_AttachInstanceToEntNum 30067fd0 f   cg_syscalls.obj
 0001:00067000       _trap_G2API_CleanGhoul2Models 30068000 f   cg_syscalls.obj
 0001:00067020       _trap_G2API_ClearAttachedInstance 30068020 f   cg_syscalls.obj
 0001:00067040       _trap_G2API_ClearSkinGore  30068040 f   cg_syscalls.obj
 0001:00067060       _trap_G2API_CollisionDetect 30068060 f   cg_syscalls.obj
 0001:000670b0       _trap_G2API_CopySpecificGhoul2Model 300680b0 f   cg_syscalls.obj
 0001:000670d0       _trap_G2API_DuplicateGhoul2Instance 300680d0 f   cg_syscalls.obj
 0001:000670f0       _trap_G2API_GetBoltMatrix  300680f0 f   cg_syscalls.obj
 0001:00067120       _trap_G2API_GetBoltMatrix_NoRecNoRot 30068120 f   cg_syscalls.obj
 0001:00067150       _trap_G2API_GetBoneAnim    30068150 f   cg_syscalls.obj
 0001:00067190       _trap_G2API_GetBoneFrame   30068190 f   cg_syscalls.obj
 0001:000671c0       _trap_G2API_GetGLAName     300681c0 f   cg_syscalls.obj
 0001:000671e0       _trap_G2API_GetNumGoreMarks 300681e0 f   cg_syscalls.obj
 0001:00067200       _trap_G2API_GetSurfaceRenderStatus 30068200 f   cg_syscalls.obj
 0001:00067220       _trap_G2API_HasGhoul2ModelOnIndex 30068220 f   cg_syscalls.obj
 0001:00067240       _trap_G2API_IKMove         30068240 f   cg_syscalls.obj
 0001:00067260       _trap_G2API_InitGhoul2Model 30068260 f   cg_syscalls.obj
 0001:00067290       _trap_G2API_RagEffectorGoal 30068290 f   cg_syscalls.obj
 0001:000672b0       _trap_G2API_RagEffectorKick 300682b0 f   cg_syscalls.obj
 0001:000672d0       _trap_G2API_RagForceSolve  300682d0 f   cg_syscalls.obj
 0001:000672f0       _trap_G2API_RagPCJConstraint 300682f0 f   cg_syscalls.obj
 0001:00067310       _trap_G2API_RagPCJGradientSpeed 30068310 f   cg_syscalls.obj
 0001:00067340       _trap_G2API_RemoveGhoul2Model 30068340 f   cg_syscalls.obj
 0001:00067360       _trap_G2API_SetBoltInfo    30068360 f   cg_syscalls.obj
 0001:00067380       _trap_G2API_SetBoneAngles  30068380 f   cg_syscalls.obj
 0001:000673c0       _trap_G2API_SetBoneAnim    300683c0 f   cg_syscalls.obj
 0001:00067410       _trap_G2API_SetBoneIKState 30068410 f   cg_syscalls.obj
 0001:00067440       _trap_G2API_SetNewOrigin   30068440 f   cg_syscalls.obj
 0001:00067460       _trap_G2API_SetRagDoll     30068460 f   cg_syscalls.obj
 0001:00067480       _trap_G2API_SetRootSurface 30068480 f   cg_syscalls.obj
 0001:000674a0       _trap_G2API_SetSkin        300684a0 f   cg_syscalls.obj
 0001:000674c0       _trap_G2API_SetSurfaceOnOff 300684c0 f   cg_syscalls.obj
 0001:000674e0       _trap_G2API_SkinlessModel  300684e0 f   cg_syscalls.obj
 0001:00067500       _trap_G2_HaveWeGhoul2Models 30068500 f   cg_syscalls.obj
 0001:00067520       _trap_GetCurrentCmdNumber  30068520 f   cg_syscalls.obj
 0001:00067530       _trap_GetCurrentSnapshotNumber 30068530 f   cg_syscalls.obj
 0001:00067550       _trap_GetDefaultState      30068550 f   cg_syscalls.obj
 0001:00067570       _trap_GetEntityToken       30068570 f   cg_syscalls.obj
 0001:00067590       _trap_GetGameState         30068590 f   cg_syscalls.obj
 0001:000675b0       _trap_GetGlconfig          300685b0 f   cg_syscalls.obj
 0001:000675d0       _trap_GetServerCommand     300685d0 f   cg_syscalls.obj
 0001:000675f0       _trap_GetSnapshot          300685f0 f   cg_syscalls.obj
 0001:00067610       _trap_GetUserCmd           30068610 f   cg_syscalls.obj
 0001:00067630       _trap_Key_GetCatcher       30068630 f   cg_syscalls.obj
 0001:00067640       _trap_Key_SetCatcher       30068640 f   cg_syscalls.obj
 0001:00067660       _trap_Language_IsAsian     30068660 f   cg_syscalls.obj
 0001:00067670       _trap_Language_UsesSpaces  30068670 f   cg_syscalls.obj
 0001:00067680       _trap_Milliseconds         30068680 f   cg_syscalls.obj
 0001:00067690       _trap_OpenUIMenu           30068690 f   cg_syscalls.obj
 0001:000676b0       _trap_PC_FreeSource        300686b0 f   cg_syscalls.obj
 0001:000676d0       _trap_PC_LoadSource        300686d0 f   cg_syscalls.obj
 0001:000676f0       _trap_PC_ReadToken         300686f0 f   cg_syscalls.obj
 0001:00067710       _trap_PC_SourceFileAndLine 30068710 f   cg_syscalls.obj
 0001:00067730       _trap_Print                30068730 f   cg_syscalls.obj
 0001:00067750       _trap_ROFF_Clean           30068750 f   cg_syscalls.obj
 0001:00067760       _trap_ROFF_Play            30068760 f   cg_syscalls.obj
 0001:00067780       _trap_ROFF_UpdateEntities  30068780 f   cg_syscalls.obj
 0001:00067790       _trap_R_AddDecalToScene    30068790 f   cg_syscalls.obj
 0001:00067800       _trap_R_AddLightToScene    30068800 f   cg_syscalls.obj
 0001:00067850       _trap_R_AddPolyToScene     30068850 f   cg_syscalls.obj
 0001:00067870       _trap_R_AddRefEntityToScene 30068870 f   cg_syscalls.obj
 0001:00067890       _trap_R_AutomapElevAdj     30068890 f   cg_syscalls.obj
 0001:000678b0       _trap_R_ClearDecals        300688b0 f   cg_syscalls.obj
 0001:000678c0       _trap_R_ClearScene         300688c0 f   cg_syscalls.obj
 0001:000678d0       _trap_R_DrawRotatePic      300688d0 f   cg_syscalls.obj
 0001:00067960       _trap_R_DrawRotatePic2     30068960 f   cg_syscalls.obj
 0001:000679f0       _trap_R_DrawStretchPic     300689f0 f   cg_syscalls.obj
 0001:00067a70       _trap_R_Font_DrawString    30068a70 f   cg_syscalls.obj
 0001:00067aa0       _trap_R_Font_HeightPixels  30068aa0 f   cg_syscalls.obj
 0001:00067ac0       _trap_R_Font_StrLenChars   30068ac0 f   cg_syscalls.obj
 0001:00067ae0       _trap_R_Font_StrLenPixels  30068ae0 f   cg_syscalls.obj
 0001:00067b10       _trap_R_GetBModelVerts     30068b10 f   cg_syscalls.obj
 0001:00067b30       _trap_R_GetDistanceCull    30068b30 f   cg_syscalls.obj
 0001:00067b50       _trap_R_GetRealRes         30068b50 f   cg_syscalls.obj
 0001:00067b70       _trap_R_InitWireframeAutomap 30068b70 f   cg_syscalls.obj
 0001:00067b80       _trap_R_LerpTag            30068b80 f   cg_syscalls.obj
 0001:00067bb0       _trap_R_LoadWorldMap       30068bb0 f   cg_syscalls.obj
 0001:00067bd0       _trap_R_ModelBounds        30068bd0 f   cg_syscalls.obj
 0001:00067bf0       _trap_R_RegisterFont       30068bf0 f   cg_syscalls.obj
 0001:00067c10       _trap_R_RegisterModel      30068c10 f   cg_syscalls.obj
 0001:00067c30       _trap_R_RegisterShader     30068c30 f   cg_syscalls.obj
 0001:00067c50       _trap_R_RegisterShaderNoMip 30068c50 f   cg_syscalls.obj
 0001:00067c70       _trap_R_RegisterSkin       30068c70 f   cg_syscalls.obj
 0001:00067c90       _trap_R_RemapShader        30068c90 f   cg_syscalls.obj
 0001:00067cb0       _trap_R_RenderScene        30068cb0 f   cg_syscalls.obj
 0001:00067cd0       _trap_R_SetColor           30068cd0 f   cg_syscalls.obj
 0001:00067cf0       _trap_R_SetLightStyle      30068cf0 f   cg_syscalls.obj
 0001:00067d10       _trap_R_SetRangeFog        30068d10 f   cg_syscalls.obj
 0001:00067d30       _trap_R_SetRefractProp     30068d30 f   cg_syscalls.obj
 0001:00067d70       _trap_R_WeatherContentsOverride 30068d70 f   cg_syscalls.obj
 0001:00067d90       _trap_R_WorldEffectCommand 30068d90 f   cg_syscalls.obj
 0001:00067db0       _trap_R_inPVS              30068db0 f   cg_syscalls.obj
 0001:00067dd0       _trap_SP_GetStringTextString 30068dd0 f   cg_syscalls.obj
 0001:00067df0       _trap_S_AddLocalSet        30068df0 f   cg_syscalls.obj
 0001:00067e10       _trap_S_AddLoopingSound    30068e10 f   cg_syscalls.obj
 0001:00067e30       _trap_S_AddRealLoopingSound 30068e30 f   cg_syscalls.obj
 0001:00067e50       _trap_S_ClearLoopingSounds 30068e50 f   cg_syscalls.obj
 0001:00067e60       _trap_S_GetVoiceVolume     30068e60 f   cg_syscalls.obj
 0001:00067e80       _trap_S_MuteSound          30068e80 f   cg_syscalls.obj
 0001:00067ea0       _trap_S_RegisterSound      30068ea0 f   cg_syscalls.obj
 0001:00067ec0       _trap_S_Respatialize       30068ec0 f   cg_syscalls.obj
 0001:00067ee0       _trap_S_ShutUp             30068ee0 f   cg_syscalls.obj
 0001:00067f00       _trap_S_StartBackgroundTrack 30068f00 f   cg_syscalls.obj
 0001:00067f20       _trap_S_StartLocalSound    30068f20 f   cg_syscalls.obj
 0001:00067f40       _trap_S_StartSound         30068f40 f   cg_syscalls.obj
 0001:00067f60       _trap_S_StopBackgroundTrack 30068f60 f   cg_syscalls.obj
 0001:00067f70       _trap_S_UpdateAmbientSet   30068f70 f   cg_syscalls.obj
 0001:00067f90       _trap_S_UpdateEntityPosition 30068f90 f   cg_syscalls.obj
 0001:00067fb0       _trap_SendClientCommand    30068fb0 f   cg_syscalls.obj
 0001:00067fd0       _trap_SendConsoleCommand   30068fd0 f   cg_syscalls.obj
 0001:00067ff0       _trap_SetClientForceAngle  30068ff0 f   cg_syscalls.obj
 0001:00068010       _trap_SetUserCmdValue      30069010 f   cg_syscalls.obj
 0001:00068070       _trap_SnapVector           30069070 f   cg_syscalls.obj
 0001:00068090       _trap_UpdateScreen         30069090 f   cg_syscalls.obj
 0001:000680a0       _trap_WE_AddWeatherZone    300690a0 f   cg_syscalls.obj
 0001:000680c0       _CreepToPosition           300690c0 f   cg_turret.obj
 0001:00068220       _TurretClientRun           30069220 f   cg_turret.obj
 0001:000685d0       _CGCam_SetMusicMult        300695d0 f   cg_view.obj
 0001:00068620       _CGCam_Shake               30069620 f   cg_view.obj
 0001:00068660       _CG_AddBufferedSound       30069660 f   cg_view.obj
 0001:000686a0       _CG_AddRadarAutomapEnts    300696a0 f   cg_view.obj
 0001:00069640       _CG_CheckPassengerTurretView 3006a640 f   cg_view.obj
 0001:00069b80       _CG_DrawActiveFrame        3006ab80 f   cg_view.obj
 0001:0006a260       _CG_DrawAutoMap            3006b260 f   cg_view.obj
 0001:0006a7a0       _CG_DrawSkyBoxPortal       3006b7a0 f   cg_view.obj
 0001:0006ab90       _CG_EmplacedView           3006bb90 f   cg_view.obj
 0001:0006b960       _CG_SE_UpdateMusic         3006c960 f   cg_view.obj
 0001:0006baa0       _CG_SE_UpdateShake         3006caa0 f   cg_view.obj
 0001:0006bc30       _CG_TestGun_f              3006cc30 f   cg_view.obj
 0001:0006bc50       _CG_TestModelNextFrame_f   3006cc50 f   cg_view.obj
 0001:0006bc70       _CG_TestModelNextSkin_f    3006cc70 f   cg_view.obj
 0001:0006bc90       _CG_TestModelPrevFrame_f   3006cc90 f   cg_view.obj
 0001:0006bcc0       _CG_TestModelPrevSkin_f    3006ccc0 f   cg_view.obj
 0001:0006bcf0       _CG_TestModel_f            3006ccf0 f   cg_view.obj
 0001:0006c1c0       _CG_UpdateSoundTrackers    3006d1c0 f   cg_view.obj
 0001:0006c7b0       _powf                      3006d7b0 f i cg_view.obj
 0001:0006c7f0       _CG_RegisterWeapon         3006d7f0 f   cg_weaponinit.obj
 0001:0006da10       _CG_AddPlayerWeapon        3006ea10 f   cg_weapons.obj
 0001:0006e310       _CG_AddViewWeapon          3006f310 f   cg_weapons.obj
 0001:0006e620       _CG_CalcMuzzlePoint        3006f620 f   cg_weapons.obj
 0001:0006eb90       _CG_CheckPlayerG2Weapons   3006fb90 f   cg_weapons.obj
 0001:0006ee20       _CG_CopyG2WeaponInstance   3006fe20 f   cg_weapons.obj
 0001:0006ef60       _CG_DrawIconBackground     3006ff60 f   cg_weapons.obj
 0001:0006f0b0       _CG_DrawWeaponSelect       300700b0 f   cg_weapons.obj
 0001:0006f600       _CG_FireWeapon             30070600 f   cg_weapons.obj
 0001:0006f800       _CG_G2WeaponInstance       30070800 f   cg_weapons.obj
 0001:0006f870       _CG_GetClientWeaponMuzzleBoltPoint 30070870 f   cg_weapons.obj
 0001:0006f920       _CG_InitG2Weapons          30070920 f   cg_weapons.obj
 0001:0006fae0       _CG_MissileHitPlayer       30070ae0 f   cg_weapons.obj
 0001:0006fc90       _CG_MissileHitWall         30070c90 f   cg_weapons.obj
 0001:0006fe40       _CG_NextWeapon_f           30070e40 f   cg_weapons.obj
 0001:0006ff00       _CG_OutOfAmmoChange        30070f00 f   cg_weapons.obj
 0001:0006ffc0       _CG_PrevWeapon_f           30070fc0 f   cg_weapons.obj
 0001:00070090       _CG_RegisterItemVisuals    30071090 f   cg_weapons.obj
 0001:00070240       _CG_ShutDownG2Weapons      30071240 f   cg_weapons.obj
 0001:00070260       _CG_VehicleWeaponImpact    30071260 f   cg_weapons.obj
 0001:000702e0       _CG_WeaponClean_f          300712e0 f   cg_weapons.obj
 0001:000704a0       _CG_Weapon_f               300714a0 f   cg_weapons.obj
 0001:00070600       _FX_BlasterProjectileThink 30071600 f   fx_blaster.obj
 0001:00070660       _FX_BlasterWeaponHitPlayer 30071660 f   fx_blaster.obj
 0001:000706a0       _FX_BlasterWeaponHitWall   300716a0 f   fx_blaster.obj
 0001:000706c0       _FX_BowcasterAltProjectileThink 300716c0 f   fx_bowcaster.obj
 0001:000706c0       _FX_BowcasterProjectileThink 300716c0 f   fx_bowcaster.obj
 0001:00070720       _FX_BowcasterHitPlayer     30071720 f   fx_bowcaster.obj
 0001:00070720       _FX_BowcasterHitWall       30071720 f   fx_bowcaster.obj
 0001:00070740       _FX_BryarAltHitWall        30071740 f   fx_bryarpistol.obj
 0001:000707c0       _FX_BryarAltProjectileThink 300717c0 f   fx_bryarpistol.obj
 0001:00070860       _FX_BryarProjectileThink   30071860 f   fx_bryarpistol.obj
 0001:000708c0       _FX_ConcAltShot            300718c0 f   fx_bryarpistol.obj
 0001:000709a0       _FX_ConcussionHitPlayer    300719a0 f   fx_bryarpistol.obj
 0001:000709a0       _FX_ConcussionHitWall      300719a0 f   fx_bryarpistol.obj
 0001:000709c0       _FX_ConcussionProjectileThink 300719c0 f   fx_bryarpistol.obj
 0001:00070a20       _FX_BryarAltHitPlayer      30071a20 f   fx_bryarpistol.obj
 0001:00070a20       _FX_BryarHitPlayer         30071a20 f   fx_bryarpistol.obj
 0001:00070a20       _FX_TurretHitPlayer        30071a20 f   fx_bryarpistol.obj
 0001:00070a60       _FX_BryarHitWall           30071a60 f   fx_bryarpistol.obj
 0001:00070a60       _FX_TurretHitWall          30071a60 f   fx_bryarpistol.obj
 0001:00070a80       _FX_TurretProjectileThink  30071a80 f   fx_bryarpistol.obj
 0001:00070ae0       _FX_DEMP2_AltDetonate      30071ae0 f   fx_demp2.obj
 0001:00070b80       _FX_DEMP2_HitPlayer        30071b80 f   fx_demp2.obj
 0001:00070ba0       _FX_DEMP2_HitWall          30071ba0 f   fx_demp2.obj
 0001:00070bc0       _FX_DEMP2_ProjectileThink  30071bc0 f   fx_demp2.obj
 0001:00070c20       _FX_DisruptorAltHit        30071c20 f   fx_disruptor.obj
 0001:00070c40       _FX_DisruptorAltMiss       30071c40 f   fx_disruptor.obj
 0001:00070e00       _FX_DisruptorAltShot       30071e00 f   fx_disruptor.obj
 0001:00070f00       _FX_DisruptorHitPlayer     30071f00 f   fx_disruptor.obj
 0001:00070f20       _FX_DisruptorHitWall       30071f20 f   fx_disruptor.obj
 0001:00070f40       _FX_DisruptorMainShot      30071f40 f   fx_disruptor.obj
 0001:00070fb0       _FX_FlechetteAltProjectileThink 30071fb0 f   fx_flechette.obj
 0001:00071010       _FX_FlechetteProjectileThink 30072010 f   fx_flechette.obj
 0001:00071070       _FX_FlechetteWeaponHitPlayer 30072070 f   fx_flechette.obj
 0001:00071090       _FX_FlechetteWeaponHitWall 30072090 f   fx_flechette.obj
 0001:000712b0       _FX_RepeaterAltHitWall     300722b0 f   fx_heavyrepeater.obj
 0001:000712b0       _FX_RepeaterAltHitPlayer   300722b0 f   fx_heavyrepeater.obj
 0001:000712d0       _FX_RepeaterAltProjectileThink 300722d0 f   fx_heavyrepeater.obj
 0001:00071340       _FX_RepeaterHitPlayer      30072340 f   fx_heavyrepeater.obj
 0001:00071360       _FX_RepeaterHitWall        30072360 f   fx_heavyrepeater.obj
 0001:00071380       _FX_RepeaterProjectileThink 30072380 f   fx_heavyrepeater.obj
 0001:000713e0       _FX_RocketProjectileThink  300723e0 f   fx_rocketlauncher.obj
 0001:000713e0       _FX_RocketAltProjectileThink 300723e0 f   fx_rocketlauncher.obj
 0001:00071440       _FX_RocketHitPlayer        30072440 f   fx_rocketlauncher.obj
 0001:00071440       _FX_RocketHitWall          30072440 f   fx_rocketlauncher.obj
 0001:00071460       __alloca_probe             30072460 f   LIBCMT:chkstk.obj
 0001:00071460       __chkstk                   30072460 f   LIBCMT:chkstk.obj
 0001:00071490       __ftol2_sse                30072490 f   LIBCMT:_ftol2_.obj
 0001:00071499       __ftol2_pentium4           30072499 f   LIBCMT:_ftol2_.obj
 0001:000714ac       __ftol2_sse_excpt          300724ac f   LIBCMT:_ftol2_.obj
 0001:000714d0       __ftol2                    300724d0 f   LIBCMT:_ftol2_.obj
 0001:0007185a       __DllMainCRTStartup@12     3007285a f   LIBCMT:dll_dllmain.obj
 0001:0007187d       ___isa_available_init      3007287d f   LIBCMT:_cpu_disp_.obj
 0001:00071a62       ___scrt_acquire_startup_lock 30072a62 f   LIBCMT:utility.obj
 0001:00071a97       ___scrt_dllmain_after_initialize_c 30072a97 f   LIBCMT:utility.obj
 0001:00071aaf       ___scrt_dllmain_before_initialize_c 30072aaf f   LIBCMT:utility.obj
 0001:00071abd       ___scrt_dllmain_crt_thread_attach 30072abd f   LIBCMT:utility.obj
 0001:00071adc       ___scrt_dllmain_crt_thread_detach 30072adc f   LIBCMT:utility.obj
 0001:00071ae9       ___scrt_dllmain_exception_filter 30072ae9 f   LIBCMT:utility.obj
 0001:00071b1c       ___scrt_dllmain_uninitialize_c 30072b1c f   LIBCMT:utility.obj
 0001:00071b3f       ___scrt_dllmain_uninitialize_critical 30072b3f f   LIBCMT:utility.obj
 0001:00071b4c       ___scrt_initialize_crt     30072b4c f   LIBCMT:utility.obj
 0001:00071b85       ___scrt_initialize_onexit_tables 30072b85 f   LIBCMT:utility.obj
 0001:00071c1c       ___scrt_is_nonwritable_in_current_image 30072c1c f   LIBCMT:utility.obj
 0001:00071ca9       ___scrt_release_startup_lock 30072ca9 f   LIBCMT:utility.obj
 0001:00071cc6       ___scrt_uninitialize_crt   30072cc6 f   LIBCMT:utility.obj
 0001:00071cee       __onexit                   30072cee f   LIBCMT:utility.obj
 0001:00071d29       _atexit                    30072d29 f   LIBCMT:utility.obj
 0001:00071d3e       ___security_init_cookie    30072d3e f   LIBCMT:gs_support.obj
 0001:00071dda       _DllMain@12                30072dda f   LIBCMT:dll_dllmain_stub.obj
 0001:00071de0       ?__scrt_initialize_type_info@@YAXXZ 30072de0 f   LIBCMT:tncleanup.obj
 0001:00071dec       ?__scrt_uninitialize_type_info@@YAXXZ 30072dec f   LIBCMT:tncleanup.obj
 0001:00071df8       ___scrt_initialize_default_local_stdio_options 30072df8 f   LIBCMT:default_local_stdio_options.obj
 0001:00071e15       ___scrt_get_dyn_tls_init_callback 30072e15 f   LIBCMT:dyn_tls_init.obj
 0001:00071e1b       ___scrt_fastfail           30072e1b f   LIBCMT:utility_desktop.obj
 0001:00071f36       __crt_debugger_hook        30072f36 f   LIBCMT:utility_desktop.obj
 0001:00071f3e       __RTC_Initialize           30072f3e f   LIBCMT:_initsect_.obj
 0001:00071f69       __RTC_Terminate            30072f69 f   LIBCMT:_initsect_.obj
 0001:00071f94       @_guard_check_icall@4      30072f94 f i LIBCMT:checkcfg.obj
 0001:00071fa0       __SEH_prolog4              30072fa0 f   LIBCMT:_sehprolg4_.obj
 0001:00071fe6       __SEH_epilog4              30072fe6 f   LIBCMT:_sehprolg4_.obj
 0001:00071ffc       ___scrt_is_ucrt_dll_in_use 30072ffc f   LIBCMT:ucrt_detection.obj
 0001:00072008       @__security_check_cookie@4 30073008 f   LIBCMT:_secchk_.obj
 0001:00072019       ___raise_securityfailure   30073019 f   LIBCMT:gs_report.obj
 0001:00072041       ___report_gsfailure        30073041 f   LIBCMT:gs_report.obj
 0001:00072140       _memset                    30073140 f   libvcruntime:memset.obj
 0001:000722a0       _strchr                    300732a0 f   libvcruntime:strchr.obj
 0001:0007230e       ___from_strstr_to_strchr   3007330e     libvcruntime:strchr.obj
 0001:000723d0       _strstr                    300733d0 f   libvcruntime:strstr.obj
 0001:00072640       _memmove                   30073640 f   libvcruntime:memmove.obj
 0001:00072bc0       _memcpy                    30073bc0 f   libvcruntime:memcpy.obj
 0001:0007316e       ___telemetry_main_invoke_trigger 3007416e f   libvcruntime:telemetry.obj
 0001:0007320a       ___telemetry_main_return_trigger 3007420a f   libvcruntime:telemetry.obj
 0001:000732a6       ___vcrt_initialize_telemetry_provider 300742a6 f   libvcruntime:telemetry.obj
 0001:000732b9       ___vcrt_uninitialize_telemetry_provider 300742b9 f   libvcruntime:telemetry.obj
 0001:00073310       __except_handler4          30074310 f   libvcruntime:_chandler4_.obj
 0001:0007346a       ___vcrt_initialize         3007446a f   libvcruntime:initialization.obj
 0001:00073498       ___vcrt_thread_attach      30074498 f   libvcruntime:initialization.obj
 0001:000734a3       ___vcrt_thread_detach      300744a3 f   libvcruntime:initialization.obj
 0001:000734ae       ___vcrt_uninitialize       300744ae f   libvcruntime:initialization.obj
 0001:000734d2       ___vcrt_uninitialize_critical 300744d2 f   libvcruntime:initialization.obj
 0001:000734da       ___std_type_info_destroy_list 300744da f   libvcruntime:std_type_info.obj
 0001:000734fd       ??$__crt_fast_encode_pointer@PAX@@YAPAXQAX@Z 300744fd f i libvcruntime:winapi_downlevel.obj
 0001:000734fd       ??$__crt_fast_encode_pointer@PAP6AXXZ@@YAPAP6AXXZQAP6AXXZ@Z 300744fd f i LIBCMT:utility.obj
 0001:0007363b       ___vcrt_EventRegister      3007463b f   libvcruntime:winapi_downlevel.obj
 0001:0007367b       ___vcrt_EventSetInformation 3007467b f   libvcruntime:winapi_downlevel.obj
 0001:000736be       ___vcrt_EventUnregister    300746be f   libvcruntime:winapi_downlevel.obj
 0001:000736f8       ___vcrt_EventWriteTransfer 300746f8 f   libvcruntime:winapi_downlevel.obj
 0001:00073741       ___vcrt_FlsAlloc           30074741 f   libvcruntime:winapi_downlevel.obj
 0001:0007377b       ___vcrt_FlsFree            3007477b f   libvcruntime:winapi_downlevel.obj
 0001:000737b5       ___vcrt_FlsGetValue        300747b5 f   libvcruntime:winapi_downlevel.obj
 0001:000737ef       ___vcrt_FlsSetValue        300747ef f   libvcruntime:winapi_downlevel.obj
 0001:0007382c       ___vcrt_InitializeCriticalSectionEx 3007482c f   libvcruntime:winapi_downlevel.obj
 0001:00073872       ___vcrt_initialize_winapi_thunks 30074872 f   libvcruntime:winapi_downlevel.obj
 0001:00073896       ___vcrt_uninitialize_winapi_thunks 30074896 f   libvcruntime:winapi_downlevel.obj
 0001:000738d0       __local_unwind4            300748d0 f   libvcruntime:_exsup4_.obj
 0001:000739a6       __seh_longjmp_unwind4@4    300749a6 f   libvcruntime:_exsup4_.obj
 0001:000739ce       @_EH4_CallFilterFunc@8     300749ce f   libvcruntime:_exsup4_.obj
 0001:000739e5       @_EH4_TransferToHandler@8  300749e5 f   libvcruntime:_exsup4_.obj
 0001:000739fe       @_EH4_GlobalUnwind2@8      300749fe f   libvcruntime:_exsup4_.obj
 0001:00073a17       @_EH4_LocalUnwind@16       30074a17 f   libvcruntime:_exsup4_.obj
 0001:00073a2e       ___vcrt_freefls@4          30074a2e f   libvcruntime:per_thread_data.obj
 0001:00073a4a       ___vcrt_freeptd            30074a4a f   libvcruntime:per_thread_data.obj
 0001:00073a80       ___vcrt_getptd_noexit      30074a80 f   libvcruntime:per_thread_data.obj
 0001:00073af8       ___vcrt_initialize_ptd     30074af8 f   libvcruntime:per_thread_data.obj
 0001:00073b2b       ___vcrt_uninitialize_ptd   30074b2b f   libvcruntime:per_thread_data.obj
 0001:00073b46       ___vcrt_initialize_locks   30074b46 f   libvcruntime:locks.obj
 0001:00073b82       ___vcrt_uninitialize_locks 30074b82 f   libvcruntime:locks.obj
 0001:00073bb1       ___vcrt_initialize_pure_virtual_call_handler 30074bb1 f   libvcruntime:purevirt_data.obj
 0001:00073bd0       __global_unwind2           30074bd0 f   libvcruntime:_exsup_.obj
 0001:00073c35       __local_unwind2            30074c35 f   libvcruntime:_exsup_.obj
 0001:00073cb9       __abnormal_termination     30074cb9 f   libvcruntime:_exsup_.obj
 0001:00073cdc       __NLG_Notify1              30074cdc f   libvcruntime:_exsup_.obj
 0001:00073ce5       __NLG_Notify               30074ce5 f   libvcruntime:_exsup_.obj
 0001:00073cfc       __NLG_Dispatch2            30074cfc     libvcruntime:_exsup_.obj
 0001:00073cfc       __NLG_Dispatch             30074cfc     libvcruntime:_exsup_.obj
 0001:00073d04       __NLG_Call                 30074d04 f   libvcruntime:_exsup_.obj
 0001:00073d06       __NLG_Return2              30074d06     libvcruntime:_exsup_.obj
 0001:00073d07       ??$assemble_floating_point_ind@N@__crt_strtox@@YAXAAN@Z 30074d07 f i libucrt:atof.obj
 0001:00073d36       ??$assemble_floating_point_infinity@N@__crt_strtox@@YAX_NAAN@Z 30074d36 f i libucrt:atof.obj
 0001:00073d75       ??$assemble_floating_point_qnan@N@__crt_strtox@@YAX_NAAN@Z 30074d75 f i libucrt:atof.obj
 0001:00073db4       ??$assemble_floating_point_snan@N@__crt_strtox@@YAX_NAAN@Z 30074db4 f i libucrt:atof.obj
 0001:00073df8       ??$assemble_floating_point_value_t@M@__crt_strtox@@YA?AW4SLD_STATUS@@_NH_KAAM@Z 30074df8 f i libucrt:atof.obj
 0001:00073e28       ??$assemble_floating_point_value_t@N@__crt_strtox@@YA?AW4SLD_STATUS@@_NH_KAAN@Z 30074e28 f i libucrt:atof.obj
 0001:00073e87       ??$assemble_floating_point_zero@N@__crt_strtox@@YAX_NAAN@Z 30074e87 f i libucrt:atof.obj
 0001:00073f31       ??$convert_decimal_string_to_floating_type@M@__crt_strtox@@YA?AW4SLD_STATUS@@ABUfloating_point_string@0@AAM@Z 30074f31 f i libucrt:atof.obj
 0001:00073f54       ??$convert_decimal_string_to_floating_type@N@__crt_strtox@@YA?AW4SLD_STATUS@@ABUfloating_point_string@0@AAN@Z 30074f54 f i libucrt:atof.obj
 0001:00073f77       ??$convert_hexadecimal_string_to_floating_type@M@__crt_strtox@@YA?AW4SLD_STATUS@@ABUfloating_point_string@0@AAM@Z 30074f77 f i libucrt:atof.obj
 0001:00073f9a       ??$convert_hexadecimal_string_to_floating_type@N@__crt_strtox@@YA?AW4SLD_STATUS@@ABUfloating_point_string@0@AAN@Z 30074f9a f i libucrt:atof.obj
 0001:00073fbd       ??$make_c_string_character_source@DPAPAD@__crt_strtox@@YA?AV?$c_string_character_source@D@0@QBDQAPAD@Z 30074fbd f i libucrt:strtox.obj
 0001:00073fbd       ??$make_c_string_character_source@D$$T@__crt_strtox@@YA?AV?$c_string_character_source@D@0@QBD$$T@Z 30074fbd f i libucrt:atof.obj
 0001:00073fd8       ??$parse_floating_point@V?$c_string_character_source@D@__crt_strtox@@N@__crt_strtox@@YA?AW4SLD_STATUS@@QAU__crt_locale_pointers@@V?$c_string_character_source@D@0@QAN@Z 30074fd8 f i libucrt:atof.obj
 0001:0007404e       ??$parse_floating_point_from_source@V?$c_string_character_source@D@__crt_strtox@@@__crt_strtox@@YA?AW4floating_point_parse_result@0@QAU__crt_locale_pointers@@AAV?$c_string_character_source@D@0@AAUfloating_point_string@0@@Z 3007504e f i libucrt:atof.obj
 0001:00074440       ??$parse_floating_point_possible_infinity@DV?$c_string_character_source@D@__crt_strtox@@PBD@__crt_strtox@@YA?AW4floating_point_parse_result@0@AADAAV?$c_string_character_source@D@0@PBD@Z 30075440 f i libucrt:atof.obj
 0001:000744ed       ??$parse_floating_point_possible_nan@DV?$c_string_character_source@D@__crt_strtox@@PBD@__crt_strtox@@YA?AW4floating_point_parse_result@0@AADAAV?$c_string_character_source@D@0@PBD@Z 300754ed f i libucrt:atof.obj
 0001:00074608       ??$parse_floating_point_possible_nan_is_ind@DV?$c_string_character_source@D@__crt_strtox@@@__crt_strtox@@YA_NAADAAV?$c_string_character_source@D@0@@Z 30075608 f i libucrt:atof.obj
 0001:00074644       ??$parse_floating_point_possible_nan_is_snan@DV?$c_string_character_source@D@__crt_strtox@@@__crt_strtox@@YA_NAADAAV?$c_string_character_source@D@0@@Z 30075644 f i libucrt:atof.obj
 0001:00074680       ??$parse_floating_point_write_result@M@__crt_strtox@@YA?AW4SLD_STATUS@@W4floating_point_parse_result@0@ABUfloating_point_string@0@QAM@Z 30075680 f i libucrt:atof.obj
 0001:00074790       ??$parse_floating_point_write_result@N@__crt_strtox@@YA?AW4SLD_STATUS@@W4floating_point_parse_result@0@ABUfloating_point_string@0@QAN@Z 30075790 f i libucrt:atof.obj
 0001:00074894       ??0_LocaleUpdate@@QAE@QAU__crt_locale_pointers@@@Z 30075894 f i libucrt:atof.obj
 0001:0007493d       ?as_double@floating_point_value@__crt_strtox@@QBEAANXZ 3007593d f i libucrt:atof.obj
 0001:00074962       ?as_float@floating_point_value@__crt_strtox@@QBEAAMXZ 30075962 f i libucrt:atof.obj
 0001:00074987       ?assemble_floating_point_infinity@__crt_strtox@@YAX_NABVfloating_point_value@1@@Z 30075987 f i libucrt:atof.obj
 0001:000749c1       ?assemble_floating_point_value@__crt_strtox@@YA?AW4SLD_STATUS@@_KH_N1ABVfloating_point_value@1@@Z 300759c1 f i libucrt:atof.obj
 0001:00074d0d       ?assemble_floating_point_value_from_big_integer@__crt_strtox@@YA?AW4SLD_STATUS@@ABUbig_integer@1@I_N1ABVfloating_point_value@1@@Z 30075d0d f i libucrt:atof.obj
 0001:00074e9b       ?assemble_floating_point_zero@__crt_strtox@@YAX_NABVfloating_point_value@1@@Z 30075e9b f i libucrt:atof.obj
 0001:00074ecf       ?convert_decimal_string_to_floating_type_common@__crt_strtox@@YA?AW4SLD_STATUS@@ABUfloating_point_string@1@ABVfloating_point_value@1@@Z 30075ecf f i libucrt:atof.obj
 0001:00076c92       ?convert_hexadecimal_string_to_floating_type_common@__crt_strtox@@YA?AW4SLD_STATUS@@ABUfloating_point_string@1@ABVfloating_point_value@1@@Z 30077c92 f i libucrt:atof.obj
 0001:00076d3e       ?denormal_mantissa_mask@floating_point_value@__crt_strtox@@QBE_KXZ 30077d3e f i libucrt:atof.obj
 0001:00076d60       ?divide@__crt_strtox@@YA_KAAUbig_integer@1@ABU21@@Z 30077d60 f i libucrt:atof.obj
 0001:0007720e       ?normal_mantissa_mask@floating_point_value@__crt_strtox@@QBE_KXZ 3007820e f i libucrt:atof.obj
 0001:00077225       ?unget@?$c_string_character_source@D@__crt_strtox@@QAEXD@Z 30078225 f i libucrt:atof.obj
 0001:0007724d       __chvalidchk_l             3007824d f i libucrt:atof.obj
 0001:00077277       __ischartype_l             30078277 f i libucrt:atof.obj
 0001:000772aa       _atof                      300782aa f   libucrt:atof.obj
 0001:0007737c       ??$is_overflow_condition@_K@__crt_strtox@@YA_NI_K@Z 3007837c f i libucrt:input.obj
 0001:000773bf       ??$make_input_adapter_character_source@V?$string_input_adapter@D@__crt_stdio_input@@@__crt_strtox@@YA?AV?$input_adapter_character_source@V?$string_input_adapter@D@__crt_stdio_input@@@0@QAV?$string_input_adapter@D@__crt_stdio_input@@_KQA_N@Z 300783bf f i libucrt:input.obj
 0001:000773dd       ??$parse_floating_point@V?$input_adapter_character_source@V?$string_input_adapter@D@__crt_stdio_input@@@__crt_strtox@@M@__crt_strtox@@YA?AW4SLD_STATUS@@QAU__crt_locale_pointers@@V?$input_adapter_character_source@V?$string_input_adapter@D@__crt_stdio_input@@@0@QAM@Z 300783dd f i libucrt:input.obj
 0001:00077458       ??$parse_floating_point@V?$input_adapter_character_source@V?$string_input_adapter@D@__crt_stdio_input@@@__crt_strtox@@N@__crt_strtox@@YA?AW4SLD_STATUS@@QAU__crt_locale_pointers@@V?$input_adapter_character_source@V?$string_input_adapter@D@__crt_stdio_input@@@0@QAN@Z 30078458 f i libucrt:input.obj
 0001:000774d3       ??$parse_floating_point_from_source@V?$input_adapter_character_source@V?$string_input_adapter@D@__crt_stdio_input@@@__crt_strtox@@@__crt_strtox@@YA?AW4floating_point_parse_result@0@QAU__crt_locale_pointers@@AAV?$input_adapter_character_source@V?$string_input_adapter@D@__crt_stdio_input@@@0@AAUfloating_point_string@0@@Z 300784d3 f i libucrt:input.obj
 0001:0007793a       ??$parse_floating_point_possible_infinity@DV?$input_adapter_character_source@V?$string_input_adapter@D@__crt_stdio_input@@@__crt_strtox@@_K@__crt_strtox@@YA?AW4floating_point_parse_result@0@AADAAV?$input_adapter_character_source@V?$string_input_adapter@D@__crt_stdio_input@@@0@_K@Z 3007893a f i libucrt:input.obj
 0001:000779fb       ??$parse_floating_point_possible_nan@DV?$input_adapter_character_source@V?$string_input_adapter@D@__crt_stdio_input@@@__crt_strtox@@_K@__crt_strtox@@YA?AW4floating_point_parse_result@0@AADAAV?$input_adapter_character_source@V?$string_input_adapter@D@__crt_stdio_input@@@0@_K@Z 300789fb f i libucrt:input.obj
 0001:00077b0d       ??$parse_floating_point_possible_nan_is_ind@DV?$input_adapter_character_source@V?$string_input_adapter@D@__crt_stdio_input@@@__crt_strtox@@@__crt_strtox@@YA_NAADAAV?$input_adapter_character_source@V?$string_input_adapter@D@__crt_stdio_input@@@0@@Z 30078b0d f i libucrt:input.obj
 0001:00077b47       ??$parse_floating_point_possible_nan_is_snan@DV?$input_adapter_character_source@V?$string_input_adapter@D@__crt_stdio_input@@@__crt_strtox@@@__crt_strtox@@YA_NAADAAV?$input_adapter_character_source@V?$string_input_adapter@D@__crt_stdio_input@@@0@@Z 30078b47 f i libucrt:input.obj
 0001:00077b81       ??$parse_integer@_KV?$input_adapter_character_source@V?$string_input_adapter@D@__crt_stdio_input@@@__crt_strtox@@@__crt_strtox@@YA_KQAU__crt_locale_pointers@@V?$input_adapter_character_source@V?$string_input_adapter@D@__crt_stdio_input@@@0@H_N@Z 30078b81 f i libucrt:input.obj
 0001:00077e32       ??$process_floating_point_specifier_t@M@?$input_processor@DV?$string_input_adapter@D@__crt_stdio_input@@@__crt_stdio_input@@AAE_NXZ 30078e32 f i libucrt:input.obj
 0001:00077e9a       ??$process_floating_point_specifier_t@N@?$input_processor@DV?$string_input_adapter@D@__crt_stdio_input@@@__crt_stdio_input@@AAE_NXZ 30078e9a f i libucrt:input.obj
 0001:00077f02       ??$process_string_specifier_tchar@D@?$input_processor@DV?$string_input_adapter@D@__crt_stdio_input@@@__crt_stdio_input@@AAE_NW4conversion_mode@1@D@Z 30078f02 f i libucrt:input.obj
 0001:00078064       ??$process_string_specifier_tchar@_W@?$input_processor@DV?$string_input_adapter@D@__crt_stdio_input@@@__crt_stdio_input@@AAE_NW4conversion_mode@1@_W@Z 30079064 f i libucrt:input.obj
 0001:000781d0       ??$skip_whitespace@Vstring_input_adapter@__crt_stdio_input@@D@__crt_stdio_input@@YAHAAV?$string_input_adapter@D@0@QAU__crt_locale_pointers@@@Z 300791d0 f i libucrt:input.obj
 0001:000781ff       ??$write_floating_point@M@?$input_processor@DV?$string_input_adapter@D@__crt_stdio_input@@@__crt_stdio_input@@AAE_NABM@Z 300791ff f i libucrt:input.obj
 0001:00078236       ??$write_floating_point@N@?$input_processor@DV?$string_input_adapter@D@__crt_stdio_input@@@__crt_stdio_input@@AAE_NABN@Z 30079236 f i libucrt:input.obj
 0001:00078273       ??0?$format_string_parser@D@__crt_stdio_input@@QAE@_KQBE@Z 30079273 f i libucrt:input.obj
 0001:000782bd       ??0?$input_adapter_character_source@V?$string_input_adapter@D@__crt_stdio_input@@@__crt_strtox@@QAE@QAV?$string_input_adapter@D@__crt_stdio_input@@_KQA_N@Z 300792bd f i libucrt:input.obj
 0001:000782ee       ??0?$input_processor@DV?$string_input_adapter@D@__crt_stdio_input@@@__crt_stdio_input@@QAE@ABV?$string_input_adapter@D@1@_KQBDQAU__crt_locale_pointers@@QAD@Z 300792ee f i libucrt:input.obj
 0001:00078360       ?advance@?$format_string_parser@D@__crt_stdio_input@@QAE_NXZ 30079360 f i libucrt:input.obj
 0001:00078480       ?get@?$input_adapter_character_source@V?$string_input_adapter@D@__crt_stdio_input@@@__crt_strtox@@QAEDXZ 30079480 f i libucrt:input.obj
 0001:000784ba       ?get@?$string_input_adapter@D@__crt_stdio_input@@QAEHXZ 300794ba f i libucrt:input.obj
 0001:000784d0       ?invert@?$scanset_buffer@E@__crt_stdio_input@@QAEXXZ 300794d0 f i libucrt:input.obj
 0001:000784ee       ?is_character_allowed_in_string@?$input_processor@DV?$string_input_adapter@D@__crt_stdio_input@@@__crt_stdio_input@@ABE_NW4conversion_mode@2@H@Z 300794ee f i libucrt:input.obj
 0001:00078534       ?length@?$format_string_parser@D@__crt_stdio_input@@QBEIXZ 30079534 f i libucrt:input.obj
 0001:00078575       ?process@?$input_processor@DV?$string_input_adapter@D@__crt_stdio_input@@@__crt_stdio_input@@QAEHXZ 30079575 f i libucrt:input.obj
 0001:000785fa       ?process_character_count_specifier@?$input_processor@DV?$string_input_adapter@D@__crt_stdio_input@@@__crt_stdio_input@@AAE_NXZ 300795fa f i libucrt:input.obj
 0001:00078614       ?process_conversion_specifier@?$input_processor@DV?$string_input_adapter@D@__crt_stdio_input@@@__crt_stdio_input@@AAE_NXZ 30079614 f i libucrt:input.obj
 0001:00078688       ?process_floating_point_specifier@?$input_processor@DV?$string_input_adapter@D@__crt_stdio_input@@@__crt_stdio_input@@AAE_NXZ 30079688 f i libucrt:input.obj
 0001:000786b8       ?process_integer_specifier@?$input_processor@DV?$string_input_adapter@D@__crt_stdio_input@@@__crt_stdio_input@@AAE_NI_N@Z 300796b8 f i libucrt:input.obj
 0001:0007871e       ?process_literal_character@?$input_processor@DV?$string_input_adapter@D@__crt_stdio_input@@@__crt_stdio_input@@AAE_NXZ 3007971e f i libucrt:input.obj
 0001:00078754       ?process_literal_character_tchar@?$input_processor@DV?$string_input_adapter@D@__crt_stdio_input@@@__crt_stdio_input@@AAE_ND@Z 30079754 f i libucrt:input.obj
 0001:000787aa       ?process_state@?$input_processor@DV?$string_input_adapter@D@__crt_stdio_input@@@__crt_stdio_input@@AAE_NXZ 300797aa f i libucrt:input.obj
 0001:000787e0       ?process_string_specifier@?$input_processor@DV?$string_input_adapter@D@__crt_stdio_input@@@__crt_stdio_input@@AAE_NW4conversion_mode@2@@Z 300797e0 f i libucrt:input.obj
 0001:00078828       ?process_whitespace@?$input_processor@DV?$string_input_adapter@D@__crt_stdio_input@@@__crt_stdio_input@@AAE_NXZ 30079828 f i libucrt:input.obj
 0001:00078845       ?restore_state@?$input_adapter_character_source@V?$string_input_adapter@D@__crt_stdio_input@@@__crt_strtox@@QAE_N_K@Z 30079845 f i libucrt:input.obj
 0001:0007886a       ?scan_conversion_specifier@?$format_string_parser@D@__crt_stdio_input@@AAE_NXZ 3007986a f i libucrt:input.obj
 0001:000789d5       ?scan_optional_field_width@?$format_string_parser@D@__crt_stdio_input@@AAE_NXZ 300799d5 f i libucrt:input.obj
 0001:00078a74       ?scan_optional_length_modifier@?$format_string_parser@D@__crt_stdio_input@@AAEXXZ 30079a74 f i libucrt:input.obj
 0001:00078b94       ?scan_optional_literal_character_trail_bytes_tchar@?$format_string_parser@D@__crt_stdio_input@@AAE_ND@Z 30079b94 f i libucrt:input.obj
 0001:00078be9       ?scan_optional_wide_modifier@?$format_string_parser@D@__crt_stdio_input@@AAEXXZ 30079be9 f i libucrt:input.obj
 0001:00078c07       ?scan_scanset_range@?$format_string_parser@D@__crt_stdio_input@@AAE_NXZ 30079c07 f i libucrt:input.obj
 0001:00078d0e       ?set@?$scanset_buffer@E@__crt_stdio_input@@QAEXE@Z 30079d0e f i libucrt:input.obj
 0001:00078d39       ?set_wide_for_c_s_or_scanset@?$format_string_parser@D@__crt_stdio_input@@AAEXXZ 30079d39 f i libucrt:input.obj
 0001:00078d59       ?test@?$scanset_buffer@E@__crt_stdio_input@@QBE_NE@Z 30079d59 f i libucrt:input.obj
 0001:00078d8a       ?to_floating_point_length@__crt_stdio_input@@YAIW4length_modifier@1@@Z 30079d8a f i libucrt:input.obj
 0001:00078dad       ?to_integer_length@__crt_stdio_input@@YAIW4length_modifier@1@@Z 30079dad f i libucrt:input.obj
 0001:00078e05       ?unget@?$input_adapter_character_source@V?$string_input_adapter@D@__crt_stdio_input@@@__crt_strtox@@QAEXD@Z 30079e05 f i libucrt:input.obj
 0001:00078e46       ?unget@?$string_input_adapter@D@__crt_stdio_input@@QAEXH@Z 30079e46 f i libucrt:input.obj
 0001:00078e65       ?validate@?$format_string_parser@D@__crt_stdio_input@@QBE_NXZ 30079e65 f i libucrt:input.obj
 0001:00078e81       ?validate@?$input_adapter_character_source@V?$string_input_adapter@D@__crt_stdio_input@@@__crt_strtox@@QBE_NXZ 30079e81 f i libucrt:input.obj
 0001:00078ea2       ?validate@?$string_input_adapter@D@__crt_stdio_input@@QAE_NXZ 30079ea2 f i libucrt:input.obj
 0001:00078ec4       ?write_character@?$input_processor@DV?$string_input_adapter@D@__crt_stdio_input@@@__crt_stdio_input@@AAE_NQA_WIAAPA_WAAID@Z 30079ec4 f i libucrt:input.obj
 0001:00078f35       ?write_integer@?$input_processor@DV?$string_input_adapter@D@__crt_stdio_input@@@__crt_stdio_input@@AAE_N_K_N@Z 30079f35 f i libucrt:input.obj
 0001:00078fac       ___stdio_common_vsscanf    30079fac f   libucrt:input.obj
 0001:00078fd0       ??$is_overflow_condition@K@__crt_strtox@@YA_NIK@Z 30079fd0 f i libucrt:atox.obj
 0001:00079003       ??$parse_integer@KV?$c_string_character_source@D@__crt_strtox@@@__crt_strtox@@YAKQAU__crt_locale_pointers@@V?$c_string_character_source@D@0@H_N@Z 3007a003 f i libucrt:atox.obj
 0001:0007922b       ??$parse_integer@_KV?$c_string_character_source@D@__crt_strtox@@@__crt_strtox@@YA_KQAU__crt_locale_pointers@@V?$c_string_character_source@D@0@H_N@Z 3007a22b f i libucrt:atox.obj
 0001:000794d1       _atoi                      3007a4d1 f   libucrt:atox.obj
 0001:00079500       _atan2                     3007a500 f   libucrt:87ctriga.obj
 0001:0007950a       __CIatan2                  3007a50a f   libucrt:87ctriga.obj
 0001:00079520       __libm_sse2_cos_precise    3007a520 f   libucrt:cos_sse2_precise.obj
 0001:000796e0       __libm_sse2_sin_precise    3007a6e0 f   libucrt:sin_sse2_precise.obj
 0001:000798b0       _ceil                      3007a8b0 f   libucrt:ceil_pentium4.obj
 0001:000798f0       __ceil_pentium4            3007a8f0 f   libucrt:ceil_pentium4.obj
 0001:000799d0       _floor                     3007a9d0 f   libucrt:floor_pentium4.obj
 0001:00079a10       __floor_pentium4           3007aa10 f   libucrt:floor_pentium4.obj
 0001:00079ad0       __libm_sse2_sqrt_precise   3007aad0 f   libucrt:sqrt_sse2_precise.obj
 0001:00079bd0       _fmod                      3007abd0 f   libucrt:87fmod.obj
 0001:00079bda       __CIfmod                   3007abda f   libucrt:87fmod.obj
 0001:00079c00       __libm_sse2_acos_precise   3007ac00 f   libucrt:acos_sse2_precise.obj
 0001:0007a29c       ??$count@D@formatting_buffer@__crt_stdio_output@@QBEIXZ 3007b29c f i libucrt:output.obj
 0001:0007a2b4       ??$ensure_buffer_is_big_enough@D@formatting_buffer@__crt_stdio_output@@QAE_NI@Z 3007b2b4 f i libucrt:output.obj
 0001:0007a33a       ??$is_wide_character_specifier@D@__crt_stdio_output@@YA_N_KDW4length_modifier@0@@Z 3007b33a f i libucrt:output.obj
 0001:0007a37a       ??$scratch_data@D@formatting_buffer@__crt_stdio_output@@QAEPADXZ 3007b37a f i libucrt:output.obj
 0001:0007a398       ??$type_case_integer_parse_into_buffer@I@?$output_processor@DV?$string_output_adapter@D@__crt_stdio_output@@V?$standard_base@DV?$string_output_adapter@D@__crt_stdio_output@@@2@@__crt_stdio_output@@AAEXII_N@Z 3007b398 f i libucrt:output.obj
 0001:0007a40d       ??$type_case_integer_parse_into_buffer@_K@?$output_processor@DV?$string_output_adapter@D@__crt_stdio_output@@V?$standard_base@DV?$string_output_adapter@D@__crt_stdio_output@@@2@@__crt_stdio_output@@AAEX_KI_N@Z 3007b40d f i libucrt:output.obj
 0001:0007a495       ??$write_multiple_characters@V?$string_output_adapter@D@__crt_stdio_output@@D@__crt_stdio_output@@YAXABV?$string_output_adapter@D@0@DHQAH@Z 3007b495 f i libucrt:output.obj
 0001:0007a4c1       ??0?$common_data@D@__crt_stdio_output@@IAE@XZ 3007b4c1 f i libucrt:output.obj
 0001:0007a508       ??0?$output_adapter_data@DV?$string_output_adapter@D@__crt_stdio_output@@@__crt_stdio_output@@IAE@ABV?$string_output_adapter@D@1@_KQBDQAU__crt_locale_pointers@@QAD@Z 3007b508 f i libucrt:output.obj
 0001:0007a544       ??0?$output_processor@DV?$string_output_adapter@D@__crt_stdio_output@@V?$standard_base@DV?$string_output_adapter@D@__crt_stdio_output@@@2@@__crt_stdio_output@@QAE@ABV?$string_output_adapter@D@1@_KQBDQAU__crt_locale_pointers@@QAD@Z 3007b544 f i libucrt:output.obj
 0001:0007a579       ??1formatting_buffer@__crt_stdio_output@@QAE@XZ 3007b579 f i libucrt:output.obj
 0001:0007a593       ??4?$__crt_unique_heap_ptr@DU__crt_internal_free_policy@@@@QAEAAV0@$$QAV0@@Z 3007b593 f i libucrt:output.obj
 0001:0007a5b7       ?crop_zeroes@__crt_stdio_output@@YAXPADQAU__crt_locale_pointers@@@Z 3007b5b7 f i libucrt:output.obj
 0001:0007a60e       ?find_next_state@?$output_processor@DV?$string_output_adapter@D@__crt_stdio_output@@V?$standard_base@DV?$string_output_adapter@D@__crt_stdio_output@@@2@@__crt_stdio_output@@ABE?AW4state@2@DW432@@Z 3007b60e f i libucrt:output.obj
 0001:0007a640       ?force_decimal_point@__crt_stdio_output@@YAXPADQAU__crt_locale_pointers@@@Z 3007b640 f i libucrt:output.obj
 0001:0007a69c       ?parse_int_from_format_string@?$output_processor@DV?$string_output_adapter@D@__crt_stdio_output@@V?$standard_base@DV?$string_output_adapter@D@__crt_stdio_output@@@2@@__crt_stdio_output@@AAE_NQAH@Z 3007b69c f i libucrt:output.obj
 0001:0007a6f8       ?process@?$output_processor@DV?$string_output_adapter@D@__crt_stdio_output@@V?$standard_base@DV?$string_output_adapter@D@__crt_stdio_output@@@2@@__crt_stdio_output@@QAEHXZ 3007b6f8 f i libucrt:output.obj
 0001:0007a814       ?state_case_flag@?$output_processor@DV?$string_output_adapter@D@__crt_stdio_output@@V?$standard_base@DV?$string_output_adapter@D@__crt_stdio_output@@@2@@__crt_stdio_output@@AAE_NXZ 3007b814 f i libucrt:output.obj
 0001:0007a851       ?state_case_normal@?$output_processor@DV?$string_output_adapter@D@__crt_stdio_output@@V?$standard_base@DV?$string_output_adapter@D@__crt_stdio_output@@@2@@__crt_stdio_output@@AAE_NXZ 3007b851 f i libucrt:output.obj
 0001:0007a870       ?state_case_normal_common@?$output_processor@DV?$string_output_adapter@D@__crt_stdio_output@@V?$standard_base@DV?$string_output_adapter@D@__crt_stdio_output@@@2@@__crt_stdio_output@@AAE_NXZ 3007b870 f i libucrt:output.obj
 0001:0007a89a       ?state_case_normal_tchar@?$output_processor@DV?$string_output_adapter@D@__crt_stdio_output@@V?$standard_base@DV?$string_output_adapter@D@__crt_stdio_output@@@2@@__crt_stdio_output@@AAE_ND@Z 3007b89a f i libucrt:output.obj
 0001:0007a8fb       ?state_case_precision@?$output_processor@DV?$string_output_adapter@D@__crt_stdio_output@@V?$standard_base@DV?$string_output_adapter@D@__crt_stdio_output@@@2@@__crt_stdio_output@@AAE_NXZ 3007b8fb f i libucrt:output.obj
 0001:0007a923       ?state_case_size@?$output_processor@DV?$string_output_adapter@D@__crt_stdio_output@@V?$standard_base@DV?$string_output_adapter@D@__crt_stdio_output@@@2@@__crt_stdio_output@@AAE_NXZ 3007b923 f i libucrt:output.obj
 0001:0007aa8c       ?state_case_type@?$output_processor@DV?$string_output_adapter@D@__crt_stdio_output@@V?$standard_base@DV?$string_output_adapter@D@__crt_stdio_output@@@2@@__crt_stdio_output@@AAE_NXZ 3007ba8c f i libucrt:output.obj
 0001:0007acbb       ?state_case_width@?$output_processor@DV?$string_output_adapter@D@__crt_stdio_output@@V?$standard_base@DV?$string_output_adapter@D@__crt_stdio_output@@@2@@__crt_stdio_output@@AAE_NXZ 3007bcbb f i libucrt:output.obj
 0001:0007ace6       ?to_integer_size@__crt_stdio_output@@YAIW4length_modifier@1@@Z 3007bce6 f i libucrt:output.obj
 0001:0007ad42       ?type_case_Z@?$output_processor@DV?$string_output_adapter@D@__crt_stdio_output@@V?$standard_base@DV?$string_output_adapter@D@__crt_stdio_output@@@2@@__crt_stdio_output@@AAE_NXZ 3007bd42 f i libucrt:output.obj
 0001:0007ada5       ?type_case_a@?$output_processor@DV?$string_output_adapter@D@__crt_stdio_output@@V?$standard_base@DV?$string_output_adapter@D@__crt_stdio_output@@@2@@__crt_stdio_output@@AAE_NXZ 3007bda5 f i libucrt:output.obj
 0001:0007aeff       ?type_case_c_tchar@?$output_processor@DV?$string_output_adapter@D@__crt_stdio_output@@V?$standard_base@DV?$string_output_adapter@D@__crt_stdio_output@@@2@@__crt_stdio_output@@AAE_ND@Z 3007beff f i libucrt:output.obj
 0001:0007af8f       ?type_case_integer@?$output_processor@DV?$string_output_adapter@D@__crt_stdio_output@@V?$standard_base@DV?$string_output_adapter@D@__crt_stdio_output@@@2@@__crt_stdio_output@@AAE_NI_N@Z 3007bf8f f i libucrt:output.obj
 0001:0007b0d9       ?type_case_n@?$output_processor@DV?$string_output_adapter@D@__crt_stdio_output@@V?$standard_base@DV?$string_output_adapter@D@__crt_stdio_output@@@2@@__crt_stdio_output@@AAE_NXZ 3007c0d9 f i libucrt:output.obj
 0001:0007b14d       ?type_case_o@?$output_processor@DV?$string_output_adapter@D@__crt_stdio_output@@V?$standard_base@DV?$string_output_adapter@D@__crt_stdio_output@@@2@@__crt_stdio_output@@AAE_NXZ 3007c14d f i libucrt:output.obj
 0001:0007b16c       ?type_case_p@?$output_processor@DV?$string_output_adapter@D@__crt_stdio_output@@V?$standard_base@DV?$string_output_adapter@D@__crt_stdio_output@@@2@@__crt_stdio_output@@AAE_NXZ 3007c16c f i libucrt:output.obj
 0001:0007b184       ?type_case_s@?$output_processor@DV?$string_output_adapter@D@__crt_stdio_output@@V?$standard_base@DV?$string_output_adapter@D@__crt_stdio_output@@@2@@__crt_stdio_output@@AAE_NXZ 3007c184 f i libucrt:output.obj
 0001:0007b1f7       ?validate@?$string_output_adapter@D@__crt_stdio_output@@QBE_NXZ 3007c1f7 f i libucrt:output.obj
 0001:0007b1f7       ?validate@?$c_string_character_source@D@__crt_strtox@@QBE_NXZ 3007c1f7 f i libucrt:atof.obj
 0001:0007b212       ?write_character@?$string_output_adapter@D@__crt_stdio_output@@QBE_NDQAH@Z 3007c212 f i libucrt:output.obj
 0001:0007b254       ?write_stored_string_tchar@?$output_processor@DV?$string_output_adapter@D@__crt_stdio_output@@V?$standard_base@DV?$string_output_adapter@D@__crt_stdio_output@@@2@@__crt_stdio_output@@AAE_ND@Z 3007c254 f i libucrt:output.obj
 0001:0007b2fb       ?write_string@?$string_output_adapter@D@__crt_stdio_output@@QBEXQBDHQAH1@Z 3007c2fb f i libucrt:output.obj
 0001:0007b38e       ___stdio_common_vsprintf   3007c38e f   libucrt:output.obj
 0001:0007b3c0       _strncpy                   3007c3c0 f   libucrt:strncpy.obj
 0001:0007b4e4       _rand                      3007c4e4 f   libucrt:rand.obj
 0001:0007b7d3       __tolower_l                3007c7d3 f   libucrt:tolower_toupper.obj
 0001:0007b7ed       __toupper_l                3007c7ed f   libucrt:tolower_toupper.obj
 0001:0007b807       _tolower                   3007c807 f   libucrt:tolower_toupper.obj
 0001:0007b837       _toupper                   3007c837 f   libucrt:tolower_toupper.obj
 0001:0007b870       __libm_sse2_tan_precise    3007c870 f   libucrt:tan_sse2_precise.obj
 0001:0007bae0       _strncmp                   3007cae0 f   libucrt:strncmp.obj
 0001:0007bb60       __libm_sse2_pow_precise    3007cb60 f   libucrt:pow_sse2_precise.obj
 0001:0007c6b0       __initterm                 3007d6b0 f   libucrt:initterm.obj
 0001:0007c70c       __initterm_e               3007d70c f   libucrt:initterm.obj
 0001:0007c751       __seh_filter_dll           3007d751 f   libucrt:exception_filter.obj
 0001:0007c771       __seh_filter_exe           3007d771 f   libucrt:exception_filter.obj
 0001:0007caff       ___acrt_initialize_thread_local_exit_callback 3007daff f   libucrt:exit.obj
 0001:0007cb0e       __cexit                    3007db0e f   libucrt:exit.obj
 0001:0007cb1d       __exit                     3007db1d f   libucrt:exit.obj
 0001:0007cb33       __is_c_termination_complete 3007db33 f   libucrt:exit.obj
 0001:0007cc92       ??$uninitialize@A6AXAAPAPA_W@Z@?$dual_state_global@PAPA_W@__crt_state_management@@QAEXA6AXAAPAPA_W@Z@Z 3007dc92 f i libucrt:environment_initialization.obj
 0001:0007cc92       ??$uninitialize@A6AXAAPAPAD@Z@?$dual_state_global@PAPAD@__crt_state_management@@QAEXA6AXAAPAPAD@Z@Z 3007dc92 f i libucrt:environment_initialization.obj
 0001:0007cd08       ___dcrt_uninitialize_environments_nolock 3007dd08 f   libucrt:environment_initialization.obj
 0001:0007cd3f       __initialize_narrow_environment 3007dd3f f   libucrt:environment_initialization.obj
 0001:0007cd44       ??$?RV<lambda_800076c951b434888f4765a74a194fcc>@@AAV<lambda_4e60a939b0d047cfe11ddc22648dfba9>@@V<lambda_6dbb1268764f43b569ce7b67e331d33a>@@@?$__crt_seh_guarded_call@H@@QAEH$$QAV<lambda_800076c951b434888f4765a74a194fcc>@@AAV<lambda_4e60a939b0d047cfe11ddc22648dfba9>@@$$QAV<lambda_6dbb1268764f43b569ce7b67e331d33a>@@@Z 3007dd44 f i libucrt:onexit.obj
 0001:0007cd95       ??$?RV<lambda_995298e7d72eb4c2aab26c0585b3abe5>@@AAV<lambda_275893d493268fdec8709772e3fcec0e>@@V<lambda_293819299cbf9a7022e18b56a874bb5c>@@@?$__crt_seh_guarded_call@H@@QAEH$$QAV<lambda_995298e7d72eb4c2aab26c0585b3abe5>@@AAV<lambda_275893d493268fdec8709772e3fcec0e>@@$$QAV<lambda_293819299cbf9a7022e18b56a874bb5c>@@@Z 3007dd95 f i libucrt:onexit.obj
 0001:0007cde6       ??$__acrt_lock_and_call@V<lambda_275893d493268fdec8709772e3fcec0e>@@@@YAHW4__acrt_lock_id@@$$QAV<lambda_275893d493268fdec8709772e3fcec0e>@@@Z 3007dde6 f i libucrt:onexit.obj
 0001:0007ce0e       ??$__acrt_lock_and_call@V<lambda_4e60a939b0d047cfe11ddc22648dfba9>@@@@YAHW4__acrt_lock_id@@$$QAV<lambda_4e60a939b0d047cfe11ddc22648dfba9>@@@Z 3007de0e f i libucrt:onexit.obj
 0001:0007ce36       ??$__crt_fast_encode_pointer@P6AHXZ@@YAP6AHXZQ6AHXZ@Z 3007de36 f i libucrt:onexit.obj
 0001:0007d0b6       __crt_atexit               3007e0b6 f   libucrt:onexit.obj
 0001:0007d0cc       __execute_onexit_table     3007e0cc f   libucrt:onexit.obj
 0001:0007d0e9       __initialize_onexit_table  3007e0e9 f   libucrt:onexit.obj
 0001:0007d126       __register_onexit_function 3007e126 f   libucrt:onexit.obj
 0001:0007d17e       ___acrt_uninitialize_command_line 3007e17e f   libucrt:argv_data.obj
 0001:0007d23e       ___acrt_initialize         3007e23e f   libucrt:initialization.obj
 0001:0007d250       ___acrt_thread_attach      3007e250 f   libucrt:initialization.obj
 0001:0007d25b       ___acrt_thread_detach      3007e25b f   libucrt:initialization.obj
 0001:0007d263       ___acrt_uninitialize       3007e263 f   libucrt:initialization.obj
 0001:0007d275       ___acrt_uninitialize_critical 3007e275 f   libucrt:initialization.obj
 0001:0007d287       _terminate                 3007e287 f   libucrt:terminate.obj
 0001:0007d2c3       ___ascii_stricmp           3007e2c3 f   libucrt:stricmp.obj
 0001:0007d2fe       _stricmp                   3007e2fe f   libucrt:stricmp.obj
 0001:0007d2fe       __stricmp                  3007e2fe f   libucrt:stricmp.obj
 0001:0007d346       __stricmp_l                3007e346 f   libucrt:stricmp.obj
 0001:0007d3e0       __free_base                3007e3e0 f   libucrt:free_base.obj
 0001:0007d41a       __malloc_base              3007e41a f   libucrt:malloc_base.obj
 0001:0007d468       _strcpy_s                  3007e468 f   libucrt:strcpy_s.obj
 0001:0007d4c2       _abort                     3007e4c2 f   libucrt:abort.obj
 0001:0007d505       __calloc_base              3007e505 f   libucrt:calloc_base.obj
 0001:0007d562       ?initialize@?$dual_state_global@PAU__crt_locale_data@@@__crt_state_management@@QAEXQAU__crt_locale_data@@@Z 3007e562 f i libucrt:initialization.obj
 0001:0007d562       ?initialize@?$dual_state_global@P6AHPAU_exception@@@Z@__crt_state_management@@QAEXQ6AHPAU_exception@@@Z@Z 3007e562 f i libucrt:matherr.obj
 0001:0007d562       ?initialize@?$dual_state_global@P6AXH@Z@__crt_state_management@@QAEXQ6AXH@Z@Z 3007e562 f i libucrt:signal.obj
 0001:0007d562       ?initialize@?$dual_state_global@P6AHI@Z@__crt_state_management@@QAEXQ6AHI@Z@Z 3007e562 f i libucrt:new_handler.obj
 0001:0007d562       ?initialize@?$dual_state_global@PAPAD@__crt_state_management@@QAEXQAPAD@Z 3007e562 f i libucrt:environment_initialization.obj
 0001:0007d562       ?initialize@?$dual_state_global@P6AXPB_W00II@Z@__crt_state_management@@QAEXQ6AXPB_W00II@Z@Z 3007e562 f i libucrt:invalid_parameter.obj
 0001:0007d593       ___acrt_call_reportfault   3007e593 f   libucrt:invalid_parameter.obj
 0001:0007d6ce       ___acrt_initialize_invalid_parameter_handler 3007e6ce f   libucrt:invalid_parameter.obj
 0001:0007d6e2       __invalid_parameter        3007e6e2 f   libucrt:invalid_parameter.obj
 0001:0007d75d       __invalid_parameter_noinfo 3007e75d f   libucrt:invalid_parameter.obj
 0001:0007d76d       __invoke_watson            3007e76d f   libucrt:invalid_parameter.obj
 0001:0007d7a0       ___acrt_errno_from_os_error 3007e7a0 f   libucrt:errno.obj
 0001:0007d7e3       ___acrt_errno_map_os_error 3007e7e3 f   libucrt:errno.obj
 0001:0007d806       ___doserrno                3007e806 f   libucrt:errno.obj
 0001:0007d819       __errno                    3007e819 f   libucrt:errno.obj
 0001:0007d82c       ___pctype_func             3007e82c f   libucrt:ctype.obj
 0001:0007d852       __isctype_l                3007e852 f   libucrt:isctype.obj
 0001:0007d924       ??$?RV<lambda_3518db117f0e7cdb002338c5d3c47b6c>@@AAV<lambda_b2ea41f6bbb362cd97d94c6828d90b61>@@V<lambda_abdedf541bb04549bc734292b4a045d4>@@@?$__crt_seh_guarded_call@X@@QAEX$$QAV<lambda_3518db117f0e7cdb002338c5d3c47b6c>@@AAV<lambda_b2ea41f6bbb362cd97d94c6828d90b61>@@$$QAV<lambda_abdedf541bb04549bc734292b4a045d4>@@@Z 3007e924 f i libucrt:per_thread_data.obj
 0001:0007d974       ??$?RV<lambda_51b6e8b1eb166f2a3faf91f424b38130>@@AAV<lambda_6250bd4b2a391816dd638c3bf72b0bcb>@@V<lambda_0b5a4a3e68152e1d9b943535f5f47bed>@@@?$__crt_seh_guarded_call@X@@QAEX$$QAV<lambda_51b6e8b1eb166f2a3faf91f424b38130>@@AAV<lambda_6250bd4b2a391816dd638c3bf72b0bcb>@@$$QAV<lambda_0b5a4a3e68152e1d9b943535f5f47bed>@@@Z 3007e974 f i libucrt:per_thread_data.obj
 0001:0007d9d5       ??$?RV<lambda_5b71d36f03204c0beab531769a5b5694>@@AAV<lambda_be2b3da3f62db62e9dad5dc70221a656>@@V<lambda_8f9ce462984622f9bf76b59e2aaaf805>@@@?$__crt_seh_guarded_call@X@@QAEX$$QAV<lambda_5b71d36f03204c0beab531769a5b5694>@@AAV<lambda_be2b3da3f62db62e9dad5dc70221a656>@@$$QAV<lambda_8f9ce462984622f9bf76b59e2aaaf805>@@@Z 3007e9d5 f i libucrt:per_thread_data.obj
 0001:0007da20       ??$?RV<lambda_9df27f884b057bc3edfc946cb5b7cf47>@@AAV<lambda_e69574bed617af4e071282c136b37893>@@V<lambda_cc0d902bcbbeb830f749456577db4721>@@@?$__crt_seh_guarded_call@X@@QAEX$$QAV<lambda_9df27f884b057bc3edfc946cb5b7cf47>@@AAV<lambda_e69574bed617af4e071282c136b37893>@@$$QAV<lambda_cc0d902bcbbeb830f749456577db4721>@@@Z 3007ea20 f i libucrt:per_thread_data.obj
 0001:0007da68       ??$__acrt_lock_and_call@V<lambda_6250bd4b2a391816dd638c3bf72b0bcb>@@@@YAXW4__acrt_lock_id@@$$QAV<lambda_6250bd4b2a391816dd638c3bf72b0bcb>@@@Z 3007ea68 f i libucrt:per_thread_data.obj
 0001:0007da90       ??$__acrt_lock_and_call@V<lambda_b2ea41f6bbb362cd97d94c6828d90b61>@@@@YAXW4__acrt_lock_id@@$$QAV<lambda_b2ea41f6bbb362cd97d94c6828d90b61>@@@Z 3007ea90 f i libucrt:per_thread_data.obj
 0001:0007dab8       ??$__acrt_lock_and_call@V<lambda_be2b3da3f62db62e9dad5dc70221a656>@@@@YAXW4__acrt_lock_id@@$$QAV<lambda_be2b3da3f62db62e9dad5dc70221a656>@@@Z 3007eab8 f i libucrt:per_thread_data.obj
 0001:0007dae0       ??$__acrt_lock_and_call@V<lambda_e69574bed617af4e071282c136b37893>@@@@YAXW4__acrt_lock_id@@$$QAV<lambda_e69574bed617af4e071282c136b37893>@@@Z 3007eae0 f i libucrt:per_thread_data.obj
 0001:0007dc96       ___acrt_freeptd            3007ec96 f   libucrt:per_thread_data.obj
 0001:0007dcc2       ___acrt_getptd             3007ecc2 f   libucrt:per_thread_data.obj
 0001:0007dd46       ___acrt_getptd_noexit      3007ed46 f   libucrt:per_thread_data.obj
 0001:0007ddcb       ___acrt_initialize_ptd     3007edcb f   libucrt:per_thread_data.obj
 0001:0007ddf7       ___acrt_uninitialize_ptd   3007edf7 f   libucrt:per_thread_data.obj
 0001:0007de11       ___acrt_update_locale_info 3007ee11 f   libucrt:locale_update.obj
 0001:0007de3e       ___acrt_update_multibyte_info 3007ee3e f   libucrt:locale_update.obj
 0001:0007de6b       _fegetround                3007ee6b f   libucrt:fegetround.obj
 0001:0007de76       ___acrt_set_locale_changed 3007ee76 f   libucrt:wsetlocale.obj
 0001:0007de81       ___acrt_uninitialize_locale 3007ee81 f   libucrt:wsetlocale.obj
 0001:0007ded3       __isdigit_l                3007eed3 f i libucrt:_ctype.obj
 0001:0007df0b       __isspace_l                3007ef0b f i libucrt:_ctype.obj
 0001:0007df43       _isdigit                   3007ef43 f i libucrt:_ctype.obj
 0001:0007df70       _isspace                   3007ef70 f i libucrt:_ctype.obj
 0001:0007df9d       _strtol                    3007ef9d f   libucrt:strtox.obj
 0001:0007dfc9       _strtoull                  3007efc9 f   libucrt:strtox.obj
 0001:0007dff5       __mbtowc_l                 3007eff5 f   libucrt:mbtowc.obj
 0001:0007e0ef       _mbtowc                    3007f0ef f   libucrt:mbtowc.obj
 0001:0007e109       __wctomb_s_l               3007f109 f   libucrt:wctomb.obj
 0001:0007e22a       _wctomb_s                  3007f22a f   libucrt:wctomb.obj
 0001:0007e247       __fileno                   3007f247 f   libucrt:fileno.obj
 0001:0007e26d       ___acrt_initialize_stdio   3007f26d f   libucrt:_file.obj
 0001:0007e335       ___acrt_uninitialize_stdio 3007f335 f   libucrt:_file.obj
 0001:0007e381       __lock_file                3007f381 f   libucrt:_file.obj
 0001:0007e395       __unlock_file              3007f395 f   libucrt:_file.obj
 0001:0007e515       ___acrt_initialize_lowio   3007f515 f   libucrt:ioinit.obj
 0001:0007e56b       ___acrt_uninitialize_lowio 3007f56b f   libucrt:ioinit.obj
 0001:0007e5bc       __fFATN2                   3007f5bc     libucrt:87triga.obj
 0001:0007e60c       __rtpiby2                  3007f60c     libucrt:87triga.obj
 0001:0007e650       __cintrindisp2             3007f650 f   libucrt:87cdisp.obj
 0001:0007e694       __cintrindisp1             3007f694 f   libucrt:87cdisp.obj
 0001:0007e6d7       __ctrandisp2               3007f6d7 f   libucrt:87cdisp.obj
 0001:0007e866       __ctrandisp1               3007f866 f   libucrt:87cdisp.obj
 0001:0007e899       __fload                    3007f899 f   libucrt:87cdisp.obj
 0001:0007e8e0       _cos                       3007f8e0 f   libucrt:cos.obj
 0001:0007e920       __CIcos                    3007f920 f   libucrt:cos.obj
 0001:0007e95b       __CIcos_default            3007f95b f   libucrt:cos.obj
 0001:0007e96f       __cos_default              3007f96f     libucrt:cos.obj
 0001:0007ea10       _sin                       3007fa10 f   libucrt:sin.obj
 0001:0007ea50       __CIsin                    3007fa50 f   libucrt:sin.obj
 0001:0007ea8b       __CIsin_default            3007fa8b f   libucrt:sin.obj
 0001:0007ea9f       __sin_default              3007fa9f     libucrt:sin.obj
 0001:0007eb32       ___libm_error_support      3007fb32 f   libucrt:libm_error.obj
 0001:0007ed4a       ___acrt_initialize_sse2    3007fd4a f   libucrt:mathfcns.obj
 0001:0007ed59       __ceil_default             3007fd59 f   libucrt:ceil.obj
 0001:0007ee12       __floor_default            3007fe12 f   libucrt:floor.obj
 0001:0007eed0       __CIsqrt                   3007fed0 f   libucrt:sqrt.obj
 0001:0007eee4       _sqrt                      3007fee4     libucrt:sqrt.obj
 0001:0007ef90       __trandisp1                3007ff90 f   libucrt:87disp.obj
 0001:0007eff7       __trandisp2                3007fff7 f   libucrt:87disp.obj
 0001:0007f083       __rttospopde               30080083     libucrt:87disp.obj
 0001:0007f088       __rttospop                 30080088     libucrt:87disp.obj
 0001:0007f08a       __rtnospop                 3008008a     libucrt:87disp.obj
 0001:0007f08c       __rttosnpop                3008008c     libucrt:87disp.obj
 0001:0007f08d       __rtnospopde               3008008d     libucrt:87disp.obj
 0001:0007f094       __rtzeropop                30080094     libucrt:87disp.obj
 0001:0007f096       __rtzeronpop               30080096     libucrt:87disp.obj
 0001:0007f09b       __rtzerospop               3008009b     libucrt:87disp.obj
 0001:0007f0a8       __rtonepop                 300800a8     libucrt:87disp.obj
 0001:0007f0aa       __rtonenpop                300800aa     libucrt:87disp.obj
 0001:0007f0af       __tosnan1                  300800af     libucrt:87disp.obj
 0001:0007f0da       __nosnan2                  300800da     libucrt:87disp.obj
 0001:0007f0dc       __tosnan2                  300800dc     libucrt:87disp.obj
 0001:0007f104       __nan2                     30080104     libucrt:87disp.obj
 0001:0007f143       __rtindfpop                30080143     libucrt:87disp.obj
 0001:0007f145       __rtindfnpop               30080145     libucrt:87disp.obj
 0001:0007f156       __rttosnpopde              30080156     libucrt:87disp.obj
 0001:0007f160       __rtatan2inf               30080160     libucrt:87disp.obj
 0001:0007f17d       __rtchsifneg               3008017d     libucrt:87disp.obj
 0001:0007f190       _acos                      30080190 f   libucrt:acos.obj
 0001:0007f1d0       __CIacos                   300801d0 f   libucrt:acos.obj
 0001:0007f20b       __CIacos_default           3008020b f   libucrt:acos.obj
 0001:0007f21f       __acos_default             3008021f     libucrt:acos.obj
 0001:0007f2d6       _strnlen                   300802d6 f   libucrt:strnlen.obj
 0001:0007f3fd       _wcsnlen                   300803fd f   libucrt:strnlen.obj
 0001:0007f5b4       ?__acrt_fp_classify@@YA?AW4__acrt_fp_class@@ABN@Z 300805b4 f i libucrt:cvt.obj
 0001:0007f620       ?__acrt_fp_is_negative@@YA_NABN@Z 30080620 f i libucrt:cvt.obj
 0001:0007fe7f       ___acrt_fp_format          30080e7f f   libucrt:cvt.obj
 0001:0007ffc9       __get_printf_count_output  30080fc9 f   libucrt:printf_count_output.obj
 0001:0007ffde       __isleadbyte_l             30080fde f i libucrt:_wctype.obj
 0001:00080234       ___acrt_LCMapStringA       30081234 f   libucrt:lcmapstringa.obj
 0001:0008027f       __freea_crt                3008127f f i libucrt:lcmapstringa.obj
 0001:000802a0       _tan                       300812a0 f   libucrt:tan.obj
 0001:000802e0       __CItan                    300812e0 f   libucrt:tan.obj
 0001:0008031b       __CItan_default            3008131b f   libucrt:tan.obj
 0001:0008032f       __tan_default              3008132f     libucrt:tan.obj
 0001:000803d0       _pow                       300813d0 f   libucrt:pow.obj
 0001:00080410       __CIpow                    30081410 f   libucrt:pow.obj
 0001:0008044b       __CIpow_default            3008144b f   libucrt:pow.obj
 0001:00080464       __pow_default              30081464     libucrt:pow.obj
 0001:00080659       ___acrt_initialize_locks   30081659 f   libucrt:locks.obj
 0001:0008069a       ___acrt_lock               3008169a f   libucrt:locks.obj
 0001:000806b1       ___acrt_uninitialize_locks 300816b1 f   libucrt:locks.obj
 0001:000806e2       ___acrt_unlock             300816e2 f   libucrt:locks.obj
 0001:00080810       ___acrt_FlsAlloc@4         30081810 f   libucrt:winapi_thunks.obj
 0001:00080866       ___acrt_FlsFree@4          30081866 f   libucrt:winapi_thunks.obj
 0001:000808bc       ___acrt_FlsGetValue@4      300818bc f   libucrt:winapi_thunks.obj
 0001:00080912       ___acrt_FlsSetValue@8      30081912 f   libucrt:winapi_thunks.obj
 0001:0008096b       ___acrt_InitializeCriticalSectionEx@12 3008196b f   libucrt:winapi_thunks.obj
 0001:000809cd       ___acrt_LCMapStringEx@36   300819cd f   libucrt:winapi_thunks.obj
 0001:00080a55       ___acrt_LocaleNameToLCID@8 30081a55 f   libucrt:winapi_thunks.obj
 0001:00080ab1       ___acrt_initialize_winapi_thunks 30081ab1 f   libucrt:winapi_thunks.obj
 0001:00080ad7       ___acrt_is_packaged_app    30081ad7 f   libucrt:winapi_thunks.obj
 0001:00080b5e       ___acrt_uninitialize_winapi_thunks 30081b5e f   libucrt:winapi_thunks.obj
 0001:00080b94       ??$?RV<lambda_978dc153c237d78434369da87b74ff60>@@AAV<lambda_ad1ced32f4ac17aa236e5ef05d6b3b7c>@@V<lambda_4a8533e2866a575feecb8298ce776b0d>@@@?$__crt_seh_guarded_call@X@@QAEX$$QAV<lambda_978dc153c237d78434369da87b74ff60>@@AAV<lambda_ad1ced32f4ac17aa236e5ef05d6b3b7c>@@$$QAV<lambda_4a8533e2866a575feecb8298ce776b0d>@@@Z 30081b94 f i libucrt:mbctype.obj
 0001:00080bd7       ??$__acrt_lock_and_call@V<lambda_ad1ced32f4ac17aa236e5ef05d6b3b7c>@@@@YAXW4__acrt_lock_id@@$$QAV<lambda_ad1ced32f4ac17aa236e5ef05d6b3b7c>@@@Z 30081bd7 f i libucrt:mbctype.obj
 0001:0008106e       ___acrt_initialize_multibyte 3008206e f   libucrt:mbctype.obj
 0001:0008108c       ___acrt_update_thread_multibyte_data 3008208c f   libucrt:mbctype.obj
 0001:0008112e       __setmbcp_nolock           3008212e f   libucrt:mbctype.obj
 0001:000813d7       ___dcrt_get_narrow_environment_from_os 300823d7 f   libucrt:get_environment_from_os.obj
 0001:0008145a       __recalloc                 3008245a f   libucrt:recalloc.obj
 0001:00081465       __recalloc_base            30082465 f   libucrt:recalloc.obj
 0001:000814d2       ___acrt_initialize_heap    300824d2 f   libucrt:heap_handle.obj
 0001:000814e3       ___acrt_uninitialize_heap  300824e3 f   libucrt:heap_handle.obj
 0001:000814ed       ___acrt_initialize_command_line 300824ed f   libucrt:argv_data.obj
 0001:00081506       ___acrt_execute_initializers 30082506 f   libucrt:shared_initialization.obj
 0001:00081589       ___acrt_execute_uninitializers 30082589 f   libucrt:shared_initialization.obj
 0001:000815d6       ___acrt_initialize_new_handler 300825d6 f   libucrt:new_handler.obj
 0001:000815ea       __callnewh                 300825ea f   libucrt:new_handler.obj
 0001:0008162e       __query_new_handler        3008262e f   libucrt:new_handler.obj
 0001:00081680       ??$?RV<lambda_a048d3beccc847880fc8490e18b82769>@@AAV<lambda_ec61778202f4f5fc7e7711acc23c3bca>@@V<lambda_f7496a158712204296dd6628a163878e>@@@?$__crt_seh_guarded_call@P6AXH@Z@@QAEP6AXH@Z$$QAV<lambda_a048d3beccc847880fc8490e18b82769>@@AAV<lambda_ec61778202f4f5fc7e7711acc23c3bca>@@$$QAV<lambda_f7496a158712204296dd6628a163878e>@@@Z 30082680 f i libucrt:signal.obj
 0001:000816da       ??$__acrt_lock_and_call@V<lambda_ec61778202f4f5fc7e7711acc23c3bca>@@@@YAP6AXH@ZW4__acrt_lock_id@@$$QAV<lambda_ec61778202f4f5fc7e7711acc23c3bca>@@@Z 300826da f i libucrt:signal.obj
 0001:0008176c       ___acrt_get_sigabrt_handler 3008276c f   libucrt:signal.obj
 0001:00081783       ___acrt_initialize_signal_handlers 30082783 f   libucrt:signal.obj
 0001:000817be       ___fpecode                 300827be f   libucrt:signal.obj
 0001:000817c7       _raise                     300827c7 f   libucrt:signal.obj
 0001:000819cf       ___acrt_has_user_matherr   300829cf f   libucrt:matherr.obj
 0001:000819e8       ___acrt_initialize_user_matherr 300829e8 f   libucrt:matherr.obj
 0001:000819fc       ___acrt_invoke_user_matherr 300829fc f   libucrt:matherr.obj
 0001:00081a45       __query_new_mode           30082a45 f   libucrt:new_mode.obj
 0001:00081a4b       ___acrt_GetStringTypeA     30082a4b f   libucrt:getstringtypea.obj
 0001:00081b68       ___acrt_add_locale_ref     30082b68 f   libucrt:locale_refcounting.obj
 0001:00081be5       ___acrt_free_locale        30082be5 f   libucrt:locale_refcounting.obj
 0001:00081d2f       ___acrt_locale_add_lc_time_reference 30082d2f f   libucrt:locale_refcounting.obj
 0001:00081d58       ___acrt_locale_free_lc_time_if_unreferenced 30082d58 f   libucrt:locale_refcounting.obj
 0001:00081d88       ___acrt_locale_release_lc_time_reference 30082d88 f   libucrt:locale_refcounting.obj
 0001:00081db1       ___acrt_release_locale_ref 30082db1 f   libucrt:locale_refcounting.obj
 0001:00081e32       ___acrt_update_thread_locale_data 30082e32 f   libucrt:locale_refcounting.obj
 0001:00081ea9       __updatetlocinfoEx_nolock  30082ea9 f   libucrt:locale_refcounting.obj
 0001:0008219c       __getfpcontrolword         3008319c f   libucrt:_fenvutils.obj
 0001:000821df       __getfpstatusword          300831df f   libucrt:_fenvutils.obj
 0001:00082287       __setfpcontrolword         30083287 f   libucrt:_fenvutils.obj
 0001:00082307       __setfpstatusword          30083307 f   libucrt:_fenvutils.obj
 0001:00082387       ___acrt_locale_free_monetary 30083387 f   libucrt:initmon.obj
 0001:00082485       ___acrt_locale_free_numeric 30083485 f   libucrt:initnum.obj
 0001:0008252a       ___acrt_locale_free_time   3008352a f   libucrt:inittime.obj
 0001:0008260e       __fcloseall                3008360e f   libucrt:closeall.obj
 0001:000826ae       ___acrt_stdio_flush_nolock 300836ae f   libucrt:fflush.obj
 0001:00082714       __fflush_nolock            30083714 f   libucrt:fflush.obj
 0001:0008275b       __flushall                 3008375b f   libucrt:fflush.obj
 0001:0008283c       ___acrt_stdio_free_buffer_nolock 3008383c f   libucrt:_freebuf.obj
 0001:0008287a       ___acrt_lowio_create_handle_array 3008387a f   libucrt:osfinfo.obj
 0001:000828f4       ___acrt_lowio_destroy_handle_array 300838f4 f   libucrt:osfinfo.obj
 0001:00082929       ___acrt_lowio_ensure_fh_exists 30083929 f   libucrt:osfinfo.obj
 0001:000829c1       ___acrt_lowio_lock_fh      300839c1 f   libucrt:osfinfo.obj
 0001:000829e4       ___acrt_lowio_unlock_fh    300839e4 f   libucrt:osfinfo.obj
 0001:00082a07       __free_osfhnd              30083a07 f   libucrt:osfinfo.obj
 0001:00082a98       __get_osfhandle            30083a98 f   libucrt:osfinfo.obj
 0001:00082b02       __87except                 30083b02 f   libucrt:87except.obj
 0001:00082c10       __CIcos_pentium4           30083c10 f   libucrt:cos_pentium4.obj
 0001:00082c28       __cos_pentium4             30083c28     libucrt:cos_pentium4.obj
 0001:00082dc0       __twoToTOS                 30083dc0 f   libucrt:common.obj
 0001:00082dd5       __load_CW                  30083dd5 f   libucrt:common.obj
 0001:00082dec       __convertTOStoQNaN         30083dec f   libucrt:common.obj
 0001:00082e05       __fload_withFB             30083e05 f   libucrt:common.obj
 0001:00082e48       __checkTOS_withFB          30083e48 f   libucrt:common.obj
 0001:00082e5e       __fast_exit                30083e5e f   libucrt:common.obj
 0001:00082e6b       __math_exit                30083e6b f   libucrt:common.obj
 0001:00082e95       __check_overflow_exit      30083e95 f   libucrt:common.obj
 0001:00082ea9       __check_range_exit         30083ea9 f   libucrt:common.obj
 0001:00082f50       __startTwoArgErrorHandling 30083f50 f   libucrt:genexcep.obj
 0001:00082f67       __startOneArgErrorHandling 30083f67 f   libucrt:genexcep.obj
 0001:00082fb0       __CIsin_pentium4           30083fb0 f   libucrt:sin_pentium4.obj
 0001:00082fc8       __sin_pentium4             30083fc8     libucrt:sin_pentium4.obj
 0001:00083178       __frnd                     30084178 f   libucrt:frnd.obj
 0001:0008318e       __errcode                  3008418e f   libucrt:fpexcept.obj
 0001:000831c2       __except1                  300841c2 f   libucrt:fpexcept.obj
 0001:00083290       __handle_exc               30084290 f   libucrt:fpexcept.obj
 0001:00083470       __raise_exc                30084470 f   libucrt:fpexcept.obj
 0001:00083493       __raise_exc_ex             30084493 f   libucrt:fpexcept.obj
 0001:00083784       __set_errno_from_matherr   30084784 f   libucrt:fpexcept.obj
 0001:000837b3       __umatherr                 300847b3 f   libucrt:fpexcept.obj
 0001:00083855       __decomp                   30084855 f   libucrt:util.obj
 0001:00083929       __set_exp                  30084929 f   libucrt:util.obj
 0001:00083958       __sptype                   30084958 f   libucrt:util.obj
 0001:000839b6       __clrfp                    300849b6 f   libucrt:fpctrl.obj
 0001:000839c9       __ctrlfp                   300849c9 f   libucrt:fpctrl.obj
 0001:000839f5       __set_statfp               300849f5 f   libucrt:fpctrl.obj
 0001:00083a50       __statfp                   30084a50 f   libucrt:fpctrl.obj
 0001:00083a70       __CIacos_pentium4          30084a70 f   libucrt:acos_pentium4.obj
 0001:00083a88       __acos_pentium4            30084a88     libucrt:acos_pentium4.obj
 0001:00083fc4       ___acrt_fp_strflt_to_string 30084fc4 f   libucrt:_fptostr.obj
 0001:00084080       ??0scoped_fp_state_reset@?A0x48fbfdd4@@QAE@XZ 30085080 f i libucrt:cfout.obj
 0001:000840aa       ___acrt_fltout             300850aa f   libucrt:cfout.obj
 0001:00085446       __isatty                   30086446 f   libucrt:isatty.obj
 0001:0008549c       ___strncnt                 3008649c f   libucrt:strncnt.obj
 0001:000854c0       __CItan_pentium4           300864c0 f   libucrt:tan_pentium4.obj
 0001:000854d8       __tan_pentium4             300864d8     libucrt:tan_pentium4.obj
 0001:00085720       __CIpow_pentium4           30086720 f   libucrt:pow_pentium4.obj
 0001:00085739       __pow_pentium4             30086739     libucrt:pow_pentium4.obj
 0001:00086251       __fFEXP                    30087251     libucrt:87tran.obj
 0001:000862a8       __rtinfpopse               300872a8     libucrt:87tran.obj
 0001:000862aa       __rtinfnpopse              300872aa     libucrt:87tran.obj
 0001:000862ba       __fFLN                     300872ba     libucrt:87tran.obj
 0001:0008636f       __rtinfpop                 3008736f     libucrt:87tran.obj
 0001:00086371       __rtinfnpop                30087371     libucrt:87tran.obj
 0001:0008638e       __ffexpm1                  3008738e     libucrt:87tran.obj
 0001:00086437       __d_inttype                30087437 f   libucrt:powhlp.obj
 0001:000864a1       __powhlp                   300874a1 f   libucrt:powhlp.obj
 0001:00086688       ___acrt_DownlevelLocaleNameToLCID 30087688 f   libucrt:lcidtoname_downlevel.obj
 0001:000866c3       __msize                    300876c3 f   libucrt:msize.obj
 0001:000866f6       __realloc_base             300876f6 f   libucrt:realloc_base.obj
 0001:0008675f       __fclose_nolock            3008775f f   libucrt:fclose.obj
 0001:000867d5       _fclose                    300877d5 f   libucrt:fclose.obj
 0001:00086855       ??$?RV<lambda_61cee617f5178ae960314fd4d05640a0>@@AAV<lambda_6978c1fb23f02e42e1d9e99668cc68aa>@@V<lambda_9cd88cf8ad10232537feb2133f08c833>@@@?$__crt_seh_guarded_call@H@@QAEH$$QAV<lambda_61cee617f5178ae960314fd4d05640a0>@@AAV<lambda_6978c1fb23f02e42e1d9e99668cc68aa>@@$$QAV<lambda_9cd88cf8ad10232537feb2133f08c833>@@@Z 30087855 f i libucrt:commit.obj
 0001:000868ed       ??$__acrt_lowio_lock_fh_and_call@V<lambda_6978c1fb23f02e42e1d9e99668cc68aa>@@@@YAHH$$QAV<lambda_6978c1fb23f02e42e1d9e99668cc68aa>@@@Z 300878ed f i libucrt:commit.obj
 0001:00086915       __commit                   30087915 f   libucrt:commit.obj
 0001:00086f14       __write                    30087f14 f   libucrt:write.obj
 0001:00086fff       __write_nolock             30087fff f   libucrt:write.obj
 0001:0008720b       __query_app_type           3008820b f   libucrt:report_runtime_error.obj
 0001:00087211       _fegetenv                  30088211 f   libucrt:fegetenv.obj
 0001:0008722e       _fesetenv                  3008822e f   libucrt:fesetenv.obj
 0001:00087277       _feholdexcept              30088277 f   libucrt:feholdexcept.obj
 0001:000872d0       _log10                     300882d0 f   libucrt:log10.obj
 0001:00087310       __CIlog10                  30088310 f   libucrt:log10.obj
 0001:0008734b       __CIlog10_default          3008834b f   libucrt:log10.obj
 0001:0008735f       __log10_default            3008835f     libucrt:log10.obj
 0001:0008749e       __lseeki64_nolock          3008849e f   libucrt:lseek.obj
 0001:000874b9       __fpclass                  300884b9 f   libucrt:ieeemisc.obj
 0001:0008755d       ??$?RV<lambda_123407a5e2ac06da108355a851863b7a>@@AAV<lambda_2fe9b910cf3cbf4a0ab98a02ba45b3ec>@@V<lambda_ae55bdf541ad94d75914d381c370e64d>@@@?$__crt_seh_guarded_call@H@@QAEH$$QAV<lambda_123407a5e2ac06da108355a851863b7a>@@AAV<lambda_2fe9b910cf3cbf4a0ab98a02ba45b3ec>@@$$QAV<lambda_ae55bdf541ad94d75914d381c370e64d>@@@Z 3008855d f i libucrt:close.obj
 0001:000875df       ??$__acrt_lowio_lock_fh_and_call@V<lambda_2fe9b910cf3cbf4a0ab98a02ba45b3ec>@@@@YAHH$$QAV<lambda_2fe9b910cf3cbf4a0ab98a02ba45b3ec>@@@Z 300885df f i libucrt:close.obj
 0001:00087607       __close                    30088607 f   libucrt:close.obj
 0001:00087686       __close_nolock             30088686 f   libucrt:close.obj
 0001:00087722       ?__acrt_stdio_free_stream@@YAXV__crt_stdio_stream@@@Z 30088722 f   libucrt:stream.obj
 0001:0008775d       __putwch_nolock            3008875d f   libucrt:putwch.obj
 0001:000877a2       __clearfp                  300887a2 f   libucrt:ieee87.obj
 0001:00087880       __CIlog10_pentium4         30088880 f   libucrt:log10_pentium4.obj
 0001:00087898       __log10_pentium4           30088898     libucrt:log10_pentium4.obj
 0001:00087b10       ___ascii_strnicmp          30088b10 f   libucrt:_strnicm.obj
 0001:00087b71       ___dcrt_lowio_initialize_console_output 30088b71 f   libucrt:initcon.obj
 0001:00087b90       ___dcrt_terminate_console_output 30088b90 f   libucrt:initcon.obj
 0001:00087ba8       _IsProcessorFeaturePresent@4 30088ba8 f   kernel32:KERNEL32.dll
 0001:00087bae       _RtlUnwind@16              30088bae f   kernel32:KERNEL32.dll
 0001:00087bb4       _SystemFunction036@8       30088bb4 f   advapi32:ADVAPI32.dll
 0001:00087bc0       __FindPESection            30088bc0 f   LIBCMT:pesect.obj
 0001:00087c10       __IsNonwritableInCurrentImage 30088c10 f   LIBCMT:pesect.obj
 0001:00087cd0       __ValidateImageBase        30088cd0 f   LIBCMT:pesect.obj
 0001:00087d10       __aulldvrm                 30088d10 f   LIBCMT:ulldvrm.obj
 0001:00087db0       __allmul                   30088db0 f   LIBCMT:llmul.obj
 0001:00087df0       __allshl                   30088df0 f   LIBCMT:llshl.obj
 0001:00087e10       __aullshr                  30088e10 f   LIBCMT:ullshr.obj
 0001:00087e30       __SEH_prolog4_GS           30088e30 f   LIBCMT:_sehprolg4gs_.obj
 0001:00087e79       __SEH_epilog4_GS           30088e79 f   LIBCMT:_sehprolg4gs_.obj
 0001:00087e90       __alldvrm                  30088e90 f   LIBCMT:lldvrm.obj
 0001:00087f70       __alloca_probe_16          30088f70 f   LIBCMT:alloca16.obj
 0001:00087f86       __alloca_probe_8           30088f86     LIBCMT:alloca16.obj
 0001:00087fa0       _strrchr                   30088fa0 f   libvcruntime:strrchr.obj
 0002:00000000       __imp__SystemFunction036@8 3008a000     advapi32:ADVAPI32.dll
 0002:00000004       \177ADVAPI32_NULL_THUNK_DATA 3008a004     advapi32:ADVAPI32.dll
 0002:00000008       __imp__GetCurrentProcessId@0 3008a008     kernel32:KERNEL32.dll
 0002:0000000c       __imp__GetCurrentThreadId@0 3008a00c     kernel32:KERNEL32.dll
 0002:00000010       __imp__GetSystemTimeAsFileTime@4 3008a010     kernel32:KERNEL32.dll
 0002:00000014       __imp__InitializeSListHead@4 3008a014     kernel32:KERNEL32.dll
 0002:00000018       __imp__IsDebuggerPresent@0 3008a018     kernel32:KERNEL32.dll
 0002:0000001c       __imp__UnhandledExceptionFilter@4 3008a01c     kernel32:KERNEL32.dll
 0002:00000020       __imp__SetUnhandledExceptionFilter@4 3008a020     kernel32:KERNEL32.dll
 0002:00000024       __imp__GetStartupInfoW@4   3008a024     kernel32:KERNEL32.dll
 0002:00000028       __imp__GetModuleHandleW@4  3008a028     kernel32:KERNEL32.dll
 0002:0000002c       __imp__GetCurrentProcess@0 3008a02c     kernel32:KERNEL32.dll
 0002:00000030       __imp__TerminateProcess@8  3008a030     kernel32:KERNEL32.dll
 0002:00000034       __imp__GetLastError@0      3008a034     kernel32:KERNEL32.dll
 0002:00000038       __imp__GetModuleFileNameW@12 3008a038     kernel32:KERNEL32.dll
 0002:0000003c       __imp__InterlockedFlushSList@4 3008a03c     kernel32:KERNEL32.dll
 0002:00000040       __imp__InitializeCriticalSectionAndSpinCount@8 3008a040     kernel32:KERNEL32.dll
 0002:00000044       __imp__TlsAlloc@0          3008a044     kernel32:KERNEL32.dll
 0002:00000048       __imp__TlsGetValue@4       3008a048     kernel32:KERNEL32.dll
 0002:0000004c       __imp__TlsSetValue@8       3008a04c     kernel32:KERNEL32.dll
 0002:00000050       __imp__TlsFree@4           3008a050     kernel32:KERNEL32.dll
 0002:00000054       __imp__FreeLibrary@4       3008a054     kernel32:KERNEL32.dll
 0002:00000058       __imp__GetProcAddress@8    3008a058     kernel32:KERNEL32.dll
 0002:0000005c       __imp__LoadLibraryExW@12   3008a05c     kernel32:KERNEL32.dll
 0002:00000060       __imp__RtlUnwind@16        3008a060     kernel32:KERNEL32.dll
 0002:00000064       __imp__SetLastError@4      3008a064     kernel32:KERNEL32.dll
 0002:00000068       __imp__EnterCriticalSection@4 3008a068     kernel32:KERNEL32.dll
 0002:0000006c       __imp__LeaveCriticalSection@4 3008a06c     kernel32:KERNEL32.dll
 0002:00000070       __imp__DeleteCriticalSection@4 3008a070     kernel32:KERNEL32.dll
 0002:00000074       __imp__ExitProcess@4       3008a074     kernel32:KERNEL32.dll
 0002:00000078       __imp__GetModuleHandleExW@12 3008a078     kernel32:KERNEL32.dll
 0002:0000007c       __imp__MultiByteToWideChar@24 3008a07c     kernel32:KERNEL32.dll
 0002:00000080       __imp__WideCharToMultiByte@32 3008a080     kernel32:KERNEL32.dll
 0002:00000084       __imp__HeapFree@12         3008a084     kernel32:KERNEL32.dll
 0002:00000088       __imp__HeapAlloc@12        3008a088     kernel32:KERNEL32.dll
 0002:0000008c       __imp__GetStringTypeW@16   3008a08c     kernel32:KERNEL32.dll
 0002:00000090       __imp__GetACP@0            3008a090     kernel32:KERNEL32.dll
 0002:00000094       __imp__GetStdHandle@4      3008a094     kernel32:KERNEL32.dll
 0002:00000098       __imp__GetFileType@4       3008a098     kernel32:KERNEL32.dll
 0002:0000009c       __imp__QueryPerformanceCounter@4 3008a09c     kernel32:KERNEL32.dll
 0002:000000a0       __imp__DecodePointer@4     3008a0a0     kernel32:KERNEL32.dll
 0002:000000a4       __imp__LCMapStringW@24     3008a0a4     kernel32:KERNEL32.dll
 0002:000000a8       __imp__IsValidCodePage@4   3008a0a8     kernel32:KERNEL32.dll
 0002:000000ac       __imp__GetOEMCP@0          3008a0ac     kernel32:KERNEL32.dll
 0002:000000b0       __imp__GetCPInfo@8         3008a0b0     kernel32:KERNEL32.dll
 0002:000000b4       __imp__GetEnvironmentStringsW@0 3008a0b4     kernel32:KERNEL32.dll
 0002:000000b8       __imp__FreeEnvironmentStringsW@4 3008a0b8     kernel32:KERNEL32.dll
 0002:000000bc       __imp__GetProcessHeap@0    3008a0bc     kernel32:KERNEL32.dll
 0002:000000c0       __imp__GetCommandLineA@0   3008a0c0     kernel32:KERNEL32.dll
 0002:000000c4       __imp__GetCommandLineW@0   3008a0c4     kernel32:KERNEL32.dll
 0002:000000c8       __imp__SetStdHandle@8      3008a0c8     kernel32:KERNEL32.dll
 0002:000000cc       __imp__RaiseException@16   3008a0cc     kernel32:KERNEL32.dll
 0002:000000d0       __imp__HeapSize@12         3008a0d0     kernel32:KERNEL32.dll
 0002:000000d4       __imp__HeapReAlloc@16      3008a0d4     kernel32:KERNEL32.dll
 0002:000000d8       __imp__GetConsoleMode@8    3008a0d8     kernel32:KERNEL32.dll
 0002:000000dc       __imp__FlushFileBuffers@4  3008a0dc     kernel32:KERNEL32.dll
 0002:000000e0       __imp__WriteFile@20        3008a0e0     kernel32:KERNEL32.dll
 0002:000000e4       __imp__GetConsoleCP@0      3008a0e4     kernel32:KERNEL32.dll
 0002:000000e8       __imp__SetFilePointerEx@20 3008a0e8     kernel32:KERNEL32.dll
 0002:000000ec       __imp__CloseHandle@4       3008a0ec     kernel32:KERNEL32.dll
 0002:000000f0       __imp__WriteConsoleW@20    3008a0f0     kernel32:KERNEL32.dll
 0002:000000f4       __imp__CreateFileW@28      3008a0f4     kernel32:KERNEL32.dll
 0002:000000f8       __imp__IsProcessorFeaturePresent@4 3008a0f8     kernel32:KERNEL32.dll
 0002:000000fc       \177KERNEL32_NULL_THUNK_DATA 3008a0fc     kernel32:KERNEL32.dll
 0002:00000100       ___guard_check_icall_fptr  3008a100     LIBCMT:guard_support.obj
 0002:00000104       ___xc_a                    3008a104     LIBCMT:initializers.obj
 0002:00000108       ___xc_z                    3008a108     LIBCMT:initializers.obj
 0002:0000010c       ___xi_a                    3008a10c     LIBCMT:initializers.obj
 0002:00000110       ___acrt_stdio_initializer  3008a110     libucrt:stdio_initializer.obj
 0002:00000114       ___acrt_tran_sse2_initializer 3008a114     libucrt:sse2_initializer.obj
 0002:00000118       ___acrt_multibyte_initializer 3008a118     libucrt:multibyte_initializer.obj
 0002:0000011c       ___xi_z                    3008a11c     LIBCMT:initializers.obj
 0002:00000120       ___xp_a                    3008a120     LIBCMT:initializers.obj
 0002:00000124       ___acrt_locale_terminator  3008a124     libucrt:locale_initializer.obj
 0002:00000128       ___dcrt_console_output_terminator 3008a128     libucrt:console_output_initializer.obj
 0002:0000012c       ___acrt_stdio_terminator   3008a12c     libucrt:stdio_initializer.obj
 0002:00000130       ___xp_z                    3008a130     LIBCMT:initializers.obj
 0002:00000134       ___xt_a                    3008a134     LIBCMT:initializers.obj
 0002:00000138       ___xt_z                    3008a138     LIBCMT:initializers.obj
 0002:00000140       __real@3e4ccccd            3008a140     AnimalNPC.obj
 0002:00000144       __real@3e8ccccd            3008a144     AnimalNPC.obj
 0002:00000148       __real@40800000            3008a148     AnimalNPC.obj
 0002:00000150       __xmm@80000000800000008000000080000000 3008a150     AnimalNPC.obj
 0002:00000160       ??_C@_08MCJJKOHJ@jaw_bone?$AA@ 3008a160     bg_g2_utils.obj
 0002:0000016c       ??_C@_07BNEEMBEL@?$CKr_hand?$AA@ 3008a16c     bg_g2_utils.obj
 0002:00000174       ??_C@_04DJCABLIL@?$CFs?$CFc?$AA@ 3008a174     bg_g2_utils.obj
 0002:00000179       ??_C@_00CNPNBAHC@?$AA@     3008a179     bg_misc.obj
 0002:0000017c       ??_C@_0BH@DINJFPKN@item_shield_sm_instant?$AA@ 3008a17c     bg_misc.obj
 0002:00000194       ??_C@_0BO@CHCEMMJK@sound?1player?1pickupshield?4wav?$AA@ 3008a194     bg_misc.obj
 0002:000001b4       ??_C@_0CB@FFNAAGJJ@models?1map_objects?1mp?1psd_sm?4md3@ 3008a1b4     bg_misc.obj
 0002:000001d8       ??_C@_0BE@GPDHMLPP@gfx?1mp?1small_shield?$AA@ 3008a1d8     bg_misc.obj
 0002:000001ec       ??_C@_0BI@HGJKGJEB@item_shield_lrg_instant?$AA@ 3008a1ec     bg_misc.obj
 0002:00000204       ??_C@_0BO@JPJCNECL@models?1map_objects?1mp?1psd?4md3?$AA@ 3008a204     bg_misc.obj
 0002:00000224       ??_C@_0BE@JKBNBKPH@gfx?1mp?1large_shield?$AA@ 3008a224     bg_misc.obj
 0002:00000238       ??_C@_0BE@MEFMIHAD@item_medpak_instant?$AA@ 3008a238     bg_misc.obj
 0002:0000024c       ??_C@_0BO@NIGJKPEE@sound?1player?1pickuphealth?4wav?$AA@ 3008a24c     bg_misc.obj
 0002:0000026c       ??_C@_0CB@PABPOCJH@models?1map_objects?1mp?1medpac?4md3@ 3008a26c     bg_misc.obj
 0002:00000290       ??_C@_0BG@PFBKDHHG@gfx?1hud?1i_icon_medkit?$AA@ 3008a290     bg_misc.obj
 0002:000002a8       ??_C@_0M@CJHMIAK@item_seeker?$AA@ 3008a2a8     bg_misc.obj
 0002:000002b4       ??_C@_0BJ@IBMECGJM@sound?1weapons?1w_pkup?4wav?$AA@ 3008a2b4     bg_misc.obj
 0002:000002d0       ??_C@_0BI@PEKMFNBP@models?1items?1remote?4md3?$AA@ 3008a2d0     bg_misc.obj
 0002:000002e8       ??_C@_0BG@KANLKHLH@gfx?1hud?1i_icon_seeker?$AA@ 3008a2e8     bg_misc.obj
 0002:00000300       ??_C@_0BP@JJMOPAPI@?$EAMENUS_AN_ATTACK_DRONE_SIMILAR?$AA@ 3008a300     bg_misc.obj
 0002:00000320       ??_C@_0M@IIGPMPLO@item_shield?$AA@ 3008a320     bg_misc.obj
 0002:0000032c       ??_C@_0CB@EAKHAPIK@models?1map_objects?1mp?1shield?4md3@ 3008a32c     bg_misc.obj
 0002:00000350       ??_C@_0BK@OODCPGGP@gfx?1hud?1i_icon_shieldwall?$AA@ 3008a350     bg_misc.obj
 0002:00000370       ??_C@_0KM@PHBHELNF@sound?1weapons?1detpack?1stick?4wav?5@ 3008a370     bg_misc.obj
 0002:0000041c       ??_C@_0BO@HHEDFEHB@?$EAMENUS_THIS_STATIONARY_ENERGY?$AA@ 3008a41c     bg_misc.obj
 0002:0000043c       ??_C@_0M@NLNOFNHL@item_medpac?$AA@ 3008a43c     bg_misc.obj
 0002:00000448       ??_C@_0CA@COCFAODK@models?1map_objects?1mp?1bacta?4md3?$AA@ 3008a448     bg_misc.obj
 0002:00000468       ??_C@_0BF@EDJNGJL@gfx?1hud?1i_icon_bacta?$AA@ 3008a468     bg_misc.obj
 0002:00000480       ??_C@_0BG@BFJBNBGL@?$EASP_INGAME_BACTA_DESC?$AA@ 3008a480     bg_misc.obj
 0002:00000498       ??_C@_0BA@JADGBDOO@item_medpac_big?$AA@ 3008a498     bg_misc.obj
 0002:000004a8       ??_C@_0BL@HEJMELJJ@models?1items?1big_bacta?4md3?$AA@ 3008a4a8     bg_misc.obj
 0002:000004c4       ??_C@_0BJ@DMMPEJNE@gfx?1hud?1i_icon_big_bacta?$AA@ 3008a4c4     bg_misc.obj
 0002:000004e0       ??_C@_0BA@KBLOKIGM@item_binoculars?$AA@ 3008a4e0     bg_misc.obj
 0002:000004f0       ??_C@_0BM@HNHCIOH@models?1items?1binoculars?4md3?$AA@ 3008a4f0     bg_misc.obj
 0002:0000050c       ??_C@_0BE@PKBACEEE@gfx?1hud?1i_icon_zoom?$AA@ 3008a50c     bg_misc.obj
 0002:00000520       ??_C@_0BL@PADDACKM@?$EASP_INGAME_LA_GOGGLES_DESC?$AA@ 3008a520     bg_misc.obj
 0002:0000053c       ??_C@_0BA@HKIJMOIG@item_sentry_gun?$AA@ 3008a53c     bg_misc.obj
 0002:0000054c       ??_C@_0BH@PFALJFOC@models?1items?1psgun?4glm?$AA@ 3008a54c     bg_misc.obj
 0002:00000564       ??_C@_0BJ@JKBMBJCM@gfx?1hud?1i_icon_sentrygun?$AA@ 3008a564     bg_misc.obj
 0002:00000580       ??_C@_0BN@MFHKBDDJ@?$EAMENUS_THIS_DEADLY_WEAPON_IS?$AA@ 3008a580     bg_misc.obj
 0002:000005a0       ??_C@_0N@EIBGMPAH@item_jetpack?$AA@ 3008a5a0     bg_misc.obj
 0002:000005b0       ??_C@_0BH@PNGEEMFJ@gfx?1hud?1i_icon_jetpack?$AA@ 3008a5b0     bg_misc.obj
 0002:000005c8       ??_C@_0BF@CHFBNMLA@effects?1boba?1jet?4efx?$AA@ 3008a5c8     bg_misc.obj
 0002:000005e0       ??_C@_0FD@EDGCAKBF@sound?1chars?1boba?1JETON?4wav?5sound@ 3008a5e0     bg_misc.obj
 0002:00000634       ??_C@_0BE@JOMGFMAF@?$EAMENUS_JETPACK_DESC?$AA@ 3008a634     bg_misc.obj
 0002:00000648       ??_C@_0BA@MKABDBIL@item_healthdisp?$AA@ 3008a648     bg_misc.obj
 0002:00000658       ??_C@_0BK@CIGOJBM@gfx?1hud?1i_icon_healthdisp?$AA@ 3008a658     bg_misc.obj
 0002:00000674       ??_C@_0O@FFANILHN@item_ammodisp?$AA@ 3008a674     bg_misc.obj
 0002:00000684       ??_C@_0BI@NJGLIFAN@gfx?1hud?1i_icon_ammodisp?$AA@ 3008a684     bg_misc.obj
 0002:0000069c       ??_C@_0BD@FNDPGFNF@item_eweb_holdable?$AA@ 3008a69c     bg_misc.obj
 0002:000006b0       ??_C@_0CA@PCDIFNM@sound?1interface?1shieldcon_empty?$AA@ 3008a6b0     bg_misc.obj
 0002:000006d0       ??_C@_0CH@FJBCGPDI@models?1map_objects?1hoth?1eweb_mod@ 3008a6d0     bg_misc.obj
 0002:000006f8       ??_C@_0BE@HACMCHO@gfx?1hud?1i_icon_eweb?$AA@ 3008a6f8     bg_misc.obj
 0002:0000070c       ??_C@_0BB@BOLMLFOH@?$EAMENUS_EWEB_DESC?$AA@ 3008a70c     bg_misc.obj
 0002:00000720       ??_C@_0L@LGDPDIAF@item_cloak?$AA@ 3008a720     bg_misc.obj
 0002:0000072c       ??_C@_0BF@JNCBPHCG@gfx?1hud?1i_icon_cloak?$AA@ 3008a72c     bg_misc.obj
 0002:00000744       ??_C@_0BC@GHMKCCIP@?$EAMENUS_CLOAK_DESC?$AA@ 3008a744     bg_misc.obj
 0002:00000758       ??_C@_0BL@MINBJMDE@item_force_enlighten_light?$AA@ 3008a758     bg_misc.obj
 0002:00000774       ??_C@_0BP@GFNNPIJO@sound?1player?1enlightenment?4wav?$AA@ 3008a774     bg_misc.obj
 0002:00000794       ??_C@_0CN@DIMKCGKC@models?1map_objects?1mp?1jedi_enlig@ 3008a794     bg_misc.obj
 0002:000007c4       ??_C@_0BD@MPGMMGMB@gfx?1hud?1mpi_jlight?$AA@ 3008a7c4     bg_misc.obj
 0002:000007d8       ??_C@_0BK@JFKBFAGB@item_force_enlighten_dark?$AA@ 3008a7d8     bg_misc.obj
 0002:000007f4       ??_C@_0CL@IJLGBCPL@models?1map_objects?1mp?1dk_enlight@ 3008a7f4     bg_misc.obj
 0002:00000820       ??_C@_0BE@NFHAGLDO@gfx?1hud?1mpi_dklight?$AA@ 3008a820     bg_misc.obj
 0002:00000834       ??_C@_0BA@HALIIJIE@item_force_boon?$AA@ 3008a834     bg_misc.obj
 0002:00000844       ??_C@_0BG@GFIPDGIH@sound?1player?1boon?4wav?$AA@ 3008a844     bg_misc.obj
 0002:0000085c       ??_C@_0CF@JPDLAKMB@models?1map_objects?1mp?1force_boon@ 3008a85c     bg_misc.obj
 0002:00000884       ??_C@_0BC@DEOLDKOL@gfx?1hud?1mpi_fboon?$AA@ 3008a884     bg_misc.obj
 0002:00000898       ??_C@_0P@BMGIHJKN@item_ysalimari?$AA@ 3008a898     bg_misc.obj
 0002:000008a8       ??_C@_0BL@LEFKKCEP@sound?1player?1ysalimari?4wav?$AA@ 3008a8a8     bg_misc.obj
 0002:000008c4       ??_C@_0CE@KCIGBHIN@models?1map_objects?1mp?1ysalimari?4@ 3008a8c4     bg_misc.obj
 0002:000008e8       ??_C@_0BE@OEFHDNBF@gfx?1hud?1mpi_ysamari?$AA@ 3008a8e8     bg_misc.obj
 0002:000008fc       ??_C@_0BC@EJEDEKOE@weapon_stun_baton?$AA@ 3008a8fc     bg_misc.obj
 0002:00000910       ??_C@_0CH@BLMKNANE@models?1weapons2?1stun_baton?1baton@ 3008a910     bg_misc.obj
 0002:00000938       ??_C@_0CF@INEBKGM@models?1weapons2?1stun_baton?1baton@ 3008a938     bg_misc.obj
 0002:00000960       ??_C@_0BJ@JFPGMAAH@gfx?1hud?1w_icon_stunbaton?$AA@ 3008a960     bg_misc.obj
 0002:0000097c       ??_C@_0N@LBBGELFA@weapon_melee?$AA@ 3008a97c     bg_misc.obj
 0002:0000098c       ??_C@_0BF@GPOFHEPB@gfx?1hud?1w_icon_melee?$AA@ 3008a98c     bg_misc.obj
 0002:000009a4       ??_C@_0BC@CEFBGLCB@?$EAMENUS_MELEE_DESC?$AA@ 3008a9a4     bg_misc.obj
 0002:000009b8       ??_C@_0N@JIBGHNNO@weapon_saber?$AA@ 3008a9b8     bg_misc.obj
 0002:000009c8       ??_C@_0CC@PBCBCODB@models?1weapons2?1saber?1saber_w?4gl@ 3008a9c8     bg_misc.obj
 0002:000009ec       ??_C@_0CC@LELHOPDH@models?1weapons2?1saber?1saber_w?4md@ 3008a9ec     bg_misc.obj
 0002:00000a10       ??_C@_0BK@DENAAEJI@gfx?1hud?1w_icon_lightsaber?$AA@ 3008aa10     bg_misc.obj
 0002:00000a2c       ??_C@_0BN@GPMHMMHO@?$EAMENUS_AN_ELEGANT_WEAPON_FOR?$AA@ 3008aa2c     bg_misc.obj
 0002:00000a4c       ??_C@_0BG@JEHALHIL@weapon_blaster_pistol?$AA@ 3008aa4c     bg_misc.obj
 0002:00000a64       ??_C@_0DE@EHAMJOHG@models?1weapons2?1blaster_pistol?1b@ 3008aa64     bg_misc.obj
 0002:00000a98       ??_C@_0DC@EGNBDNKO@models?1weapons2?1blaster_pistol?1b@ 3008aa98     bg_misc.obj
 0002:00000acc       ??_C@_0BO@EGOADNOO@gfx?1hud?1w_icon_blaster_pistol?$AA@ 3008aacc     bg_misc.obj
 0002:00000aec       ??_C@_0BL@EJPJHBLO@?$EAMENUS_BLASTER_PISTOL_DESC?$AA@ 3008aaec     bg_misc.obj
 0002:00000b08       ??_C@_0BI@JFLEEDJH@weapon_concussion_rifle?$AA@ 3008ab08     bg_misc.obj
 0002:00000b20       ??_C@_0CJ@OKJJMKPH@models?1weapons2?1concussion?1c_rif@ 3008ab20     bg_misc.obj
 0002:00000b4c       ??_C@_0CH@PIBGBJPN@models?1weapons2?1concussion?1c_rif@ 3008ab4c     bg_misc.obj
 0002:00000b74       ??_C@_0BH@PEIIGOLA@gfx?1hud?1w_icon_c_rifle?$AA@ 3008ab74     bg_misc.obj
 0002:00000b8c       ??_C@_0BH@OEFKMKID@?$EAMENUS_CONC_RIFLE_DESC?$AA@ 3008ab8c     bg_misc.obj
 0002:00000ba4       ??_C@_0BE@NCEGAEHJ@weapon_bryar_pistol?$AA@ 3008aba4     bg_misc.obj
 0002:00000bb8       ??_C@_0DA@DCLFBBNM@models?1weapons2?1briar_pistol?1bri@ 3008abb8     bg_misc.obj
 0002:00000be8       ??_C@_0CO@LMBDAEMJ@models?1weapons2?1briar_pistol?1bri@ 3008abe8     bg_misc.obj
 0002:00000c18       ??_C@_0BF@HJCHFBMO@gfx?1hud?1w_icon_briar?$AA@ 3008ac18     bg_misc.obj
 0002:00000c30       ??_C@_0BK@JHPMONHL@?$EASP_INGAME_BLASTER_PISTOL?$AA@ 3008ac30     bg_misc.obj
 0002:00000c4c       ??_C@_0P@PPIDHAJM@weapon_blaster?$AA@ 3008ac4c     bg_misc.obj
 0002:00000c5c       ??_C@_0CI@FHMEJMJP@models?1weapons2?1blaster_r?1blaste@ 3008ac5c     bg_misc.obj
 0002:00000c84       ??_C@_0CG@IJILPHPH@models?1weapons2?1blaster_r?1blaste@ 3008ac84     bg_misc.obj
 0002:00000cac       ??_C@_0BH@POPJAOPK@gfx?1hud?1w_icon_blaster?$AA@ 3008acac     bg_misc.obj
 0002:00000cc4       ??_C@_0BN@KLDCJACF@?$EAMENUS_THE_PRIMARY_WEAPON_OF?$AA@ 3008acc4     bg_misc.obj
 0002:00000ce4       ??_C@_0BB@EKCEEAKB@weapon_disruptor?$AA@ 3008ace4     bg_misc.obj
 0002:00000cf8       ??_C@_0CK@LDOPBIMF@models?1weapons2?1disruptor?1disrup@ 3008acf8     bg_misc.obj
 0002:00000d24       ??_C@_0CI@KNAINLEF@models?1weapons2?1disruptor?1disrup@ 3008ad24     bg_misc.obj
 0002:00000d4c       ??_C@_0BJ@MODONBMB@gfx?1hud?1w_icon_disruptor?$AA@ 3008ad4c     bg_misc.obj
 0002:00000d68       ??_C@_0BN@PDALGMFE@?$EAMENUS_THIS_NEFARIOUS_WEAPON?$AA@ 3008ad68     bg_misc.obj
 0002:00000d88       ??_C@_0BB@KDLDGPGH@weapon_bowcaster?$AA@ 3008ad88     bg_misc.obj
 0002:00000d9c       ??_C@_0CK@OFDEGMIN@models?1weapons2?1bowcaster?1bowcas@ 3008ad9c     bg_misc.obj
 0002:00000dc8       ??_C@_0CI@MANABGJH@models?1weapons2?1bowcaster?1bowcas@ 3008adc8     bg_misc.obj
 0002:00000df0       ??_C@_0BJ@CHKJPOAH@gfx?1hud?1w_icon_bowcaster?$AA@ 3008adf0     bg_misc.obj
 0002:00000e0c       ??_C@_0BM@MHHBLDA@?$EAMENUS_THIS_ARCHAIC_LOOKING?$AA@ 3008ae0c     bg_misc.obj
 0002:00000e28       ??_C@_0BA@BKCKPFDA@weapon_repeater?$AA@ 3008ae28     bg_misc.obj
 0002:00000e38       ??_C@_0DE@LBIFBLHF@models?1weapons2?1heavy_repeater?1h@ 3008ae38     bg_misc.obj
 0002:00000e6c       ??_C@_0DC@FAHGABEB@models?1weapons2?1heavy_repeater?1h@ 3008ae6c     bg_misc.obj
 0002:00000ea0       ??_C@_0BI@LOPKELCD@gfx?1hud?1w_icon_repeater?$AA@ 3008aea0     bg_misc.obj
 0002:00000eb8       ??_C@_0CD@FCKGGFFG@?$EAMENUS_THIS_DESTRUCTIVE_PROJECTI@ 3008aeb8     bg_misc.obj
 0002:00000edc       ??_C@_0N@MBLCNHPF@weapon_demp2?$AA@ 3008aedc     bg_misc.obj
 0002:00000eec       ??_C@_0CC@DIKAHCC@models?1weapons2?1demp2?1demp2_w?4gl@ 3008aeec     bg_misc.obj
 0002:00000f10       ??_C@_0CA@PKACJAPI@models?1weapons2?1demp2?1demp2?4md3?$AA@ 3008af10     bg_misc.obj
 0002:00000f30       ??_C@_0BF@BPEBOIFE@gfx?1hud?1w_icon_demp2?$AA@ 3008af30     bg_misc.obj
 0002:00000f48       ??_C@_0BM@BCDPDFEB@?$EAMENUS_COMMONLY_REFERRED_TO?$AA@ 3008af48     bg_misc.obj
 0002:00000f64       ??_C@_0BB@HNIDLLLF@weapon_flechette?$AA@ 3008af64     bg_misc.obj
 0002:00000f78       ??_C@_0CM@GDMOBBJ@models?1weapons2?1golan_arms?1golan@ 3008af78     bg_misc.obj
 0002:00000fa4       ??_C@_0CK@CNAHGKMH@models?1weapons2?1golan_arms?1golan@ 3008afa4     bg_misc.obj
 0002:00000fd0       ??_C@_0BJ@PJJJCKNF@gfx?1hud?1w_icon_flechette?$AA@ 3008afd0     bg_misc.obj
 0002:00000fec       ??_C@_0CE@HHDMNMLP@?$EAMENUS_WIDELY_USED_BY_THE_CORPOR@ 3008afec     bg_misc.obj
 0002:00001010       _bgToggleableSurfaceDebris 3008b010     bg_misc.obj
 0002:0000108c       ??_C@_0BH@CFPMIEJH@weapon_rocket_launcher?$AA@ 3008b08c     bg_misc.obj
 0002:000010a4       ??_C@_0CK@IJJCBMNO@models?1weapons2?1merr_sonn?1merr_s@ 3008b0a4     bg_misc.obj
 0002:000010d0       ??_C@_0CI@CPIMDKHH@models?1weapons2?1merr_sonn?1merr_s@ 3008b0d0     bg_misc.obj
 0002:000010f8       ??_C@_0BI@DDNFEDEJ@gfx?1hud?1w_icon_merrsonn?$AA@ 3008b0f8     bg_misc.obj
 0002:00001110       ??_C@_0CC@EJOKBHDJ@?$EAMENUS_THE_PLX_2M_IS_AN_EXTREMEL@ 3008b110     bg_misc.obj
 0002:00001134       ??_C@_0N@IBCNMHOJ@ammo_thermal?$AA@ 3008b134     bg_misc.obj
 0002:00001144       ??_C@_0CH@BBPIBDBM@models?1weapons2?1thermal?1thermal_@ 3008b144     bg_misc.obj
 0002:0000116c       ??_C@_0CG@CCBCCJGG@models?1weapons2?1thermal?1thermal_@ 3008b16c     bg_misc.obj
 0002:00001194       ??_C@_0CE@PJGNCPEG@models?1weapons2?1thermal?1thermal?4@ 3008b194     bg_misc.obj
 0002:000011b8       ??_C@_0BH@OIMKPGPF@gfx?1hud?1w_icon_thermal?$AA@ 3008b1b8     bg_misc.obj
 0002:000011d0       ??_C@_0BN@FMFLLCGL@?$EAMENUS_THE_THERMAL_DETONATOR?$AA@ 3008b1d0     bg_misc.obj
 0002:000011f0       ??_C@_0O@GAPOPCOE@ammo_tripmine?$AA@ 3008b1f0     bg_misc.obj
 0002:00001200       ??_C@_0CN@JOEHJLGB@models?1weapons2?1laser_trap?1laser@ 3008b200     bg_misc.obj
 0002:00001230       ??_C@_0CM@PIAEKLLK@models?1weapons2?1laser_trap?1laser@ 3008b230     bg_misc.obj
 0002:0000125c       ??_C@_0CK@BPCANEAG@models?1weapons2?1laser_trap?1laser@ 3008b25c     bg_misc.obj
 0002:00001288       ??_C@_0BI@HEJGEJJK@gfx?1hud?1w_icon_tripmine?$AA@ 3008b288     bg_misc.obj
 0002:000012a0       ??_C@_0BN@CMMDBNGF@?$EAMENUS_TRIP_MINES_CONSIST_OF?$AA@ 3008b2a0     bg_misc.obj
 0002:000012c0       ??_C@_0N@CIBIOIEN@ammo_detpack?$AA@ 3008b2c0     bg_misc.obj
 0002:000012d0       ??_C@_0CI@CBJMGLP@models?1weapons2?1detpack?1det_pack@ 3008b2d0     bg_misc.obj
 0002:000012f8       ??_C@_0CK@CDFEGPDE@models?1weapons2?1detpack?1det_pack@ 3008b2f8     bg_misc.obj
 0002:00001324       ??_C@_0CH@KPFPNMHO@models?1weapons2?1detpack?1det_pack@ 3008b324     bg_misc.obj
 0002:0000134c       ??_C@_0CF@NONMEFGL@models?1weapons2?1detpack?1det_pack@ 3008b34c     bg_misc.obj
 0002:00001374       ??_C@_0BH@EBPPNJFB@gfx?1hud?1w_icon_detpack?$AA@ 3008b374     bg_misc.obj
 0002:0000138c       ??_C@_0BM@MOLHJNKH@?$EAMENUS_A_DETONATION_PACK_IS?$AA@ 3008b38c     bg_misc.obj
 0002:000013a8       ??_C@_0P@OJLAIIJD@weapon_thermal?$AA@ 3008b3a8     bg_misc.obj
 0002:000013b8       ??_C@_0BB@KBIODFKP@weapon_trip_mine?$AA@ 3008b3b8     bg_misc.obj
 0002:000013cc       ??_C@_0BA@DBJEACCG@weapon_det_pack?$AA@ 3008b3cc     bg_misc.obj
 0002:000013dc       ??_C@_0BA@PHDHEKAE@weapon_emplaced?$AA@ 3008b3dc     bg_misc.obj
 0002:000013ec       ??_C@_0BA@EENDCNMH@weapon_turretwp?$AA@ 3008b3ec     bg_misc.obj
 0002:000013fc       ??_C@_0L@GKDELMG@ammo_force?$AA@ 3008b3fc     bg_misc.obj
 0002:00001408       ??_C@_0BO@EBHMDMMM@sound?1player?1pickupenergy?4wav?$AA@ 3008b408     bg_misc.obj
 0002:00001428       ??_C@_0BN@BKBHFNLE@models?1items?1energy_cell?4md3?$AA@ 3008b428     bg_misc.obj
 0002:00001448       ??_C@_0N@JHBODPOG@ammo_blaster?$AA@ 3008b448     bg_misc.obj
 0002:00001458       ??_C@_0BH@MFDMPLPM@gfx?1hud?1i_icon_battery?$AA@ 3008b458     bg_misc.obj
 0002:00001470       ??_C@_0P@GBMHNHF@ammo_powercell?$AA@ 3008b470     bg_misc.obj
 0002:00001480       ??_C@_0BM@GDMBBHDI@models?1items?1power_cell?4md3?$AA@ 3008b480     bg_misc.obj
 0002:0000149c       ??_C@_0BH@KBMOAFPH@gfx?1mp?1ammo_power_cell?$AA@ 3008b49c     bg_misc.obj
 0002:000014b4       ??_C@_0BE@OMMGIMPN@ammo_metallic_bolts?$AA@ 3008b4b4     bg_misc.obj
 0002:000014c8       ??_C@_0CA@POKDMLNN@models?1items?1metallic_bolts?4md3?$AA@ 3008b4c8     bg_misc.obj
 0002:000014e8       ??_C@_0BL@IPLJCMOM@gfx?1mp?1ammo_metallic_bolts?$AA@ 3008b4e8     bg_misc.obj
 0002:00001504       ??_C@_0N@CLEPKBOE@ammo_rockets?$AA@ 3008b504     bg_misc.obj
 0002:00001514       ??_C@_0BJ@BCBNBFGD@models?1items?1rockets?4md3?$AA@ 3008b514     bg_misc.obj
 0002:00001530       ??_C@_0BE@IIEBFJHN@gfx?1mp?1ammo_rockets?$AA@ 3008b530     bg_misc.obj
 0002:00001544       ??_C@_08LLJPIFOF@ammo_all?$AA@ 3008b544     bg_misc.obj
 0002:00001550       ??_C@_0BJ@DIDDNCPE@models?1items?1battery?4md3?$AA@ 3008b550     bg_misc.obj
 0002:0000156c       ??_C@_0BB@JNMMCIHG@team_CTF_redflag?$AA@ 3008b56c     bg_misc.obj
 0002:00001580       ??_C@_0BI@PEHEOJEO@models?1flags?1r_flag?4md3?$AA@ 3008b580     bg_misc.obj
 0002:00001598       ??_C@_0BN@DGDBEGIO@models?1flags?1r_flag_ysal?4md3?$AA@ 3008b598     bg_misc.obj
 0002:000015b8       ??_C@_0BC@JAMFOFAL@gfx?1hud?1mpi_rflag?$AA@ 3008b5b8     bg_misc.obj
 0002:000015cc       ??_C@_0BC@NLKCOFAB@team_CTF_blueflag?$AA@ 3008b5cc     bg_misc.obj
 0002:000015e0       ??_C@_0BI@FKICCNIF@models?1flags?1b_flag?4md3?$AA@ 3008b5e0     bg_misc.obj
 0002:000015f8       ??_C@_0BN@NABGHIBA@models?1flags?1b_flag_ysal?4md3?$AA@ 3008b5f8     bg_misc.obj
 0002:00001618       ??_C@_0BC@JDBDOHJA@gfx?1hud?1mpi_bflag?$AA@ 3008b618     bg_misc.obj
 0002:0000162c       ??_C@_0BF@NFGOPKAE@team_CTF_neutralflag?$AA@ 3008b62c     bg_misc.obj
 0002:00001644       ??_C@_0BI@FAJILPEC@models?1flags?1n_flag?4md3?$AA@ 3008b644     bg_misc.obj
 0002:0000165c       ??_C@_0BF@OGGGKBMJ@icons?1iconf_neutral1?$AA@ 3008b65c     bg_misc.obj
 0002:00001674       ??_C@_0N@IDOEINCB@item_redcube?$AA@ 3008b674     bg_misc.obj
 0002:00001684       ??_C@_0BO@LDKNFLC@models?1powerups?1orb?1r_orb?4md3?$AA@ 3008b684     bg_misc.obj
 0002:000016a4       ??_C@_0BB@PKDLFOID@icons?1iconh_rorb?$AA@ 3008b6a4     bg_misc.obj
 0002:000016b8       ??_C@_0O@NHDOFNIN@item_bluecube?$AA@ 3008b6b8     bg_misc.obj
 0002:000016c8       ??_C@_0BO@CMJEFEFK@models?1powerups?1orb?1b_orb?4md3?$AA@ 3008b6c8     bg_misc.obj
 0002:000016e8       ??_C@_0BB@JKNLMJAB@icons?1iconh_borb?$AA@ 3008b6e8     bg_misc.obj
 0002:000016fc       ??_C@_07JFMDDPHJ@EV_NONE?$AA@ 3008b6fc     bg_misc.obj
 0002:00001704       ??_C@_0O@JHBAELOC@EV_CLIENTJOIN?$AA@ 3008b704     bg_misc.obj
 0002:00001714       ??_C@_0M@HLKBOJPO@EV_FOOTSTEP?$AA@ 3008b714     bg_misc.obj
 0002:00001720       ??_C@_0BC@DIJMAMMI@EV_FOOTSTEP_METAL?$AA@ 3008b720     bg_misc.obj
 0002:00001734       ??_C@_0O@HLJHKIDH@EV_FOOTSPLASH?$AA@ 3008b734     bg_misc.obj
 0002:00001744       ??_C@_0M@NPJBGELA@EV_FOOTWADE?$AA@ 3008b744     bg_misc.obj
 0002:00001750       ??_C@_07FFIIIPLH@EV_SWIM?$AA@ 3008b750     bg_misc.obj
 0002:00001758       ??_C@_09OLFOHJNB@EV_STEP_4?$AA@ 3008b758     bg_misc.obj
 0002:00001764       ??_C@_09EHOLDGNN@EV_STEP_8?$AA@ 3008b764     bg_misc.obj
 0002:00001770       ??_C@_0L@BKIECKKB@EV_STEP_12?$AA@ 3008b770     bg_misc.obj
 0002:0000177c       ??_C@_0L@HOOIOPKF@EV_STEP_16?$AA@ 3008b77c     bg_misc.obj
 0002:00001788       ??_C@_07JHCKGMKM@EV_FALL?$AA@ 3008b788     bg_misc.obj
 0002:00001790       ??_C@_0M@BPNFGBOJ@EV_JUMP_PAD?$AA@ 3008b790     bg_misc.obj
 0002:0000179c       ??_C@_0P@BMAPLDAL@EV_GHOUL2_MARK?$AA@ 3008b79c     bg_misc.obj
 0002:000017ac       ??_C@_0P@MHGGNABN@EV_GLOBAL_DUEL?$AA@ 3008b7ac     bg_misc.obj
 0002:000017bc       ??_C@_0BA@NCAJLGNF@EV_PRIVATE_DUEL?$AA@ 3008b7bc     bg_misc.obj
 0002:000017cc       ??_C@_07GKBEHGAP@EV_JUMP?$AA@ 3008b7cc     bg_misc.obj
 0002:000017d4       ??_C@_07OCJFCKNN@EV_ROLL?$AA@ 3008b7d4     bg_misc.obj
 0002:000017dc       ??_C@_0P@GCDBKPMP@EV_WATER_TOUCH?$AA@ 3008b7dc     bg_misc.obj
 0002:000017ec       ??_C@_0P@LHDMOIIG@EV_WATER_LEAVE?$AA@ 3008b7ec     bg_misc.obj
 0002:000017fc       ??_C@_0P@MIAIODEJ@EV_WATER_UNDER?$AA@ 3008b7fc     bg_misc.obj
 0002:0000180c       ??_C@_0P@NIPCJOBG@EV_WATER_CLEAR?$AA@ 3008b80c     bg_misc.obj
 0002:0000181c       ??_C@_0P@BGIOEPCB@EV_ITEM_PICKUP?$AA@ 3008b81c     bg_misc.obj
 0002:0000182c       ??_C@_0BG@KFILGAMN@EV_GLOBAL_ITEM_PICKUP?$AA@ 3008b82c     bg_misc.obj
 0002:00001844       ??_C@_0M@MNGOLNFL@EV_VEH_FIRE?$AA@ 3008b844     bg_misc.obj
 0002:00001850       ??_C@_09NMIICG@EV_NOAMMO?$AA@ 3008b850     bg_misc.obj
 0002:0000185c       ??_C@_0BB@ENKPHJLP@EV_CHANGE_WEAPON?$AA@ 3008b85c     bg_misc.obj
 0002:00001870       ??_C@_0P@PFJPAFGH@EV_FIRE_WEAPON?$AA@ 3008b870     bg_misc.obj
 0002:00001880       ??_C@_0M@LKPOHPHC@EV_ALT_FIRE?$AA@ 3008b880     bg_misc.obj
 0002:0000188c       ??_C@_0BA@FJAFFDLF@EV_SABER_ATTACK?$AA@ 3008b88c     bg_misc.obj
 0002:0000189c       ??_C@_0N@IKFBFHKB@EV_SABER_HIT?$AA@ 3008b89c     bg_misc.obj
 0002:000018ac       ??_C@_0P@MNCBBKHB@EV_SABER_BLOCK?$AA@ 3008b8ac     bg_misc.obj
 0002:000018bc       ??_C@_0BE@HNEOPGEL@EV_SABER_CLASHFLARE?$AA@ 3008b8bc     bg_misc.obj
 0002:000018d0       ??_C@_0BD@FFJMPGGA@EV_SABER_UNHOLSTER?$AA@ 3008b8d0     bg_misc.obj
 0002:000018e4       ??_C@_0BF@MBILLJJH@EV_BECOME_JEDIMASTER?$AA@ 3008b8e4     bg_misc.obj
 0002:000018fc       ??_C@_0BH@KDGLLAMO@EV_DISRUPTOR_MAIN_SHOT?$AA@ 3008b8fc     bg_misc.obj
 0002:00001914       ??_C@_0BJ@MDNKGNJN@EV_DISRUPTOR_SNIPER_SHOT?$AA@ 3008b914     bg_misc.obj
 0002:00001930       ??_C@_0BJ@POMLOPMI@EV_DISRUPTOR_SNIPER_MISS?$AA@ 3008b930     bg_misc.obj
 0002:0000194c       ??_C@_0BB@JNGCFFFI@EV_DISRUPTOR_HIT?$AA@ 3008b94c     bg_misc.obj
 0002:00001960       ??_C@_0BH@GCPNKPAL@EV_DISRUPTOR_ZOOMSOUND?$AA@ 3008b960     bg_misc.obj
 0002:00001978       ??_C@_0P@MDPKBHNH@EV_PREDEFSOUND?$AA@ 3008b978     bg_misc.obj
 0002:00001988       ??_C@_0O@GMONIJJI@EV_TEAM_POWER?$AA@ 3008b988     bg_misc.obj
 0002:00001998       ??_C@_0P@EIHBPBOL@EV_SCREENSHAKE?$AA@ 3008b998     bg_misc.obj
 0002:000019a8       ??_C@_0O@GLOAIHAI@EV_LOCALTIMER?$AA@ 3008b9a8     bg_misc.obj
 0002:000019b8       ??_C@_06LBDBNJG@EV_USE?$AA@ 3008b9b8     bg_misc.obj
 0002:000019c0       ??_C@_0N@CGCBJKGD@EV_USE_ITEM0?$AA@ 3008b9c0     bg_misc.obj
 0002:000019d0       ??_C@_0N@DPDKKLCC@EV_USE_ITEM1?$AA@ 3008b9d0     bg_misc.obj
 0002:000019e0       ??_C@_0N@BEBHPIOB@EV_USE_ITEM2?$AA@ 3008b9e0     bg_misc.obj
 0002:000019f0       ??_C@_0N@NAMMJKA@EV_USE_ITEM3?$AA@ 3008b9f0     bg_misc.obj
 0002:00001a00       ??_C@_0N@ECENFPGH@EV_USE_ITEM4?$AA@ 3008ba00     bg_misc.obj
 0002:00001a10       ??_C@_0N@FLFGGOCG@EV_USE_ITEM5?$AA@ 3008ba10     bg_misc.obj
 0002:00001a20       ??_C@_0N@HAHLDNOF@EV_USE_ITEM6?$AA@ 3008ba20     bg_misc.obj
 0002:00001a30       ??_C@_0N@GJGAAMKE@EV_USE_ITEM7?$AA@ 3008ba30     bg_misc.obj
 0002:00001a40       ??_C@_0N@OOPIBAGL@EV_USE_ITEM8?$AA@ 3008ba40     bg_misc.obj
 0002:00001a50       ??_C@_0N@PHODCBCK@EV_USE_ITEM9?$AA@ 3008ba50     bg_misc.obj
 0002:00001a60       ??_C@_0O@KBJENLM@EV_USE_ITEM10?$AA@ 3008ba60     bg_misc.obj
 0002:00001a70       ??_C@_0O@BDACHMPN@EV_USE_ITEM11?$AA@ 3008ba70     bg_misc.obj
 0002:00001a80       ??_C@_0O@DICPCPDO@EV_USE_ITEM12?$AA@ 3008ba80     bg_misc.obj
 0002:00001a90       ??_C@_0O@CBDEBOHP@EV_USE_ITEM13?$AA@ 3008ba90     bg_misc.obj
 0002:00001aa0       ??_C@_0O@GOHFIILI@EV_USE_ITEM14?$AA@ 3008baa0     bg_misc.obj
 0002:00001ab0       ??_C@_0O@HHGOLJPJ@EV_USE_ITEM15?$AA@ 3008bab0     bg_misc.obj
 0002:00001ac0       ??_C@_0P@JFHCOBFC@EV_ITEMUSEFAIL?$AA@ 3008bac0     bg_misc.obj
 0002:00001ad0       ??_C@_0BA@GJNCODNG@EV_ITEM_RESPAWN?$AA@ 3008bad0     bg_misc.obj
 0002:00001ae0       ??_C@_0M@ECGFPIMP@EV_ITEM_POP?$AA@ 3008bae0     bg_misc.obj
 0002:00001aec       ??_C@_0BG@HBBJKNDP@EV_PLAYER_TELEPORT_IN?$AA@ 3008baec     bg_misc.obj
 0002:00001b04       ??_C@_0BH@FNNILPIN@EV_PLAYER_TELEPORT_OUT?$AA@ 3008bb04     bg_misc.obj
 0002:00001b1c       ??_C@_0BC@ECIIAFLJ@EV_GRENADE_BOUNCE?$AA@ 3008bb1c     bg_misc.obj
 0002:00001b30       ??_C@_0BB@JGOOAGDJ@EV_MISSILE_STICK?$AA@ 3008bb30     bg_misc.obj
 0002:00001b44       ??_C@_0P@PLIFONPM@EV_PLAY_EFFECT?$AA@ 3008bb44     bg_misc.obj
 0002:00001b54       ??_C@_0BC@LCOMFDPL@EV_PLAY_EFFECT_ID?$AA@ 3008bb54     bg_misc.obj
 0002:00001b68       ??_C@_0BJ@CGDHKBCK@EV_PLAY_PORTAL_EFFECT_ID?$AA@ 3008bb68     bg_misc.obj
 0002:00001b84       ??_C@_0BB@OGNONJKP@EV_PLAYDOORSOUND?$AA@ 3008bb84     bg_misc.obj
 0002:00001b98       ??_C@_0BF@BLAPJAMF@EV_PLAYDOORLOOPSOUND?$AA@ 3008bb98     bg_misc.obj
 0002:00001bb0       ??_C@_0BA@EGLCGAMO@EV_BMODEL_SOUND?$AA@ 3008bbb0     bg_misc.obj
 0002:00001bc0       ??_C@_0O@JHBKAOKG@EV_MUTE_SOUND?$AA@ 3008bbc0     bg_misc.obj
 0002:00001bd0       ??_C@_0BC@GMNGJAOD@EV_VOICECMD_SOUND?$AA@ 3008bbd0     bg_misc.obj
 0002:00001be4       ??_C@_0BB@LJGGMAII@EV_GENERAL_SOUND?$AA@ 3008bbe4     bg_misc.obj
 0002:00001bf8       ??_C@_0BA@JAMKLOPJ@EV_GLOBAL_SOUND?$AA@ 3008bbf8     bg_misc.obj
 0002:00001c08       ??_C@_0BF@DDOIKLHD@EV_GLOBAL_TEAM_SOUND?$AA@ 3008bc08     bg_misc.obj
 0002:00001c20       ??_C@_0BA@LLJGBFCE@EV_ENTITY_SOUND?$AA@ 3008bc20     bg_misc.obj
 0002:00001c30       ??_C@_0N@BEKJCCJE@EV_PLAY_ROFF?$AA@ 3008bc30     bg_misc.obj
 0002:00001c40       ??_C@_0BB@HHFJBAND@EV_GLASS_SHATTER?$AA@ 3008bc40     bg_misc.obj
 0002:00001c54       ??_C@_09KLJDDMJG@EV_DEBRIS?$AA@ 3008bc54     bg_misc.obj
 0002:00001c60       ??_C@_0BC@MLGOBNCG@EV_MISC_MODEL_EXP?$AA@ 3008bc60     bg_misc.obj
 0002:00001c74       ??_C@_0BD@PIOAMKHB@EV_CONC_ALT_IMPACT?$AA@ 3008bc74     bg_misc.obj
 0002:00001c88       ??_C@_0P@JFMFNBMO@EV_MISSILE_HIT?$AA@ 3008bc88     bg_misc.obj
 0002:00001c98       ??_C@_0BA@CAHALNAE@EV_MISSILE_MISS?$AA@ 3008bc98     bg_misc.obj
 0002:00001ca8       ??_C@_0BG@LPAHEABB@EV_MISSILE_MISS_METAL?$AA@ 3008bca8     bg_misc.obj
 0002:00001cc0       ??_C@_09ICDIPKFJ@EV_BULLET?$AA@ 3008bcc0     bg_misc.obj
 0002:00001ccc       ??_C@_07EMHHKOOH@EV_PAIN?$AA@ 3008bccc     bg_misc.obj
 0002:00001cd4       ??_C@_09JPFBHKII@EV_DEATH1?$AA@ 3008bcd4     bg_misc.obj
 0002:00001ce0       ??_C@_09LEHMCJEL@EV_DEATH2?$AA@ 3008bce0     bg_misc.obj
 0002:00001cec       ??_C@_09KNGHBIAK@EV_DEATH3?$AA@ 3008bcec     bg_misc.obj
 0002:00001cf8       ??_C@_0M@PPLCDPP@EV_OBITUARY?$AA@ 3008bcf8     bg_misc.obj
 0002:00001d04       ??_C@_0BA@HLHGHIIE@EV_POWERUP_QUAD?$AA@ 3008bd04     bg_misc.obj
 0002:00001d14       ??_C@_0BG@CHAMNADK@EV_POWERUP_BATTLESUIT?$AA@ 3008bd14     bg_misc.obj
 0002:00001d2c       ??_C@_0BB@KGMADNKO@EV_FORCE_DRAINED?$AA@ 3008bd2c     bg_misc.obj
 0002:00001d40       ??_C@_0O@JLGFLKBE@EV_GIB_PLAYER?$AA@ 3008bd40     bg_misc.obj
 0002:00001d50       ??_C@_0N@GAJBP@EV_SCOREPLUM?$AA@ 3008bd50     bg_misc.obj
 0002:00001d60       ??_C@_0O@NEHCEMNJ@EV_CTFMESSAGE?$AA@ 3008bd60     bg_misc.obj
 0002:00001d70       ??_C@_0M@GBGEMMKK@EV_BODYFADE?$AA@ 3008bd70     bg_misc.obj
 0002:00001d7c       ??_C@_0BD@LACADBAO@EV_SIEGE_ROUNDOVER?$AA@ 3008bd7c     bg_misc.obj
 0002:00001d90       ??_C@_0BL@CGBBFEIE@EV_SIEGE_OBJECTIVECOMPLETE?$AA@ 3008bd90     bg_misc.obj
 0002:00001dac       ??_C@_0BL@DNICLAEN@EV_DESTROY_GHOUL2_INSTANCE?$AA@ 3008bdac     bg_misc.obj
 0002:00001dc8       ??_C@_0BI@CEGPCIEH@EV_DESTROY_WEAPON_MODEL?$AA@ 3008bdc8     bg_misc.obj
 0002:00001de0       ??_C@_0BB@JIHOLMBD@EV_GIVE_NEW_RANK?$AA@ 3008bde0     bg_misc.obj
 0002:00001df4       ??_C@_0BC@DDJADHAK@EV_SET_FREE_SABER?$AA@ 3008bdf4     bg_misc.obj
 0002:00001e08       ??_C@_0BF@KFICFFCM@EV_SET_FORCE_DISABLE?$AA@ 3008be08     bg_misc.obj
 0002:00001e20       ??_C@_0BB@HAHOHAKJ@EV_WEAPON_CHARGE?$AA@ 3008be20     bg_misc.obj
 0002:00001e34       ??_C@_0BF@LLJHJACN@EV_WEAPON_CHARGE_ALT?$AA@ 3008be34     bg_misc.obj
 0002:00001e4c       ??_C@_0O@CBLOOGHB@EV_SHIELD_HIT?$AA@ 3008be4c     bg_misc.obj
 0002:00001e5c       ??_C@_0O@PBPAKHP@EV_DEBUG_LINE?$AA@ 3008be5c     bg_misc.obj
 0002:00001e6c       ??_C@_0M@LDAKOPJP@EV_TESTLINE?$AA@ 3008be6c     bg_misc.obj
 0002:00001e78       ??_C@_0BE@OHJHDFJH@EV_STOPLOOPINGSOUND?$AA@ 3008be78     bg_misc.obj
 0002:00001e8c       ??_C@_0BF@EAHNFOOG@EV_STARTLOOPINGSOUND?$AA@ 3008be8c     bg_misc.obj
 0002:00001ea4       ??_C@_08GBKLDCBE@EV_TAUNT?$AA@ 3008bea4     bg_misc.obj
 0002:00001eb0       ??_C@_09EPBMGDBP@l_arm_key?$AA@ 3008beb0     bg_misc.obj
 0002:00001ebc       ??_C@_0BA@FKJGEIF@torso_canister1?$AA@ 3008bebc     bg_misc.obj
 0002:00001ecc       ??_C@_0BA@COIEDHEG@torso_canister2?$AA@ 3008becc     bg_misc.obj
 0002:00001edc       ??_C@_0BA@DHJPAGAH@torso_canister3?$AA@ 3008bedc     bg_misc.obj
 0002:00001eec       ??_C@_0M@DPGBHBIA@torso_tube1?$AA@ 3008beec     bg_misc.obj
 0002:00001ef8       ??_C@_0M@BEEMCCED@torso_tube2?$AA@ 3008bef8     bg_misc.obj
 0002:00001f04       ??_C@_0M@NFHBDAC@torso_tube3?$AA@ 3008bf04     bg_misc.obj
 0002:00001f10       ??_C@_0M@ECBGIFMF@torso_tube4?$AA@ 3008bf10     bg_misc.obj
 0002:00001f1c       ??_C@_0M@FLANLEIE@torso_tube5?$AA@ 3008bf1c     bg_misc.obj
 0002:00001f28       ??_C@_0M@HACAOHEH@torso_tube6?$AA@ 3008bf28     bg_misc.obj
 0002:00001f34       ??_C@_05LGCIJDDO@r_arm?$AA@ 3008bf34     bg_misc.obj
 0002:00001f3c       ??_C@_05IPPEPANF@l_arm?$AA@ 3008bf3c     bg_misc.obj
 0002:00001f44       ??_C@_0N@IFENOPML@torso_shield?$AA@ 3008bf44     bg_misc.obj
 0002:00001f54       ??_C@_0BB@FPOHHKLE@torso_galaktorso?$AA@ 3008bf54     bg_misc.obj
 0002:00001f68       ??_C@_0N@FODOKFMD@torso_collar?$AA@ 3008bf68     bg_misc.obj
 0002:00001f78       ??_C@_07HDAMFNEH@r_wing1?$AA@ 3008bf78     bg_misc.obj
 0002:00001f80       ??_C@_07FICBAOIE@r_wing2?$AA@ 3008bf80     bg_misc.obj
 0002:00001f88       ??_C@_07BKDNHOFO@l_wing1?$AA@ 3008bf88     bg_misc.obj
 0002:00001f90       ??_C@_07DBBACNJN@l_wing2?$AA@ 3008bf90     bg_misc.obj
 0002:00001f98       ??_C@_06JHEKENKO@r_gear?$AA@ 3008bf98     bg_misc.obj
 0002:00001fa0       ??_C@_06KAKLKKDN@l_gear?$AA@ 3008bfa0     bg_misc.obj
 0002:00001fa8       ??_C@_04DCKHGPHA@nose?$AA@ 3008bfa8     bg_misc.obj
 0002:00001fb0       ??_C@_05CJLHJDEI@blah4?$AA@ 3008bfb0     bg_misc.obj
 0002:00001fb8       ??_C@_05DAKMKCAJ@blah5?$AA@ 3008bfb8     bg_misc.obj
 0002:00001fc0       ??_C@_06LKFNFIFB@l_hand?$AA@ 3008bfc0     bg_misc.obj
 0002:00001fc8       ??_C@_06INLMLPMC@r_hand?$AA@ 3008bfc8     bg_misc.obj
 0002:00001fd0       ??_C@_06BCDCLMEB@helmet?$AA@ 3008bfd0     bg_misc.obj
 0002:00001fd8       ??_C@_04NEODDMOL@head?$AA@ 3008bfd8     bg_misc.obj
 0002:00001fe0       ??_C@_0BI@FPANAMDK@head_concussion_charger?$AA@ 3008bfe0     bg_misc.obj
 0002:00001ff8       ??_C@_0BI@KPCBHBOL@head_light_blaster_cann?$AA@ 3008bff8     bg_misc.obj
 0002:00002010       ??_C@_0M@MHLPAMFK@?$CKatt_attack?$AA@ 3008c010     bg_misc.obj
 0002:0000201c       ??_C@_0N@GFADGNOG@?$CKatt_primary?$AA@ 3008c01c     bg_misc.obj
 0002:0000202c       ??_C@_0M@ECCLODLO@?$CKatt_second?$AA@ 3008c02c     bg_misc.obj
 0002:00002038       ??_C@_09PJJIIOPG@?$CKdef_guns?$AA@ 3008c038     bg_misc.obj
 0002:00002044       ??_C@_0O@EGEINPEB@?$CKdef_position?$AA@ 3008c044     bg_misc.obj
 0002:00002054       ??_C@_0N@LBIDFACI@?$CKdef_primary?$AA@ 3008c054     bg_misc.obj
 0002:00002064       ??_C@_0M@HJCGMPNN@?$CKdef_second?$AA@ 3008c064     bg_misc.obj
 0002:00002070       ??_C@_0O@LCDECPIN@?$CKreply_coming?$AA@ 3008c070     bg_misc.obj
 0002:00002080       ??_C@_09FJFLGJJB@?$CKreply_go?$AA@ 3008c080     bg_misc.obj
 0002:0000208c       ??_C@_09FGIKFCBO@?$CKreply_no?$AA@ 3008c08c     bg_misc.obj
 0002:00002098       ??_C@_0M@PJKELJII@?$CKreply_stay?$AA@ 3008c098     bg_misc.obj
 0002:000020a4       ??_C@_0L@DOBCHHPE@?$CKreply_yes?$AA@ 3008c0a4     bg_misc.obj
 0002:000020b0       ??_C@_0M@MJLNGIKA@?$CKreq_assist?$AA@ 3008c0b0     bg_misc.obj
 0002:000020bc       ??_C@_09HHLDNJAG@?$CKreq_demo?$AA@ 3008c0bc     bg_misc.obj
 0002:000020c8       ??_C@_08BDPMJJAM@?$CKreq_hvy?$AA@ 3008c0c8     bg_misc.obj
 0002:000020d4       ??_C@_0L@PJEOEMHI@?$CKreq_medic?$AA@ 3008c0d4     bg_misc.obj
 0002:000020e0       ??_C@_08EHGAEMIC@?$CKreq_sup?$AA@ 3008c0e0     bg_misc.obj
 0002:000020ec       ??_C@_09FCIMPFEJ@?$CKreq_tech?$AA@ 3008c0ec     bg_misc.obj
 0002:000020f8       ??_C@_09KPOPDKGM@?$CKspot_air?$AA@ 3008c0f8     bg_misc.obj
 0002:00002104       ??_C@_0P@ILGDCGKG@?$CKspot_defenses?$AA@ 3008c104     bg_misc.obj
 0002:00002114       ??_C@_0P@LLDGJFLE@?$CKspot_emplaced?$AA@ 3008c114     bg_misc.obj
 0002:00002124       ??_C@_0N@JGIPLKJE@?$CKspot_sniper?$AA@ 3008c124     bg_misc.obj
 0002:00002134       ??_C@_0N@KDPAKEEJ@?$CKspot_troops?$AA@ 3008c134     bg_misc.obj
 0002:00002144       ??_C@_0L@EHELGHNE@?$CKtac_cover?$AA@ 3008c144     bg_misc.obj
 0002:00002150       ??_C@_0O@NFGMPNBH@?$CKtac_fallback?$AA@ 3008c150     bg_misc.obj
 0002:00002160       ??_C@_0M@PABJGNLG@?$CKtac_follow?$AA@ 3008c160     bg_misc.obj
 0002:0000216c       ??_C@_09DINJJNAI@?$CKtac_hold?$AA@ 3008c16c     bg_misc.obj
 0002:00002178       ??_C@_0L@MGMJIMAF@?$CKtac_split?$AA@ 3008c178     bg_misc.obj
 0002:00002184       ??_C@_0O@GKPNHIOC@?$CKtac_together?$AA@ 3008c184     bg_misc.obj
 0002:00002194       ??_C@_08BLACEHGF@MASTERY0?$AA@ 3008c194     bg_misc.obj
 0002:000021a0       ??_C@_08CBJHGCE@MASTERY1?$AA@ 3008c1a0     bg_misc.obj
 0002:000021ac       ??_C@_08CJDECFOH@MASTERY2?$AA@ 3008c1ac     bg_misc.obj
 0002:000021b8       ??_C@_08DACPBEKG@MASTERY3?$AA@ 3008c1b8     bg_misc.obj
 0002:000021c4       ??_C@_08HPGOICGB@MASTERY4?$AA@ 3008c1c4     bg_misc.obj
 0002:000021d0       ??_C@_08GGHFLDCA@MASTERY5?$AA@ 3008c1d0     bg_misc.obj
 0002:000021dc       ??_C@_08ENFIOAOD@MASTERY6?$AA@ 3008c1dc     bg_misc.obj
 0002:000021e8       ??_C@_08FEEDNBKC@MASTERY7?$AA@ 3008c1e8     bg_misc.obj
 0002:000021f4       ??_C@_08OEKJENGB@?$CFf?5?$CFf?5?$CFf?$AA@ 3008c1f4     bg_misc.obj
 0002:00002200       ??_C@_02IKAHHCAI@?$CFi?$AA@ 3008c200     bg_misc.obj
 0002:00002204       ??_C@_0BH@MFGKJDLM@HoldableItem?5not?5found?$AA@ 3008c204     bg_misc.obj
 0002:0000221c       ??_C@_0CB@DEACFJO@Couldn?8t?5find?5item?5for?5weapon?5?$CFi@ 3008c21c     bg_misc.obj
 0002:00002240       ??_C@_0CI@MFONMA@BG_CanItemBeGrabbed?3?5index?5out?5o@ 3008c240     bg_misc.obj
 0002:00002268       ??_C@_0BM@NECGLAIF@BG_CanItemBeGrabbed?3?5IT_BAD?$AA@ 3008c268     bg_misc.obj
 0002:00002284       ??_C@_0DM@PPIGHFEL@BG_EvaluateTrajectory?3?5?$FLCLIENTGA@ 3008c284     bg_misc.obj
 0002:000022c0       ??_C@_0CP@MCFPOIMF@BG_EvaluateTrajectoryDelta?3?5unkn@ 3008c2c0     bg_misc.obj
 0002:000022f0       ??_C@_04JIEPAMAO@kyle?$AA@ 3008c2f0     bg_misc.obj
 0002:000022f8       ??_C@_04BEPDCOC@fpls?$AA@  3008c2f8     bg_misc.obj
 0002:00002300       ??_C@_05KDHFJIBH@fpls2?$AA@ 3008c300     bg_misc.obj
 0002:00002308       ??_C@_05LKGOKJFG@fpls3?$AA@ 3008c308     bg_misc.obj
 0002:00002310       ??_C@_05HIOBFLDN@jedi_?$AA@ 3008c310     bg_misc.obj
 0002:00002318       ??_C@_03FAAAOPJM@red?$AA@  3008c318     bg_misc.obj
 0002:0000231c       ??_C@_04OBGPFBCN@blue?$AA@ 3008c31c     bg_misc.obj
 0002:00002324       ??_C@_07DLHCIBDH@default?$AA@ 3008c324     bg_misc.obj
 0002:0000232c       ??_C@_04NCFJPIH@_red?$AA@  3008c32c     bg_misc.obj
 0002:00002334       ??_C@_0CA@ODGGEHPP@models?1players?1?$CFs?1model_?$CFs?4skin?$AA@ 3008c334     bg_misc.obj
 0002:00002354       ??_C@_05GLFHLNLB@_blue?$AA@ 3008c354     bg_misc.obj
 0002:0000235c       ??_C@_0CJ@BDGLLNGN@BG_Alloc?3?5buffer?5exceeded?5tail?5?$CI@ 3008c35c     bg_misc.obj
 0002:00002388       ??_C@_0CN@JLGNNLBK@BG_TempAlloc?3?5buffer?5exceeded?5he@ 3008c388     bg_misc.obj
 0002:000023b8       ??_C@_0CO@IIHBNEDD@BG_TempFree?3?5tail?5greater?5than?5s@ 3008c3b8     bg_misc.obj
 0002:000023e8       __real@3a83126f            3008c3e8     bg_misc.obj
 0002:000023f0       __real@3f50624dd2f1a9fc    3008c3f0     bg_misc.obj
 0002:000023f8       __real@3f800000            3008c3f8     bg_misc.obj
 0002:00002400       __real@3fe0000000000000    3008c400     bg_misc.obj
 0002:00002408       __real@40000000            3008c408     bg_misc.obj
 0002:00002410       __real@400921fb60000000    3008c410     bg_misc.obj
 0002:00002418       __real@40490fdb            3008c418     bg_misc.obj
 0002:00002420       __real@4066800000000000    3008c420     bg_misc.obj
 0002:00002428       __real@4079000000000000    3008c428     bg_misc.obj
 0002:00002430       __real@42100000            3008c430     bg_misc.obj
 0002:00002434       __real@42300000            3008c434     bg_misc.obj
 0002:00002438       __real@42b40000            3008c438     bg_misc.obj
 0002:0000243c       __real@43340000            3008c43c     bg_misc.obj
 0002:00002440       __real@43b40000            3008c440     bg_misc.obj
 0002:00002444       __real@44480000            3008c444     bg_misc.obj
 0002:00002448       __real@bf800000            3008c448     bg_misc.obj
 0002:0000244c       __real@c2100000            3008c44c     bg_misc.obj
 0002:00002450       __real@c2480000            3008c450     bg_misc.obj
 0002:00002454       ??_C@_0BE@HHOKGIBO@BOTH_FORCE_GETUP_B5?$AA@ 3008c454     bg_panimate.obj
 0002:00002468       ??_C@_0O@IOLDBJFN@BOTH_T2_BR_BL?$AA@ 3008c468     bg_panimate.obj
 0002:00002478       ??_C@_0BE@FMMHDLNN@BOTH_FORCE_GETUP_B6?$AA@ 3008c478     bg_panimate.obj
 0002:0000248c       ??_C@_0O@PNBBOIAF@BOTH_T2__R_TR?$AA@ 3008c48c     bg_panimate.obj
 0002:0000249c       ??_C@_0BD@IAPFGJBO@BOTH_GETUP_BROLL_B?$AA@ 3008c49c     bg_panimate.obj
 0002:000024b0       ??_C@_0O@CJFANHNK@BOTH_T2__R_TL?$AA@ 3008c4b0     bg_panimate.obj
 0002:000024c0       ??_C@_0BD@OEJJKMBK@BOTH_GETUP_BROLL_F?$AA@ 3008c4c0     bg_panimate.obj
 0002:000024d4       ??_C@_0O@CFAFDIDL@BOTH_T2__R__L?$AA@ 3008c4d4     bg_panimate.obj
 0002:000024e4       ??_C@_0BD@BOHGEEJA@BOTH_GETUP_BROLL_L?$AA@ 3008c4e4     bg_panimate.obj
 0002:000024f8       ??_C@_0O@DBPLAIBI@BOTH_T2__R_BL?$AA@ 3008c4f8     bg_panimate.obj
 0002:00002508       ??_C@_0BD@MKDHHLEP@BOTH_GETUP_BROLL_R?$AA@ 3008c508     bg_panimate.obj
 0002:0000251c       ??_C@_0O@IPHNMHAE@BOTH_T2_TR_BR?$AA@ 3008c51c     bg_panimate.obj
 0002:0000252c       ??_C@_0BD@ELPGHOE@BOTH_GETUP_FROLL_B?$AA@ 3008c52c     bg_panimate.obj
 0002:00002540       ??_C@_0O@EDJHCHBJ@BOTH_T2_TR_TL?$AA@ 3008c540     bg_panimate.obj
 0002:00002550       ??_C@_0BD@GANDKCOA@BOTH_GETUP_FROLL_F?$AA@ 3008c550     bg_panimate.obj
 0002:00002564       ??_C@_0O@EPMCMIPI@BOTH_T2_TR__L?$AA@ 3008c564     bg_panimate.obj
 0002:00002574       ??_C@_0BD@JKDMEKGK@BOTH_GETUP_FROLL_L?$AA@ 3008c574     bg_panimate.obj
 0002:00002588       ??_C@_0O@FLDMPINL@BOTH_T2_TR_BL?$AA@ 3008c588     bg_panimate.obj
 0002:00002598       ??_C@_0BD@EOHNHFLF@BOTH_GETUP_FROLL_R?$AA@ 3008c598     bg_panimate.obj
 0002:000025ac       ??_C@_0O@HHONADLF@BOTH_T2_T__BR?$AA@ 3008c5ac     bg_panimate.obj
 0002:000025bc       ??_C@_0BF@GJCHNFNC@BOTH_WALL_FLIP_BACK1?$AA@ 3008c5bc     bg_panimate.obj
 0002:000025d4       ??_C@_0O@GDBDDDJG@BOTH_T2_T___R?$AA@ 3008c5d4     bg_panimate.obj
 0002:000025e4       ??_C@_0BF@ECAKIGBB@BOTH_WALL_FLIP_BACK2?$AA@ 3008c5e4     bg_panimate.obj
 0002:000025fc       ??_C@_0O@GPEGNMHH@BOTH_T2_T__TR?$AA@ 3008c5fc     bg_panimate.obj
 0002:0000260c       ??_C@_0L@JNPKOHDB@BOTH_SPIN1?$AA@ 3008c60c     bg_panimate.obj
 0002:00002618       ??_C@_0O@LLAHODKI@BOTH_T2_T__TL?$AA@ 3008c618     bg_panimate.obj
 0002:00002628       ??_C@_0BD@LHONGOKG@BOTH_CEILING_CLING?$AA@ 3008c628     bg_panimate.obj
 0002:0000263c       ??_C@_0O@LHFCAMEJ@BOTH_T2_T___L?$AA@ 3008c63c     bg_panimate.obj
 0002:0000264c       ??_C@_0BC@GKKAPGJM@BOTH_CEILING_DROP?$AA@ 3008c64c     bg_panimate.obj
 0002:00002660       ??_C@_0O@KDKMDMGK@BOTH_T2_T__BL?$AA@ 3008c660     bg_panimate.obj
 0002:00002670       ??_C@_0BA@CINBNIPK@BOTH_FJSS_TR_BL?$AA@ 3008c670     bg_panimate.obj
 0002:00002680       ??_C@_0O@FAKNOOOH@BOTH_T2_TL_BR?$AA@ 3008c680     bg_panimate.obj
 0002:00002690       ??_C@_0BA@CDEAMOMG@BOTH_FJSS_TL_BR?$AA@ 3008c690     bg_panimate.obj
 0002:000026a0       ??_C@_0O@IEOMNBDI@BOTH_T2_TL_BL?$AA@ 3008c6a0     bg_panimate.obj
 0002:000026b0       ??_C@_0BJ@PHBNOEEM@BOTH_RIGHTHANDCHOPPEDOFF?$AA@ 3008c6b0     bg_panimate.obj
 0002:000026cc       ??_C@_0O@DKGKBOCE@BOTH_T2__L_BR?$AA@ 3008c6cc     bg_panimate.obj
 0002:000026dc       ??_C@_0BM@ELFFAKLF@BOTH_DEFLECTSLASH__R__L_FIN?$AA@ 3008c6dc     bg_panimate.obj
 0002:000026f8       ??_C@_0O@COJECOAH@BOTH_T2__L__R?$AA@ 3008c6f8     bg_panimate.obj
 0002:00002708       ??_C@_0N@PBBFIKGE@BOTH_BASHED1?$AA@ 3008c708     bg_panimate.obj
 0002:00002718       ??_C@_0O@PGIAPODJ@BOTH_T2__L_TL?$AA@ 3008c718     bg_panimate.obj
 0002:00002728       ??_C@_0O@HINNODAG@BOTH_ARIAL_F1?$AA@ 3008c728     bg_panimate.obj
 0002:00002738       ??_C@_0O@IFCCAPGB@BOTH_T2_BL_BR?$AA@ 3008c738     bg_panimate.obj
 0002:00002748       ??_C@_0BD@GDAEGPCN@BOTH_BUTTERFLY_FR1?$AA@ 3008c748     bg_panimate.obj
 0002:0000275c       ??_C@_0O@JBNMDPEC@BOTH_T2_BL__R?$AA@ 3008c75c     bg_panimate.obj
 0002:0000276c       ??_C@_0BD@HFLMOBFH@BOTH_BUTTERFLY_FL1?$AA@ 3008c76c     bg_panimate.obj
 0002:00002780       ??_C@_0O@JNIJNAKD@BOTH_T2_BL_TR?$AA@ 3008c780     bg_panimate.obj
 0002:00002790       ??_C@_0BC@BJEPANJA@BOTH_BACK_FLIP_UP?$AA@ 3008c790     bg_panimate.obj
 0002:000027a4       ??_C@_0O@EFJNAAJN@BOTH_T2_BL__L?$AA@ 3008c7a4     bg_panimate.obj
 0002:000027b4       ??_C@_0BA@NPLLAIGE@BOTH_LOSE_SABER?$AA@ 3008c7b4     bg_panimate.obj
 0002:000027c4       ??_C@_0O@ECFJPJEA@BOTH_T2_BR_TR?$AA@ 3008c7c4     bg_panimate.obj
 0002:000027d4       ??_C@_0BB@IIJAHOAM@BOTH_STAFF_TAUNT?$AA@ 3008c7d4     bg_panimate.obj
 0002:000027e8       ??_C@_0O@PHPHIHAN@BOTH_T2_BR_T_?$AA@ 3008c7e8     bg_panimate.obj
 0002:000027f8       ??_C@_0BA@ECEJJOCF@BOTH_DUAL_TAUNT?$AA@ 3008c7f8     bg_panimate.obj
 0002:00002808       ??_C@_0O@OFLKDHMH@BOTH_T2__R_BR?$AA@ 3008c808     bg_panimate.obj
 0002:00002818       ??_C@_0L@LKOFLFIC@BOTH_A6_FB?$AA@ 3008c818     bg_panimate.obj
 0002:00002824       ??_C@_0O@EILPJGEI@BOTH_T2__R_T_?$AA@ 3008c824     bg_panimate.obj
 0002:00002834       ??_C@_0L@PNLACCAF@BOTH_A6_LR?$AA@ 3008c834     bg_panimate.obj
 0002:00002840       ??_C@_0O@JLIDPHCH@BOTH_T2_TR__R?$AA@ 3008c840     bg_panimate.obj
 0002:00002850       ??_C@_0N@NLKPNJAP@BOTH_A7_HILT?$AA@ 3008c850     bg_panimate.obj
 0002:00002860       ??_C@_0O@CCHIGGIL@BOTH_T2_TR_T_?$AA@ 3008c860     bg_panimate.obj
 0002:00002870       ??_C@_0BA@IMOMKPBA@BOTH_ALORA_SPIN?$AA@ 3008c870     bg_panimate.obj
 0002:00002880       ??_C@_0O@EEFDNOME@BOTH_T2_TL__R?$AA@ 3008c880     bg_panimate.obj
 0002:00002890       ??_C@_0BC@FMCCBPNO@BOTH_ALORA_FLIP_1?$AA@ 3008c890     bg_panimate.obj
 0002:000028a4       ??_C@_0O@EIAGDBCF@BOTH_T2_TL_TR?$AA@ 3008c8a4     bg_panimate.obj
 0002:000028b4       ??_C@_0BC@HHAPEMBN@BOTH_ALORA_FLIP_2?$AA@ 3008c8b4     bg_panimate.obj
 0002:000028c8       ??_C@_0O@PNKIEPGI@BOTH_T2_TL_T_?$AA@ 3008c8c8     bg_panimate.obj
 0002:000028d8       ??_C@_0BC@GOBEHNFM@BOTH_ALORA_FLIP_3?$AA@ 3008c8d8     bg_panimate.obj
 0002:000028ec       ??_C@_0O@JABCOBBL@BOTH_T2_TL__L?$AA@ 3008c8ec     bg_panimate.obj
 0002:000028fc       ??_C@_0BC@FIDADFOL@BOTH_ALORA_FLIP_B?$AA@ 3008c8fc     bg_panimate.obj
 0002:00002910       ??_C@_0O@CCMBMBOG@BOTH_T2__L_TR?$AA@ 3008c910     bg_panimate.obj
 0002:00002920       ??_C@_0BG@EABOBAMI@BOTH_ALORA_SPIN_THROW?$AA@ 3008c920     bg_panimate.obj
 0002:00002938       ??_C@_0O@JHGPLPKL@BOTH_T2__L_T_?$AA@ 3008c938     bg_panimate.obj
 0002:00002948       ??_C@_0BG@DCFBCKEL@BOTH_ALORA_SPIN_SLASH?$AA@ 3008c948     bg_panimate.obj
 0002:00002960       ??_C@_0O@OOCLCBPL@BOTH_T2__L_BL?$AA@ 3008c960     bg_panimate.obj
 0002:00002970       ??_C@_0BB@JJKGACDG@BOTH_ALORA_TAUNT?$AA@ 3008c970     bg_panimate.obj
 0002:00002984       ??_C@_0O@CICHKOOO@BOTH_T2_BL_T_?$AA@ 3008c984     bg_panimate.obj
 0002:00002994       ??_C@_0P@KODDALBF@BOTH_ROSH_PAIN?$AA@ 3008c994     bg_panimate.obj
 0002:000029a4       ??_C@_0O@EJMIOPHM@BOTH_T2_BL_TL?$AA@ 3008c9a4     bg_panimate.obj
 0002:000029b4       ??_C@_0P@ENOEHDDL@BOTH_ROSH_HEAL?$AA@ 3008c9b4     bg_panimate.obj
 0002:000029c4       ??_C@_0O@IFIODGGH@BOTH_S2_S1_T_?$AA@ 3008c9c4     bg_panimate.obj
 0002:000029d4       ??_C@_0BK@NBGHMOBL@BOTH_TAVION_SCEPTERGROUND?$AA@ 3008c9d4     bg_panimate.obj
 0002:000029f0       ??_C@_0O@OIDEJIBE@BOTH_S2_S1__L?$AA@ 3008c9f0     bg_panimate.obj
 0002:00002a00       ??_C@_0BH@HFIAAKKL@BOTH_TAVION_SWORDPOWER?$AA@ 3008ca00     bg_panimate.obj
 0002:00002a18       ??_C@_0O@DMHFKHML@BOTH_S2_S1__R?$AA@ 3008ca18     bg_panimate.obj
 0002:00002a28       ??_C@_0BD@FGCDNAOB@BOTH_SCEPTER_START?$AA@ 3008ca28     bg_panimate.obj
 0002:00002a3c       ??_C@_0O@OEGBHHPF@BOTH_S2_S1_TL?$AA@ 3008ca3c     bg_panimate.obj
 0002:00002a4c       ??_C@_0BC@HIHKAHFB@BOTH_SCEPTER_HOLD?$AA@ 3008ca4c     bg_panimate.obj
 0002:00002a60       ??_C@_0O@CIILJHOI@BOTH_S2_S1_BR?$AA@ 3008ca60     bg_panimate.obj
 0002:00002a70       ??_C@_0BC@MELKBIFA@BOTH_SCEPTER_STOP?$AA@ 3008ca70     bg_panimate.obj
 0002:00002a84       ??_C@_0O@PMMKKIDH@BOTH_S2_S1_BL?$AA@ 3008ca84     bg_panimate.obj
 0002:00002a94       ??_C@_0P@FMNEHFNM@BOTH_KYLE_GRAB?$AA@ 3008ca94     bg_panimate.obj
 0002:00002aa4       ??_C@_0O@DACAEICK@BOTH_S2_S1_TR?$AA@ 3008caa4     bg_panimate.obj
 0002:00002ab4       ??_C@_0P@NNAHOJON@BOTH_KYLE_MISS?$AA@ 3008cab4     bg_panimate.obj
 0002:00002ac4       ??_C@_0O@ICEMGKJK@BOTH_R2_B__S1?$AA@ 3008cac4     bg_panimate.obj
 0002:00002ad4       ??_C@_0P@NOBCGCHA@BOTH_KYLE_PA_1?$AA@ 3008cad4     bg_panimate.obj
 0002:00002ae4       ??_C@_0O@BKEEJGIN@BOTH_R2__L_S1?$AA@ 3008cae4     bg_panimate.obj
 0002:00002af4       ??_C@_0BB@JKEILKGN@BOTH_PLAYER_PA_1?$AA@ 3008caf4     bg_panimate.obj
 0002:00002b08       ??_C@_0O@MFJELPGO@BOTH_R2__R_S1?$AA@ 3008cb08     bg_panimate.obj
 0002:00002b18       ??_C@_0P@PFDPDBLD@BOTH_KYLE_PA_2?$AA@ 3008cb18     bg_panimate.obj
 0002:00002b28       ??_C@_0O@HAIDGGEO@BOTH_R2_TL_S1?$AA@ 3008cb28     bg_panimate.obj
 0002:00002b38       ??_C@_0BB@LBGFOJKO@BOTH_PLAYER_PA_2?$AA@ 3008cb38     bg_panimate.obj
 0002:00002b4c       ??_C@_0O@HKNMKOCL@BOTH_R2_BR_S1?$AA@ 3008cb4c     bg_panimate.obj
 0002:00002b5c       ??_C@_0BD@BPPGNPKM@BOTH_PLAYER_PA_FLY?$AA@ 3008cb5c     bg_panimate.obj
 0002:00002b70       ??_C@_0O@KFAMIHMI@BOTH_R2_BL_S1?$AA@ 3008cb70     bg_panimate.obj
 0002:00002b80       ??_C@_0P@OMCEAAPC@BOTH_KYLE_PA_3?$AA@ 3008cb80     bg_panimate.obj
 0002:00002b90       ??_C@_0O@KPFDEPKN@BOTH_R2_TR_S1?$AA@ 3008cb90     bg_panimate.obj
 0002:00002ba0       ??_C@_0BB@KIHONIOP@BOTH_PLAYER_PA_3?$AA@ 3008cba0     bg_panimate.obj
 0002:00002bb4       ??_C@_0O@CEHIFDBH@BOTH_B2_BR___?$AA@ 3008cbb4     bg_panimate.obj
 0002:00002bc4       ??_C@_0BF@HCPCIHAG@BOTH_PLAYER_PA_3_FLY?$AA@ 3008cbc4     bg_panimate.obj
 0002:00002bdc       ??_C@_0O@JLDAECFC@BOTH_B2__R___?$AA@ 3008cbdc     bg_panimate.obj
 0002:00002bec       ??_C@_0BA@NKEMKFLI@BOTH_BUCK_RIDER?$AA@ 3008cbec     bg_panimate.obj
 0002:00002bfc       ??_C@_0O@PBPHLCJB@BOTH_B2_TR___?$AA@ 3008cbfc     bg_panimate.obj
 0002:00002c0c       ??_C@_0BA@CFDHFDLH@BOTH_HOLD_START?$AA@ 3008cc0c     bg_panimate.obj
 0002:00002c1c       ??_C@_0O@JGHHGCA@BOTH_B2_T____?$AA@ 3008cc1c     bg_panimate.obj
 0002:00002c2c       ??_C@_0P@EPJNGCKB@BOTH_HOLD_MISS?$AA@ 3008cc2c     bg_panimate.obj
 0002:00002c3c       ??_C@_0O@COCHJLHC@BOTH_B2_TL___?$AA@ 3008cc3c     bg_panimate.obj
 0002:00002c4c       ??_C@_0P@EDJFENCG@BOTH_HOLD_IDLE?$AA@ 3008cc4c     bg_panimate.obj
 0002:00002c5c       ??_C@_0O@EEOAGLLB@BOTH_B2__L___?$AA@ 3008cc5c     bg_panimate.obj
 0002:00002c6c       ??_C@_0O@HFIKEJBB@BOTH_HOLD_END?$AA@ 3008cc6c     bg_panimate.obj
 0002:00002c7c       ??_C@_0O@PLKIHKPE@BOTH_B2_BL___?$AA@ 3008cc7c     bg_panimate.obj
 0002:00002c8c       ??_C@_0BB@EFCJFPCD@BOTH_HOLD_ATTACK?$AA@ 3008cc8c     bg_panimate.obj
 0002:00002ca0       ??_C@_0O@FHGCCKJN@BOTH_D2_BR___?$AA@ 3008cca0     bg_panimate.obj
 0002:00002cb0       ??_C@_0BA@KJAIIPAE@BOTH_HOLD_SNIFF?$AA@ 3008ccb0     bg_panimate.obj
 0002:00002cc0       ??_C@_0O@OICKDLNI@BOTH_D2__R___?$AA@ 3008ccc0     bg_panimate.obj
 0002:00002cd0       ??_C@_0P@PLIENJJJ@BOTH_HOLD_DROP?$AA@ 3008ccd0     bg_panimate.obj
 0002:00002ce0       ??_C@_0O@ICONMLBL@BOTH_D2_TR___?$AA@ 3008cce0     bg_panimate.obj
 0002:00002cf0       ??_C@_0N@CFDAGGFP@BOTH_GRABBED?$AA@ 3008ccf0     bg_panimate.obj
 0002:00002d00       ??_C@_0O@FNDNOCPI@BOTH_D2_TL___?$AA@ 3008cd00     bg_panimate.obj
 0002:00002d10       ??_C@_0O@LAAPIANC@BOTH_RELEASED?$AA@ 3008cd10     bg_panimate.obj
 0002:00002d20       ??_C@_0O@DHPKBCDL@BOTH_D2__L___?$AA@ 3008cd20     bg_panimate.obj
 0002:00002d30       ??_C@_0P@PIJKILFE@BOTH_HANG_IDLE?$AA@ 3008cd30     bg_panimate.obj
 0002:00002d40       ??_C@_0O@IILCADHO@BOTH_D2_BL___?$AA@ 3008cd40     bg_panimate.obj
 0002:00002d50       ??_C@_0BB@CKCHJINN@BOTH_HANG_ATTACK?$AA@ 3008cd50     bg_panimate.obj
 0002:00002d64       ??_C@_0O@KPPCOOCM@BOTH_D2_B____?$AA@ 3008cd64     bg_panimate.obj
 0002:00002d74       ??_C@_0P@EHILJFLF@BOTH_HANG_PAIN?$AA@ 3008cd74     bg_panimate.obj
 0002:00002d84       ??_C@_0O@OILOHKFI@BOTH_A3_T__B_?$AA@ 3008cd84     bg_panimate.obj
 0002:00002d94       ??_C@_09PPDGHFCD@BOTH_HIT1?$AA@ 3008cd94     bg_panimate.obj
 0002:00002da0       ??_C@_0O@EGJCJKH@BOTH_A3__L__R?$AA@ 3008cda0     bg_panimate.obj
 0002:00002db0       ??_C@_0BA@ILKIBIOO@BOTH_LADDER_UP1?$AA@ 3008cdb0     bg_panimate.obj
 0002:00002dc0       ??_C@_0O@PPIDPJL@BOTH_A3__R__L?$AA@ 3008cdc0     bg_panimate.obj
 0002:00002dd0       ??_C@_0BB@BOJOMJDD@BOTH_LADDER_DWN1?$AA@ 3008cdd0     bg_panimate.obj
 0002:00002de4       ??_C@_0O@HKFAOJEH@BOTH_A3_TL_BR?$AA@ 3008cde4     bg_panimate.obj
 0002:00002df4       ??_C@_0BB@OMHFJNGP@BOTH_LADDER_IDLE?$AA@ 3008cdf4     bg_panimate.obj
 0002:00002e08       ??_C@_0O@LMOFMBDP@BOTH_A3_BR_TL?$AA@ 3008ce08     bg_panimate.obj
 0002:00002e18       ??_C@_0BC@ODIBALPH@BOTH_FLY_SHIELDED?$AA@ 3008ce18     bg_panimate.obj
 0002:00002e2c       ??_C@_0O@LHHENHAD@BOTH_A3_BL_TR?$AA@ 3008ce2c     bg_panimate.obj
 0002:00002e3c       ??_C@_0BA@PIGFMLPF@BOTH_SWIM_IDLE1?$AA@ 3008ce3c     bg_panimate.obj
 0002:00002e4c       ??_C@_0O@HBMBPPHL@BOTH_A3_TR_BL?$AA@ 3008ce4c     bg_panimate.obj
 0002:00002e5c       ??_C@_0BB@FOFCFDFI@BOTH_SWIMFORWARD?$AA@ 3008ce5c     bg_panimate.obj
 0002:00002e70       ??_C@_0O@ICKGBGDP@BOTH_T3_BR__R?$AA@ 3008ce70     bg_panimate.obj
 0002:00002e80       ??_C@_0BC@LJIHFCKB@BOTH_SWIMBACKWARD?$AA@ 3008ce80     bg_panimate.obj
 0002:00002e94       ??_C@_0O@FKLCMGAB@BOTH_T3_BR_TL?$AA@ 3008ce94     bg_panimate.obj
 0002:00002ea4       ??_C@_0M@LIOOPEJI@BOTH_SLEEP1?$AA@ 3008cea4     bg_panimate.obj
 0002:00002eb0       ??_C@_0O@FGOHCJOA@BOTH_T3_BR__L?$AA@ 3008ceb0     bg_panimate.obj
 0002:00002ec0       ??_C@_0BB@HHHLEEDB@BOTH_SLEEP6START?$AA@ 3008cec0     bg_panimate.obj
 0002:00002ed4       ??_C@_0O@ECBJBJMD@BOTH_T3_BR_BL?$AA@ 3008ced4     bg_panimate.obj
 0002:00002ee4       ??_C@_0BA@CINKHNGE@BOTH_SLEEP6STOP?$AA@ 3008cee4     bg_panimate.obj
 0002:00002ef4       ??_C@_0O@DBLLOIJL@BOTH_T3__R_TR?$AA@ 3008cef4     bg_panimate.obj
 0002:00002f04       ??_C@_0BB@HBPPPACM@BOTH_SLEEP1GETUP?$AA@ 3008cf04     bg_panimate.obj
 0002:00002f18       ??_C@_0O@OFPKNHEE@BOTH_T3__R_TL?$AA@ 3008cf18     bg_panimate.obj
 0002:00002f28       ??_C@_0BC@NPNJMHGC@BOTH_SLEEP1GETUP2?$AA@ 3008cf28     bg_panimate.obj
 0002:00002f3c       ??_C@_0O@OJKPDIKF@BOTH_T3__R__L?$AA@ 3008cf3c     bg_panimate.obj
 0002:00002f4c       ??_C@_0BB@OFKGJANF@BOTH_CHOKE1START?$AA@ 3008cf4c     bg_panimate.obj
 0002:00002f60       ??_C@_0O@PNFBAIIG@BOTH_T3__R_BL?$AA@ 3008cf60     bg_panimate.obj
 0002:00002f70       ??_C@_0BF@ICMFFJIF@BOTH_CHOKE1STARTHOLD?$AA@ 3008cf70     bg_panimate.obj
 0002:00002f88       ??_C@_0O@EDNHMHJK@BOTH_T3_TR_BR?$AA@ 3008cf88     bg_panimate.obj
 0002:00002f98       ??_C@_0M@PECDCEEJ@BOTH_CHOKE1?$AA@ 3008cf98     bg_panimate.obj
 0002:00002fa4       ??_C@_0O@IPDNCHIH@BOTH_T3_TR_TL?$AA@ 3008cfa4     bg_panimate.obj
 0002:00002fb4       ??_C@_0M@NPAOHHIK@BOTH_CHOKE2?$AA@ 3008cfb4     bg_panimate.obj
 0002:00002fc0       ??_C@_0O@IDGIMIGG@BOTH_T3_TR__L?$AA@ 3008cfc0     bg_panimate.obj
 0002:00002fd0       ??_C@_0M@MGBFEGML@BOTH_CHOKE3?$AA@ 3008cfd0     bg_panimate.obj
 0002:00002fdc       ??_C@_0O@JHJGPIEF@BOTH_T3_TR_BL?$AA@ 3008cfdc     bg_panimate.obj
 0002:00002fec       ??_C@_0O@CAGOCCAO@BOTH_POWERUP1?$AA@ 3008cfec     bg_panimate.obj
 0002:00002ffc       ??_C@_0O@LLEHADCL@BOTH_T3_T__BR?$AA@ 3008cffc     bg_panimate.obj
 0002:0000300c       ??_C@_0M@ODIMNEKC@BOTH_TURNON?$AA@ 3008d00c     bg_panimate.obj
 0002:00003018       ??_C@_0O@KPLJDDAI@BOTH_T3_T___R?$AA@ 3008d018     bg_panimate.obj
 0002:00003028       ??_C@_0N@JAALPHCL@BOTH_TURNOFF?$AA@ 3008d028     bg_panimate.obj
 0002:00003038       ??_C@_0O@KDOMNMOJ@BOTH_T3_T__TR?$AA@ 3008d038     bg_panimate.obj
 0002:00003048       ??_C@_0N@LILLBNDA@BOTH_BUTTON1?$AA@ 3008d048     bg_panimate.obj
 0002:00003058       ??_C@_0O@HHKNODDG@BOTH_T3_T__TL?$AA@ 3008d058     bg_panimate.obj
 0002:00003068       ??_C@_0N@JDJGEOPD@BOTH_BUTTON2?$AA@ 3008d068     bg_panimate.obj
 0002:00003078       ??_C@_0O@HLPIAMNH@BOTH_T3_T___L?$AA@ 3008d078     bg_panimate.obj
 0002:00003088       ??_C@_0BB@FCMBEPCD@BOTH_BUTTON_HOLD?$AA@ 3008d088     bg_panimate.obj
 0002:0000309c       ??_C@_0O@GPAGDMPE@BOTH_T3_T__BL?$AA@ 3008d09c     bg_panimate.obj
 0002:000030ac       ??_C@_0BE@BFLOBGOL@BOTH_BUTTON_RELEASE?$AA@ 3008d0ac     bg_panimate.obj
 0002:000030c0       ??_C@_0O@JMAHOOHJ@BOTH_T3_TL_BR?$AA@ 3008d0c0     bg_panimate.obj
 0002:000030d0       ??_C@_0BA@IBNLMMOO@BOTH_RESISTPUSH?$AA@ 3008d0d0     bg_panimate.obj
 0002:000030e0       ??_C@_0O@EIEGNBKG@BOTH_T3_TL_BL?$AA@ 3008d0e0     bg_panimate.obj
 0002:000030f0       ??_C@_0P@HEAGBOPG@BOTH_FORCEPUSH?$AA@ 3008d0f0     bg_panimate.obj
 0002:00003100       ??_C@_0O@PGMABOLK@BOTH_T3__L_BR?$AA@ 3008d100     bg_panimate.obj
 0002:00003110       ??_C@_0P@HBADPLP@BOTH_FORCEPULL?$AA@ 3008d110     bg_panimate.obj
 0002:00003120       ??_C@_0O@OCDOCOJJ@BOTH_T3__L__R?$AA@ 3008d120     bg_panimate.obj
 0002:00003130       ??_C@_0BA@IHNHLMMO@BOTH_MINDTRICK1?$AA@ 3008d130     bg_panimate.obj
 0002:00003140       ??_C@_0O@DKCKPOKH@BOTH_T3__L_TL?$AA@ 3008d140     bg_panimate.obj
 0002:00003150       ??_C@_0BA@KMPKOPAN@BOTH_MINDTRICK2?$AA@ 3008d150     bg_panimate.obj
 0002:00003160       ??_C@_0O@EJIIAPPP@BOTH_T3_BL_BR?$AA@ 3008d160     bg_panimate.obj
 0002:00003170       ??_C@_0BE@OEAHGILF@BOTH_FORCELIGHTNING?$AA@ 3008d170     bg_panimate.obj
 0002:00003184       ??_C@_0O@FNHGDPNM@BOTH_T3_BL__R?$AA@ 3008d184     bg_panimate.obj
 0002:00003194       ??_C@_0BK@NACKCJFF@BOTH_FORCELIGHTNING_START?$AA@ 3008d194     bg_panimate.obj
 0002:000031b0       ??_C@_0O@FBCDNADN@BOTH_T3_BL_TR?$AA@ 3008d1b0     bg_panimate.obj
 0002:000031c0       ??_C@_0BJ@KCFBGHIB@BOTH_FORCELIGHTNING_HOLD?$AA@ 3008d1c0     bg_panimate.obj
 0002:000031dc       ??_C@_0O@IJDHAAAD@BOTH_T3_BL__L?$AA@ 3008d1dc     bg_panimate.obj
 0002:000031ec       ??_C@_0BM@GCBAKCPL@BOTH_FORCELIGHTNING_RELEASE?$AA@ 3008d1ec     bg_panimate.obj
 0002:00003208       ??_C@_0O@IOPDPJNO@BOTH_T3_BR_TR?$AA@ 3008d208     bg_panimate.obj
 0002:00003218       ??_C@_0BF@FPDMFLAG@BOTH_FORCEHEAL_START?$AA@ 3008d218     bg_panimate.obj
 0002:00003230       ??_C@_0O@DLFNIHJD@BOTH_T3_BR_T_?$AA@ 3008d230     bg_panimate.obj
 0002:00003240       ??_C@_0BE@GNHNNEFM@BOTH_FORCEHEAL_STOP?$AA@ 3008d240     bg_panimate.obj
 0002:00003254       ??_C@_0O@CJBADHFJ@BOTH_T3__R_BR?$AA@ 3008d254     bg_panimate.obj
 0002:00003264       ??_C@_0BF@DKJODMIL@BOTH_FORCEHEAL_QUICK?$AA@ 3008d264     bg_panimate.obj
 0002:0000327c       ??_C@_0O@IEBFJGNG@BOTH_T3__R_T_?$AA@ 3008d27c     bg_panimate.obj
 0002:0000328c       ??_C@_0P@PONJILD@BOTH_SABERPULL?$AA@ 3008d28c     bg_panimate.obj
 0002:0000329c       ??_C@_0O@FHCJPHLJ@BOTH_T3_TR__R?$AA@ 3008d29c     bg_panimate.obj
 0002:000032ac       ??_C@_0BA@BDJFPNIF@BOTH_FORCEGRIP1?$AA@ 3008d2ac     bg_panimate.obj
 0002:000032bc       ??_C@_0O@OONCGGBF@BOTH_T3_TR_T_?$AA@ 3008d2bc     bg_panimate.obj
 0002:000032cc       ??_C@_0BA@CBKDJPAH@BOTH_FORCEGRIP3?$AA@ 3008d2cc     bg_panimate.obj
 0002:000032dc       ??_C@_0O@IIPJNOFK@BOTH_T3_TL__R?$AA@ 3008d2dc     bg_panimate.obj
 0002:000032ec       ??_C@_0BF@BAAGEEBG@BOTH_FORCEGRIP3THROW?$AA@ 3008d2ec     bg_panimate.obj
 0002:00003304       ??_C@_0O@IEKMDBLL@BOTH_T3_TL_TR?$AA@ 3008d304     bg_panimate.obj
 0002:00003314       ??_C@_0BE@JLIMFCGH@BOTH_FORCEGRIP_HOLD?$AA@ 3008d314     bg_panimate.obj
 0002:00003328       ??_C@_0O@DBACEPPG@BOTH_T3_TL_T_?$AA@ 3008d328     bg_panimate.obj
 0002:00003338       ??_C@_0BH@JFCMGCAP@BOTH_FORCEGRIP_RELEASE?$AA@ 3008d338     bg_panimate.obj
 0002:00003350       ??_C@_0O@FMLIOBIF@BOTH_T3_TL__L?$AA@ 3008d350     bg_panimate.obj
 0002:00003360       ??_C@_0L@EJBFFAAC@BOTH_TOSS1?$AA@ 3008d360     bg_panimate.obj
 0002:0000336c       ??_C@_0O@OOGLMBHI@BOTH_T3__L_TR?$AA@ 3008d36c     bg_panimate.obj
 0002:0000337c       ??_C@_0L@GCDIADMB@BOTH_TOSS2?$AA@ 3008d37c     bg_panimate.obj
 0002:00003388       ??_C@_0O@FLMFLPDF@BOTH_T3__L_T_?$AA@ 3008d388     bg_panimate.obj
 0002:00003398       ??_C@_0BA@GLJOFMJL@BOTH_FORCE_RAGE?$AA@ 3008d398     bg_panimate.obj
 0002:000033a8       ??_C@_0O@CCIBCBGF@BOTH_T3__L_BL?$AA@ 3008d3a8     bg_panimate.obj
 0002:000033b8       ??_C@_0BM@OPHDEJED@BOTH_FORCE_2HANDEDLIGHTNING?$AA@ 3008d3b8     bg_panimate.obj
 0002:000033d4       ??_C@_0O@OEINKOHA@BOTH_T3_BL_T_?$AA@ 3008d3d4     bg_panimate.obj
 0002:000033e4       ??_C@_0CC@HEIANMP@BOTH_FORCE_2HANDEDLIGHTNING_STAR@ 3008d3e4     bg_panimate.obj
 0002:00003408       ??_C@_0O@IFGCOPOC@BOTH_T3_BL_TL?$AA@ 3008d408     bg_panimate.obj
 0002:00003418       ??_C@_0CB@MNKHBDGA@BOTH_FORCE_2HANDEDLIGHTNING_HOLD@ 3008d418     bg_panimate.obj
 0002:0000343c       ??_C@_0O@EJCEDGPJ@BOTH_S3_S1_T_?$AA@ 3008d43c     bg_panimate.obj
 0002:0000344c       ??_C@_0CE@NFLNPDNI@BOTH_FORCE_2HANDEDLIGHTNING_RELE@ 3008d44c     bg_panimate.obj
 0002:00003470       ??_C@_0O@CEJOJIIK@BOTH_S3_S1__L?$AA@ 3008d470     bg_panimate.obj
 0002:00003480       ??_C@_0BB@NHPCBMHH@BOTH_FORCE_DRAIN?$AA@ 3008d480     bg_panimate.obj
 0002:00003494       ??_C@_0O@PANPKHFF@BOTH_S3_S1__R?$AA@ 3008d494     bg_panimate.obj
 0002:000034a4       ??_C@_0BH@BHMNGNLJ@BOTH_FORCE_DRAIN_START?$AA@ 3008d4a4     bg_panimate.obj
 0002:000034bc       ??_C@_0O@CIMLHHGL@BOTH_S3_S1_TL?$AA@ 3008d4bc     bg_panimate.obj
 0002:000034cc       ??_C@_0BG@JCLNDPPK@BOTH_FORCE_DRAIN_HOLD?$AA@ 3008d4cc     bg_panimate.obj
 0002:000034e4       ??_C@_0O@OECBJHHG@BOTH_S3_S1_BR?$AA@ 3008d4e4     bg_panimate.obj
 0002:000034f4       ??_C@_0BJ@OBGKFMHF@BOTH_FORCE_DRAIN_RELEASE?$AA@ 3008d4f4     bg_panimate.obj
 0002:00003510       ??_C@_0O@DAGAKIKJ@BOTH_S3_S1_BL?$AA@ 3008d510     bg_panimate.obj
 0002:00003520       ??_C@_0BM@PACMCIGF@BOTH_FORCE_DRAIN_GRAB_START?$AA@ 3008d520     bg_panimate.obj
 0002:0000353c       ??_C@_0O@PMIKEILE@BOTH_S3_S1_TR?$AA@ 3008d53c     bg_panimate.obj
 0002:0000354c       ??_C@_0BL@MLNFOEPE@BOTH_FORCE_DRAIN_GRAB_HOLD?$AA@ 3008d54c     bg_panimate.obj
 0002:00003568       ??_C@_0O@EOOGGKAE@BOTH_R3_B__S1?$AA@ 3008d568     bg_panimate.obj
 0002:00003578       ??_C@_0BK@POJHMFNL@BOTH_FORCE_DRAIN_GRAB_END?$AA@ 3008d578     bg_panimate.obj
 0002:00003594       ??_C@_0O@NGOOJGBD@BOTH_R3__L_S1?$AA@ 3008d594     bg_panimate.obj
 0002:000035a4       ??_C@_0BJ@GKPDEPNJ@BOTH_FORCE_DRAIN_GRABBED?$AA@ 3008d5a4     bg_panimate.obj
 0002:000035c0       ??_C@_0O@JDOLPPA@BOTH_R3__R_S1?$AA@ 3008d5c0     bg_panimate.obj
 0002:000035d0       ??_C@_0BC@HHGANHBC@BOTH_FORCE_ABSORB?$AA@ 3008d5d0     bg_panimate.obj
 0002:000035e4       ??_C@_0O@LMCJGGNA@BOTH_R3_TL_S1?$AA@ 3008d5e4     bg_panimate.obj
 0002:000035f4       ??_C@_0BI@BPAAFONF@BOTH_FORCE_ABSORB_START?$AA@ 3008d5f4     bg_panimate.obj
 0002:0000360c       ??_C@_0O@LGHGKOLF@BOTH_R3_BR_S1?$AA@ 3008d60c     bg_panimate.obj
 0002:0000361c       ??_C@_0BG@CBNCOJEH@BOTH_FORCE_ABSORB_END?$AA@ 3008d61c     bg_panimate.obj
 0002:00003634       ??_C@_0O@GJKGIHFG@BOTH_R3_BL_S1?$AA@ 3008d634     bg_panimate.obj
 0002:00003644       ??_C@_0BD@FFPOEFNG@BOTH_FORCE_PROTECT?$AA@ 3008d644     bg_panimate.obj
 0002:00003658       ??_C@_0O@GDPJEPDD@BOTH_R3_TR_S1?$AA@ 3008d658     bg_panimate.obj
 0002:00003668       ??_C@_0BI@GLAHPFBH@BOTH_FORCE_PROTECT_FAST?$AA@ 3008d668     bg_panimate.obj
 0002:00003680       ??_C@_0O@OINCFDIJ@BOTH_B3_BR___?$AA@ 3008d680     bg_panimate.obj
 0002:00003690       ??_C@_09FOHPNOGF@BOTH_WIND?$AA@ 3008d690     bg_panimate.obj
 0002:0000369c       ??_C@_0O@FHJKECMM@BOTH_B3__R___?$AA@ 3008d69c     bg_panimate.obj
 0002:000036ac       ??_C@_0BE@FLPJEFCO@BOTH_STAND_TO_KNEEL?$AA@ 3008d6ac     bg_panimate.obj
 0002:000036c0       ??_C@_0O@DNFNLCAP@BOTH_B3_TR___?$AA@ 3008d6c0     bg_panimate.obj
 0002:000036d0       ??_C@_0BE@OBEECCKH@BOTH_KNEEL_TO_STAND?$AA@ 3008d6d0     bg_panimate.obj
 0002:000036e4       ??_C@_0O@MFMNHGLO@BOTH_B3_T____?$AA@ 3008d6e4     bg_panimate.obj
 0002:000036f4       ??_C@_0BD@OHIFPJFA@BOTH_TUSKENATTACK1?$AA@ 3008d6f4     bg_panimate.obj
 0002:00003708       ??_C@_0O@OCINJLOM@BOTH_B3_TL___?$AA@ 3008d708     bg_panimate.obj
 0002:00003718       ??_C@_0BD@MMKIKKJD@BOTH_TUSKENATTACK2?$AA@ 3008d718     bg_panimate.obj
 0002:0000372c       ??_C@_0O@IIEKGLCP@BOTH_B3__L___?$AA@ 3008d72c     bg_panimate.obj
 0002:0000373c       ??_C@_0BD@NFLDJLNC@BOTH_TUSKENATTACK3?$AA@ 3008d73c     bg_panimate.obj
 0002:00003750       ??_C@_0O@DHACHKGK@BOTH_B3_BL___?$AA@ 3008d750     bg_panimate.obj
 0002:00003760       ??_C@_0BC@BIOHNIGA@BOTH_TUSKENLUNGE1?$AA@ 3008d760     bg_panimate.obj
 0002:00003774       ??_C@_0O@JLMICKAD@BOTH_D3_BR___?$AA@ 3008d774     bg_panimate.obj
 0002:00003784       ??_C@_0BC@KDENGKBK@BOTH_TUSKENTAUNT1?$AA@ 3008d784     bg_panimate.obj
 0002:00003798       ??_C@_0O@CEIADLEG@BOTH_D3__R___?$AA@ 3008d798     bg_panimate.obj
 0002:000037a8       ??_C@_0BC@KKMKANGM@BOTH_COWER1_START?$AA@ 3008d7a8     bg_panimate.obj
 0002:000037bc       ??_C@_0O@EOEHMLIF@BOTH_D3_TR___?$AA@ 3008d7bc     bg_panimate.obj
 0002:000037cc       ??_C@_0M@EAAAAKHE@BOTH_COWER1?$AA@ 3008d7cc     bg_panimate.obj
 0002:000037d8       ??_C@_0O@JBJHOCGG@BOTH_D3_TL___?$AA@ 3008d7d8     bg_panimate.obj
 0002:000037e8       ??_C@_0BB@JEOPOJAL@BOTH_COWER1_STOP?$AA@ 3008d7e8     bg_panimate.obj
 0002:000037fc       ??_C@_0O@PLFABCKF@BOTH_D3__L___?$AA@ 3008d7fc     bg_panimate.obj
 0002:0000380c       ??_C@_0BF@LOEEPGJI@BOTH_SONICPAIN_START?$AA@ 3008d80c     bg_panimate.obj
 0002:00003824       ??_C@_0O@EEBIADOA@BOTH_D3_BL___?$AA@ 3008d824     bg_panimate.obj
 0002:00003834       ??_C@_0BE@KHIIENBG@BOTH_SONICPAIN_HOLD?$AA@ 3008d834     bg_panimate.obj
 0002:00003848       ??_C@_0O@GDFIOOLC@BOTH_D3_B____?$AA@ 3008d848     bg_panimate.obj
 0002:00003858       ??_C@_0BD@KFKLMKIP@BOTH_SONICPAIN_END?$AA@ 3008d858     bg_panimate.obj
 0002:0000386c       ??_C@_0O@OCHLHDEB@BOTH_A4_T__B_?$AA@ 3008d86c     bg_panimate.obj
 0002:0000387c       ??_C@_0N@EGCBKCBH@BOTH_STAND10?$AA@ 3008d87c     bg_panimate.obj
 0002:0000388c       ??_C@_0O@OKMCALO@BOTH_A4__L__R?$AA@ 3008d88c     bg_panimate.obj
 0002:0000389c       ??_C@_0BD@DEOMOHKM@BOTH_STAND10_TALK1?$AA@ 3008d89c     bg_panimate.obj
 0002:000038b0       ??_C@_0O@FDNDGIC@BOTH_A4__R__L?$AA@ 3008d8b0     bg_panimate.obj
 0002:000038c0       ??_C@_0BD@BPMBLEGP@BOTH_STAND10_TALK2?$AA@ 3008d8c0     bg_panimate.obj
 0002:000038d4       ??_C@_0O@HAJFOAFO@BOTH_A4_TL_BR?$AA@ 3008d8d4     bg_panimate.obj
 0002:000038e4       ??_C@_0BF@EILOIEKG@BOTH_STAND10TOSTAND1?$AA@ 3008d8e4     bg_panimate.obj
 0002:000038fc       ??_C@_0O@LGCAMICG@BOTH_A4_BR_TL?$AA@ 3008d8fc     bg_panimate.obj
 0002:0000390c       ??_C@_0BC@EOCMNLEK@BOTH_STAND1_TALK1?$AA@ 3008d90c     bg_panimate.obj
 0002:00003920       ??_C@_0O@LNLBNOBK@BOTH_A4_BL_TR?$AA@ 3008d920     bg_panimate.obj
 0002:00003930       ??_C@_0BC@GFABIIIJ@BOTH_STAND1_TALK2?$AA@ 3008d930     bg_panimate.obj
 0002:00003944       ??_C@_0O@HLAEPGGC@BOTH_A4_TR_BL?$AA@ 3008d944     bg_panimate.obj
 0002:00003954       ??_C@_0BC@HMBKLJMI@BOTH_STAND1_TALK3?$AA@ 3008d954     bg_panimate.obj
 0002:00003968       ??_C@_0O@IIGDBPCG@BOTH_T4_BR__R?$AA@ 3008d968     bg_panimate.obj
 0002:00003978       ??_C@_09JFHBCHPF@BOTH_SIT4?$AA@ 3008d978     bg_panimate.obj
 0002:00003984       ??_C@_0O@FAHHMPBI@BOTH_T4_BR_TL?$AA@ 3008d984     bg_panimate.obj
 0002:00003994       ??_C@_09IMGKBGLE@BOTH_SIT5?$AA@ 3008d994     bg_panimate.obj
 0002:000039a0       ??_C@_0O@FMCCCAPJ@BOTH_T4_BR__L?$AA@ 3008d9a0     bg_panimate.obj
 0002:000039b0       ??_C@_0BA@JOAOOGJC@BOTH_SIT5_TALK1?$AA@ 3008d9b0     bg_panimate.obj
 0002:000039c0       ??_C@_0O@EINMBANK@BOTH_T4_BR_BL?$AA@ 3008d9c0     bg_panimate.obj
 0002:000039d0       ??_C@_0BA@LFCDLFFB@BOTH_SIT5_TALK2?$AA@ 3008d9d0     bg_panimate.obj
 0002:000039e0       ??_C@_0O@DLHOOBIC@BOTH_T4__R_TR?$AA@ 3008d9e0     bg_panimate.obj
 0002:000039f0       ??_C@_0BA@KMDIIEBA@BOTH_SIT5_TALK3?$AA@ 3008d9f0     bg_panimate.obj
 0002:00003a00       ??_C@_0O@OPDPNOFN@BOTH_T4__R_TL?$AA@ 3008da00     bg_panimate.obj
 0002:00003a10       ??_C@_09KHEHEFHH@BOTH_SIT6?$AA@ 3008da10     bg_panimate.obj
 0002:00003a1c       ??_C@_0O@ODGKDBLM@BOTH_T4__R__L?$AA@ 3008da1c     bg_panimate.obj
 0002:00003a2c       ??_C@_09LOFMHEDG@BOTH_SIT7?$AA@ 3008da2c     bg_panimate.obj
 0002:00003a38       ??_C@_0O@PHJEABJP@BOTH_T4__R_BL?$AA@ 3008da38     bg_panimate.obj
 0002:00003a48       ??_C@_0BA@FKIHNDLF@TORSO_DROPWEAP1?$AA@ 3008da48     bg_panimate.obj
 0002:00003a58       ??_C@_0O@EJBCMOID@BOTH_T4_TR_BR?$AA@ 3008da58     bg_panimate.obj
 0002:00003a68       ??_C@_0BA@CHPACHPA@TORSO_DROPWEAP4?$AA@ 3008da68     bg_panimate.obj
 0002:00003a78       ??_C@_0O@IFPICOJO@BOTH_T4_TR_TL?$AA@ 3008da78     bg_panimate.obj
 0002:00003a88       ??_C@_0BB@OACMJEDC@TORSO_RAISEWEAP1?$AA@ 3008da88     bg_panimate.obj
 0002:00003a9c       ??_C@_0O@IJKNMBHP@BOTH_T4_TR__L?$AA@ 3008da9c     bg_panimate.obj
 0002:00003aac       ??_C@_0BB@JNFLGAHH@TORSO_RAISEWEAP4?$AA@ 3008daac     bg_panimate.obj
 0002:00003ac0       ??_C@_0O@JNFDPBFM@BOTH_T4_TR_BL?$AA@ 3008dac0     bg_panimate.obj
 0002:00003ad0       ??_C@_0BD@DOKMINPD@TORSO_WEAPONREADY1?$AA@ 3008dad0     bg_panimate.obj
 0002:00003ae4       ??_C@_0O@LBICAKDC@BOTH_T4_T__BR?$AA@ 3008dae4     bg_panimate.obj
 0002:00003af4       ??_C@_0BD@BFIBNODA@TORSO_WEAPONREADY2?$AA@ 3008daf4     bg_panimate.obj
 0002:00003b08       ??_C@_0O@KFHMDKBB@BOTH_T4_T___R?$AA@ 3008db08     bg_panimate.obj
 0002:00003b18       ??_C@_0BD@MJKOPHB@TORSO_WEAPONREADY3?$AA@ 3008db18     bg_panimate.obj
 0002:00003b2c       ??_C@_0O@KJCJNFPA@BOTH_T4_T__TR?$AA@ 3008db2c     bg_panimate.obj
 0002:00003b3c       ??_C@_0BD@EDNLHJLG@TORSO_WEAPONREADY4?$AA@ 3008db3c     bg_panimate.obj
 0002:00003b50       ??_C@_0O@HNGIOKCP@BOTH_T4_T__TL?$AA@ 3008db50     bg_panimate.obj
 0002:00003b60       ??_C@_0BE@PLMMDJNI@TORSO_WEAPONREADY10?$AA@ 3008db60     bg_panimate.obj
 0002:00003b74       ??_C@_0O@HBDNAFMO@BOTH_T4_T___L?$AA@ 3008db74     bg_panimate.obj
 0002:00003b84       ??_C@_0BC@LCPEPDLD@TORSO_WEAPONIDLE2?$AA@ 3008db84     bg_panimate.obj
 0002:00003b98       ??_C@_0O@GFMDDFON@BOTH_T4_T__BL?$AA@ 3008db98     bg_panimate.obj
 0002:00003ba8       ??_C@_0BC@KLOPMCPC@TORSO_WEAPONIDLE3?$AA@ 3008dba8     bg_panimate.obj
 0002:00003bbc       ??_C@_0O@JGMCOHGA@BOTH_T4_TL_BR?$AA@ 3008dbbc     bg_panimate.obj
 0002:00003bcc       ??_C@_0BC@OEKOFEDF@TORSO_WEAPONIDLE4?$AA@ 3008dbcc     bg_panimate.obj
 0002:00003be0       ??_C@_0O@ECIDNILP@BOTH_T4_TL_BL?$AA@ 3008dbe0     bg_panimate.obj
 0002:00003bf0       ??_C@_0BD@IPNKJOGP@TORSO_WEAPONIDLE10?$AA@ 3008dbf0     bg_panimate.obj
 0002:00003c04       ??_C@_0O@PMAFBHKD@BOTH_T4__L_BR?$AA@ 3008dc04     bg_panimate.obj
 0002:00003c14       ??_C@_0BG@DJHHNKPJ@TORSO_SURRENDER_START?$AA@ 3008dc14     bg_panimate.obj
 0002:00003c2c       ??_C@_0O@OIPLCHIA@BOTH_T4__L__R?$AA@ 3008dc2c     bg_panimate.obj
 0002:00003c3c       ??_C@_0BF@CAMHOBIG@TORSO_SURRENDER_STOP?$AA@ 3008dc3c     bg_panimate.obj
 0002:00003c54       ??_C@_0O@DAOPPHLO@BOTH_T4__L_TL?$AA@ 3008dc54     bg_panimate.obj
 0002:00003c64       ??_C@_0P@EDGDJEAA@TORSO_CHOKING1?$AA@ 3008dc64     bg_panimate.obj
 0002:00003c74       ??_C@_0O@EDENAGOG@BOTH_T4_BL_BR?$AA@ 3008dc74     bg_panimate.obj
 0002:00003c84       ??_C@_0BC@DEBJGJOG@TORSO_HANDSIGNAL1?$AA@ 3008dc84     bg_panimate.obj
 0002:00003c98       ??_C@_0O@FHLDDGMF@BOTH_T4_BL__R?$AA@ 3008dc98     bg_panimate.obj
 0002:00003ca8       ??_C@_0BC@BPDEDKCF@TORSO_HANDSIGNAL2?$AA@ 3008dca8     bg_panimate.obj
 0002:00003cbc       ??_C@_0O@FLOGNJCE@BOTH_T4_BL_TR?$AA@ 3008dcbc     bg_panimate.obj
 0002:00003ccc       ??_C@_0BC@GCPALGE@TORSO_HANDSIGNAL3?$AA@ 3008dccc     bg_panimate.obj
 0002:00003ce0       ??_C@_0O@IDPCAJBK@BOTH_T4_BL__L?$AA@ 3008dce0     bg_panimate.obj
 0002:00003cf0       ??_C@_0BC@EJGOJNKD@TORSO_HANDSIGNAL4?$AA@ 3008dcf0     bg_panimate.obj
 0002:00003d04       ??_C@_0O@IEDGPAMH@BOTH_T4_BR_TR?$AA@ 3008dd04     bg_panimate.obj
 0002:00003d14       ??_C@_0BC@FAHFKMOC@TORSO_HANDSIGNAL5?$AA@ 3008dd14     bg_panimate.obj
 0002:00003d28       ??_C@_0O@DBJIIOIK@BOTH_T4_BR_T_?$AA@ 3008dd28     bg_panimate.obj
 0002:00003d38       ??_C@_0L@DOMPGAGB@LEGS_TURN1?$AA@ 3008dd38     bg_panimate.obj
 0002:00003d44       ??_C@_0O@CDNFDOEA@BOTH_T4__R_BR?$AA@ 3008dd44     bg_panimate.obj
 0002:00003d54       ??_C@_0L@BFOCDDKC@LEGS_TURN2?$AA@ 3008dd54     bg_panimate.obj
 0002:00003d60       ??_C@_0O@IONAJPMP@BOTH_T4__R_T_?$AA@ 3008dd60     bg_panimate.obj
 0002:00003d70       ??_C@_0BA@MCADBFIF@LEGS_LEAN_LEFT1?$AA@ 3008dd70     bg_panimate.obj
 0002:00003d80       ??_C@_0O@FNOMPOKA@BOTH_T4_TR__R?$AA@ 3008dd80     bg_panimate.obj
 0002:00003d90       ??_C@_0BB@HCNNJMLM@LEGS_LEAN_RIGHT1?$AA@ 3008dd90     bg_panimate.obj
 0002:00003da4       ??_C@_0O@OEBHGPAM@BOTH_T4_TR_T_?$AA@ 3008dda4     bg_panimate.obj
 0002:00003db4       ??_C@_0O@FPAJGKKH@LEGS_CHOKING1?$AA@ 3008ddb4     bg_panimate.obj
 0002:00003dc4       ??_C@_0O@ICDMNHED@BOTH_T4_TL__R?$AA@ 3008ddc4     bg_panimate.obj
 0002:00003dd4       ??_C@_0N@FFGGDFNJ@LEGS_LEFTUP1?$AA@ 3008ddd4     bg_panimate.obj
 0002:00003de4       ??_C@_0O@IOGJDIKC@BOTH_T4_TL_TR?$AA@ 3008dde4     bg_panimate.obj
 0002:00003df4       ??_C@_0N@HOELGGBK@LEGS_LEFTUP2?$AA@ 3008ddf4     bg_panimate.obj
 0002:00003e04       ??_C@_0O@DLMHEGOP@BOTH_T4_TL_T_?$AA@ 3008de04     bg_panimate.obj
 0002:00003e14       ??_C@_0N@GHFAFHFL@LEGS_LEFTUP3?$AA@ 3008de14     bg_panimate.obj
 0002:00003e24       ??_C@_0O@FGHNOIJM@BOTH_T4_TL__L?$AA@ 3008de24     bg_panimate.obj
 0002:00003e34       ??_C@_0N@CIBBMBJM@LEGS_LEFTUP4?$AA@ 3008de34     bg_panimate.obj
 0002:00003e44       ??_C@_0O@OEKOMIGB@BOTH_T4__L_TR?$AA@ 3008de44     bg_panimate.obj
 0002:00003e54       ??_C@_0N@DBAKPANN@LEGS_LEFTUP5?$AA@ 3008de54     bg_panimate.obj
 0002:00003e64       ??_C@_0O@FBAALGCM@BOTH_T4__L_T_?$AA@ 3008de64     bg_panimate.obj
 0002:00003e74       ??_C@_0O@JLGCDGJK@LEGS_RIGHTUP1?$AA@ 3008de74     bg_panimate.obj
 0002:00003e84       ??_C@_0O@CIEECIHM@BOTH_T4__L_BL?$AA@ 3008de84     bg_panimate.obj
 0002:00003e94       ??_C@_0O@LAEPGFFJ@LEGS_RIGHTUP2?$AA@ 3008de94     bg_panimate.obj
 0002:00003ea4       ??_C@_0O@OOEIKHGJ@BOTH_T4_BL_T_?$AA@ 3008dea4     bg_panimate.obj
 0002:00003eb4       ??_C@_0O@KJFEFEBI@LEGS_RIGHTUP3?$AA@ 3008deb4     bg_panimate.obj
 0002:00003ec4       ??_C@_0O@IPKHOGPL@BOTH_T4_BL_TL?$AA@ 3008dec4     bg_panimate.obj
 0002:00003ed4       ??_C@_0O@OGBFMCNP@LEGS_RIGHTUP4?$AA@ 3008ded4     bg_panimate.obj
 0002:00003ee4       ??_C@_0O@EDOBDPOA@BOTH_S4_S1_T_?$AA@ 3008dee4     bg_panimate.obj
 0002:00003ef4       ??_C@_0O@PPAOPDJO@LEGS_RIGHTUP5?$AA@ 3008def4     bg_panimate.obj
 0002:00003f04       ??_C@_0O@COFLJBJD@BOTH_S4_S1__L?$AA@ 3008df04     bg_panimate.obj
 0002:00003f14       ??_C@_0N@JMJDGNHG@LEGS_S1_LUP1?$AA@ 3008df14     bg_panimate.obj
 0002:00003f24       ??_C@_0O@PKBKKOEM@BOTH_S4_S1__R?$AA@ 3008df24     bg_panimate.obj
 0002:00003f34       ??_C@_0N@LHLODOLF@LEGS_S1_LUP2?$AA@ 3008df34     bg_panimate.obj
 0002:00003f44       ??_C@_0O@CCAOHOHC@BOTH_S4_S1_TL?$AA@ 3008df44     bg_panimate.obj
 0002:00003f54       ??_C@_0N@KOKFAPPE@LEGS_S1_LUP3?$AA@ 3008df54     bg_panimate.obj
 0002:00003f64       ??_C@_0O@OOOEJOGP@BOTH_S4_S1_BR?$AA@ 3008df64     bg_panimate.obj
 0002:00003f74       ??_C@_0N@OBOEJJDD@LEGS_S1_LUP4?$AA@ 3008df74     bg_panimate.obj
 0002:00003f84       ??_C@_0O@DKKFKBLA@BOTH_S4_S1_BL?$AA@ 3008df84     bg_panimate.obj
 0002:00003f94       ??_C@_0N@PIPPKIHC@LEGS_S1_LUP5?$AA@ 3008df94     bg_panimate.obj
 0002:00003fa4       ??_C@_0O@PGEPEBKN@BOTH_S4_S1_TR?$AA@ 3008dfa4     bg_panimate.obj
 0002:00003fb4       ??_C@_0N@EDEDEEJF@LEGS_S1_RUP1?$AA@ 3008dfb4     bg_panimate.obj
 0002:00003fc4       ??_C@_0O@EECDGDBN@BOTH_R4_B__S1?$AA@ 3008dfc4     bg_panimate.obj
 0002:00003fd4       ??_C@_0N@GIGOBHFG@LEGS_S1_RUP2?$AA@ 3008dfd4     bg_panimate.obj
 0002:00003fe4       ??_C@_0O@NMCLJPAK@BOTH_R4__L_S1?$AA@ 3008dfe4     bg_panimate.obj
 0002:00003ff4       ??_C@_0N@HBHFCGBH@LEGS_S1_RUP3?$AA@ 3008dff4     bg_panimate.obj
 0002:00004004       ??_C@_0O@DPLLGOJ@BOTH_R4__R_S1?$AA@ 3008e004     bg_panimate.obj
 0002:00004014       ??_C@_0N@DODELANA@LEGS_S1_RUP4?$AA@ 3008e014     bg_panimate.obj
 0002:00004024       ??_C@_0O@LGOMGPMJ@BOTH_R4_TL_S1?$AA@ 3008e024     bg_panimate.obj
 0002:00004034       ??_C@_0N@CHCPIBJB@LEGS_S1_RUP5?$AA@ 3008e034     bg_panimate.obj
 0002:00004044       ??_C@_0O@LMLDKHKM@BOTH_R4_BR_S1?$AA@ 3008e044     bg_panimate.obj
 0002:00004054       ??_C@_0N@LAMHMFP@LEGS_S3_LUP1?$AA@ 3008e054     bg_panimate.obj
 0002:00004064       ??_C@_0O@GDGDIOEP@BOTH_R4_BL_S1?$AA@ 3008e064     bg_panimate.obj
 0002:00004074       ??_C@_0N@CACBCPJM@LEGS_S3_LUP2?$AA@ 3008e074     bg_panimate.obj
 0002:00004084       ??_C@_0O@GJDMEGCK@BOTH_R4_TR_S1?$AA@ 3008e084     bg_panimate.obj
 0002:00004094       ??_C@_0N@DJDKBONN@LEGS_S3_LUP3?$AA@ 3008e094     bg_panimate.obj
 0002:000040a4       ??_C@_0O@OCBHFKJA@BOTH_B4_BR___?$AA@ 3008e0a4     bg_panimate.obj
 0002:000040b4       ??_C@_0N@HGHLIIBK@LEGS_S3_LUP4?$AA@ 3008e0b4     bg_panimate.obj
 0002:000040c4       ??_C@_0O@FNFPELNF@BOTH_B4__R___?$AA@ 3008e0c4     bg_panimate.obj
 0002:000040d4       ??_C@_0N@GPGALJFL@LEGS_S3_LUP5?$AA@ 3008e0d4     bg_panimate.obj
 0002:000040e4       ??_C@_0O@DHJILLBG@BOTH_B4_TR___?$AA@ 3008e0e4     bg_panimate.obj
 0002:000040f4       ??_C@_0N@NENMFFLM@LEGS_S3_RUP1?$AA@ 3008e0f4     bg_panimate.obj
 0002:00004104       ??_C@_0O@MPAIHPKH@BOTH_B4_T____?$AA@ 3008e104     bg_panimate.obj
 0002:00004114       ??_C@_0N@PPPBAGHP@LEGS_S3_RUP2?$AA@ 3008e114     bg_panimate.obj
 0002:00004124       ??_C@_0O@OIEIJCPF@BOTH_B4_TL___?$AA@ 3008e124     bg_panimate.obj
 0002:00004134       ??_C@_0N@OGOKDHDO@LEGS_S3_RUP3?$AA@ 3008e134     bg_panimate.obj
 0002:00004144       ??_C@_0O@ICIPGCDG@BOTH_B4__L___?$AA@ 3008e144     bg_panimate.obj
 0002:00004154       ??_C@_0N@KJKLKBPJ@LEGS_S3_RUP4?$AA@ 3008e154     bg_panimate.obj
 0002:00004164       ??_C@_0O@DNMHHDHD@BOTH_B4_BL___?$AA@ 3008e164     bg_panimate.obj
 0002:00004174       ??_C@_0N@LALAJALI@LEGS_S3_RUP5?$AA@ 3008e174     bg_panimate.obj
 0002:00004184       ??_C@_0O@JBANCDBK@BOTH_D4_BR___?$AA@ 3008e184     bg_panimate.obj
 0002:00004194       ??_C@_0N@MOKLECNB@LEGS_S4_LUP1?$AA@ 3008e194     bg_panimate.obj
 0002:000041a4       ??_C@_0O@COEFDCFP@BOTH_D4__R___?$AA@ 3008e1a4     bg_panimate.obj
 0002:000041b4       ??_C@_0N@OFIGBBBC@LEGS_S4_LUP2?$AA@ 3008e1b4     bg_panimate.obj
 0002:000041c4       ??_C@_0O@EEICMCJM@BOTH_D4_TR___?$AA@ 3008e1c4     bg_panimate.obj
 0002:000041d4       ??_C@_0N@PMJNCAFD@LEGS_S4_LUP3?$AA@ 3008e1d4     bg_panimate.obj
 0002:000041e4       ??_C@_0O@JLFCOLHP@BOTH_D4_TL___?$AA@ 3008e1e4     bg_panimate.obj
 0002:000041f4       ??_C@_0N@LDNMLGJE@LEGS_S4_LUP4?$AA@ 3008e1f4     bg_panimate.obj
 0002:00004204       ??_C@_0O@PBJFBLLM@BOTH_D4__L___?$AA@ 3008e204     bg_panimate.obj
 0002:00004214       ??_C@_0N@KKMHIHNF@LEGS_S4_LUP5?$AA@ 3008e214     bg_panimate.obj
 0002:00004224       ??_C@_0O@EONNAKPJ@BOTH_D4_BL___?$AA@ 3008e224     bg_panimate.obj
 0002:00004234       ??_C@_0N@BBHLGLDC@LEGS_S4_RUP1?$AA@ 3008e234     bg_panimate.obj
 0002:00004244       ??_C@_0O@GJJNOHKL@BOTH_D4_B____?$AA@ 3008e244     bg_panimate.obj
 0002:00004254       ??_C@_0N@DKFGDIPB@LEGS_S4_RUP2?$AA@ 3008e254     bg_panimate.obj
 0002:00004264       ??_C@_0O@CONBHDNP@BOTH_A5_T__B_?$AA@ 3008e264     bg_panimate.obj
 0002:00004274       ??_C@_0N@CDENAJLA@LEGS_S4_RUP3?$AA@ 3008e274     bg_panimate.obj
 0002:00004284       ??_C@_0O@MCAGCACA@BOTH_A5__L__R?$AA@ 3008e284     bg_panimate.obj
 0002:00004294       ??_C@_0N@GMAMJPHH@LEGS_S4_RUP4?$AA@ 3008e294     bg_panimate.obj
 0002:000042a4       ??_C@_0O@MJJHDGBM@BOTH_A5__R__L?$AA@ 3008e2a4     bg_panimate.obj
 0002:000042b4       ??_C@_0N@HFBHKODG@LEGS_S4_RUP5?$AA@ 3008e2b4     bg_panimate.obj
 0002:000042c4       ??_C@_0O@LMDPOAMA@BOTH_A5_TL_BR?$AA@ 3008e2c4     bg_panimate.obj
 0002:000042d4       ??_C@_0N@GINMEJGF@LEGS_S5_LUP1?$AA@ 3008e2d4     bg_panimate.obj
 0002:000042e4       ??_C@_0O@HKIKMILI@BOTH_A5_BR_TL?$AA@ 3008e2e4     bg_panimate.obj
 0002:000042f4       ??_C@_0N@EDPBBKKG@LEGS_S5_LUP2?$AA@ 3008e2f4     bg_panimate.obj
 0002:00004304       ??_C@_0O@HBBLNOIE@BOTH_A5_BL_TR?$AA@ 3008e304     bg_panimate.obj
 0002:00004314       ??_C@_0N@FKOKCLOH@LEGS_S5_LUP3?$AA@ 3008e314     bg_panimate.obj
 0002:00004324       ??_C@_0O@LHKOPGPM@BOTH_A5_TR_BL?$AA@ 3008e324     bg_panimate.obj
 0002:00004334       ??_C@_0N@BFKLLNCA@LEGS_S5_LUP4?$AA@ 3008e334     bg_panimate.obj
 0002:00004344       ??_C@_0O@EEMJBPLI@BOTH_T5_BR__R?$AA@ 3008e344     bg_panimate.obj
 0002:00004354       ??_C@_0N@MLAIMGB@LEGS_S5_LUP5?$AA@ 3008e354     bg_panimate.obj
 0002:00004364       ??_C@_0O@JMNNMPIG@BOTH_T5_BR_TL?$AA@ 3008e364     bg_panimate.obj
 0002:00004374       ??_C@_0N@LHAMGAIG@LEGS_S5_RUP1?$AA@ 3008e374     bg_panimate.obj
 0002:00004384       ??_C@_0O@JAIICAGH@BOTH_T5_BR__L?$AA@ 3008e384     bg_panimate.obj
 0002:00004394       ??_C@_0N@JMCBDDEF@LEGS_S5_RUP2?$AA@ 3008e394     bg_panimate.obj
 0002:000043a4       ??_C@_0O@IEHGBAEE@BOTH_T5_BR_BL?$AA@ 3008e3a4     bg_panimate.obj
 0002:000043b4       ??_C@_0N@IFDKACAE@LEGS_S5_RUP3?$AA@ 3008e3b4     bg_panimate.obj
 0002:000043c4       ??_C@_0O@PHNEOBBM@BOTH_T5__R_TR?$AA@ 3008e3c4     bg_panimate.obj
 0002:000043d4       ??_C@_0N@MKHLJEMD@LEGS_S5_RUP4?$AA@ 3008e3d4     bg_panimate.obj
 0002:000043e4       ??_C@_0O@CDJFNOMD@BOTH_T5__R_TL?$AA@ 3008e3e4     bg_panimate.obj
 0002:000043f4       ??_C@_0N@NDGAKFIC@LEGS_S5_RUP5?$AA@ 3008e3f4     bg_panimate.obj
 0002:00004404       ??_C@_0O@CPMADBCC@BOTH_T5__R__L?$AA@ 3008e404     bg_panimate.obj
 0002:00004414       ??_C@_0N@FJDEFDPI@LEGS_S6_LUP1?$AA@ 3008e414     bg_panimate.obj
 0002:00004424       ??_C@_0O@DLDOABAB@BOTH_T5__R_BL?$AA@ 3008e424     bg_panimate.obj
 0002:00004434       ??_C@_0N@HCBJAADL@LEGS_S6_LUP2?$AA@ 3008e434     bg_panimate.obj
 0002:00004444       ??_C@_0O@IFLIMOBN@BOTH_T5_TR_BR?$AA@ 3008e444     bg_panimate.obj
 0002:00004454       ??_C@_0N@GLACDBHK@LEGS_S6_LUP3?$AA@ 3008e454     bg_panimate.obj
 0002:00004464       ??_C@_0O@EJFCCOAA@BOTH_T5_TR_TL?$AA@ 3008e464     bg_panimate.obj
 0002:00004474       ??_C@_0N@CEEDKHLN@LEGS_S6_LUP4?$AA@ 3008e474     bg_panimate.obj
 0002:00004484       ??_C@_0O@EFAHMBOB@BOTH_T5_TR__L?$AA@ 3008e484     bg_panimate.obj
 0002:00004494       ??_C@_0N@DNFIJGPM@LEGS_S6_LUP5?$AA@ 3008e494     bg_panimate.obj
 0002:000044a4       ??_C@_0O@FBPJPBMC@BOTH_T5_TR_BL?$AA@ 3008e4a4     bg_panimate.obj
 0002:000044b4       ??_C@_0N@IGOEHKBL@LEGS_S6_RUP1?$AA@ 3008e4b4     bg_panimate.obj
 0002:000044c4       ??_C@_0O@HNCIAKKM@BOTH_T5_T__BR?$AA@ 3008e4c4     bg_panimate.obj
 0002:000044d4       ??_C@_0N@KNMJCJNI@LEGS_S6_RUP2?$AA@ 3008e4d4     bg_panimate.obj
 0002:000044e4       ??_C@_0O@GJNGDKIP@BOTH_T5_T___R?$AA@ 3008e4e4     bg_panimate.obj
 0002:000044f4       ??_C@_0N@LENCBIJJ@LEGS_S6_RUP3?$AA@ 3008e4f4     bg_panimate.obj
 0002:00004504       ??_C@_0O@GFIDNFGO@BOTH_T5_T__TR?$AA@ 3008e504     bg_panimate.obj
 0002:00004514       ??_C@_0N@PLJDIOFO@LEGS_S6_RUP4?$AA@ 3008e514     bg_panimate.obj
 0002:00004524       ??_C@_0O@LBMCOKLB@BOTH_T5_T__TL?$AA@ 3008e524     bg_panimate.obj
 0002:00004534       ??_C@_0N@OCIILPBP@LEGS_S6_RUP5?$AA@ 3008e534     bg_panimate.obj
 0002:00004544       ??_C@_0O@LNJHAFFA@BOTH_T5_T___L?$AA@ 3008e544     bg_panimate.obj
 0002:00004554       ??_C@_0N@PPEDFIEM@LEGS_S7_LUP1?$AA@ 3008e554     bg_panimate.obj
 0002:00004564       ??_C@_0O@KJGJDFHD@BOTH_T5_T__BL?$AA@ 3008e564     bg_panimate.obj
 0002:00004574       ??_C@_0N@NEGOALIP@LEGS_S7_LUP2?$AA@ 3008e574     bg_panimate.obj
 0002:00004584       ??_C@_0O@FKGIOHPO@BOTH_T5_TL_BR?$AA@ 3008e584     bg_panimate.obj
 0002:00004594       ??_C@_0N@MNHFDKMO@LEGS_S7_LUP3?$AA@ 3008e594     bg_panimate.obj
 0002:000045a4       ??_C@_0O@IOCJNICB@BOTH_T5_TL_BL?$AA@ 3008e5a4     bg_panimate.obj
 0002:000045b4       ??_C@_0N@ICDEKMAJ@LEGS_S7_LUP4?$AA@ 3008e5b4     bg_panimate.obj
 0002:000045c4       ??_C@_0O@DAKPBHDN@BOTH_T5__L_BR?$AA@ 3008e5c4     bg_panimate.obj
 0002:000045d4       ??_C@_0N@JLCPJNEI@LEGS_S7_LUP5?$AA@ 3008e5d4     bg_panimate.obj
 0002:000045e4       ??_C@_0O@CEFBCHBO@BOTH_T5__L__R?$AA@ 3008e5e4     bg_panimate.obj
 0002:000045f4       ??_C@_0N@CAJDHBKP@LEGS_S7_RUP1?$AA@ 3008e5f4     bg_panimate.obj
 0002:00004604       ??_C@_0O@PMEFPHCA@BOTH_T5__L_TL?$AA@ 3008e604     bg_panimate.obj
 0002:00004614       ??_C@_0N@LLOCCGM@LEGS_S7_RUP2?$AA@ 3008e614     bg_panimate.obj
 0002:00004624       ??_C@_0O@IPOHAGHI@BOTH_T5_BL_BR?$AA@ 3008e624     bg_panimate.obj
 0002:00004634       ??_C@_0N@BCKFBDCN@LEGS_S7_RUP3?$AA@ 3008e634     bg_panimate.obj
 0002:00004644       ??_C@_0O@JLBJDGFL@BOTH_T5_BL__R?$AA@ 3008e644     bg_panimate.obj
 0002:00004654       ??_C@_0N@FNOEIFOK@LEGS_S7_RUP4?$AA@ 3008e654     bg_panimate.obj
 0002:00004664       ??_C@_0O@JHEMNJLK@BOTH_T5_BL_TR?$AA@ 3008e664     bg_panimate.obj
 0002:00004674       ??_C@_0N@EEPPLEKL@LEGS_S7_RUP5?$AA@ 3008e674     bg_panimate.obj
 0002:00004684       ??_C@_0O@EPFIAJIE@BOTH_T5_BL__L?$AA@ 3008e684     bg_panimate.obj
 0002:00004694       ??_C@_0N@MEGKIHKK@LEGS_TURN180?$AA@ 3008e694     bg_panimate.obj
 0002:000046a4       ??_C@_0O@EIJMPAFJ@BOTH_T5_BR_TR?$AA@ 3008e6a4     bg_panimate.obj
 0002:000046b4       ??_C@_0L@HDOPOBKH@BOTH_CIN_1?$AA@ 3008e6b4     bg_panimate.obj
 0002:000046c0       ??_C@_0O@PNDCIOBE@BOTH_T5_BR_T_?$AA@ 3008e6c0     bg_panimate.obj
 0002:000046d0       ??_C@_0L@FIMCLCGE@BOTH_CIN_2?$AA@ 3008e6d0     bg_panimate.obj
 0002:000046dc       ??_C@_0O@OPHPDONO@BOTH_T5__R_BR?$AA@ 3008e6dc     bg_panimate.obj
 0002:000046ec       ??_C@_0L@EBNJIDCF@BOTH_CIN_3?$AA@ 3008e6ec     bg_panimate.obj
 0002:000046f8       ??_C@_0O@ECHKJPFB@BOTH_T5__R_T_?$AA@ 3008e6f8     bg_panimate.obj
 0002:00004708       ??_C@_0L@OJIBFOC@BOTH_CIN_4?$AA@ 3008e708     bg_panimate.obj
 0002:00004714       ??_C@_0O@JBEGPODO@BOTH_T5_TR__R?$AA@ 3008e714     bg_panimate.obj
 0002:00004724       ??_C@_0L@BHIDCEKD@BOTH_CIN_5?$AA@ 3008e724     bg_panimate.obj
 0002:00004730       ??_C@_0O@CILNGPJC@BOTH_T5_TR_T_?$AA@ 3008e730     bg_panimate.obj
 0002:00004740       ??_C@_0L@DMKOHHGA@BOTH_CIN_6?$AA@ 3008e740     bg_panimate.obj
 0002:0000474c       ??_C@_0O@EOJGNHNN@BOTH_T5_TL__R?$AA@ 3008e74c     bg_panimate.obj
 0002:0000475c       ??_C@_0L@CFLFEGCB@BOTH_CIN_7?$AA@ 3008e75c     bg_panimate.obj
 0002:00004768       ??_C@_0O@ECMDDIDM@BOTH_T5_TL_TR?$AA@ 3008e768     bg_panimate.obj
 0002:00004778       ??_C@_0L@KCCNFKOO@BOTH_CIN_8?$AA@ 3008e778     bg_panimate.obj
 0002:00004784       ??_C@_0O@PHGNEGHB@BOTH_T5_TL_T_?$AA@ 3008e784     bg_panimate.obj
 0002:00004794       ??_C@_0L@LLDGGLKP@BOTH_CIN_9?$AA@ 3008e794     bg_panimate.obj
 0002:000047a0       ??_C@_0O@JKNHOIAC@BOTH_T5_TL__L?$AA@ 3008e7a0     bg_panimate.obj
 0002:000047b0       ??_C@_0M@JHIHOPFJ@BOTH_CIN_10?$AA@ 3008e7b0     bg_panimate.obj
 0002:000047bc       ??_C@_0O@CIAEMIPP@BOTH_T5__L_TR?$AA@ 3008e7bc     bg_panimate.obj
 0002:000047cc       ??_C@_0M@IOJMNOBI@BOTH_CIN_11?$AA@ 3008e7cc     bg_panimate.obj
 0002:000047d8       ??_C@_0O@JNKKLGLC@BOTH_T5__L_T_?$AA@ 3008e7d8     bg_panimate.obj
 0002:000047e8       ??_C@_0M@KFLBINNL@BOTH_CIN_12?$AA@ 3008e7e8     bg_panimate.obj
 0002:000047f4       ??_C@_0O@OEOOCIOC@BOTH_T5__L_BL?$AA@ 3008e7f4     bg_panimate.obj
 0002:00004804       ??_C@_0M@LMKKLMJK@BOTH_CIN_13?$AA@ 3008e804     bg_panimate.obj
 0002:00004810       ??_C@_0O@CCOCKHPH@BOTH_T5_BL_T_?$AA@ 3008e810     bg_panimate.obj
 0002:00004820       ??_C@_0M@PDOLCKFN@BOTH_CIN_14?$AA@ 3008e820     bg_panimate.obj
 0002:0000482c       ??_C@_0O@EDANOGGF@BOTH_T5_BL_TL?$AA@ 3008e82c     bg_panimate.obj
 0002:0000483c       ??_C@_0M@OKPABLBM@BOTH_CIN_15?$AA@ 3008e83c     bg_panimate.obj
 0002:00004848       ??_C@_0O@IPELDPHO@BOTH_S5_S1_T_?$AA@ 3008e848     bg_panimate.obj
 0002:00004858       ??_C@_0M@MBNNEINP@BOTH_CIN_16?$AA@ 3008e858     bg_panimate.obj
 0002:00004864       ??_C@_0O@OCPBJBAN@BOTH_S5_S1__L?$AA@ 3008e864     bg_panimate.obj
 0002:00004874       ??_C@_0M@NIMGHJJO@BOTH_CIN_17?$AA@ 3008e874     bg_panimate.obj
 0002:00004880       ??_C@_0O@DGLAKONC@BOTH_S5_S1__R?$AA@ 3008e880     bg_panimate.obj
 0002:00004890       ??_C@_0M@FPFOGFFB@BOTH_CIN_18?$AA@ 3008e890     bg_panimate.obj
 0002:0000489c       ??_C@_0O@OOKEHOOM@BOTH_S5_S1_TL?$AA@ 3008e89c     bg_panimate.obj
 0002:000048ac       ??_C@_0M@EGEFFEBA@BOTH_CIN_19?$AA@ 3008e8ac     bg_panimate.obj
 0002:000048b8       ??_C@_0O@CCEOJOPB@BOTH_S5_S1_BR?$AA@ 3008e8b8     bg_panimate.obj
 0002:000048c8       ??_C@_0M@JFMBFBAA@BOTH_CIN_20?$AA@ 3008e8c8     bg_panimate.obj
 0002:000048d4       ??_C@_0O@PGAPKBCO@BOTH_S5_S1_BL?$AA@ 3008e8d4     bg_panimate.obj
 0002:000048e4       ??_C@_0M@IMNKGAEB@BOTH_CIN_21?$AA@ 3008e8e4     bg_panimate.obj
 0002:000048f0       ??_C@_0O@DKOFEBDD@BOTH_S5_S1_TR?$AA@ 3008e8f0     bg_panimate.obj
 0002:00004900       ??_C@_0M@KHPHDDIC@BOTH_CIN_22?$AA@ 3008e900     bg_panimate.obj
 0002:0000490c       ??_C@_0O@IIIJGDID@BOTH_R5_B__S1?$AA@ 3008e90c     bg_panimate.obj
 0002:0000491c       ??_C@_0M@LOOMACMD@BOTH_CIN_23?$AA@ 3008e91c     bg_panimate.obj
 0002:00004928       ??_C@_0O@BAIBJPJE@BOTH_R5__L_S1?$AA@ 3008e928     bg_panimate.obj
 0002:00004938       ??_C@_0M@PBKNJEAE@BOTH_CIN_24?$AA@ 3008e938     bg_panimate.obj
 0002:00004944       ??_C@_0O@MPFBLGHH@BOTH_R5__R_S1?$AA@ 3008e944     bg_panimate.obj
 0002:00004954       ??_C@_0M@OILGKFEF@BOTH_CIN_25?$AA@ 3008e954     bg_panimate.obj
 0002:00004960       ??_C@_0O@HKEGGPFH@BOTH_R5_TL_S1?$AA@ 3008e960     bg_panimate.obj
 0002:00004970       ??_C@_0M@MDJLPGIG@BOTH_CIN_26?$AA@ 3008e970     bg_panimate.obj
 0002:0000497c       ??_C@_0O@HABJKHDC@BOTH_R5_BR_S1?$AA@ 3008e97c     bg_panimate.obj
 0002:0000498c       ??_C@_0M@NKIAMHMH@BOTH_CIN_27?$AA@ 3008e98c     bg_panimate.obj
 0002:00004998       ??_C@_0O@KPMJIONB@BOTH_R5_BL_S1?$AA@ 3008e998     bg_panimate.obj
 0002:000049a8       ??_C@_0M@FNBINLAI@BOTH_CIN_28?$AA@ 3008e9a8     bg_panimate.obj
 0002:000049b4       ??_C@_0O@KFJGEGLE@BOTH_R5_TR_S1?$AA@ 3008e9b4     bg_panimate.obj
 0002:000049c4       ??_C@_0M@EEADOKEJ@BOTH_CIN_29?$AA@ 3008e9c4     bg_panimate.obj
 0002:000049d0       ??_C@_0O@COLNFKAO@BOTH_B5_BR___?$AA@ 3008e9d0     bg_panimate.obj
 0002:000049e0       ??_C@_0M@JEADDLDH@BOTH_CIN_30?$AA@ 3008e9e0     bg_panimate.obj
 0002:000049ec       ??_C@_0O@JBPFELEL@BOTH_B5__R___?$AA@ 3008e9ec     bg_panimate.obj
 0002:000049fc       ??_C@_0M@INBIAKHG@BOTH_CIN_31?$AA@ 3008e9fc     bg_panimate.obj
 0002:00004a08       ??_C@_0O@PLDCLLII@BOTH_B5_TR___?$AA@ 3008ea08     bg_panimate.obj
 0002:00004a18       ??_C@_0M@KGDFFJLF@BOTH_CIN_32?$AA@ 3008ea18     bg_panimate.obj
 0002:00004a24       ??_C@_0O@DKCHPDJ@BOTH_B5_T____?$AA@ 3008ea24     bg_panimate.obj
 0002:00004a34       ??_C@_0M@LPCOGIPE@BOTH_CIN_33?$AA@ 3008ea34     bg_panimate.obj
 0002:00004a40       ??_C@_0O@CEOCJCGL@BOTH_B5_TL___?$AA@ 3008ea40     bg_panimate.obj
 0002:00004a50       ??_C@_0M@PAGPPODD@BOTH_CIN_34?$AA@ 3008ea50     bg_panimate.obj
 0002:00004a5c       ??_C@_0O@EOCFGCKI@BOTH_B5__L___?$AA@ 3008ea5c     bg_panimate.obj
 0002:00004a6c       ??_C@_0M@OJHEMPHC@BOTH_CIN_35?$AA@ 3008ea6c     bg_panimate.obj
 0002:00004a78       ??_C@_0O@PBGNHDON@BOTH_B5_BL___?$AA@ 3008ea78     bg_panimate.obj
 0002:00004a88       ??_C@_0M@MCFJJMLB@BOTH_CIN_36?$AA@ 3008ea88     bg_panimate.obj
 0002:00004a94       ??_C@_0O@FNKHCDIE@BOTH_D5_BR___?$AA@ 3008ea94     bg_panimate.obj
 0002:00004aa4       ??_C@_0M@NLECKNPA@BOTH_CIN_37?$AA@ 3008eaa4     bg_panimate.obj
 0002:00004ab0       ??_C@_0O@OCOPDCMB@BOTH_D5__R___?$AA@ 3008eab0     bg_panimate.obj
 0002:00004ac0       ??_C@_0M@FMNKLBDP@BOTH_CIN_38?$AA@ 3008eac0     bg_panimate.obj
 0002:00004acc       ??_C@_0O@IICIMCAC@BOTH_D5_TR___?$AA@ 3008eacc     bg_panimate.obj
 0002:00004adc       ??_C@_0M@EFMBIAHO@BOTH_CIN_39?$AA@ 3008eadc     bg_panimate.obj
 0002:00004ae8       ??_C@_0O@FHPIOLOB@BOTH_D5_TL___?$AA@ 3008eae8     bg_panimate.obj
 0002:00004af8       ??_C@_0M@JBEMCNLC@BOTH_CIN_40?$AA@ 3008eaf8     bg_panimate.obj
 0002:00004b04       ??_C@_0O@DNDPBLCC@BOTH_D5__L___?$AA@ 3008eb04     bg_panimate.obj
 0002:00004b14       ??_C@_0M@IIFHBMPD@BOTH_CIN_41?$AA@ 3008eb14     bg_panimate.obj
 0002:00004b20       ??_C@_0O@ICHHAKGH@BOTH_D5_BL___?$AA@ 3008eb20     bg_panimate.obj
 0002:00004b30       ??_C@_0M@KDHKEPDA@BOTH_CIN_42?$AA@ 3008eb30     bg_panimate.obj
 0002:00004b3c       ??_C@_0O@KFDHOHDF@BOTH_D5_B____?$AA@ 3008eb3c     bg_panimate.obj
 0002:00004b4c       ??_C@_0M@LKGBHOHB@BOTH_CIN_43?$AA@ 3008eb4c     bg_panimate.obj
 0002:00004b58       ??_C@_0O@KAFOHEDM@BOTH_A6_T__B_?$AA@ 3008eb58     bg_panimate.obj
 0002:00004b68       ??_C@_0M@PFCAOILG@BOTH_CIN_44?$AA@ 3008eb68     bg_panimate.obj
 0002:00004b74       ??_C@_0O@EMIJCHMD@BOTH_A6__L__R?$AA@ 3008eb74     bg_panimate.obj
 0002:00004b84       ??_C@_0M@OMDLNJPH@BOTH_CIN_45?$AA@ 3008eb84     bg_panimate.obj
 0002:00004b90       ??_C@_0O@EHBIDBPP@BOTH_A6__R__L?$AA@ 3008eb90     bg_panimate.obj
 0002:00004ba0       ??_C@_0M@MHBGIKDE@BOTH_CIN_46?$AA@ 3008eba0     bg_panimate.obj
 0002:00004bac       ??_C@_0O@DCLAOHCD@BOTH_A6_TL_BR?$AA@ 3008ebac     bg_panimate.obj
 0002:00004bbc       ??_C@_0M@NOANLLHF@BOTH_CIN_47?$AA@ 3008ebbc     bg_panimate.obj
 0002:00004bc8       ??_C@_0O@PEAFMPFL@BOTH_A6_BR_TL?$AA@ 3008ebc8     bg_panimate.obj
 0002:00004bd8       ??_C@_0M@FJJFKHLK@BOTH_CIN_48?$AA@ 3008ebd8     bg_panimate.obj
 0002:00004be4       ??_C@_0O@PPJENJGH@BOTH_A6_BL_TR?$AA@ 3008ebe4     bg_panimate.obj
 0002:00004bf4       ??_C@_0M@EAIOJGPL@BOTH_CIN_49?$AA@ 3008ebf4     bg_panimate.obj
 0002:00004c00       ??_C@_0O@DJCBPBBP@BOTH_A6_TR_BL?$AA@ 3008ec00     bg_panimate.obj
 0002:00004c10       ??_C@_0M@JAIOEHIF@BOTH_CIN_50?$AA@ 3008ec10     bg_panimate.obj
 0002:00004c1c       ??_C@_0O@MKEGBIFL@BOTH_T6_BR__R?$AA@ 3008ec1c     bg_panimate.obj
 0002:00004c2c       ??_C@_0O@BCFCMIGF@BOTH_T6_BR_TL?$AA@ 3008ec2c     bg_panimate.obj
 0002:00004c3c       ??_C@_0O@BOAHCHIE@BOTH_T6_BR__L?$AA@ 3008ec3c     bg_panimate.obj
 0002:00004c4c       ??_C@_0O@KPJBHKH@BOTH_T6_BR_BL?$AA@ 3008ec4c     bg_panimate.obj
 0002:00004c5c       ??_C@_0O@HJFLOGPP@BOTH_T6__R_TR?$AA@ 3008ec5c     bg_panimate.obj
 0002:00004c6c       ??_C@_0O@KNBKNJCA@BOTH_T6__R_TL?$AA@ 3008ec6c     bg_panimate.obj
 0002:00004c7c       ??_C@_0O@KBEPDGMB@BOTH_T6__R__L?$AA@ 3008ec7c     bg_panimate.obj
 0002:00004c8c       ??_C@_0O@LFLBAGOC@BOTH_T6__R_BL?$AA@ 3008ec8c     bg_panimate.obj
 0002:00004c9c       ??_C@_0O@LDHMJPO@BOTH_T6_TR_BR?$AA@ 3008ec9c     bg_panimate.obj
 0002:00004cac       ??_C@_0O@MHNNCJOD@BOTH_T6_TR_TL?$AA@ 3008ecac     bg_panimate.obj
 0002:00004cbc       ??_C@_0O@MLIIMGAC@BOTH_T6_TR__L?$AA@ 3008ecbc     bg_panimate.obj
 0002:00004ccc       ??_C@_0O@NPHGPGCB@BOTH_T6_TR_BL?$AA@ 3008eccc     bg_panimate.obj
 0002:00004cdc       ??_C@_0O@PDKHANEP@BOTH_T6_T__BR?$AA@ 3008ecdc     bg_panimate.obj
 0002:00004cec       ??_C@_0O@OHFJDNGM@BOTH_T6_T___R?$AA@ 3008ecec     bg_panimate.obj
 0002:00004cfc       ??_C@_0O@OLAMNCIN@BOTH_T6_T__TR?$AA@ 3008ecfc     bg_panimate.obj
 0002:00004d0c       ??_C@_0O@DPENONFC@BOTH_T6_T__TL?$AA@ 3008ed0c     bg_panimate.obj
 0002:00004d1c       ??_C@_0O@DDBIACLD@BOTH_T6_T___L?$AA@ 3008ed1c     bg_panimate.obj
 0002:00004d2c       ??_C@_0O@CHOGDCJA@BOTH_T6_T__BL?$AA@ 3008ed2c     bg_panimate.obj
 0002:00004d3c       ??_C@_0O@NEOHOABN@BOTH_T6_TL_BR?$AA@ 3008ed3c     bg_panimate.obj
 0002:00004d4c       ??_C@_0O@KGNPMC@BOTH_T6_TL_BL?$AA@ 3008ed4c     bg_panimate.obj
 0002:00004d5c       ??_C@_0O@LOCABANO@BOTH_T6__L_BR?$AA@ 3008ed5c     bg_panimate.obj
 0002:00004d6c       ??_C@_0O@KKNOCAPN@BOTH_T6__L__R?$AA@ 3008ed6c     bg_panimate.obj
 0002:00004d7c       ??_C@_0O@HCMKPAMD@BOTH_T6__L_TL?$AA@ 3008ed7c     bg_panimate.obj
 0002:00004d8c       ??_C@_0O@BGIABJL@BOTH_T6_BL_BR?$AA@ 3008ed8c     bg_panimate.obj
 0002:00004d9c       ??_C@_0O@BFJGDBLI@BOTH_T6_BL__R?$AA@ 3008ed9c     bg_panimate.obj
 0002:00004dac       ??_C@_0O@BJMDNOFJ@BOTH_T6_BL_TR?$AA@ 3008edac     bg_panimate.obj
 0002:00004dbc       ??_C@_0O@MBNHAOGH@BOTH_T6_BL__L?$AA@ 3008edbc     bg_panimate.obj
 0002:00004dcc       ??_C@_0O@MGBDPHLK@BOTH_T6_BR_TR?$AA@ 3008edcc     bg_panimate.obj
 0002:00004ddc       ??_C@_0O@HDLNIJPH@BOTH_T6_BR_T_?$AA@ 3008eddc     bg_panimate.obj
 0002:00004dec       ??_C@_0O@GBPADJDN@BOTH_T6__R_BR?$AA@ 3008edec     bg_panimate.obj
 0002:00004dfc       ??_C@_0O@MMPFJILC@BOTH_T6__R_T_?$AA@ 3008edfc     bg_panimate.obj
 0002:00004e0c       ??_C@_0O@BPMJPJNN@BOTH_T6_TR__R?$AA@ 3008ee0c     bg_panimate.obj
 0002:00004e1c       ??_C@_0O@KGDCGIHB@BOTH_T6_TR_T_?$AA@ 3008ee1c     bg_panimate.obj
 0002:00004e2c       ??_C@_0O@MABJNADO@BOTH_T6_TL__R?$AA@ 3008ee2c     bg_panimate.obj
 0002:00004e3c       ??_C@_0O@MMEMDPNP@BOTH_T6_TL_TR?$AA@ 3008ee3c     bg_panimate.obj
 0002:00004e4c       ??_C@_0O@HJOCEBJC@BOTH_T6_TL_T_?$AA@ 3008ee4c     bg_panimate.obj
 0002:00004e5c       ??_C@_0O@BEFIOPOB@BOTH_T6_TL__L?$AA@ 3008ee5c     bg_panimate.obj
 0002:00004e6c       ??_C@_0O@KGILMPBM@BOTH_T6__L_TR?$AA@ 3008ee6c     bg_panimate.obj
 0002:00004e7c       ??_C@_0O@BDCFLBFB@BOTH_T6__L_T_?$AA@ 3008ee7c     bg_panimate.obj
 0002:00004e8c       ??_C@_0O@GKGBCPAB@BOTH_T6__L_BL?$AA@ 3008ee8c     bg_panimate.obj
 0002:00004e9c       ??_C@_0O@KMGNKABE@BOTH_T6_BL_T_?$AA@ 3008ee9c     bg_panimate.obj
 0002:00004eac       ??_C@_0O@MNICOBIG@BOTH_T6_BL_TL?$AA@ 3008eeac     bg_panimate.obj
 0002:00004ebc       ??_C@_0O@LDOEOEIN@BOTH_S6_S6_T_?$AA@ 3008eebc     bg_panimate.obj
 0002:00004ecc       ??_C@_0O@NOFOEKPO@BOTH_S6_S6__L?$AA@ 3008eecc     bg_panimate.obj
 0002:00004edc       ??_C@_0O@KBPHFCB@BOTH_S6_S6__R?$AA@ 3008eedc     bg_panimate.obj
 0002:00004eec       ??_C@_0O@NCALKFBP@BOTH_S6_S6_TL?$AA@ 3008eeec     bg_panimate.obj
 0002:00004efc       ??_C@_0O@BOOBEFAC@BOTH_S6_S6_BR?$AA@ 3008eefc     bg_panimate.obj
 0002:00004f0c       ??_C@_0O@MKKAHKNN@BOTH_S6_S6_BL?$AA@ 3008ef0c     bg_panimate.obj
 0002:00004f1c       ??_C@_0O@GEKJKMA@BOTH_S6_S6_TR?$AA@ 3008ef1c     bg_panimate.obj
 0002:00004f2c       ??_C@_0O@EJEHPCKH@BOTH_R6_B__S6?$AA@ 3008ef2c     bg_panimate.obj
 0002:00004f3c       ??_C@_0O@NBEPAOLA@BOTH_R6__L_S6?$AA@ 3008ef3c     bg_panimate.obj
 0002:00004f4c       ??_C@_0O@OJPCHFD@BOTH_R6__R_S6?$AA@ 3008ef4c     bg_panimate.obj
 0002:00004f5c       ??_C@_0O@LLIIPOHD@BOTH_R6_TL_S6?$AA@ 3008ef5c     bg_panimate.obj
 0002:00004f6c       ??_C@_0O@LBNHDGBG@BOTH_R6_BR_S6?$AA@ 3008ef6c     bg_panimate.obj
 0002:00004f7c       ??_C@_0O@GOAHBPPF@BOTH_R6_BL_S6?$AA@ 3008ef7c     bg_panimate.obj
 0002:00004f8c       ??_C@_0O@GEFINHJA@BOTH_R6_TR_S6?$AA@ 3008ef8c     bg_panimate.obj
 0002:00004f9c       ??_C@_0O@KADCFNON@BOTH_B6_BR___?$AA@ 3008ef9c     bg_panimate.obj
 0002:00004fac       ??_C@_0O@BPHKEMKI@BOTH_B6__R___?$AA@ 3008efac     bg_panimate.obj
 0002:00004fbc       ??_C@_0O@HFLNLMGL@BOTH_B6_TR___?$AA@ 3008efbc     bg_panimate.obj
 0002:00004fcc       ??_C@_0O@INCNHINK@BOTH_B6_T____?$AA@ 3008efcc     bg_panimate.obj
 0002:00004fdc       ??_C@_0O@KKGNJFII@BOTH_B6_TL___?$AA@ 3008efdc     bg_panimate.obj
 0002:00004fec       ??_C@_0O@MAKKGFEL@BOTH_B6__L___?$AA@ 3008efec     bg_panimate.obj
 0002:00004ffc       ??_C@_0O@HPOCHEAO@BOTH_B6_BL___?$AA@ 3008effc     bg_panimate.obj
 0002:0000500c       ??_C@_0O@NDCICEGH@BOTH_D6_BR___?$AA@ 3008f00c     bg_panimate.obj
 0002:0000501c       ??_C@_0O@GMGADFCC@BOTH_D6__R___?$AA@ 3008f01c     bg_panimate.obj
 0002:0000502c       ??_C@_0O@GKHMFOB@BOTH_D6_TR___?$AA@ 3008f02c     bg_panimate.obj
 0002:0000503c       ??_C@_0O@NJHHOMAC@BOTH_D6_TL___?$AA@ 3008f03c     bg_panimate.obj
 0002:0000504c       ??_C@_0O@LDLABMMB@BOTH_D6__L___?$AA@ 3008f04c     bg_panimate.obj
 0002:0000505c       ??_C@_0O@MPIANIE@BOTH_D6_BL___?$AA@ 3008f05c     bg_panimate.obj
 0002:0000506c       ??_C@_0O@CLLIOANG@BOTH_D6_B____?$AA@ 3008f06c     bg_panimate.obj
 0002:0000507c       ??_C@_0O@GMPEHEKC@BOTH_A7_T__B_?$AA@ 3008f07c     bg_panimate.obj
 0002:0000508c       ??_C@_0O@IACDCHFN@BOTH_A7__L__R?$AA@ 3008f08c     bg_panimate.obj
 0002:0000509c       ??_C@_0O@ILLCDBGB@BOTH_A7__R__L?$AA@ 3008f09c     bg_panimate.obj
 0002:000050ac       ??_C@_0O@POBKOHLN@BOTH_A7_TL_BR?$AA@ 3008f0ac     bg_panimate.obj
 0002:000050bc       ??_C@_0O@DIKPMPMF@BOTH_A7_BR_TL?$AA@ 3008f0bc     bg_panimate.obj
 0002:000050cc       ??_C@_0O@DDDONJPJ@BOTH_A7_BL_TR?$AA@ 3008f0cc     bg_panimate.obj
 0002:000050dc       ??_C@_0O@PFILPBIB@BOTH_A7_TR_BL?$AA@ 3008f0dc     bg_panimate.obj
 0002:000050ec       ??_C@_0O@GOMBIMF@BOTH_T7_BR__R?$AA@ 3008f0ec     bg_panimate.obj
 0002:000050fc       ??_C@_0O@NOPIMIPL@BOTH_T7_BR_TL?$AA@ 3008f0fc     bg_panimate.obj
 0002:0000510c       ??_C@_0O@NCKNCHBK@BOTH_T7_BR__L?$AA@ 3008f10c     bg_panimate.obj
 0002:0000511c       ??_C@_0O@MGFDBHDJ@BOTH_T7_BR_BL?$AA@ 3008f11c     bg_panimate.obj
 0002:0000512c       ??_C@_0O@LFPBOGGB@BOTH_T7__R_TR?$AA@ 3008f12c     bg_panimate.obj
 0002:0000513c       ??_C@_0O@GBLANJLO@BOTH_T7__R_TL?$AA@ 3008f13c     bg_panimate.obj
 0002:0000514c       ??_C@_0O@GNOFDGFP@BOTH_T7__R__L?$AA@ 3008f14c     bg_panimate.obj
 0002:0000515c       ??_C@_0O@HJBLAGHM@BOTH_T7__R_BL?$AA@ 3008f15c     bg_panimate.obj
 0002:0000516c       ??_C@_0O@MHJNMJGA@BOTH_T7_TR_BR?$AA@ 3008f16c     bg_panimate.obj
 0002:0000517c       ??_C@_0O@LHHCJHN@BOTH_T7_TR_TL?$AA@ 3008f17c     bg_panimate.obj
 0002:0000518c       ??_C@_0O@HCCMGJM@BOTH_T7_TR__L?$AA@ 3008f18c     bg_panimate.obj
 0002:0000519c       ??_C@_0O@BDNMPGLP@BOTH_T7_TR_BL?$AA@ 3008f19c     bg_panimate.obj
 0002:000051ac       ??_C@_0O@DPANANNB@BOTH_T7_T__BR?$AA@ 3008f1ac     bg_panimate.obj
 0002:000051bc       ??_C@_0O@CLPDDNPC@BOTH_T7_T___R?$AA@ 3008f1bc     bg_panimate.obj
 0002:000051cc       ??_C@_0O@CHKGNCBD@BOTH_T7_T__TR?$AA@ 3008f1cc     bg_panimate.obj
 0002:000051dc       ??_C@_0O@PDOHONMM@BOTH_T7_T__TL?$AA@ 3008f1dc     bg_panimate.obj
 0002:000051ec       ??_C@_0O@PPLCACCN@BOTH_T7_T___L?$AA@ 3008f1ec     bg_panimate.obj
 0002:000051fc       ??_C@_0O@OLEMDCAO@BOTH_T7_T__BL?$AA@ 3008f1fc     bg_panimate.obj
 0002:0000520c       ??_C@_0O@BIENOAID@BOTH_T7_TL_BR?$AA@ 3008f20c     bg_panimate.obj
 0002:0000521c       ??_C@_0O@MMAMNPFM@BOTH_T7_TL_BL?$AA@ 3008f21c     bg_panimate.obj
 0002:0000522c       ??_C@_0O@HCIKBAEA@BOTH_T7__L_BR?$AA@ 3008f22c     bg_panimate.obj
 0002:0000523c       ??_C@_0O@GGHECAGD@BOTH_T7__L__R?$AA@ 3008f23c     bg_panimate.obj
 0002:0000524c       ??_C@_0O@LOGAPAFN@BOTH_T7__L_TL?$AA@ 3008f24c     bg_panimate.obj
 0002:0000525c       ??_C@_0O@MNMCABAF@BOTH_T7_BL_BR?$AA@ 3008f25c     bg_panimate.obj
 0002:0000526c       ??_C@_0O@NJDMDBCG@BOTH_T7_BL__R?$AA@ 3008f26c     bg_panimate.obj
 0002:0000527c       ??_C@_0O@NFGJNOMH@BOTH_T7_BL_TR?$AA@ 3008f27c     bg_panimate.obj
 0002:0000528c       ??_C@_0O@NHNAOPJ@BOTH_T7_BL__L?$AA@ 3008f28c     bg_panimate.obj
 0002:0000529c       ??_C@_0O@KLJPHCE@BOTH_T7_BR_TR?$AA@ 3008f29c     bg_panimate.obj
 0002:000052ac       ??_C@_0O@LPBHIJGJ@BOTH_T7_BR_T_?$AA@ 3008f2ac     bg_panimate.obj
 0002:000052bc       ??_C@_0O@KNFKDJKD@BOTH_T7__R_BR?$AA@ 3008f2bc     bg_panimate.obj
 0002:000052cc       ??_C@_0O@FPJICM@BOTH_T7__R_T_?$AA@ 3008f2cc     bg_panimate.obj
 0002:000052dc       ??_C@_0O@NDGDPJED@BOTH_T7_TR__R?$AA@ 3008f2dc     bg_panimate.obj
 0002:000052ec       ??_C@_0O@GKJIGIOP@BOTH_T7_TR_T_?$AA@ 3008f2ec     bg_panimate.obj
 0002:000052fc       ??_C@_0O@MLDNAKA@BOTH_T7_TL__R?$AA@ 3008f2fc     bg_panimate.obj
 0002:0000530c       ??_C@_0O@OGDPEB@BOTH_T7_TL_TR?$AA@ 3008f30c     bg_panimate.obj
 0002:0000531c       ??_C@_0O@LFEIEBAM@BOTH_T7_TL_T_?$AA@ 3008f31c     bg_panimate.obj
 0002:0000532c       ??_C@_0O@NIPCOPHP@BOTH_T7_TL__L?$AA@ 3008f32c     bg_panimate.obj
 0002:0000533c       ??_C@_0O@GKCBMPIC@BOTH_T7__L_TR?$AA@ 3008f33c     bg_panimate.obj
 0002:0000534c       ??_C@_0O@NPIPLBMP@BOTH_T7__L_T_?$AA@ 3008f34c     bg_panimate.obj
 0002:0000535c       ??_C@_0O@KGMLCPJP@BOTH_T7__L_BL?$AA@ 3008f35c     bg_panimate.obj
 0002:0000536c       ??_C@_0O@GAMHKAIK@BOTH_T7_BL_T_?$AA@ 3008f36c     bg_panimate.obj
 0002:0000537c       ??_C@_0O@BCIOBBI@BOTH_T7_BL_TL?$AA@ 3008f37c     bg_panimate.obj
 0002:0000538c       ??_C@_0O@ECCOMNKD@BOTH_S7_S7_T_?$AA@ 3008f38c     bg_panimate.obj
 0002:0000539c       ??_C@_0O@CPJEGDNA@BOTH_S7_S7__L?$AA@ 3008f39c     bg_panimate.obj
 0002:000053ac       ??_C@_0O@PLNFFMAP@BOTH_S7_S7__R?$AA@ 3008f3ac     bg_panimate.obj
 0002:000053bc       ??_C@_0O@CDMBIMDB@BOTH_S7_S7_TL?$AA@ 3008f3bc     bg_panimate.obj
 0002:000053cc       ??_C@_0O@OPCLGMCM@BOTH_S7_S7_BR?$AA@ 3008f3cc     bg_panimate.obj
 0002:000053dc       ??_C@_0O@DLGKFDPD@BOTH_S7_S7_BL?$AA@ 3008f3dc     bg_panimate.obj
 0002:000053ec       ??_C@_0O@PHIALDOO@BOTH_S7_S7_TR?$AA@ 3008f3ec     bg_panimate.obj
 0002:000053fc       ??_C@_0O@JMPGMDHI@BOTH_R7_B__S7?$AA@ 3008f3fc     bg_panimate.obj
 0002:0000540c       ??_C@_0O@EPODPGP@BOTH_R7__L_S7?$AA@ 3008f40c     bg_panimate.obj
 0002:0000541c       ??_C@_0O@NLCOBGIM@BOTH_R7__R_S7?$AA@ 3008f41c     bg_panimate.obj
 0002:0000542c       ??_C@_0O@GODJMPKM@BOTH_R7_TL_S7?$AA@ 3008f42c     bg_panimate.obj
 0002:0000543c       ??_C@_0O@GEGGAHMJ@BOTH_R7_BR_S7?$AA@ 3008f43c     bg_panimate.obj
 0002:0000544c       ??_C@_0O@LLLGCOCK@BOTH_R7_BL_S7?$AA@ 3008f44c     bg_panimate.obj
 0002:0000545c       ??_C@_0O@LBOJOGEP@BOTH_R7_TR_S7?$AA@ 3008f45c     bg_panimate.obj
 0002:0000546c       ??_C@_0O@GMJIFNHD@BOTH_B7_BR___?$AA@ 3008f46c     bg_panimate.obj
 0002:0000547c       ??_C@_0O@NDNAEMDG@BOTH_B7__R___?$AA@ 3008f47c     bg_panimate.obj
 0002:0000548c       ??_C@_0O@LJBHLMPF@BOTH_B7_TR___?$AA@ 3008f48c     bg_panimate.obj
 0002:0000549c       ??_C@_0O@EBIHHIEE@BOTH_B7_T____?$AA@ 3008f49c     bg_panimate.obj
 0002:000054ac       ??_C@_0O@GGMHJFBG@BOTH_B7_TL___?$AA@ 3008f4ac     bg_panimate.obj
 0002:000054bc       ??_C@_0O@MAAGFNF@BOTH_B7__L___?$AA@ 3008f4bc     bg_panimate.obj
 0002:000054cc       ??_C@_0O@LDEIHEJA@BOTH_B7_BL___?$AA@ 3008f4cc     bg_panimate.obj
 0002:000054dc       ??_C@_0O@BPICCEPJ@BOTH_D7_BR___?$AA@ 3008f4dc     bg_panimate.obj
 0002:000054ec       ??_C@_0O@KAMKDFLM@BOTH_D7__R___?$AA@ 3008f4ec     bg_panimate.obj
 0002:000054fc       ??_C@_0O@MKANMFHP@BOTH_D7_TR___?$AA@ 3008f4fc     bg_panimate.obj
 0002:0000550c       ??_C@_0O@BFNNOMJM@BOTH_D7_TL___?$AA@ 3008f50c     bg_panimate.obj
 0002:0000551c       ??_C@_0O@HPBKBMFP@BOTH_D7__L___?$AA@ 3008f51c     bg_panimate.obj
 0002:0000552c       ??_C@_0O@MAFCANBK@BOTH_D7_BL___?$AA@ 3008f52c     bg_panimate.obj
 0002:0000553c       ??_C@_0O@OHBCOAEI@BOTH_D7_B____?$AA@ 3008f53c     bg_panimate.obj
 0002:0000554c       ??_C@_0O@DCIMANEB@BOTH_P1_S1_T_?$AA@ 3008f54c     bg_panimate.obj
 0002:0000555c       ??_C@_0O@IHCCHDAM@BOTH_P1_S1_TR?$AA@ 3008f55c     bg_panimate.obj
 0002:0000556c       ??_C@_0O@FDGDEMND@BOTH_P1_S1_TL?$AA@ 3008f56c     bg_panimate.obj
 0002:0000557c       ??_C@_0O@ELMIJDBB@BOTH_P1_S1_BL?$AA@ 3008f57c     bg_panimate.obj
 0002:0000558c       ??_C@_0O@JPIJKMMO@BOTH_P1_S1_BR?$AA@ 3008f58c     bg_panimate.obj
 0002:0000559c       ??_C@_0O@BMBJNBON@BOTH_K1_S1_T_?$AA@ 3008f59c     bg_panimate.obj
 0002:000055ac       ??_C@_0O@KJLHKPKA@BOTH_K1_S1_TR?$AA@ 3008f5ac     bg_panimate.obj
 0002:000055bc       ??_C@_0O@HNPGJAHP@BOTH_K1_S1_TL?$AA@ 3008f5bc     bg_panimate.obj
 0002:000055cc       ??_C@_0O@GFFNEPLN@BOTH_K1_S1_BL?$AA@ 3008f5cc     bg_panimate.obj
 0002:000055dc       ??_C@_0O@ELCAOCP@BOTH_K1_S1_B_?$AA@ 3008f5dc     bg_panimate.obj
 0002:000055ec       ??_C@_0O@LBBMHAGC@BOTH_K1_S1_BR?$AA@ 3008f5ec     bg_panimate.obj
 0002:000055fc       ??_C@_0O@KJLPPIME@BOTH_V1_BR_S1?$AA@ 3008f5fc     bg_panimate.obj
 0002:0000560c       ??_C@_0O@BGPHOJIB@BOTH_V1__R_S1?$AA@ 3008f60c     bg_panimate.obj
 0002:0000561c       ??_C@_0O@HMDABJEC@BOTH_V1_TR_S1?$AA@ 3008f61c     bg_panimate.obj
 0002:0000562c       ??_C@_0O@IEKANNPD@BOTH_V1_T__S1?$AA@ 3008f62c     bg_panimate.obj
 0002:0000563c       ??_C@_0O@KDOADAKB@BOTH_V1_TL_S1?$AA@ 3008f63c     bg_panimate.obj
 0002:0000564c       ??_C@_0O@MJCHMAGC@BOTH_V1__L_S1?$AA@ 3008f64c     bg_panimate.obj
 0002:0000565c       ??_C@_0O@HGGPNBCH@BOTH_V1_BL_S1?$AA@ 3008f65c     bg_panimate.obj
 0002:0000566c       ??_C@_0O@FBCPDMHF@BOTH_V1_B__S1?$AA@ 3008f66c     bg_panimate.obj
 0002:0000567c       ??_C@_0O@CFJEONCI@BOTH_H1_S1_T_?$AA@ 3008f67c     bg_panimate.obj
 0002:0000568c       ??_C@_0O@JADKJDGF@BOTH_H1_S1_TR?$AA@ 3008f68c     bg_panimate.obj
 0002:0000569c       ??_C@_0O@EEHLKMLK@BOTH_H1_S1_TL?$AA@ 3008f69c     bg_panimate.obj
 0002:000056ac       ??_C@_0O@FMNAHDHI@BOTH_H1_S1_BL?$AA@ 3008f6ac     bg_panimate.obj
 0002:000056bc       ??_C@_0O@DNDPDCOK@BOTH_H1_S1_B_?$AA@ 3008f6bc     bg_panimate.obj
 0002:000056cc       ??_C@_0O@IIJBEMKH@BOTH_H1_S1_BR?$AA@ 3008f6cc     bg_panimate.obj
 0002:000056dc       ??_C@_0O@IKGJNIEI@BOTH_P6_S6_T_?$AA@ 3008f6dc     bg_panimate.obj
 0002:000056ec       ??_C@_0O@DPMHKGAF@BOTH_P6_S6_TR?$AA@ 3008f6ec     bg_panimate.obj
 0002:000056fc       ??_C@_0O@OLIGJJNK@BOTH_P6_S6_TL?$AA@ 3008f6fc     bg_panimate.obj
 0002:0000570c       ??_C@_0O@PDCNEGBI@BOTH_P6_S6_BL?$AA@ 3008f70c     bg_panimate.obj
 0002:0000571c       ??_C@_0O@CHGMHJMH@BOTH_P6_S6_BR?$AA@ 3008f71c     bg_panimate.obj
 0002:0000572c       ??_C@_0O@KEPMAEOE@BOTH_K6_S6_T_?$AA@ 3008f72c     bg_panimate.obj
 0002:0000573c       ??_C@_0O@BBFCHKKJ@BOTH_K6_S6_TR?$AA@ 3008f73c     bg_panimate.obj
 0002:0000574c       ??_C@_0O@MFBDEFHG@BOTH_K6_S6_TL?$AA@ 3008f74c     bg_panimate.obj
 0002:0000575c       ??_C@_0O@NNLIJKLE@BOTH_K6_S6_BL?$AA@ 3008f75c     bg_panimate.obj
 0002:0000576c       ??_C@_0O@LMFHNLCG@BOTH_K6_S6_B_?$AA@ 3008f76c     bg_panimate.obj
 0002:0000577c       ??_C@_0O@JPJKFGL@BOTH_K6_S6_BR?$AA@ 3008f77c     bg_panimate.obj
 0002:0000578c       ??_C@_0O@OMDLGHBK@BOTH_V6_BR_S6?$AA@ 3008f78c     bg_panimate.obj
 0002:0000579c       ??_C@_0O@FDHDHGFP@BOTH_V6__R_S6?$AA@ 3008f79c     bg_panimate.obj
 0002:000057ac       ??_C@_0O@DJLEIGJM@BOTH_V6_TR_S6?$AA@ 3008f7ac     bg_panimate.obj
 0002:000057bc       ??_C@_0O@MBCEECCN@BOTH_V6_T__S6?$AA@ 3008f7bc     bg_panimate.obj
 0002:000057cc       ??_C@_0O@OGGEKPHP@BOTH_V6_TL_S6?$AA@ 3008f7cc     bg_panimate.obj
 0002:000057dc       ??_C@_0O@IMKDFPLM@BOTH_V6__L_S6?$AA@ 3008f7dc     bg_panimate.obj
 0002:000057ec       ??_C@_0O@DDOLEOPJ@BOTH_V6_BL_S6?$AA@ 3008f7ec     bg_panimate.obj
 0002:000057fc       ??_C@_0O@BEKLKDKL@BOTH_V6_B__S6?$AA@ 3008f7fc     bg_panimate.obj
 0002:0000580c       ??_C@_0O@JNHBDICB@BOTH_H6_S6_T_?$AA@ 3008f80c     bg_panimate.obj
 0002:0000581c       ??_C@_0O@CINPEGGM@BOTH_H6_S6_TR?$AA@ 3008f81c     bg_panimate.obj
 0002:0000582c       ??_C@_0O@PMJOHJLD@BOTH_H6_S6_TL?$AA@ 3008f82c     bg_panimate.obj
 0002:0000583c       ??_C@_0O@OEDFKGHB@BOTH_H6_S6_BL?$AA@ 3008f83c     bg_panimate.obj
 0002:0000584c       ??_C@_0O@IFNKOHOD@BOTH_H6_S6_B_?$AA@ 3008f84c     bg_panimate.obj
 0002:0000585c       ??_C@_0O@DAHEJJKO@BOTH_H6_S6_BR?$AA@ 3008f85c     bg_panimate.obj
 0002:0000586c       ??_C@_0O@HLKDPBGG@BOTH_P7_S7_T_?$AA@ 3008f86c     bg_panimate.obj
 0002:0000587c       ??_C@_0O@MOANIPCL@BOTH_P7_S7_TR?$AA@ 3008f87c     bg_panimate.obj
 0002:0000588c       ??_C@_0O@BKEMLAPE@BOTH_P7_S7_TL?$AA@ 3008f88c     bg_panimate.obj
 0002:0000589c       ??_C@_0O@COHGPDG@BOTH_P7_S7_BL?$AA@ 3008f89c     bg_panimate.obj
 0002:000058ac       ??_C@_0O@NGKGFAOJ@BOTH_P7_S7_BR?$AA@ 3008f8ac     bg_panimate.obj
 0002:000058bc       ??_C@_0O@FFDGCNMK@BOTH_K7_S7_T_?$AA@ 3008f8bc     bg_panimate.obj
 0002:000058cc       ??_C@_0O@OAJIFDIH@BOTH_K7_S7_TR?$AA@ 3008f8cc     bg_panimate.obj
 0002:000058dc       ??_C@_0O@DENJGMFI@BOTH_K7_S7_TL?$AA@ 3008f8dc     bg_panimate.obj
 0002:000058ec       ??_C@_0O@CMHCLDJK@BOTH_K7_S7_BL?$AA@ 3008f8ec     bg_panimate.obj
 0002:000058fc       ??_C@_0O@ENJNPCAI@BOTH_K7_S7_B_?$AA@ 3008f8fc     bg_panimate.obj
 0002:0000590c       ??_C@_0O@PIDDIMEF@BOTH_K7_S7_BR?$AA@ 3008f90c     bg_panimate.obj
 0002:0000591c       ??_C@_0O@DJIKFGMF@BOTH_V7_BR_S7?$AA@ 3008f91c     bg_panimate.obj
 0002:0000592c       ??_C@_0O@IGMCEHIA@BOTH_V7__R_S7?$AA@ 3008f92c     bg_panimate.obj
 0002:0000593c       ??_C@_0O@OMAFLHED@BOTH_V7_TR_S7?$AA@ 3008f93c     bg_panimate.obj
 0002:0000594c       ??_C@_0O@BEJFHDPC@BOTH_V7_T__S7?$AA@ 3008f94c     bg_panimate.obj
 0002:0000595c       ??_C@_0O@DDNFJOKA@BOTH_V7_TL_S7?$AA@ 3008f95c     bg_panimate.obj
 0002:0000596c       ??_C@_0O@FJBCGOGD@BOTH_V7__L_S7?$AA@ 3008f96c     bg_panimate.obj
 0002:0000597c       ??_C@_0O@OGFKHPCG@BOTH_V7_BL_S7?$AA@ 3008f97c     bg_panimate.obj
 0002:0000598c       ??_C@_0O@MBBKJCHE@BOTH_V7_B__S7?$AA@ 3008f98c     bg_panimate.obj
 0002:0000599c       ??_C@_0O@GMLLBBAP@BOTH_H7_S7_T_?$AA@ 3008f99c     bg_panimate.obj
 0002:000059ac       ??_C@_0O@NJBFGPEC@BOTH_H7_S7_TR?$AA@ 3008f9ac     bg_panimate.obj
 0002:000059bc       ??_C@_0O@NFEFAJN@BOTH_H7_S7_TL?$AA@ 3008f9bc     bg_panimate.obj
 0002:000059cc       ??_C@_0O@BFPPIPFP@BOTH_H7_S7_BL?$AA@ 3008f9cc     bg_panimate.obj
 0002:000059dc       ??_C@_0O@HEBAMOMN@BOTH_H7_S7_B_?$AA@ 3008f9dc     bg_panimate.obj
 0002:000059ec       ??_C@_0O@MBLOLAIA@BOTH_H7_S7_BR?$AA@ 3008f9ec     bg_panimate.obj
 0002:000059fc       ??_C@_0BF@KNBBBPIF@BOTH_LK_S_DL_S_B_1_L?$AA@ 3008f9fc     bg_panimate.obj
 0002:00005a14       ??_C@_0BF@ECHNEBP@BOTH_LK_S_DL_S_B_1_W?$AA@ 3008fa14     bg_panimate.obj
 0002:00005a2c       ??_C@_0BD@FAIJMBFK@BOTH_LK_S_DL_S_L_1?$AA@ 3008fa2c     bg_panimate.obj
 0002:00005a40       ??_C@_0BG@FMMJLELD@BOTH_LK_S_DL_S_SB_1_L?$AA@ 3008fa40     bg_panimate.obj
 0002:00005a58       ??_C@_0BG@PFPPHPCJ@BOTH_LK_S_DL_S_SB_1_W?$AA@ 3008fa58     bg_panimate.obj
 0002:00005a70       ??_C@_0BF@KHNEBGJM@BOTH_LK_S_DL_T_B_1_L?$AA@ 3008fa70     bg_panimate.obj
 0002:00005a88       ??_C@_0BF@OOCNNAG@BOTH_LK_S_DL_T_B_1_W?$AA@ 3008fa88     bg_panimate.obj
 0002:00005aa0       ??_C@_0BD@ENIMPBOC@BOTH_LK_S_DL_T_L_1?$AA@ 3008faa0     bg_panimate.obj
 0002:00005ab4       ??_C@_0BG@DIKINJHK@BOTH_LK_S_DL_T_SB_1_L?$AA@ 3008fab4     bg_panimate.obj
 0002:00005acc       ??_C@_0BG@JBJOBCOA@BOTH_LK_S_DL_T_SB_1_W?$AA@ 3008facc     bg_panimate.obj
 0002:00005ae4       ??_C@_0BF@BOKFAPNB@BOTH_LK_S_ST_S_B_1_L?$AA@ 3008fae4     bg_panimate.obj
 0002:00005afc       ??_C@_0BF@LHJDMEEL@BOTH_LK_S_ST_S_B_1_W?$AA@ 3008fafc     bg_panimate.obj
 0002:00005b14       ??_C@_0BD@DHHGMEHM@BOTH_LK_S_ST_S_L_1?$AA@ 3008fb14     bg_panimate.obj
 0002:00005b28       ??_C@_0BG@DAHMJFEO@BOTH_LK_S_ST_S_SB_1_L?$AA@ 3008fb28     bg_panimate.obj
 0002:00005b40       ??_C@_0BG@JJEKFONE@BOTH_LK_S_ST_S_SB_1_W?$AA@ 3008fb40     bg_panimate.obj
 0002:00005b58       ??_C@_0BF@BEGAAGMI@BOTH_LK_S_ST_T_B_1_L?$AA@ 3008fb58     bg_panimate.obj
 0002:00005b70       ??_C@_0BF@LNFGMNFC@BOTH_LK_S_ST_T_B_1_W?$AA@ 3008fb70     bg_panimate.obj
 0002:00005b88       ??_C@_0BD@CKHDPEME@BOTH_LK_S_ST_T_L_1?$AA@ 3008fb88     bg_panimate.obj
 0002:00005b9c       ??_C@_0BG@FEBNPIIH@BOTH_LK_S_ST_T_SB_1_L?$AA@ 3008fb9c     bg_panimate.obj
 0002:00005bb4       ??_C@_0BG@PNCLDDBN@BOTH_LK_S_ST_T_SB_1_W?$AA@ 3008fbb4     bg_panimate.obj
 0002:00005bcc       ??_C@_0BE@BGKKDADB@BOTH_LK_S_S_S_B_1_L?$AA@ 3008fbcc     bg_panimate.obj
 0002:00005be0       ??_C@_0BE@LPJMPLKL@BOTH_LK_S_S_S_B_1_W?$AA@ 3008fbe0     bg_panimate.obj
 0002:00005bf4       ??_C@_0BC@OIKGFGCA@BOTH_LK_S_S_S_L_1?$AA@ 3008fbf4     bg_panimate.obj
 0002:00005c08       ??_C@_0BF@JAHOHIAJ@BOTH_LK_S_S_S_SB_1_L?$AA@ 3008fc08     bg_panimate.obj
 0002:00005c20       ??_C@_0BF@DJEILDJD@BOTH_LK_S_S_S_SB_1_W?$AA@ 3008fc20     bg_panimate.obj
 0002:00005c38       ??_C@_0BE@BMGPDJCI@BOTH_LK_S_S_T_B_1_L?$AA@ 3008fc38     bg_panimate.obj
 0002:00005c4c       ??_C@_0BE@LFFJPCLC@BOTH_LK_S_S_T_B_1_W?$AA@ 3008fc4c     bg_panimate.obj
 0002:00005c60       ??_C@_0BC@PFKDGGJI@BOTH_LK_S_S_T_L_1?$AA@ 3008fc60     bg_panimate.obj
 0002:00005c74       ??_C@_0BF@PEBPBFMA@BOTH_LK_S_S_T_SB_1_L?$AA@ 3008fc74     bg_panimate.obj
 0002:00005c8c       ??_C@_0BF@FNCJNOFK@BOTH_LK_S_S_T_SB_1_W?$AA@ 3008fc8c     bg_panimate.obj
 0002:00005ca4       ??_C@_0BG@CLJAPGHI@BOTH_LK_DL_DL_S_B_1_L?$AA@ 3008fca4     bg_panimate.obj
 0002:00005cbc       ??_C@_0BG@ICKGDNOC@BOTH_LK_DL_DL_S_B_1_W?$AA@ 3008fcbc     bg_panimate.obj
 0002:00005cd4       ??_C@_0BE@DECCHOJ@BOTH_LK_DL_DL_S_L_1?$AA@ 3008fcd4     bg_panimate.obj
 0002:00005ce8       ??_C@_0BH@JPEDLLPL@BOTH_LK_DL_DL_S_SB_1_L?$AA@ 3008fce8     bg_panimate.obj
 0002:00005d00       ??_C@_0BH@DGHFHAGB@BOTH_LK_DL_DL_S_SB_1_W?$AA@ 3008fd00     bg_panimate.obj
 0002:00005d18       ??_C@_0BG@CBFFPPGB@BOTH_LK_DL_DL_T_B_1_L?$AA@ 3008fd18     bg_panimate.obj
 0002:00005d30       ??_C@_0BG@IIGDDEPL@BOTH_LK_DL_DL_T_B_1_W?$AA@ 3008fd30     bg_panimate.obj
 0002:00005d48       ??_C@_0BE@BOEHBHFB@BOTH_LK_DL_DL_T_L_1?$AA@ 3008fd48     bg_panimate.obj
 0002:00005d5c       ??_C@_0BH@PLCCNGDC@BOTH_LK_DL_DL_T_SB_1_L?$AA@ 3008fd5c     bg_panimate.obj
 0002:00005d74       ??_C@_0BH@FCBEBNKI@BOTH_LK_DL_DL_T_SB_1_W?$AA@ 3008fd74     bg_panimate.obj
 0002:00005d8c       ??_C@_0BG@JICEOGCM@BOTH_LK_DL_ST_S_B_1_L?$AA@ 3008fd8c     bg_panimate.obj
 0002:00005da4       ??_C@_0BG@DBBCCNLG@BOTH_LK_DL_ST_S_B_1_W?$AA@ 3008fda4     bg_panimate.obj
 0002:00005dbc       ??_C@_0BE@GELNCCMP@BOTH_LK_DL_ST_S_L_1?$AA@ 3008fdbc     bg_panimate.obj
 0002:00005dd0       ??_C@_0BH@PDPGJKAG@BOTH_LK_DL_ST_S_SB_1_L?$AA@ 3008fdd0     bg_panimate.obj
 0002:00005de8       ??_C@_0BH@FKMAFBJM@BOTH_LK_DL_ST_S_SB_1_W?$AA@ 3008fde8     bg_panimate.obj
 0002:00005e00       ??_C@_0BG@JCOBOPDF@BOTH_LK_DL_ST_T_B_1_L?$AA@ 3008fe00     bg_panimate.obj
 0002:00005e18       ??_C@_0BG@DLNHCEKP@BOTH_LK_DL_ST_T_B_1_W?$AA@ 3008fe18     bg_panimate.obj
 0002:00005e30       ??_C@_0BE@HJLIBCHH@BOTH_LK_DL_ST_T_L_1?$AA@ 3008fe30     bg_panimate.obj
 0002:00005e44       ??_C@_0BH@JHJHPHMP@BOTH_LK_DL_ST_T_SB_1_L?$AA@ 3008fe44     bg_panimate.obj
 0002:00005e5c       ??_C@_0BH@DOKBDMFF@BOTH_LK_DL_ST_T_SB_1_W?$AA@ 3008fe5c     bg_panimate.obj
 0002:00005e74       ??_C@_0BF@EEJBBJOB@BOTH_LK_DL_S_S_B_1_L?$AA@ 3008fe74     bg_panimate.obj
 0002:00005e8c       ??_C@_0BF@ONKHNCHL@BOTH_LK_DL_S_S_B_1_W?$AA@ 3008fe8c     bg_panimate.obj
 0002:00005ea4       ??_C@_0BD@JANDNFNC@BOTH_LK_DL_S_S_L_1?$AA@ 3008fea4     bg_panimate.obj
 0002:00005eb8       ??_C@_0BG@BGPPJBPE@BOTH_LK_DL_S_S_SB_1_L?$AA@ 3008feb8     bg_panimate.obj
 0002:00005ed0       ??_C@_0BG@LPMJFKGO@BOTH_LK_DL_S_S_SB_1_W?$AA@ 3008fed0     bg_panimate.obj
 0002:00005ee8       ??_C@_0BF@EOFEBAPI@BOTH_LK_DL_S_T_B_1_L?$AA@ 3008fee8     bg_panimate.obj
 0002:00005f00       ??_C@_0BF@OHGCNLGC@BOTH_LK_DL_S_T_B_1_W?$AA@ 3008ff00     bg_panimate.obj
 0002:00005f18       ??_C@_0BD@INNGOFGK@BOTH_LK_DL_S_T_L_1?$AA@ 3008ff18     bg_panimate.obj
 0002:00005f2c       ??_C@_0BG@HCJOPMDN@BOTH_LK_DL_S_T_SB_1_L?$AA@ 3008ff2c     bg_panimate.obj
 0002:00005f44       ??_C@_0BG@NLKIDHKH@BOTH_LK_DL_S_T_SB_1_W?$AA@ 3008ff44     bg_panimate.obj
 0002:00005f5c       ??_C@_0BG@MGOLBFGD@BOTH_LK_ST_DL_S_B_1_L?$AA@ 3008ff5c     bg_panimate.obj
 0002:00005f74       ??_C@_0BG@GPNNNOPJ@BOTH_LK_ST_DL_S_B_1_W?$AA@ 3008ff74     bg_panimate.obj
 0002:00005f8c       ??_C@_0BE@GPPHAGBE@BOTH_LK_ST_DL_S_L_1?$AA@ 3008ff8c     bg_panimate.obj
 0002:00005fa0       ??_C@_0BH@BFMLAJPE@BOTH_LK_ST_DL_S_SB_1_L?$AA@ 3008ffa0     bg_panimate.obj
 0002:00005fb8       ??_C@_0BH@LMPNMCGO@BOTH_LK_ST_DL_S_SB_1_W?$AA@ 3008ffb8     bg_panimate.obj
 0002:00005fd0       ??_C@_0BG@MMCOBMHK@BOTH_LK_ST_DL_T_B_1_L?$AA@ 3008ffd0     bg_panimate.obj
 0002:00005fe8       ??_C@_0BG@GFBINHOA@BOTH_LK_ST_DL_T_B_1_W?$AA@ 3008ffe8     bg_panimate.obj
 0002:00006000       ??_C@_0BE@HCPCDGKM@BOTH_LK_ST_DL_T_L_1?$AA@ 30090000     bg_panimate.obj
 0002:00006014       ??_C@_0BH@HBKKGEDN@BOTH_LK_ST_DL_T_SB_1_L?$AA@ 30090014     bg_panimate.obj
 0002:0000602c       ??_C@_0BH@NIJMKPKH@BOTH_LK_ST_DL_T_SB_1_W?$AA@ 3009002c     bg_panimate.obj
 0002:00006044       ??_C@_0BG@HFFPAFDH@BOTH_LK_ST_ST_S_B_1_L?$AA@ 30090044     bg_panimate.obj
 0002:0000605c       ??_C@_0BG@NMGJMOKN@BOTH_LK_ST_ST_S_B_1_W?$AA@ 3009005c     bg_panimate.obj
 0002:00006074       ??_C@_0BE@IAIADDC@BOTH_LK_ST_ST_S_L_1?$AA@ 30090074     bg_panimate.obj
 0002:00006088       ??_C@_0BH@HJHOCIAJ@BOTH_LK_ST_ST_S_SB_1_L?$AA@ 30090088     bg_panimate.obj
 0002:000060a0       ??_C@_0BH@NAEIODJD@BOTH_LK_ST_ST_S_SB_1_W?$AA@ 300900a0     bg_panimate.obj
 0002:000060b8       ??_C@_0BG@HPJKAMCO@BOTH_LK_ST_ST_T_B_1_L?$AA@ 300900b8     bg_panimate.obj
 0002:000060d0       ??_C@_0BG@NGKMMHLE@BOTH_LK_ST_ST_T_B_1_W?$AA@ 300900d0     bg_panimate.obj
 0002:000060e8       ??_C@_0BE@BFANDDIK@BOTH_LK_ST_ST_T_L_1?$AA@ 300900e8     bg_panimate.obj
 0002:000060fc       ??_C@_0BH@BNBPEFMA@BOTH_LK_ST_ST_T_SB_1_L?$AA@ 300900fc     bg_panimate.obj
 0002:00006114       ??_C@_0BH@LECJIOFK@BOTH_LK_ST_ST_T_SB_1_W?$AA@ 30090114     bg_panimate.obj
 0002:0000612c       ??_C@_0BF@IHPBCCGB@BOTH_LK_ST_S_S_B_1_L?$AA@ 3009012c     bg_panimate.obj
 0002:00006144       ??_C@_0BF@COMHOJPL@BOTH_LK_ST_S_S_B_1_W?$AA@ 30090144     bg_panimate.obj
 0002:0000615c       ??_C@_0BD@CDGHMFIG@BOTH_LK_ST_S_S_L_1?$AA@ 3009015c     bg_panimate.obj
 0002:00006170       ??_C@_0BG@PLIEHCOP@BOTH_LK_ST_S_S_SB_1_L?$AA@ 30090170     bg_panimate.obj
 0002:00006188       ??_C@_0BG@FCLCLJHF@BOTH_LK_ST_S_S_SB_1_W?$AA@ 30090188     bg_panimate.obj
 0002:000061a0       ??_C@_0BF@INDECLHI@BOTH_LK_ST_S_T_B_1_L?$AA@ 300901a0     bg_panimate.obj
 0002:000061b8       ??_C@_0BF@CEACOAOC@BOTH_LK_ST_S_T_B_1_W?$AA@ 300901b8     bg_panimate.obj
 0002:000061d0       ??_C@_0BD@DOGCPFDO@BOTH_LK_ST_S_T_L_1?$AA@ 300901d0     bg_panimate.obj
 0002:000061e4       ??_C@_0BG@JPOFBPCG@BOTH_LK_ST_S_T_SB_1_L?$AA@ 300901e4     bg_panimate.obj
 0002:000061fc       ??_C@_0BG@DGNDNELM@BOTH_LK_ST_S_T_SB_1_W?$AA@ 300901fc     bg_panimate.obj
 0002:00006214       ??_C@_0BC@MDILAFOD@BOTH_LK_S_S_S_L_2?$AA@ 30090214     bg_panimate.obj
 0002:00006228       ??_C@_0BC@NOIODFFL@BOTH_LK_S_S_T_L_2?$AA@ 30090228     bg_panimate.obj
 0002:0000623c       ??_C@_0BE@CIGPHECK@BOTH_LK_DL_DL_S_L_2?$AA@ 3009023c     bg_panimate.obj
 0002:00006250       ??_C@_0BE@DFGKEEJC@BOTH_LK_DL_DL_T_L_2?$AA@ 30090250     bg_panimate.obj
 0002:00006264       ??_C@_0BE@CDCFFAPB@BOTH_LK_ST_ST_S_L_2?$AA@ 30090264     bg_panimate.obj
 0002:00006278       ??_C@_0BE@DOCAGAEJ@BOTH_LK_ST_ST_T_L_2?$AA@ 30090278     bg_panimate.obj
 0002:0000628c       ??_C@_0P@GCBEFEGH@BOTH_BF2RETURN?$AA@ 3009028c     bg_panimate.obj
 0002:0000629c       ??_C@_0O@OBLBAPIM@BOTH_BF2BREAK?$AA@ 3009029c     bg_panimate.obj
 0002:000062ac       ??_C@_0N@LNLIKJEI@BOTH_BF2LOCK?$AA@ 300902ac     bg_panimate.obj
 0002:000062bc       ??_C@_0P@OMJLFDIE@BOTH_BF1RETURN?$AA@ 300902bc     bg_panimate.obj
 0002:000062cc       ??_C@_0O@NAFJBFBB@BOTH_BF1BREAK?$AA@ 300902cc     bg_panimate.obj
 0002:000062dc       ??_C@_0N@DLCMNLOG@BOTH_BF1LOCK?$AA@ 300902dc     bg_panimate.obj
 0002:000062ec       ??_C@_0BH@DMDECPBF@BOTH_CWCIRCLE_R2__R_S1?$AA@ 300902ec     bg_panimate.obj
 0002:00006304       ??_C@_0BI@PBNOCOLC@BOTH_CCWCIRCLE_R2__L_S1?$AA@ 30090304     bg_panimate.obj
 0002:0000631c       ??_C@_0BH@DBGDLJEC@BOTH_CWCIRCLE_A2__L__R?$AA@ 3009031c     bg_panimate.obj
 0002:00006334       ??_C@_0BI@CIMIIHDK@BOTH_CCWCIRCLE_A2__R__L?$AA@ 30090334     bg_panimate.obj
 0002:0000634c       ??_C@_0BD@LBKADGEF@BOTH_CWCIRCLEBREAK?$AA@ 3009034c     bg_panimate.obj
 0002:00006360       ??_C@_0BE@OHBEAMBI@BOTH_CCWCIRCLEBREAK?$AA@ 30090360     bg_panimate.obj
 0002:00006374       ??_C@_0BC@KJPAFMDI@BOTH_CWCIRCLELOCK?$AA@ 30090374     bg_panimate.obj
 0002:00006388       ??_C@_0BD@KOAOCCAN@BOTH_CCWCIRCLELOCK?$AA@ 30090388     bg_panimate.obj
 0002:0000639c       ??_C@_0BG@LMJGJJPN@BOTH_SABERFAST_STANCE?$AA@ 3009039c     bg_panimate.obj
 0002:000063b4       ??_C@_0BG@OHKGBDLF@BOTH_SABERSLOW_STANCE?$AA@ 300903b4     bg_panimate.obj
 0002:000063cc       ??_C@_0BG@HKMBABJH@BOTH_SABERDUAL_STANCE?$AA@ 300903cc     bg_panimate.obj
 0002:000063e4       ??_C@_0BH@BDCLHPPP@BOTH_SABERSTAFF_STANCE?$AA@ 300903e4     bg_panimate.obj
 0002:000063fc       ??_C@_0BC@PILNDLJJ@BOTH_A2_STABBACK1?$AA@ 300903fc     bg_panimate.obj
 0002:00006410       ??_C@_0BB@CBLKELKF@BOTH_ATTACK_BACK?$AA@ 30090410     bg_panimate.obj
 0002:00006424       ??_C@_0BI@HBGICLGG@BOTH_JUMPFLIPSLASHDOWN1?$AA@ 30090424     bg_panimate.obj
 0002:0000643c       ??_C@_0BG@BFMBDODP@BOTH_JUMPFLIPSTABDOWN?$AA@ 3009043c     bg_panimate.obj
 0002:00006454       ??_C@_0BG@CELCKDAN@BOTH_FORCELEAP2_T__B_?$AA@ 30090454     bg_panimate.obj
 0002:0000646c       ??_C@_0BC@BEBALKBG@BOTH_LUNGE2_B__T_?$AA@ 3009046c     bg_panimate.obj
 0002:00006480       ??_C@_0BH@INLIBEMO@BOTH_CROUCHATTACKBACK1?$AA@ 30090480     bg_panimate.obj
 0002:00006498       ??_C@_0BB@DBPJDDLK@BOTH_JUMPATTACK6?$AA@ 30090498     bg_panimate.obj
 0002:000064ac       ??_C@_0BB@CIOCACPL@BOTH_JUMPATTACK7?$AA@ 300904ac     bg_panimate.obj
 0002:000064c0       ??_C@_0BB@LMPGHBAM@BOTH_SPINATTACK6?$AA@ 300904c0     bg_panimate.obj
 0002:000064d4       ??_C@_0BB@KFONEAEN@BOTH_SPINATTACK7?$AA@ 300904d4     bg_panimate.obj
 0002:000064e8       ??_C@_0L@BHGFBHGL@BOTH_S1_S6?$AA@ 300904e8     bg_panimate.obj
 0002:000064f4       ??_C@_0L@OKAEFNLM@BOTH_S6_S1?$AA@ 300904f4     bg_panimate.obj
 0002:00006500       ??_C@_0L@OHOCGCK@BOTH_S1_S7?$AA@ 30090500     bg_panimate.obj
 0002:0000650c       ??_C@_0L@NHGEHEAM@BOTH_S7_S1?$AA@ 3009050c     bg_panimate.obj
 0002:00006518       ??_C@_0BJ@KLOIGFJP@BOTH_FORCELONGLEAP_START?$AA@ 30090518     bg_panimate.obj
 0002:00006534       ??_C@_0BK@HABCCIOP@BOTH_FORCELONGLEAP_ATTACK?$AA@ 30090534     bg_panimate.obj
 0002:00006550       ??_C@_0BI@MHONAGNG@BOTH_FORCELONGLEAP_LAND?$AA@ 30090550     bg_panimate.obj
 0002:00006568       ??_C@_0BM@LJCOJFGC@BOTH_FORCEWALLRUNFLIP_START?$AA@ 30090568     bg_panimate.obj
 0002:00006584       ??_C@_0BK@GPIMNHIL@BOTH_FORCEWALLRUNFLIP_END?$AA@ 30090584     bg_panimate.obj
 0002:000065a0       ??_C@_0BK@KJKIIGOD@BOTH_FORCEWALLRUNFLIP_ALT?$AA@ 300905a0     bg_panimate.obj
 0002:000065bc       ??_C@_0BO@CIKJOPHK@BOTH_FORCEWALLREBOUND_FORWARD?$AA@ 300905bc     bg_panimate.obj
 0002:000065dc       ??_C@_0BL@BOGHGOCO@BOTH_FORCEWALLREBOUND_LEFT?$AA@ 300905dc     bg_panimate.obj
 0002:000065f8       ??_C@_0BL@OFKEILGN@BOTH_FORCEWALLREBOUND_BACK?$AA@ 300905f8     bg_panimate.obj
 0002:00006614       ??_C@_0BM@FDLDEBGK@BOTH_FORCEWALLREBOUND_RIGHT?$AA@ 30090614     bg_panimate.obj
 0002:00006630       ??_C@_0BL@OBHDGIHE@BOTH_FORCEWALLHOLD_FORWARD?$AA@ 30090630     bg_panimate.obj
 0002:0000664c       ??_C@_0BI@IEHJEHGK@BOTH_FORCEWALLHOLD_LEFT?$AA@ 3009064c     bg_panimate.obj
 0002:00006664       ??_C@_0BI@HPLKKCCJ@BOTH_FORCEWALLHOLD_BACK?$AA@ 30090664     bg_panimate.obj
 0002:0000667c       ??_C@_0BJ@CCJINKMK@BOTH_FORCEWALLHOLD_RIGHT?$AA@ 3009067c     bg_panimate.obj
 0002:00006698       ??_C@_0BO@FMNDOIKN@BOTH_FORCEWALLRELEASE_FORWARD?$AA@ 30090698     bg_panimate.obj
 0002:000066b8       ??_C@_0BL@OLNGOJNC@BOTH_FORCEWALLRELEASE_LEFT?$AA@ 300906b8     bg_panimate.obj
 0002:000066d4       ??_C@_0BL@BABFAMJB@BOTH_FORCEWALLRELEASE_BACK?$AA@ 300906d4     bg_panimate.obj
 0002:000066f0       ??_C@_0BM@OHENEONK@BOTH_FORCEWALLRELEASE_RIGHT?$AA@ 300906f0     bg_panimate.obj
 0002:0000670c       ??_C@_0P@CJGOGJL@BOTH_A7_KICK_F?$AA@ 3009070c     bg_panimate.obj
 0002:0000671c       ??_C@_0P@GGPKCDJP@BOTH_A7_KICK_B?$AA@ 3009071c     bg_panimate.obj
 0002:0000672c       ??_C@_0P@CMDIDBMO@BOTH_A7_KICK_R?$AA@ 3009072c     bg_panimate.obj
 0002:0000673c       ??_C@_0P@PIHJAOBB@BOTH_A7_KICK_L?$AA@ 3009073c     bg_panimate.obj
 0002:0000674c       ??_C@_0P@DFCDAAIP@BOTH_A7_KICK_S?$AA@ 3009074c     bg_panimate.obj
 0002:0000675c       ??_C@_0BA@MGPFJMHF@BOTH_A7_KICK_BF?$AA@ 3009075c     bg_panimate.obj
 0002:0000676c       ??_C@_0BF@OPHCPADF@BOTH_A7_KICK_BF_STOP?$AA@ 3009076c     bg_panimate.obj
 0002:00006784       ??_C@_0BA@CADMNHIP@BOTH_A7_KICK_RL?$AA@ 30090784     bg_panimate.obj
 0002:00006794       ??_C@_0BD@GABGGINM@BOTH_A7_KICK_F_AIR?$AA@ 30090794     bg_panimate.obj
 0002:000067a8       ??_C@_0BD@PLIHCKMK@BOTH_A7_KICK_B_AIR?$AA@ 300907a8     bg_panimate.obj
 0002:000067bc       ??_C@_0BD@PIFBCIFB@BOTH_A7_KICK_R_AIR?$AA@ 300907bc     bg_panimate.obj
 0002:000067d0       ??_C@_0BD@MBINELLK@BOTH_A7_KICK_L_AIR?$AA@ 300907d0     bg_panimate.obj
 0002:000067e4       ??_C@_0BC@OAEPKLIJ@BOTH_FLIP_ATTACK7?$AA@ 300907e4     bg_panimate.obj
 0002:000067f8       ??_C@_0BA@PECANCJM@BOTH_FLIP_HOLD7?$AA@ 300907f8     bg_panimate.obj
 0002:00006808       ??_C@_0P@FKABGNIE@BOTH_FLIP_LAND?$AA@ 30090808     bg_panimate.obj
 0002:00006818       ??_C@_0BG@FJEBNIOP@BOTH_PULL_IMPALE_STAB?$AA@ 30090818     bg_panimate.obj
 0002:00006830       ??_C@_0BH@ENKMMKI@BOTH_PULL_IMPALE_SWING?$AA@ 30090830     bg_panimate.obj
 0002:00006848       ??_C@_0BE@LGIIAOEH@BOTH_PULLED_INAIR_B?$AA@ 30090848     bg_panimate.obj
 0002:0000685c       ??_C@_0BE@NCOEMLED@BOTH_PULLED_INAIR_F?$AA@ 3009085c     bg_panimate.obj
 0002:00006870       ??_C@_0O@FMNFAMJP@BOTH_STABDOWN?$AA@ 30090870     bg_panimate.obj
 0002:00006880       ??_C@_0BE@DOGEHLEN@BOTH_STABDOWN_STAFF?$AA@ 30090880     bg_panimate.obj
 0002:00006894       ??_C@_0BD@FCALGDP@BOTH_STABDOWN_DUAL?$AA@ 30090894     bg_panimate.obj
 0002:000068a8       ??_C@_0BF@JKDHMCK@BOTH_A6_SABERPROTECT?$AA@ 300908a8     bg_panimate.obj
 0002:000068c0       ??_C@_0BA@IPLCAALD@BOTH_A7_SOULCAL?$AA@ 300908c0     bg_panimate.obj
 0002:000068d0       ??_C@_0BA@PNABOJPN@BOTH_A1_SPECIAL?$AA@ 300908d0     bg_panimate.obj
 0002:000068e0       ??_C@_0BA@BGDGFCPO@BOTH_A2_SPECIAL?$AA@ 300908e0     bg_panimate.obj
 0002:000068f0       ??_C@_0BA@PJPEDJMA@BOTH_A3_SPECIAL?$AA@ 300908f0     bg_panimate.obj
 0002:00006900       ??_C@_0P@HNCGMPEI@BOTH_ROLL_STAB?$AA@ 30090900     bg_panimate.obj
 0002:00006910       ??_C@_0M@GOMFFOAD@BOTH_STAND1?$AA@ 30090910     bg_panimate.obj
 0002:0000691c       ??_C@_0BB@OEICBKPC@BOTH_STAND1IDLE1?$AA@ 3009091c     bg_panimate.obj
 0002:00006930       ??_C@_0M@EFOIANMA@BOTH_STAND2?$AA@ 30090930     bg_panimate.obj
 0002:0000693c       ??_C@_0BB@NFGKAAGP@BOTH_STAND2IDLE1?$AA@ 3009093c     bg_panimate.obj
 0002:00006950       ??_C@_0BB@POEHFDKM@BOTH_STAND2IDLE2?$AA@ 30090950     bg_panimate.obj
 0002:00006964       ??_C@_0M@FMPDDMIB@BOTH_STAND3?$AA@ 30090964     bg_panimate.obj
 0002:00006970       ??_C@_0BB@HDBNALNL@BOTH_STAND3IDLE1?$AA@ 30090970     bg_panimate.obj
 0002:00006984       ??_C@_0M@BDLCKKEG@BOTH_STAND4?$AA@ 30090984     bg_panimate.obj
 0002:00006990       ??_C@_0M@KKJJLAH@BOTH_STAND5?$AA@ 30090990     bg_panimate.obj
 0002:0000699c       ??_C@_0BB@BAMNDOOB@BOTH_STAND5IDLE1?$AA@ 3009099c     bg_panimate.obj
 0002:000069b0       ??_C@_0M@CBIEMIME@BOTH_STAND6?$AA@ 300909b0     bg_panimate.obj
 0002:000069bc       ??_C@_0M@LPAHOFEK@BOTH_STAND8?$AA@ 300909bc     bg_panimate.obj
 0002:000069c8       ??_C@_0P@BPKJPOKL@BOTH_STAND1TO2?$AA@ 300909c8     bg_panimate.obj
 0002:000069d8       ??_C@_0P@HDCENHLI@BOTH_STAND2TO1?$AA@ 300909d8     bg_panimate.obj
 0002:000069e8       ??_C@_0P@OFDCDPN@BOTH_STAND2TO4?$AA@ 300909e8     bg_panimate.obj
 0002:000069f8       ??_C@_0P@NHEJHBNL@BOTH_STAND4TO2?$AA@ 300909f8     bg_panimate.obj
 0002:00006a08       ??_C@_0BF@MNEGLANN@BOTH_STAND4TOATTACK2?$AA@ 30090a08     bg_panimate.obj
 0002:00006a20       ??_C@_0O@JCHGFLGA@BOTH_STANDUP2?$AA@ 30090a20     bg_panimate.obj
 0002:00006a30       ??_C@_0BC@KJMCMBAN@BOTH_STAND5TOSIT3?$AA@ 30090a30     bg_panimate.obj
 0002:00006a44       ??_C@_0BE@LJJBDIP@BOTH_STAND1TOSTAND5?$AA@ 30090a44     bg_panimate.obj
 0002:00006a58       ??_C@_0BE@GGBOHGPB@BOTH_STAND5TOSTAND1?$AA@ 30090a58     bg_panimate.obj
 0002:00006a6c       ??_C@_0BB@KAKPAJPG@BOTH_STAND5TOAIM?$AA@ 30090a6c     bg_panimate.obj
 0002:00006a80       ??_C@_0BM@LKMKNIB@BOTH_STAND5STARTLEDLOOKLEFT?$AA@ 30090a80     bg_panimate.obj
 0002:00006a9c       ??_C@_0BO@JCPBABCF@BOTH_STARTLEDLOOKLEFTTOSTAND5?$AA@ 30090a9c     bg_panimate.obj
 0002:00006abc       ??_C@_0BE@LHNMMNLI@BOTH_STAND5TOSTAND8?$AA@ 30090abc     bg_panimate.obj
 0002:00006ad0       ??_C@_0BE@LDCJBNIF@BOTH_STAND7TOSTAND8?$AA@ 30090ad0     bg_panimate.obj
 0002:00006ae4       ??_C@_0BE@PHIMDIEF@BOTH_STAND8TOSTAND5?$AA@ 30090ae4     bg_panimate.obj
 0002:00006af8       ??_C@_0M@KGBMNEAL@BOTH_STAND9?$AA@ 30090af8     bg_panimate.obj
 0002:00006b04       ??_C@_0BB@NHGNFEJF@BOTH_STAND9IDLE1?$AA@ 30090b04     bg_panimate.obj
 0002:00006b18       ??_C@_0BH@LKALMHBN@BOTH_STAND5SHIFTWEIGHT?$AA@ 30090b18     bg_panimate.obj
 0002:00006b30       ??_C@_0BM@LEFLGCNL@BOTH_STAND5SHIFTWEIGHTSTART?$AA@ 30090b30     bg_panimate.obj
 0002:00006b4c       ??_C@_0BL@EHCDGJJ@BOTH_STAND5SHIFTWEIGHTSTOP?$AA@ 30090b4c     bg_panimate.obj
 0002:00006b68       ??_C@_0BJ@HOHFOLPM@BOTH_STAND5TURNLEFTSTART?$AA@ 30090b68     bg_panimate.obj
 0002:00006b84       ??_C@_0BI@JADJJLGI@BOTH_STAND5TURNLEFTSTOP?$AA@ 30090b84     bg_panimate.obj
 0002:00006b9c       ??_C@_0BK@IGPCPOOP@BOTH_STAND5TURNRIGHTSTART?$AA@ 30090b9c     bg_panimate.obj
 0002:00006bb8       ??_C@_0BJ@HFICOBLF@BOTH_STAND5TURNRIGHTSTOP?$AA@ 30090bb8     bg_panimate.obj
 0002:00006bd4       ??_C@_0BM@BGELABNK@BOTH_STAND5LOOK180LEFTSTART?$AA@ 30090bd4     bg_panimate.obj
 0002:00006bf0       ??_C@_0BL@HDGAEFLK@BOTH_STAND5LOOK180LEFTSTOP?$AA@ 30090bf0     bg_panimate.obj
 0002:00006c0c       ??_C@_0BD@JMEBFELH@BOTH_CONSOLE1START?$AA@ 30090c0c     bg_panimate.obj
 0002:00006c20       ??_C@_0O@DNGGEOJM@BOTH_CONSOLE1?$AA@ 30090c20     bg_panimate.obj
 0002:00006c30       ??_C@_0BC@BMPMMEKB@BOTH_CONSOLE1STOP?$AA@ 30090c30     bg_panimate.obj
 0002:00006c44       ??_C@_0BD@KNKJEOCK@BOTH_CONSOLE2START?$AA@ 30090c44     bg_panimate.obj
 0002:00006c58       ??_C@_0O@BGELBNFP@BOTH_CONSOLE2?$AA@ 30090c58     bg_panimate.obj
 0002:00006c68       ??_C@_0BC@JKGILGAP@BOTH_CONSOLE2STOP?$AA@ 30090c68     bg_panimate.obj
 0002:00006c7c       ??_C@_0BK@JLMHHIBG@BOTH_CONSOLE2HOLDCOMSTART?$AA@ 30090c7c     bg_panimate.obj
 0002:00006c98       ??_C@_0BJ@PHBEHMKF@BOTH_CONSOLE2HOLDCOMSTOP?$AA@ 30090c98     bg_panimate.obj
 0002:00006cb4       ??_C@_0BH@IIALJNIM@BOTH_GUARD_LOOKAROUND1?$AA@ 30090cb4     bg_panimate.obj
 0002:00006ccc       ??_C@_0BB@LLGPJFGM@BOTH_GUARD_IDLE1?$AA@ 30090ccc     bg_panimate.obj
 0002:00006ce0       ??_C@_0O@HANAGBGB@BOTH_GESTURE1?$AA@ 30090ce0     bg_panimate.obj
 0002:00006cf0       ??_C@_0O@FLPNDCKC@BOTH_GESTURE2?$AA@ 30090cf0     bg_panimate.obj
 0002:00006d00       ??_C@_0BE@OAMCANFF@BOTH_WALK1TALKCOMM1?$AA@ 30090d00     bg_panimate.obj
 0002:00006d14       ??_C@_0L@OMGKFLGC@BOTH_TALK1?$AA@ 30090d14     bg_panimate.obj
 0002:00006d20       ??_C@_0L@MHEHAIKB@BOTH_TALK2?$AA@ 30090d20     bg_panimate.obj
 0002:00006d2c       ??_C@_0BE@LLPJOKPB@BOTH_TALKCOMM1START?$AA@ 30090d2c     bg_panimate.obj
 0002:00006d40       ??_C@_0P@IMEACJDE@BOTH_TALKCOMM1?$AA@ 30090d40     bg_panimate.obj
 0002:00006d50       ??_C@_0BD@KGADCINA@BOTH_TALKCOMM1STOP?$AA@ 30090d50     bg_panimate.obj
 0002:00006d64       ??_C@_0BC@HDFGDEIC@BOTH_TALKGESTURE1?$AA@ 30090d64     bg_panimate.obj
 0002:00006d78       ??_C@_0BE@OFJJICOJ@BOTH_HEADTILTLSTART?$AA@ 30090d78     bg_panimate.obj
 0002:00006d8c       ??_C@_0BD@BIJCDOKI@BOTH_HEADTILTLSTOP?$AA@ 30090d8c     bg_panimate.obj
 0002:00006da0       ??_C@_0BE@NCHIGFHK@BOTH_HEADTILTRSTART?$AA@ 30090da0     bg_panimate.obj
 0002:00006db4       ??_C@_0BD@CBEOFNED@BOTH_HEADTILTRSTOP?$AA@ 30090db4     bg_panimate.obj
 0002:00006dc8       ??_C@_0N@JGGIBJHN@BOTH_HEADNOD?$AA@ 30090dc8     bg_panimate.obj
 0002:00006dd8       ??_C@_0P@DFINNNBF@BOTH_HEADSHAKE?$AA@ 30090dd8     bg_panimate.obj
 0002:00006de8       ??_C@_0BI@OBPNLCKD@BOTH_SIT2HEADTILTLSTART?$AA@ 30090de8     bg_panimate.obj
 0002:00006e00       ??_C@_0BH@KHIEGBCO@BOTH_SIT2HEADTILTLSTOP?$AA@ 30090e00     bg_panimate.obj
 0002:00006e18       ??_C@_09PNKHLONK@AEV_SOUND?$AA@ 30090e18     bg_panimate.obj
 0002:00006e24       ??_C@_0BB@IHJLPLDL@BOTH_REACH1START?$AA@ 30090e24     bg_panimate.obj
 0002:00006e38       ??_C@_0N@GPBLCBDN@AEV_FOOTSTEP?$AA@ 30090e38     bg_panimate.obj
 0002:00006e48       ??_C@_0BA@MHPGDDPE@BOTH_REACH1STOP?$AA@ 30090e48     bg_panimate.obj
 0002:00006e58       ??_C@_0L@GOCDIAMO@AEV_EFFECT?$AA@ 30090e58     bg_panimate.obj
 0002:00006e64       ??_C@_0O@KHABGCAK@BOTH_COME_ON1?$AA@ 30090e64     bg_panimate.obj
 0002:00006e74       ??_C@_08NPCGKNPD@AEV_FIRE?$AA@ 30090e74     bg_panimate.obj
 0002:00006e80       ??_C@_0BB@BHOCMBMP@BOTH_STEADYSELF1?$AA@ 30090e80     bg_panimate.obj
 0002:00006e94       ??_C@_08IKJEGLOC@AEV_MOVE?$AA@ 30090e94     bg_panimate.obj
 0002:00006ea0       ??_C@_0BE@EEMNDGPF@BOTH_STEADYSELF1END?$AA@ 30090ea0     bg_panimate.obj
 0002:00006eb4       ??_C@_0O@PKDCPJFP@AEV_SOUNDCHAN?$AA@ 30090eb4     bg_panimate.obj
 0002:00006ec4       ??_C@_0BF@HGBIDKLM@BOTH_SILENCEGESTURE1?$AA@ 30090ec4     bg_panimate.obj
 0002:00006edc       ??_C@_0BE@LPKJJENM@BOTH_REACHFORSABER1?$AA@ 30090edc     bg_panimate.obj
 0002:00006ef0       ??_C@_0L@CECCMHHD@FOOTSTEP_R?$AA@ 30090ef0     bg_panimate.obj
 0002:00006efc       ??_C@_0BC@CEDLFADF@BOTH_SABERKILLER1?$AA@ 30090efc     bg_panimate.obj
 0002:00006f10       ??_C@_0L@PAGDPIKM@FOOTSTEP_L?$AA@ 30090f10     bg_panimate.obj
 0002:00006f1c       ??_C@_0BC@DNFCOFMA@BOTH_SABERKILLEE1?$AA@ 30090f1c     bg_panimate.obj
 0002:00006f30       ??_C@_0BB@DCILEAMB@FOOTSTEP_HEAVY_R?$AA@ 30090f30     bg_panimate.obj
 0002:00006f44       ??_C@_0N@PBPICGOP@BOTH_HUGGER1?$AA@ 30090f44     bg_panimate.obj
 0002:00006f54       ??_C@_0BB@OGMKHPBO@FOOTSTEP_HEAVY_L?$AA@ 30090f54     bg_panimate.obj
 0002:00006f68       ??_C@_0BB@EFDKGEDA@BOTH_HUGGERSTOP1?$AA@ 30090f68     bg_panimate.obj
 0002:00006f7c       ??_C@_0N@OIJBJDBK@BOTH_HUGGEE1?$AA@ 30090f7c     bg_panimate.obj
 0002:00006f8c       ??_C@_0BB@OHEDMGHA@BOTH_HUGGEESTOP1?$AA@ 30090f8c     bg_panimate.obj
 0002:00006fa0       ??_C@_0BG@IKDIPHLL@BOTH_SABERTHROW1START?$AA@ 30090fa0     bg_panimate.obj
 0002:00006fb8       ??_C@_0BF@JJAINHO@BOTH_SABERTHROW1STOP?$AA@ 30090fb8     bg_panimate.obj
 0002:00006fd0       ??_C@_0BG@LLNAONCG@BOTH_SABERTHROW2START?$AA@ 30090fd0     bg_panimate.obj
 0002:00006fe8       ??_C@_0BF@IPAEPPNA@BOTH_SABERTHROW2STOP?$AA@ 30090fe8     bg_panimate.obj
 0002:00007000       ??_C@_09OIAGNDLA@BOTH_SIT1?$AA@ 30091000     bg_panimate.obj
 0002:0000700c       ??_C@_09MDCLIAHD@BOTH_SIT2?$AA@ 3009100c     bg_panimate.obj
 0002:00007018       ??_C@_09NKDALBDC@BOTH_SIT3?$AA@ 30091018     bg_panimate.obj
 0002:00007024       ??_C@_0BC@PIMMNLNC@BOTH_SIT2TOSTAND5?$AA@ 30091024     bg_panimate.obj
 0002:00007038       ??_C@_0BC@LANJPAEM@BOTH_STAND5TOSIT2?$AA@ 30091038     bg_panimate.obj
 0002:0000704c       ??_C@_0BA@LICOGNPB@BOTH_SIT2TOSIT4?$AA@ 3009104c     bg_panimate.obj
 0002:0000705c       ??_C@_0BC@BHAOLAOM@BOTH_SIT3TOSTAND5?$AA@ 3009105c     bg_panimate.obj
 0002:00007070       ??_C@_0N@KLJMDLMC@BOTH_CROUCH1?$AA@ 30091070     bg_panimate.obj
 0002:00007080       ??_C@_0BB@NNJBKJDM@BOTH_CROUCH1IDLE?$AA@ 30091080     bg_panimate.obj
 0002:00007094       ??_C@_0BB@KLBMFNGD@BOTH_CROUCH1WALK?$AA@ 30091094     bg_panimate.obj
 0002:000070a8       ??_C@_0BF@IKEOFDBF@BOTH_CROUCH1WALKBACK?$AA@ 300910a8     bg_panimate.obj
 0002:000070c0       ??_C@_0P@CMNLLMOK@BOTH_UNCROUCH1?$AA@ 300910c0     bg_panimate.obj
 0002:000070d0       ??_C@_0BF@OBDEHHPH@BOTH_CROUCH2TOSTAND1?$AA@ 300910d0     bg_panimate.obj
 0002:000070e8       ??_C@_0N@JJKKFJEA@BOTH_CROUCH3?$AA@ 300910e8     bg_panimate.obj
 0002:000070f8       ??_C@_0P@BOONNOGI@BOTH_UNCROUCH3?$AA@ 300910f8     bg_panimate.obj
 0002:00007108       ??_C@_0N@NGOLMPIH@BOTH_CROUCH4?$AA@ 30091108     bg_panimate.obj
 0002:00007118       ??_C@_0P@FBKMEIKP@BOTH_UNCROUCH4?$AA@ 30091118     bg_panimate.obj
 0002:00007128       ??_C@_0N@NEOMJHMD@BOTH_GUNSIT1?$AA@ 30091128     bg_panimate.obj
 0002:00007138       ??_C@_0BA@BIPEOENE@BOTH_VS_MOUNT_L?$AA@ 30091138     bg_panimate.obj
 0002:00007148       ??_C@_0BD@EAEFOEPB@BOTH_VS_DISMOUNT_L?$AA@ 30091148     bg_panimate.obj
 0002:0000715c       ??_C@_0BA@MMLFNLAL@BOTH_VS_MOUNT_R?$AA@ 3009115c     bg_panimate.obj
 0002:0000716c       ??_C@_0BD@JEAENLCO@BOTH_VS_DISMOUNT_R?$AA@ 3009116c     bg_panimate.obj
 0002:00007180       ??_C@_0BE@CFBMPALJ@BOTH_VS_MOUNTJUMP_L?$AA@ 30091180     bg_panimate.obj
 0002:00007194       ??_C@_0BD@HKDNANFN@BOTH_VS_MOUNTTHROW?$AA@ 30091194     bg_panimate.obj
 0002:000071a8       ??_C@_0BF@EKIIEMBN@BOTH_VS_MOUNTTHROW_L?$AA@ 300911a8     bg_panimate.obj
 0002:000071c0       ??_C@_0BF@JOMJHDMC@BOTH_VS_MOUNTTHROW_R?$AA@ 300911c0     bg_panimate.obj
 0002:000071d8       ??_C@_0BF@IKPLNBPC@BOTH_VS_MOUNTTHROWEE?$AA@ 300911d8     bg_panimate.obj
 0002:000071f0       ??_C@_0BB@LJMKNCGH@BOTH_VS_LOOKLEFT?$AA@ 300911f0     bg_panimate.obj
 0002:00007204       ??_C@_0L@IMFBDHL@FACE_TALK0?$AA@ 30091204     bg_panimate.obj
 0002:00007210       ??_C@_0BC@FMBEBFOC@BOTH_VS_LOOKRIGHT?$AA@ 30091210     bg_panimate.obj
 0002:00007224       ??_C@_0L@BBNOCCDK@FACE_TALK1?$AA@ 30091224     bg_panimate.obj
 0002:00007230       ??_C@_0O@COMCHHG@BOTH_VS_TURBO?$AA@ 30091230     bg_panimate.obj
 0002:00007240       ??_C@_0L@DKPDHBPJ@FACE_TALK2?$AA@ 30091240     bg_panimate.obj
 0002:0000724c       ??_C@_0M@MPJJBHIP@BOTH_VS_REV?$AA@ 3009124c     bg_panimate.obj
 0002:00007258       ??_C@_0L@CDOIEALI@FACE_TALK3?$AA@ 30091258     bg_panimate.obj
 0002:00007264       ??_C@_0M@OAEDNDJO@BOTH_VS_AIR?$AA@ 30091264     bg_panimate.obj
 0002:00007270       ??_C@_0L@GMKJNGHP@FACE_TALK4?$AA@ 30091270     bg_panimate.obj
 0002:0000727c       ??_C@_0O@CIMAHEPG@BOTH_VS_AIR_G?$AA@ 3009127c     bg_panimate.obj
 0002:0000728c       ??_C@_0L@MMCADNDE@FACE_ALERT?$AA@ 3009128c     bg_panimate.obj
 0002:00007298       ??_C@_0P@BDBFJMPI@BOTH_VS_AIR_SL?$AA@ 30091298     bg_panimate.obj
 0002:000072a8       ??_C@_0L@LAOJKFMG@FACE_SMILE?$AA@ 300912a8     bg_panimate.obj
 0002:000072b4       ??_C@_0P@MHFEKDCH@BOTH_VS_AIR_SR?$AA@ 300912b4     bg_panimate.obj
 0002:000072c4       ??_C@_0L@NHKOPMDL@FACE_FROWN?$AA@ 300912c4     bg_panimate.obj
 0002:000072d0       ??_C@_0N@KLFKMBNL@BOTH_VS_LAND?$AA@ 300912d0     bg_panimate.obj
 0002:000072e0       ??_C@_09OODFOJKI@FACE_DEAD?$AA@ 300912e0     bg_panimate.obj
 0002:000072ec       ??_C@_0P@FGHHPFOH@BOTH_VS_LAND_G?$AA@ 300912ec     bg_panimate.obj
 0002:000072fc       ??_C@_0M@DCIIGDOC@BOTH_DEATH1?$AA@ 300912fc     bg_panimate.obj
 0002:00007308       ??_C@_0BA@HJNLALIL@BOTH_VS_LAND_SL?$AA@ 30091308     bg_panimate.obj
 0002:00007318       ??_C@_0M@BJKFDACB@BOTH_DEATH2?$AA@ 30091318     bg_panimate.obj
 0002:00007324       ??_C@_0BA@KNJKDEFE@BOTH_VS_LAND_SR?$AA@ 30091324     bg_panimate.obj
 0002:00007334       ??_C@_0M@LOABGA@BOTH_DEATH3?$AA@ 30091334     bg_panimate.obj
 0002:00007340       ??_C@_0N@EOPLFLLG@BOTH_VS_IDLE?$AA@ 30091340     bg_panimate.obj
 0002:00007350       ??_C@_0M@EPPPJHKH@BOTH_DEATH4?$AA@ 30091350     bg_panimate.obj
 0002:0000735c       ??_C@_0P@JGPOHPPG@BOTH_VS_IDLE_G?$AA@ 3009135c     bg_panimate.obj
 0002:0000736c       ??_C@_0M@FGOEKGOG@BOTH_DEATH5?$AA@ 3009136c     bg_panimate.obj
 0002:00007378       ??_C@_0BA@BDKLKCPD@BOTH_VS_IDLE_SL?$AA@ 30091378     bg_panimate.obj
 0002:00007388       ??_C@_0M@HNMJPFCF@BOTH_DEATH6?$AA@ 30091388     bg_panimate.obj
 0002:00007394       ??_C@_0BA@MHOKJNCM@BOTH_VS_IDLE_SR?$AA@ 30091394     bg_panimate.obj
 0002:000073a4       ??_C@_0M@GENCMEGE@BOTH_DEATH7?$AA@ 300913a4     bg_panimate.obj
 0002:000073b0       ??_C@_0O@ONBCGCNE@BOTH_VS_LEANL?$AA@ 300913b0     bg_panimate.obj
 0002:000073c0       ??_C@_0M@ODEKNIKL@BOTH_DEATH8?$AA@ 300913c0     bg_panimate.obj
 0002:000073cc       ??_C@_0BA@JODAFNDC@BOTH_VS_LEANL_G?$AA@ 300913cc     bg_panimate.obj
 0002:000073dc       ??_C@_0M@PKFBOJOK@BOTH_DEATH9?$AA@ 300913dc     bg_panimate.obj
 0002:000073e8       ??_C@_0BB@IPKKGKHI@BOTH_VS_LEANL_SL?$AA@ 300913e8     bg_panimate.obj
 0002:000073fc       ??_C@_0N@JBHADNME@BOTH_DEATH10?$AA@ 300913fc     bg_panimate.obj
 0002:0000740c       ??_C@_0BB@FLOLFFKH@BOTH_VS_LEANL_SR?$AA@ 3009140c     bg_panimate.obj
 0002:00007420       ??_C@_0N@IIGLAMIF@BOTH_DEATH11?$AA@ 30091420     bg_panimate.obj
 0002:00007430       ??_C@_0O@DJFDFNAL@BOTH_VS_LEANR?$AA@ 30091430     bg_panimate.obj
 0002:00007440       ??_C@_0N@KDEGFPEG@BOTH_DEATH12?$AA@ 30091440     bg_panimate.obj
 0002:00007450       ??_C@_0BA@COPGHNJO@BOTH_VS_LEANR_G?$AA@ 30091450     bg_panimate.obj
 0002:00007460       ??_C@_0N@LKFNGOAH@BOTH_DEATH13?$AA@ 30091460     bg_panimate.obj
 0002:00007470       ??_C@_0BB@FAHKEDJL@BOTH_VS_LEANR_SL?$AA@ 30091470     bg_panimate.obj
 0002:00007484       ??_C@_0N@PFBMPIMA@BOTH_DEATH14?$AA@ 30091484     bg_panimate.obj
 0002:00007494       ??_C@_0BB@IEDLHMEE@BOTH_VS_LEANR_SR?$AA@ 30091494     bg_panimate.obj
 0002:000074a8       ??_C@_0N@OMAHMJIB@BOTH_DEATH15?$AA@ 300914a8     bg_panimate.obj
 0002:000074b8       ??_C@_0O@CONINADM@BOTH_VS_ATL_S?$AA@ 300914b8     bg_panimate.obj
 0002:000074c8       ??_C@_0N@MHCKJKEC@BOTH_DEATH16?$AA@ 300914c8     bg_panimate.obj
 0002:000074d8       ??_C@_0O@JOBOPAJA@BOTH_VS_ATR_S?$AA@ 300914d8     bg_panimate.obj
 0002:000074e8       ??_C@_0N@NODBKLAD@BOTH_DEATH17?$AA@ 300914e8     bg_panimate.obj
 0002:000074f8       ??_C@_0BD@IEEEGOL@BOTH_VS_ATR_TO_L_S?$AA@ 300914f8     bg_panimate.obj
 0002:0000750c       ??_C@_0N@FJKJLHMM@BOTH_DEATH18?$AA@ 3009150c     bg_panimate.obj
 0002:0000751c       ??_C@_0BD@NMIAPPKE@BOTH_VS_ATL_TO_R_S?$AA@ 3009151c     bg_panimate.obj
 0002:00007530       ??_C@_0N@EALCIGIN@BOTH_DEATH19?$AA@ 30091530     bg_panimate.obj
 0002:00007540       ??_C@_0O@LALACHMF@BOTH_VS_ATR_G?$AA@ 30091540     bg_panimate.obj
 0002:00007550       ??_C@_0N@JDDGIDJN@BOTH_DEATH20?$AA@ 30091550     bg_panimate.obj
 0002:00007560       ??_C@_0O@HGAHGJ@BOTH_VS_ATL_G?$AA@ 30091560     bg_panimate.obj
 0002:00007570       ??_C@_0N@IKCNLCNM@BOTH_DEATH21?$AA@ 30091570     bg_panimate.obj
 0002:00007580       ??_C@_0O@GPMLOHAN@BOTH_VS_ATF_G?$AA@ 30091580     bg_panimate.obj
 0002:00007590       ??_C@_0N@KBAAOBBP@BOTH_DEATH22?$AA@ 30091590     bg_panimate.obj
 0002:000075a0       ??_C@_0O@DDKDCJKA@BOTH_VS_PAIN1?$AA@ 300915a0     bg_panimate.obj
 0002:000075b0       ??_C@_0N@LIBLNAFO@BOTH_DEATH23?$AA@ 300915b0     bg_panimate.obj
 0002:000075c0       ??_C@_0BA@PKCIPPKN@BOTH_VT_MOUNT_L?$AA@ 300915c0     bg_panimate.obj
 0002:000075d0       ??_C@_0N@PHFKEGJJ@BOTH_DEATH24?$AA@ 300915d0     bg_panimate.obj
 0002:000075e0       ??_C@_0BA@COGJMAHC@BOTH_VT_MOUNT_R?$AA@ 300915e0     bg_panimate.obj
 0002:000075f0       ??_C@_0N@OOEBHHNI@BOTH_DEATH25?$AA@ 300915f0     bg_panimate.obj
 0002:00007600       ??_C@_0BA@GEKLNCCD@BOTH_VT_MOUNT_B?$AA@ 30091600     bg_panimate.obj
 0002:00007610       ??_C@_0BD@LFAMCLEB@BOTH_DEATHFORWARD1?$AA@ 30091610     bg_panimate.obj
 0002:00007624       ??_C@_0BB@ICMLAFCL@BOTH_VT_DISMOUNT?$AA@ 30091624     bg_panimate.obj
 0002:00007638       ??_C@_0BD@JOCBHIIC@BOTH_DEATHFORWARD2?$AA@ 30091638     bg_panimate.obj
 0002:0000764c       ??_C@_0BD@DNDGOCKJ@BOTH_VT_DISMOUNT_L?$AA@ 3009164c     bg_panimate.obj
 0002:00007660       ??_C@_0BD@IHDKEJMD@BOTH_DEATHFORWARD3?$AA@ 30091660     bg_panimate.obj
 0002:00007674       ??_C@_0BD@OJHHNNHG@BOTH_VT_DISMOUNT_R?$AA@ 30091674     bg_panimate.obj
 0002:00007688       ??_C@_0BE@MDPCGIFE@BOTH_DEATHBACKWARD1?$AA@ 30091688     bg_panimate.obj
 0002:0000769c       ??_C@_0BB@PINFIKEN@BOTH_VT_WALK_FWD?$AA@ 3009169c     bg_panimate.obj
 0002:000076b0       ??_C@_0BE@OINPDLJH@BOTH_DEATHBACKWARD2?$AA@ 300916b0     bg_panimate.obj
 0002:000076c4       ??_C@_0BB@EAPIENEI@BOTH_VT_WALK_REV?$AA@ 300916c4     bg_panimate.obj
 0002:000076d8       ??_C@_0BA@LIHBIFLP@BOTH_DEATH1IDLE?$AA@ 300916d8     bg_panimate.obj
 0002:000076e8       ??_C@_0BD@HDJGMKCH@BOTH_VT_WALK_FWD_L?$AA@ 300916e8     bg_panimate.obj
 0002:000076fc       ??_C@_0BB@FAMFDOML@BOTH_LYINGDEATH1?$AA@ 300916fc     bg_panimate.obj
 0002:00007710       ??_C@_0BD@KHNHPFPI@BOTH_VT_WALK_FWD_R?$AA@ 30091710     bg_panimate.obj
 0002:00007724       ??_C@_0BD@HAOKEEDM@BOTH_STUMBLEDEATH1?$AA@ 30091724     bg_panimate.obj
 0002:00007738       ??_C@_0BA@JEFGBHGE@BOTH_VT_RUN_FWD?$AA@ 30091738     bg_panimate.obj
 0002:00007748       ??_C@_0BA@MMMHHMBO@BOTH_FALLDEATH1?$AA@ 30091748     bg_panimate.obj
 0002:00007758       ??_C@_0BA@CMHLNAGB@BOTH_VT_RUN_REV?$AA@ 30091758     bg_panimate.obj
 0002:00007768       ??_C@_0BF@BGGMCFAN@BOTH_FALLDEATH1INAIR?$AA@ 30091768     bg_panimate.obj
 0002:00007780       ??_C@_0BC@LJGONGLG@BOTH_VT_RUN_FWD_L?$AA@ 30091780     bg_panimate.obj
 0002:00007794       ??_C@_0BE@KLPONOFB@BOTH_FALLDEATH1LAND?$AA@ 30091794     bg_panimate.obj
 0002:000077a8       ??_C@_0BC@GNCPOJGJ@BOTH_VT_RUN_FWD_R?$AA@ 300917a8     bg_panimate.obj
 0002:000077bc       ??_C@_0BA@JLHMHBEO@BOTH_DEATH_ROLL?$AA@ 300917bc     bg_panimate.obj
 0002:000077cc       ??_C@_0P@KFJEKMCA@BOTH_VT_SLIDEF?$AA@ 300917cc     bg_panimate.obj
 0002:000077dc       ??_C@_0BA@PMBFHAFE@BOTH_DEATH_FLIP?$AA@ 300917dc     bg_panimate.obj
 0002:000077ec       ??_C@_0M@PNEGODCG@BOTH_VT_AIR?$AA@ 300917ec     bg_panimate.obj
 0002:000077f8       ??_C@_0BF@PGHFNEMI@BOTH_DEATH_SPIN_90_R?$AA@ 300917f8     bg_panimate.obj
 0002:00007810       ??_C@_0M@KDHKMBFE@BOTH_VT_ATB?$AA@ 30091810     bg_panimate.obj
 0002:0000781c       ??_C@_0BF@CCDEOLBH@BOTH_DEATH_SPIN_90_L?$AA@ 3009181c     bg_panimate.obj
 0002:00007834       ??_C@_0O@DJGGCALJ@BOTH_VT_PAIN1?$AA@ 30091834     bg_panimate.obj
 0002:00007844       ??_C@_0BE@GAFFKNDC@BOTH_DEATH_SPIN_180?$AA@ 30091844     bg_panimate.obj
 0002:00007858       ??_C@_0P@CICNDPJE@BOTH_VT_DEATH1?$AA@ 30091858     bg_panimate.obj
 0002:00007868       ??_C@_0BE@KCPIFEBO@BOTH_DEATH_LYING_UP?$AA@ 30091868     bg_panimate.obj
 0002:0000787c       ??_C@_0O@IAAOOPLJ@BOTH_VT_STAND?$AA@ 3009187c     bg_panimate.obj
 0002:0000788c       ??_C@_0BE@GLFNKCIG@BOTH_DEATH_LYING_DN?$AA@ 3009188c     bg_panimate.obj
 0002:000078a0       ??_C@_0N@IBPGAOGA@BOTH_VT_BUCK?$AA@ 300918a0     bg_panimate.obj
 0002:000078b0       ??_C@_0BG@KFLMOKCA@BOTH_DEATH_FALLING_DN?$AA@ 300918b0     bg_panimate.obj
 0002:000078c8       ??_C@_0N@GOPNPPFF@BOTH_VT_LAND?$AA@ 300918c8     bg_panimate.obj
 0002:000078d8       ??_C@_0BG@GMBJBMLI@BOTH_DEATH_FALLING_UP?$AA@ 300918d8     bg_panimate.obj
 0002:000078f0       ??_C@_0O@ICJCOGP@BOTH_VT_TURBO?$AA@ 300918f0     bg_panimate.obj
 0002:00007900       ??_C@_0BE@CACMPNDI@BOTH_DEATH_CROUCHED?$AA@ 30091900     bg_panimate.obj
 0002:00007914       ??_C@_0BA@PBHHLJIK@BOTH_VT_IDLE_SL?$AA@ 30091914     bg_panimate.obj
 0002:00007924       ??_C@_0L@ODAKGANJ@BOTH_DEAD1?$AA@ 30091924     bg_panimate.obj
 0002:00007930       ??_C@_0BA@CFDGIGFF@BOTH_VT_IDLE_SR?$AA@ 30091930     bg_panimate.obj
 0002:00007940       ??_C@_0L@MICHDDBK@BOTH_DEAD2?$AA@ 30091940     bg_panimate.obj
 0002:0000794c       ??_C@_0N@ILFMGFDI@BOTH_VT_IDLE?$AA@ 3009194c     bg_panimate.obj
 0002:0000795c       ??_C@_0L@NBDMACFL@BOTH_DEAD3?$AA@ 3009195c     bg_panimate.obj
 0002:00007968       ??_C@_0O@OONEODEJ@BOTH_VT_IDLE1?$AA@ 30091968     bg_panimate.obj
 0002:00007978       ??_C@_0L@JOHNJEJM@BOTH_DEAD4?$AA@ 30091978     bg_panimate.obj
 0002:00007984       ??_C@_0P@NMDBMFGK@BOTH_VT_IDLE_S?$AA@ 30091984     bg_panimate.obj
 0002:00007994       ??_C@_0L@IHGGKFNN@BOTH_DEAD5?$AA@ 30091994     bg_panimate.obj
 0002:000079a0       ??_C@_0P@PCJPBCDP@BOTH_VT_IDLE_G?$AA@ 300919a0     bg_panimate.obj
 0002:000079b0       ??_C@_0L@KMELPGBO@BOTH_DEAD6?$AA@ 300919b0     bg_panimate.obj
 0002:000079bc       ??_C@_0P@JDHAFDKN@BOTH_VT_IDLE_T?$AA@ 300919bc     bg_panimate.obj
 0002:000079cc       ??_C@_0L@LFFAMHFP@BOTH_DEAD7?$AA@ 300919cc     bg_panimate.obj
 0002:000079d8       ??_C@_0O@CEBNNJCF@BOTH_VT_ATL_S?$AA@ 300919d8     bg_panimate.obj
 0002:000079e8       ??_C@_0L@DCMINLJA@BOTH_DEAD8?$AA@ 300919e8     bg_panimate.obj
 0002:000079f4       ??_C@_0O@JENLPJIJ@BOTH_VT_ATR_S?$AA@ 300919f4     bg_panimate.obj
 0002:00007a04       ??_C@_0L@CLNDOKNB@BOTH_DEAD9?$AA@ 30091a04     bg_panimate.obj
 0002:00007a10       ??_C@_0BD@HFDHEALD@BOTH_VT_ATR_TO_L_S?$AA@ 30091a10     bg_panimate.obj
 0002:00007a24       ??_C@_0M@CAKKFGOD@BOTH_DEAD10?$AA@ 30091a24     bg_panimate.obj
 0002:00007a30       ??_C@_0BD@KBPDPJPM@BOTH_VT_ATL_TO_R_S?$AA@ 30091a30     bg_panimate.obj
 0002:00007a44       ??_C@_0M@DJLBGHKC@BOTH_DEAD11?$AA@ 30091a44     bg_panimate.obj
 0002:00007a50       ??_C@_0O@LKHFCONM@BOTH_VT_ATR_G?$AA@ 30091a50     bg_panimate.obj
 0002:00007a60       ??_C@_0M@BCJMDEGB@BOTH_DEAD12?$AA@ 30091a60     bg_panimate.obj
 0002:00007a6c       ??_C@_0O@KLDAOHA@BOTH_VT_ATL_G?$AA@ 30091a6c     bg_panimate.obj
 0002:00007a7c       ??_C@_0M@LIHAFCA@BOTH_DEAD13?$AA@ 30091a7c     bg_panimate.obj
 0002:00007a88       ??_C@_0O@GFAOOOBE@BOTH_VT_ATF_G?$AA@ 30091a88     bg_panimate.obj
 0002:00007a98       ??_C@_0M@EEMGJDOH@BOTH_DEAD14?$AA@ 30091a98     bg_panimate.obj
 0002:00007aa4       ??_C@_0BA@MMFJLAL@BOTH_GEARS_OPEN?$AA@ 30091aa4     bg_panimate.obj
 0002:00007ab4       ??_C@_0M@FNNNKCKG@BOTH_DEAD15?$AA@ 30091ab4     bg_panimate.obj
 0002:00007ac0       ??_C@_0BB@LDEBMNOM@BOTH_GEARS_CLOSE?$AA@ 30091ac0     bg_panimate.obj
 0002:00007ad4       ??_C@_0M@HGPAPBGF@BOTH_DEAD16?$AA@ 30091ad4     bg_panimate.obj
 0002:00007ae0       ??_C@_0BA@FDONEPNA@BOTH_WINGS_OPEN?$AA@ 30091ae0     bg_panimate.obj
 0002:00007af0       ??_C@_0M@GPOLMACE@BOTH_DEAD17?$AA@ 30091af0     bg_panimate.obj
 0002:00007afc       ??_C@_0BB@KCBPOOGE@BOTH_WINGS_CLOSE?$AA@ 30091afc     bg_panimate.obj
 0002:00007b10       ??_C@_0M@OIHDNMOL@BOTH_DEAD18?$AA@ 30091b10     bg_panimate.obj
 0002:00007b1c       ??_C@_0BE@KHOKHMOE@BOTH_DEATH14_UNGRIP?$AA@ 30091b1c     bg_panimate.obj
 0002:00007b30       ??_C@_0M@PBGIONKK@BOTH_DEAD19?$AA@ 30091b30     bg_panimate.obj
 0002:00007b3c       ??_C@_0BD@FOKLKMPB@BOTH_DEATH14_SITUP?$AA@ 30091b3c     bg_panimate.obj
 0002:00007b50       ??_C@_0M@CCOMOILK@BOTH_DEAD20?$AA@ 30091b50     bg_panimate.obj
 0002:00007b5c       ??_C@_0M@KDFBDJGD@BOTH_KNEES1?$AA@ 30091b5c     bg_panimate.obj
 0002:00007b68       ??_C@_0M@DLPHNJPL@BOTH_DEAD21?$AA@ 30091b68     bg_panimate.obj
 0002:00007b74       ??_C@_0M@IIHMGKKA@BOTH_KNEES2?$AA@ 30091b74     bg_panimate.obj
 0002:00007b80       ??_C@_0M@BANKIKDI@BOTH_DEAD22?$AA@ 30091b80     bg_panimate.obj
 0002:00007b8c       ??_C@_0P@OGCNLGGI@BOTH_KNEES2TO1?$AA@ 30091b8c     bg_panimate.obj
 0002:00007b9c       ??_C@_0M@JMBLLHJ@BOTH_DEAD23?$AA@ 30091b9c     bg_panimate.obj
 0002:00007ba8       ??_C@_0L@GKPOCJMM@BOTH_WALK1?$AA@ 30091ba8     bg_panimate.obj
 0002:00007bb4       ??_C@_0M@EGIACNLO@BOTH_DEAD24?$AA@ 30091bb4     bg_panimate.obj
 0002:00007bc0       ??_C@_0L@EBNDHKAP@BOTH_WALK2?$AA@ 30091bc0     bg_panimate.obj
 0002:00007bcc       ??_C@_0M@FPJLBMPP@BOTH_DEAD25?$AA@ 30091bcc     bg_panimate.obj
 0002:00007bd8       ??_C@_0BA@LMALDKNK@BOTH_WALK_STAFF?$AA@ 30091bd8     bg_panimate.obj
 0002:00007be8       ??_C@_0BC@MMDCJFEJ@BOTH_DEADFORWARD1?$AA@ 30091be8     bg_panimate.obj
 0002:00007bfc       ??_C@_0BE@MDDMPBCJ@BOTH_WALKBACK_STAFF?$AA@ 30091bfc     bg_panimate.obj
 0002:00007c10       ??_C@_0BC@OHBPMGIK@BOTH_DEADFORWARD2?$AA@ 30091c10     bg_panimate.obj
 0002:00007c24       ??_C@_0P@GCJFOAGJ@BOTH_WALK_DUAL?$AA@ 30091c24     bg_panimate.obj
 0002:00007c34       ??_C@_0BD@MNFANONI@BOTH_DEADBACKWARD1?$AA@ 30091c34     bg_panimate.obj
 0002:00007c48       ??_C@_0BD@DPFDKICF@BOTH_WALKBACK_DUAL?$AA@ 30091c48     bg_panimate.obj
 0002:00007c5c       ??_C@_0BD@OGHNINBL@BOTH_DEADBACKWARD2?$AA@ 30091c5c     bg_panimate.obj
 0002:00007c70       ??_C@_0L@OJCOMMI@BOTH_WALK5?$AA@ 30091c70     bg_panimate.obj
 0002:00007c7c       ??_C@_0BA@HDEKJGIF@BOTH_LYINGDEAD1?$AA@ 30091c7c     bg_panimate.obj
 0002:00007c8c       ??_C@_0L@CFLPLPAL@BOTH_WALK6?$AA@ 30091c8c     bg_panimate.obj
 0002:00007c98       ??_C@_0BC@DDLFNCPA@BOTH_STUMBLEDEAD1?$AA@ 30091c98     bg_panimate.obj
 0002:00007cac       ??_C@_0L@DMKEIOEK@BOTH_WALK7?$AA@ 30091cac     bg_panimate.obj
 0002:00007cb8       ??_C@_0BD@BHDKBOHF@BOTH_FALLDEAD1LAND?$AA@ 30091cb8     bg_panimate.obj
 0002:00007ccc       ??_C@_09NOBIDEIB@BOTH_RUN1?$AA@ 30091ccc     bg_panimate.obj
 0002:00007cd8       ??_C@_0P@DCNFIPCD@BOTH_DEADFLOP1?$AA@ 30091cd8     bg_panimate.obj
 0002:00007ce8       ??_C@_0P@CLIPKCAJ@BOTH_RUN1START?$AA@ 30091ce8     bg_panimate.obj
 0002:00007cf8       ??_C@_0P@BJPINMOA@BOTH_DEADFLOP2?$AA@ 30091cf8     bg_panimate.obj
 0002:00007d08       ??_C@_0O@GPFGEBNP@BOTH_RUN1STOP?$AA@ 30091d08     bg_panimate.obj
 0002:00007d18       ??_C@_0BF@OGJIODF@BOTH_DISMEMBER_HEAD1?$AA@ 30091d18     bg_panimate.obj
 0002:00007d30       ??_C@_09PFDFGHEC@BOTH_RUN2?$AA@ 30091d30     bg_panimate.obj
 0002:00007d3c       ??_C@_0BG@CFOELION@BOTH_DISMEMBER_TORSO1?$AA@ 30091d3c     bg_panimate.obj
 0002:00007d54       ??_C@_0BA@JDBHFMOM@BOTH_RUN1TORUN2?$AA@ 30091d54     bg_panimate.obj
 0002:00007d64       ??_C@_0BE@EHHEBFGH@BOTH_DISMEMBER_LLEG?$AA@ 30091d64     bg_panimate.obj
 0002:00007d78       ??_C@_0BA@DGLFAIMM@BOTH_RUN2TORUN1?$AA@ 30091d78     bg_panimate.obj
 0002:00007d88       ??_C@_0BE@JIKEDMIE@BOTH_DISMEMBER_RLEG?$AA@ 30091d88     bg_panimate.obj
 0002:00007d9c       ??_C@_09KDGPMAME@BOTH_RUN4?$AA@ 30091d9c     bg_panimate.obj
 0002:00007da8       ??_C@_0BE@IJEILJCG@BOTH_DISMEMBER_RARM?$AA@ 30091da8     bg_panimate.obj
 0002:00007dbc       ??_C@_0P@JDNNOOMO@BOTH_RUN_STAFF?$AA@ 30091dbc     bg_panimate.obj
 0002:00007dcc       ??_C@_0BE@FGJIJAMF@BOTH_DISMEMBER_LARM?$AA@ 30091dcc     bg_panimate.obj
 0002:00007de0       ??_C@_0BD@OKHEPDMN@BOTH_RUNBACK_STAFF?$AA@ 30091de0     bg_panimate.obj
 0002:00007df4       ??_C@_0L@EGOOCLKN@BOTH_PAIN1?$AA@ 30091df4     bg_panimate.obj
 0002:00007e00       ??_C@_0O@NLDNHDFF@BOTH_RUN_DUAL?$AA@ 30091e00     bg_panimate.obj
 0002:00007e10       ??_C@_0L@GNMDHIGO@BOTH_PAIN2?$AA@ 30091e10     bg_panimate.obj
 0002:00007e1c       ??_C@_0BC@KOJINEFM@BOTH_RUNBACK_DUAL?$AA@ 30091e1c     bg_panimate.obj
 0002:00007e30       ??_C@_0L@HENIEJCP@BOTH_PAIN3?$AA@ 30091e30     bg_panimate.obj
 0002:00007e3c       ??_C@_0BC@OMBNLHPO@BOTH_STRAFE_LEFT1?$AA@ 30091e3c     bg_panimate.obj
 0002:00007e50       ??_C@_0L@DLJJNPOI@BOTH_PAIN4?$AA@ 30091e50     bg_panimate.obj
 0002:00007e5c       ??_C@_0BD@LFCECKKK@BOTH_STRAFE_RIGHT1?$AA@ 30091e5c     bg_panimate.obj
 0002:00007e70       ??_C@_0L@CCICOOKJ@BOTH_PAIN5?$AA@ 30091e70     bg_panimate.obj
 0002:00007e7c       ??_C@_0BF@DBPGPOAM@BOTH_RUNSTRAFE_LEFT1?$AA@ 30091e7c     bg_panimate.obj
 0002:00007e94       ??_C@_0L@JKPLNGK@BOTH_PAIN6?$AA@ 30091e94     bg_panimate.obj
 0002:00007ea0       ??_C@_0BG@OGEKFCND@BOTH_RUNSTRAFE_RIGHT1?$AA@ 30091ea0     bg_panimate.obj
 0002:00007eb8       ??_C@_0L@BALEIMCL@BOTH_PAIN7?$AA@ 30091eb8     bg_panimate.obj
 0002:00007ec4       ??_C@_0BA@GKEFEECE@BOTH_TURN_LEFT1?$AA@ 30091ec4     bg_panimate.obj
 0002:00007ed4       ??_C@_0L@JHCMJAOE@BOTH_PAIN8?$AA@ 30091ed4     bg_panimate.obj
 0002:00007ee0       ??_C@_0BB@NDKEEJJD@BOTH_TURN_RIGHT1?$AA@ 30091ee0     bg_panimate.obj
 0002:00007ef4       ??_C@_0L@IODHKBKF@BOTH_PAIN9?$AA@ 30091ef4     bg_panimate.obj
 0002:00007f00       ??_C@_0BA@GOHCIDPJ@BOTH_TURNSTAND1?$AA@ 30091f00     bg_panimate.obj
 0002:00007f10       ??_C@_0M@HHGHAHIN@BOTH_PAIN10?$AA@ 30091f10     bg_panimate.obj
 0002:00007f1c       ??_C@_0BA@EFFPNADK@BOTH_TURNSTAND2?$AA@ 30091f1c     bg_panimate.obj
 0002:00007f2c       ??_C@_0M@GOHMDGMM@BOTH_PAIN11?$AA@ 30091f2c     bg_panimate.obj
 0002:00007f38       ??_C@_0BA@FMEEOBHL@BOTH_TURNSTAND3?$AA@ 30091f38     bg_panimate.obj
 0002:00007f48       ??_C@_0M@EFFBGFAP@BOTH_PAIN12?$AA@ 30091f48     bg_panimate.obj
 0002:00007f54       ??_C@_0BA@BDAFHHLM@BOTH_TURNSTAND4?$AA@ 30091f54     bg_panimate.obj
 0002:00007f64       ??_C@_0M@FMEKFEEO@BOTH_PAIN13?$AA@ 30091f64     bg_panimate.obj
 0002:00007f70       ??_C@_0BA@KBOEGPN@BOTH_TURNSTAND5?$AA@ 30091f70     bg_panimate.obj
 0002:00007f80       ??_C@_0M@BDALMCIJ@BOTH_PAIN14?$AA@ 30091f80     bg_panimate.obj
 0002:00007f8c       ??_C@_0BB@PGPEJHBN@BOTH_TURNCROUCH1?$AA@ 30091f8c     bg_panimate.obj
 0002:00007fa0       ??_C@_0M@KBAPDMI@BOTH_PAIN15?$AA@ 30091fa0     bg_panimate.obj
 0002:00007fac       ??_C@_0P@PHEJPEHC@BOTH_WALKBACK1?$AA@ 30091fac     bg_panimate.obj
 0002:00007fbc       ??_C@_0M@CBDNKAAL@BOTH_PAIN16?$AA@ 30091fbc     bg_panimate.obj
 0002:00007fc8       ??_C@_0P@NMGEKHLB@BOTH_WALKBACK2?$AA@ 30091fc8     bg_panimate.obj
 0002:00007fd8       ??_C@_0M@DICGJBEK@BOTH_PAIN17?$AA@ 30091fd8     bg_panimate.obj
 0002:00007fe4       ??_C@_0O@EOOBGHEO@BOTH_RUNBACK1?$AA@ 30091fe4     bg_panimate.obj
 0002:00007ff4       ??_C@_0M@LPLOINIF@BOTH_PAIN18?$AA@ 30091ff4     bg_panimate.obj
 0002:00008000       ??_C@_0O@GFMMDEIN@BOTH_RUNBACK2?$AA@ 30092000     bg_panimate.obj
 0002:00008010       ??_C@_0N@HEFOHEMG@BOTH_ATTACK1?$AA@ 30092010     bg_panimate.obj
 0002:00008020       ??_C@_0L@OIBJCCDP@BOTH_JUMP1?$AA@ 30092020     bg_panimate.obj
 0002:0000802c       ??_C@_0N@FPHDCHAF@BOTH_ATTACK2?$AA@ 3009202c     bg_panimate.obj
 0002:0000803c       ??_C@_0M@IKFKFLAF@BOTH_INAIR1?$AA@ 3009203c     bg_panimate.obj
 0002:00008048       ??_C@_0N@EGGIBGEE@BOTH_ATTACK3?$AA@ 30092048     bg_panimate.obj
 0002:00008058       ??_C@_0L@KCLKFECC@BOTH_LAND1?$AA@ 30092058     bg_panimate.obj
 0002:00008064       ??_C@_0N@JCJIAID@BOTH_ATTACK4?$AA@ 30092064     bg_panimate.obj
 0002:00008074       ??_C@_0L@IJJHAHOB@BOTH_LAND2?$AA@ 30092074     bg_panimate.obj
 0002:00008080       ??_C@_0N@BADCLBMC@BOTH_ATTACK5?$AA@ 30092080     bg_panimate.obj
 0002:00008090       ??_C@_0P@HNEGCFPN@BOTH_JUMPBACK1?$AA@ 30092090     bg_panimate.obj
 0002:000080a0       ??_C@_0N@DLBPOCAB@BOTH_ATTACK6?$AA@ 300920a0     bg_panimate.obj
 0002:000080b0       ??_C@_0BA@MBBIHCFF@BOTH_INAIRBACK1?$AA@ 300920b0     bg_panimate.obj
 0002:000080c0       ??_C@_0N@CCAENDEA@BOTH_ATTACK7?$AA@ 300920c0     bg_panimate.obj
 0002:000080d0       ??_C@_0P@JMGKPJPJ@BOTH_LANDBACK1?$AA@ 300920d0     bg_panimate.obj
 0002:000080e0       ??_C@_0O@KNDFAPAC@BOTH_ATTACK10?$AA@ 300920e0     bg_panimate.obj
 0002:000080f0       ??_C@_0P@JCGIPGDC@BOTH_JUMPLEFT1?$AA@ 300920f0     bg_panimate.obj
 0002:00008100       ??_C@_0O@LECODOED@BOTH_ATTACK11?$AA@ 30092100     bg_panimate.obj
 0002:00008110       ??_C@_0BA@CODGKBJK@BOTH_INAIRLEFT1?$AA@ 30092110     bg_panimate.obj
 0002:00008120       ??_C@_0M@LPPNEBCJ@BOTH_MELEE1?$AA@ 30092120     bg_panimate.obj
 0002:0000812c       ??_C@_0P@HDEECKDG@BOTH_LANDLEFT1?$AA@ 3009212c     bg_panimate.obj
 0002:0000813c       ??_C@_0M@JENABCOK@BOTH_MELEE2?$AA@ 3009213c     bg_panimate.obj
 0002:00008148       ??_C@_0BA@CHIINBHA@BOTH_JUMPRIGHT1?$AA@ 30092148     bg_panimate.obj
 0002:00008158       ??_C@_0BD@FIPEGIGM@BOTH_THERMAL_READY?$AA@ 30092158     bg_panimate.obj
 0002:0000816c       ??_C@_0BB@PPDJKEPN@BOTH_INAIRRIGHT1?$AA@ 3009216c     bg_panimate.obj
 0002:00008180       ??_C@_0BD@KGEHHFNO@BOTH_THERMAL_THROW?$AA@ 30092180     bg_panimate.obj
 0002:00008194       ??_C@_0BA@CAAEDJLF@BOTH_LANDRIGHT1?$AA@ 30092194     bg_panimate.obj
 0002:000081a4       ??_C@_0O@KKJLHNCF@BOTH_A1_T__B_?$AA@ 300921a4     bg_panimate.obj
 0002:000081b4       ??_C@_0BA@JCEJKFBM@BOTH_FORCEJUMP1?$AA@ 300921b4     bg_panimate.obj
 0002:000081c4       ??_C@_0O@EGEMCONK@BOTH_A1__L__R?$AA@ 300921c4     bg_panimate.obj
 0002:000081d4       ??_C@_0BB@CIEHHKPA@BOTH_FORCEINAIR1?$AA@ 300921d4     bg_panimate.obj
 0002:000081e8       ??_C@_0O@ENNNDIOG@BOTH_A1__R__L?$AA@ 300921e8     bg_panimate.obj
 0002:000081f8       ??_C@_0BA@NIOKNDAB@BOTH_FORCELAND1?$AA@ 300921f8     bg_panimate.obj
 0002:00008208       ??_C@_0O@DIHFOODK@BOTH_A1_TL_BR?$AA@ 30092208     bg_panimate.obj
 0002:00008218       ??_C@_0BE@CBNAONFO@BOTH_FORCEJUMPBACK1?$AA@ 30092218     bg_panimate.obj
 0002:0000822c       ??_C@_0O@POMAMGEC@BOTH_A1_BR_TL?$AA@ 3009222c     bg_panimate.obj
 0002:0000823c       ??_C@_0BF@IOJLBGMP@BOTH_FORCEINAIRBACK1?$AA@ 3009223c     bg_panimate.obj
 0002:00008254       ??_C@_0O@PFFBNAHO@BOTH_A1_BL_TR?$AA@ 30092254     bg_panimate.obj
 0002:00008264       ??_C@_0BE@MAPMDBFK@BOTH_FORCELANDBACK1?$AA@ 30092264     bg_panimate.obj
 0002:00008278       ??_C@_0O@DDOEPIAG@BOTH_A1_TR_BL?$AA@ 30092278     bg_panimate.obj
 0002:00008288       ??_C@_0BE@MOPODOJB@BOTH_FORCEJUMPLEFT1?$AA@ 30092288     bg_panimate.obj
 0002:0000829c       ??_C@_0O@MAIDBBEC@BOTH_T1_BR__R?$AA@ 3009229c     bg_panimate.obj
 0002:000082ac       ??_C@_0BF@GBLFMFAA@BOTH_FORCEINAIRLEFT1?$AA@ 300922ac     bg_panimate.obj
 0002:000082c4       ??_C@_0O@BIJHMBHM@BOTH_T1_BR_TL?$AA@ 300922c4     bg_panimate.obj
 0002:000082d4       ??_C@_0BE@CPNCOCJF@BOTH_FORCELANDLEFT1?$AA@ 300922d4     bg_panimate.obj
 0002:000082e8       ??_C@_0O@BEMCCOJN@BOTH_T1_BR__L?$AA@ 300922e8     bg_panimate.obj
 0002:000082f8       ??_C@_0BF@GIALLFOK@BOTH_FORCEJUMPRIGHT1?$AA@ 300922f8     bg_panimate.obj
 0002:00008310       ??_C@_0O@DMBOLO@BOTH_T1_BR_BL?$AA@ 30092310     bg_panimate.obj
 0002:00008320       ??_C@_0BG@OPKMFNMD@BOTH_FORCEINAIRRIGHT1?$AA@ 30092320     bg_panimate.obj
 0002:00008338       ??_C@_0O@HDJOOPOG@BOTH_T1__R_TR?$AA@ 30092338     bg_panimate.obj
 0002:00008348       ??_C@_0BF@GPIHFNCP@BOTH_FORCELANDRIGHT1?$AA@ 30092348     bg_panimate.obj
 0002:00008360       ??_C@_0O@KHNPNADJ@BOTH_T1__R_TL?$AA@ 30092360     bg_panimate.obj
 0002:00008370       ??_C@_0M@EEBNKFFB@BOTH_FLIP_F?$AA@ 30092370     bg_panimate.obj
 0002:0000837c       ??_C@_0O@KLIKDPNI@BOTH_T1__R__L?$AA@ 3009237c     bg_panimate.obj
 0002:0000838c       ??_C@_0M@CAHBGAFF@BOTH_FLIP_B?$AA@ 3009238c     bg_panimate.obj
 0002:00008398       ??_C@_0O@LPHEAPPL@BOTH_T1__R_BL?$AA@ 30092398     bg_panimate.obj
 0002:000083a8       ??_C@_0M@LOPCENNL@BOTH_FLIP_L?$AA@ 300923a8     bg_panimate.obj
 0002:000083b4       ??_C@_0O@BPCMAOH@BOTH_T1_TR_BR?$AA@ 300923b4     bg_panimate.obj
 0002:000083c4       ??_C@_0M@GKLDHCAE@BOTH_FLIP_R?$AA@ 300923c4     bg_panimate.obj
 0002:000083d0       ??_C@_0O@MNBICAPK@BOTH_T1_TR_TL?$AA@ 300923d0     bg_panimate.obj
 0002:000083e0       ??_C@_0M@IDDHAIHF@BOTH_ROLL_F?$AA@ 300923e0     bg_panimate.obj
 0002:000083ec       ??_C@_0O@MBENMPBL@BOTH_T1_TR__L?$AA@ 300923ec     bg_panimate.obj
 0002:000083fc       ??_C@_0M@OHFLMNHB@BOTH_ROLL_B?$AA@ 300923fc     bg_panimate.obj
 0002:00008408       ??_C@_0O@NFLDPPDI@BOTH_T1_TR_BL?$AA@ 30092408     bg_panimate.obj
 0002:00008418       ??_C@_0M@HJNIOAPP@BOTH_ROLL_L?$AA@ 30092418     bg_panimate.obj
 0002:00008424       ??_C@_0O@PJGCAEFG@BOTH_T1_T__BR?$AA@ 30092424     bg_panimate.obj
 0002:00008434       ??_C@_0M@KNJJNPCA@BOTH_ROLL_R?$AA@ 30092434     bg_panimate.obj
 0002:00008440       ??_C@_0O@ONJMDEHF@BOTH_T1_T___R?$AA@ 30092440     bg_panimate.obj
 0002:00008450       ??_C@_0L@EGNACLFJ@BOTH_HOP_F?$AA@ 30092450     bg_panimate.obj
 0002:0000845c       ??_C@_0O@OBMJNLJE@BOTH_T1_T__TR?$AA@ 3009245c     bg_panimate.obj
 0002:0000846c       ??_C@_0L@CCLMOOFN@BOTH_HOP_B?$AA@ 3009246c     bg_panimate.obj
 0002:00008478       ??_C@_0O@DFIIOEEL@BOTH_T1_T__TL?$AA@ 30092478     bg_panimate.obj
 0002:00008488       ??_C@_0L@LMDPMDND@BOTH_HOP_L?$AA@ 30092488     bg_panimate.obj
 0002:00008494       ??_C@_0O@DJNNALKK@BOTH_T1_T___L?$AA@ 30092494     bg_panimate.obj
 0002:000084a4       ??_C@_0L@GIHOPMAM@BOTH_HOP_R?$AA@ 300924a4     bg_panimate.obj
 0002:000084b0       ??_C@_0O@CNCDDLIJ@BOTH_T1_T__BL?$AA@ 300924b0     bg_panimate.obj
 0002:000084c0       ??_C@_0O@PFPLGFKE@BOTH_DODGE_FL?$AA@ 300924c0     bg_panimate.obj
 0002:000084d0       ??_C@_0O@NOCCOJAE@BOTH_T1_TL_BR?$AA@ 300924d0     bg_panimate.obj
 0002:000084e0       ??_C@_0O@CBLKFKHL@BOTH_DODGE_FR?$AA@ 300924e0     bg_panimate.obj
 0002:000084f0       ??_C@_0O@KGDNGNL@BOTH_T1_TL_BL?$AA@ 300924f0     bg_panimate.obj
 0002:00008500       ??_C@_0O@PCPCMNHI@BOTH_DODGE_BL?$AA@ 30092500     bg_panimate.obj
 0002:00008510       ??_C@_0O@LEOFBJMH@BOTH_T1__L_BR?$AA@ 30092510     bg_panimate.obj
 0002:00008520       ??_C@_0O@CGLDPCKH@BOTH_DODGE_BR?$AA@ 30092520     bg_panimate.obj
 0002:00008530       ??_C@_0O@KABLCJOE@BOTH_T1__L__R?$AA@ 30092530     bg_panimate.obj
 0002:00008540       ??_C@_0N@HBCEBGGG@BOTH_DODGE_L?$AA@ 30092540     bg_panimate.obj
 0002:00008550       ??_C@_0O@HIAPPJNK@BOTH_T1__L_TL?$AA@ 30092550     bg_panimate.obj
 0002:00008560       ??_C@_0N@KFGFCJLJ@BOTH_DODGE_R?$AA@ 30092560     bg_panimate.obj
 0002:00008570       ??_C@_0O@LKNAIIC@BOTH_T1_BL_BR?$AA@ 30092570     bg_panimate.obj
 0002:00008580       ??_C@_0BD@BDDLGFBA@BOTH_DODGE_HOLD_FL?$AA@ 30092580     bg_panimate.obj
 0002:00008594       ??_C@_0O@BPFDDIKB@BOTH_T1_BL__R?$AA@ 30092594     bg_panimate.obj
 0002:000085a4       ??_C@_0BD@MHHKFKMP@BOTH_DODGE_HOLD_FR?$AA@ 300925a4     bg_panimate.obj
 0002:000085b8       ??_C@_0O@BDAGNHEA@BOTH_T1_BL_TR?$AA@ 300925b8     bg_panimate.obj
 0002:000085c8       ??_C@_0BD@BEDCMNMM@BOTH_DODGE_HOLD_BL?$AA@ 300925c8     bg_panimate.obj
 0002:000085dc       ??_C@_0O@MLBCAHHO@BOTH_T1_BL__L?$AA@ 300925dc     bg_panimate.obj
 0002:000085ec       ??_C@_0BD@MAHDPCBD@BOTH_DODGE_HOLD_BR?$AA@ 300925ec     bg_panimate.obj
 0002:00008600       ??_C@_0O@MMNGPOKD@BOTH_T1_BR_TR?$AA@ 30092600     bg_panimate.obj
 0002:00008610       ??_C@_0BC@NCHIKDCJ@BOTH_DODGE_HOLD_L?$AA@ 30092610     bg_panimate.obj
 0002:00008624       ??_C@_0O@HJHIIAOO@BOTH_T1_BR_T_?$AA@ 30092624     bg_panimate.obj
 0002:00008634       ??_C@_0BC@GDJJMPG@BOTH_DODGE_HOLD_R?$AA@ 30092634     bg_panimate.obj
 0002:00008648       ??_C@_0O@GLDFDACE@BOTH_T1__R_BR?$AA@ 30092648     bg_panimate.obj
 0002:00008658       ??_C@_0BB@EBJHHEMP@BOTH_ENGAGETAUNT?$AA@ 30092658     bg_panimate.obj
 0002:0000866c       ??_C@_0O@MGDAJBKL@BOTH_T1__R_T_?$AA@ 3009266c     bg_panimate.obj
 0002:0000867c       ??_C@_08CINMJMPG@BOTH_BOW?$AA@ 3009267c     bg_panimate.obj
 0002:00008688       ??_C@_0O@BFAMPAME@BOTH_T1_TR__R?$AA@ 30092688     bg_panimate.obj
 0002:00008698       ??_C@_0O@NBLEPMIO@BOTH_MEDITATE?$AA@ 30092698     bg_panimate.obj
 0002:000086a8       ??_C@_0O@KMPHGBGI@BOTH_T1_TR_T_?$AA@ 300926a8     bg_panimate.obj
 0002:000086b8       ??_C@_0BC@DILNBIJM@BOTH_MEDITATE_END?$AA@ 300926b8     bg_panimate.obj
 0002:000086cc       ??_C@_0O@MKNMNJCH@BOTH_T1_TL__R?$AA@ 300926cc     bg_panimate.obj
 0002:000086dc       ??_C@_0BC@DIEHLMHO@BOTH_SHOWOFF_FAST?$AA@ 300926dc     bg_panimate.obj
 0002:000086f0       ??_C@_0O@MGIJDGMG@BOTH_T1_TL_TR?$AA@ 300926f0     bg_panimate.obj
 0002:00008700       ??_C@_0BE@LFOOJMLH@BOTH_SHOWOFF_MEDIUM?$AA@ 30092700     bg_panimate.obj
 0002:00008714       ??_C@_0O@HDCHEIIL@BOTH_T1_TL_T_?$AA@ 30092714     bg_panimate.obj
 0002:00008724       ??_C@_0BE@GKNCDDPP@BOTH_SHOWOFF_STRONG?$AA@ 30092724     bg_panimate.obj
 0002:00008738       ??_C@_0O@BOJNOGPI@BOTH_T1_TL__L?$AA@ 30092738     bg_panimate.obj
 0002:00008748       ??_C@_0BC@EFMAJB@BOTH_SHOWOFF_DUAL?$AA@ 30092748     bg_panimate.obj
 0002:0000875c       ??_C@_0O@KMEOMGAF@BOTH_T1__L_TR?$AA@ 3009275c     bg_panimate.obj
 0002:0000876c       ??_C@_0BD@PAPJANE@BOTH_SHOWOFF_STAFF?$AA@ 3009276c     bg_panimate.obj
 0002:00008780       ??_C@_0O@BJOALIEI@BOTH_T1__L_T_?$AA@ 30092780     bg_panimate.obj
 0002:00008790       ??_C@_0BC@DGIHLJDA@BOTH_VICTORY_FAST?$AA@ 30092790     bg_panimate.obj
 0002:000087a4       ??_C@_0O@GAKECGBI@BOTH_T1__L_BL?$AA@ 300927a4     bg_panimate.obj
 0002:000087b4       ??_C@_0BE@KLHOAEHD@BOTH_VICTORY_MEDIUM?$AA@ 300927b4     bg_panimate.obj
 0002:000087c8       ??_C@_0O@KGKIKJAN@BOTH_T1_BL_T_?$AA@ 300927c8     bg_panimate.obj
 0002:000087d8       ??_C@_0BE@HEECKLDL@BOTH_VICTORY_STRONG?$AA@ 300927d8     bg_panimate.obj
 0002:000087ec       ??_C@_0O@MHEHOIJP@BOTH_T1_BL_TL?$AA@ 300927ec     bg_panimate.obj
 0002:000087fc       ??_C@_0BC@OIFMFNP@BOTH_VICTORY_DUAL?$AA@ 300927fc     bg_panimate.obj
 0002:00008810       ??_C@_0O@LABDBIE@BOTH_S1_S1_T_?$AA@ 30092810     bg_panimate.obj
 0002:00008820       ??_C@_0BD@JOGFDMEG@BOTH_VICTORY_STAFF?$AA@ 30092820     bg_panimate.obj
 0002:00008834       ??_C@_0O@GGLLJPPH@BOTH_S1_S1__L?$AA@ 30092834     bg_panimate.obj
 0002:00008844       ??_C@_0BA@GLHECKNB@BOTH_ARIAL_LEFT?$AA@ 30092844     bg_panimate.obj
 0002:00008854       ??_C@_0O@LCPKKACI@BOTH_S1_S1__R?$AA@ 30092854     bg_panimate.obj
 0002:00008864       ??_C@_0BB@HOMELNKD@BOTH_ARIAL_RIGHT?$AA@ 30092864     bg_panimate.obj
 0002:00008878       ??_C@_0O@GKOOHABG@BOTH_S1_S1_TL?$AA@ 30092878     bg_panimate.obj
 0002:00008888       ??_C@_0BE@POJJIGPG@BOTH_CARTWHEEL_LEFT?$AA@ 30092888     bg_panimate.obj
 0002:0000889c       ??_C@_0O@KGAEJAAL@BOTH_S1_S1_BR?$AA@ 3009289c     bg_panimate.obj
 0002:000088ac       ??_C@_0BF@NLFLOFGE@BOTH_CARTWHEEL_RIGHT?$AA@ 300928ac     bg_panimate.obj
 0002:000088c4       ??_C@_0O@HCEFKPNE@BOTH_S1_S1_BL?$AA@ 300928c4     bg_panimate.obj
 0002:000088d4       ??_C@_0P@JBLCLJDK@BOTH_FLIP_LEFT?$AA@ 300928d4     bg_panimate.obj
 0002:000088e4       ??_C@_0O@LOKPEPMJ@BOTH_S1_S1_TR?$AA@ 300928e4     bg_panimate.obj
 0002:000088f4       ??_C@_0BA@OPOOLPHG@BOTH_FLIP_BACK1?$AA@ 300928f4     bg_panimate.obj
 0002:00008904       ??_C@_0O@MMDGNHJ@BOTH_R1_B__S1?$AA@ 30092904     bg_panimate.obj
 0002:00008914       ??_C@_0BA@MEMDOMLF@BOTH_FLIP_BACK2?$AA@ 30092914     bg_panimate.obj
 0002:00008924       ??_C@_0O@JEMLJBGO@BOTH_R1__L_S1?$AA@ 30092924     bg_panimate.obj
 0002:00008934       ??_C@_0BA@NNNINNPE@BOTH_FLIP_BACK3?$AA@ 30092934     bg_panimate.obj
 0002:00008944       ??_C@_0O@ELBLLIIN@BOTH_R1__R_S1?$AA@ 30092944     bg_panimate.obj
 0002:00008954       ??_C@_0BE@ENKLMJBI@BOTH_BUTTERFLY_LEFT?$AA@ 30092954     bg_panimate.obj
 0002:00008968       ??_C@_0O@POAMGBKN@BOTH_R1_TL_S1?$AA@ 30092968     bg_panimate.obj
 0002:00008978       ??_C@_0BF@JMFKBIFE@BOTH_BUTTERFLY_RIGHT?$AA@ 30092978     bg_panimate.obj
 0002:00008990       ??_C@_0O@PEFDKJMI@BOTH_R1_BR_S1?$AA@ 30092990     bg_panimate.obj
 0002:000089a0       ??_C@_0BE@INEIBMIN@BOTH_WALL_RUN_RIGHT?$AA@ 300929a0     bg_panimate.obj
 0002:000089b4       ??_C@_0O@CLIDIACL@BOTH_R1_BL_S1?$AA@ 300929b4     bg_panimate.obj
 0002:000089c4       ??_C@_0BJ@JNEELNCP@BOTH_WALL_RUN_RIGHT_FLIP?$AA@ 300929c4     bg_panimate.obj
 0002:000089e0       ??_C@_0O@CBNMEIEO@BOTH_R1_TR_S1?$AA@ 300929e0     bg_panimate.obj
 0002:000089f0       ??_C@_0BJ@KEGEKGBP@BOTH_WALL_RUN_RIGHT_STOP?$AA@ 300929f0     bg_panimate.obj
 0002:00008a0c       ??_C@_0O@KKPHFEPE@BOTH_B1_BR___?$AA@ 30092a0c     bg_panimate.obj
 0002:00008a1c       ??_C@_0BD@FOKEEMMD@BOTH_WALL_RUN_LEFT?$AA@ 30092a1c     bg_panimate.obj
 0002:00008a30       ??_C@_0O@BFLPEFLB@BOTH_B1__R___?$AA@ 30092a30     bg_panimate.obj
 0002:00008a40       ??_C@_0BI@LLGHOLLN@BOTH_WALL_RUN_LEFT_FLIP?$AA@ 30092a40     bg_panimate.obj
 0002:00008a58       ??_C@_0O@HPHILFHC@BOTH_B1_TR___?$AA@ 30092a58     bg_panimate.obj
 0002:00008a68       ??_C@_0BI@ICEHPAIN@BOTH_WALL_RUN_LEFT_STOP?$AA@ 30092a68     bg_panimate.obj
 0002:00008a80       ??_C@_0O@IHOIHBMD@BOTH_B1_T____?$AA@ 30092a80     bg_panimate.obj
 0002:00008a90       ??_C@_0BF@MPCPCKGE@BOTH_WALL_FLIP_RIGHT?$AA@ 30092a90     bg_panimate.obj
 0002:00008aa8       ??_C@_0O@KAKIJMJB@BOTH_B1_TL___?$AA@ 30092aa8     bg_panimate.obj
 0002:00008ab8       ??_C@_0BE@ILAKMJOK@BOTH_WALL_FLIP_LEFT?$AA@ 30092ab8     bg_panimate.obj
 0002:00008acc       ??_C@_0O@MKGPGMFC@BOTH_B1__L___?$AA@ 30092acc     bg_panimate.obj
 0002:00008adc       ??_C@_0BA@ICOJIKIM@BOTH_KNOCKDOWN1?$AA@ 30092adc     bg_panimate.obj
 0002:00008aec       ??_C@_0O@HFCHHNBH@BOTH_B1_BL___?$AA@ 30092aec     bg_panimate.obj
 0002:00008afc       ??_C@_0BA@KJMENJEP@BOTH_KNOCKDOWN2?$AA@ 30092afc     bg_panimate.obj
 0002:00008b0c       ??_C@_0O@NJONCNHO@BOTH_D1_BR___?$AA@ 30092b0c     bg_panimate.obj
 0002:00008b1c       ??_C@_0BA@LANPOIAO@BOTH_KNOCKDOWN3?$AA@ 30092b1c     bg_panimate.obj
 0002:00008b2c       ??_C@_0O@GGKFDMDL@BOTH_D1__R___?$AA@ 30092b2c     bg_panimate.obj
 0002:00008b3c       ??_C@_0BA@PPJOHOMJ@BOTH_KNOCKDOWN4?$AA@ 30092b3c     bg_panimate.obj
 0002:00008b4c       ??_C@_0O@MGCMMPI@BOTH_D1_TR___?$AA@ 30092b4c     bg_panimate.obj
 0002:00008b5c       ??_C@_0BA@OGIFEPII@BOTH_KNOCKDOWN5?$AA@ 30092b5c     bg_panimate.obj
 0002:00008b6c       ??_C@_0O@NDLCOFBL@BOTH_D1_TL___?$AA@ 30092b6c     bg_panimate.obj
 0002:00008b7c       ??_C@_0M@BOJPECA@BOTH_GETUP1?$AA@ 30092b7c     bg_panimate.obj
 0002:00008b88       ??_C@_0O@LJHFBFNI@BOTH_D1__L___?$AA@ 30092b88     bg_panimate.obj
 0002:00008b98       ??_C@_0M@CKMEKHOD@BOTH_GETUP2?$AA@ 30092b98     bg_panimate.obj
 0002:00008ba4       ??_C@_0O@GDNAEJN@BOTH_D1_BL___?$AA@ 30092ba4     bg_panimate.obj
 0002:00008bb4       ??_C@_0M@DDNPJGKC@BOTH_GETUP3?$AA@ 30092bb4     bg_panimate.obj
 0002:00008bc0       ??_C@_0O@CBHNOJMP@BOTH_D1_B____?$AA@ 30092bc0     bg_panimate.obj
 0002:00008bd0       ??_C@_0M@HMJOAAGF@BOTH_GETUP4?$AA@ 30092bd0     bg_panimate.obj
 0002:00008bdc       ??_C@_0O@CEBEHKMG@BOTH_A2_T__B_?$AA@ 30092bdc     bg_panimate.obj
 0002:00008bec       ??_C@_0M@GFIFDBCE@BOTH_GETUP5?$AA@ 30092bec     bg_panimate.obj
 0002:00008bf8       ??_C@_0O@MIMDCJDJ@BOTH_A2__L__R?$AA@ 30092bf8     bg_panimate.obj
 0002:00008c08       ??_C@_0BF@MOAEFEDA@BOTH_GETUP_CROUCH_F1?$AA@ 30092c08     bg_panimate.obj
 0002:00008c20       ??_C@_0O@MDFCDPAF@BOTH_A2__R__L?$AA@ 30092c20     bg_panimate.obj
 0002:00008c30       ??_C@_0BF@MJANPMOM@BOTH_GETUP_CROUCH_B1?$AA@ 30092c30     bg_panimate.obj
 0002:00008c48       ??_C@_0O@LGPKOJNJ@BOTH_A2_TL_BR?$AA@ 30092c48     bg_panimate.obj
 0002:00008c58       ??_C@_0BE@BEIPAFMG@BOTH_FORCE_GETUP_F1?$AA@ 30092c58     bg_panimate.obj
 0002:00008c6c       ??_C@_0O@HAEPMBKB@BOTH_A2_BR_TL?$AA@ 30092c6c     bg_panimate.obj
 0002:00008c7c       ??_C@_0BE@DPKCFGAF@BOTH_FORCE_GETUP_F2?$AA@ 30092c7c     bg_panimate.obj
 0002:00008c90       ??_C@_0O@HLNONHJN@BOTH_A2_BL_TR?$AA@ 30092c90     bg_panimate.obj
 0002:00008ca0       ??_C@_0BE@BDIGKNBK@BOTH_FORCE_GETUP_B1?$AA@ 30092ca0     bg_panimate.obj
 0002:00008cb4       ??_C@_0O@LNGLPPOF@BOTH_A2_TR_BL?$AA@ 30092cb4     bg_panimate.obj
 0002:00008cc4       ??_C@_0BE@DIKLPONJ@BOTH_FORCE_GETUP_B2?$AA@ 30092cc4     bg_panimate.obj
 0002:00008cd8       ??_C@_0O@EOAMBGKB@BOTH_T2_BR__R?$AA@ 30092cd8     bg_panimate.obj
 0002:00008ce8       ??_C@_0BE@CBLAMPJI@BOTH_FORCE_GETUP_B3?$AA@ 30092ce8     bg_panimate.obj
 0002:00008cfc       ??_C@_0O@JGBIMGJP@BOTH_T2_BR_TL?$AA@ 30092cfc     bg_panimate.obj
 0002:00008d0c       ??_C@_0BE@GOPBFJFP@BOTH_FORCE_GETUP_B4?$AA@ 30092d0c     bg_panimate.obj
 0002:00008d20       ??_C@_0O@JKENCJHO@BOTH_T2_BR__L?$AA@ 30092d20     bg_panimate.obj
 0002:00008d30       ??_C@_0BE@KLHOHCCI@ERROR?3?5anim?5?$CFd?5?$DM?50?6?$AA@ 30092d30     bg_panimate.obj
 0002:00008d44       ??_C@_01HCONENDN@?$HL?$AA@ 30092d44     bg_panimate.obj
 0002:00008d48       ??_C@_0FB@MCGFNKCO@ParseAnimationEvtBlock?3?5number?5e@ 30092d48     bg_panimate.obj
 0002:00008d9c       ??_C@_01CELHOKLL@?$HN?$AA@ 30092d9c     bg_panimate.obj
 0002:00008da0       ??_C@_0DC@LINDEPHM@?$FO3WARNING?3?5Unknown?5token?5?$CFs?5in?5a@ 30092da0     bg_panimate.obj
 0002:00008dd4       ??_C@_0DO@HMMANOI@?$FO3WARNING?3?5?$CFs?5animevents?4cfg?3?5an@ 30092dd4     bg_panimate.obj
 0002:00008e14       ??_C@_0BB@EAIMOIAK@CHAN_VOICE_ATTEN?$AA@ 30092e14     bg_panimate.obj
 0002:00008e28       ??_C@_0BC@LBLHAJCE@CHAN_VOICE_GLOBAL?$AA@ 30092e28     bg_panimate.obj
 0002:00008e3c       ??_C@_0P@PGMEJIPP@CHAN_ANNOUNCER?$AA@ 30092e3c     bg_panimate.obj
 0002:00008e4c       ??_C@_09PNMHHMAD@CHAN_BODY?$AA@ 30092e4c     bg_panimate.obj
 0002:00008e58       ??_C@_0M@EGDHGLJA@CHAN_WEAPON?$AA@ 30092e58     bg_panimate.obj
 0002:00008e64       ??_C@_0L@GPGGJDHA@CHAN_VOICE?$AA@ 30092e64     bg_panimate.obj
 0002:00008e70       ??_C@_0EI@EIKEHALI@?$FO1ParseAnimationSndBlock?3?5sound?5@ 30092e70     bg_panimate.obj
 0002:00008eb8       ??_C@_04CGFJFPFD@none?$AA@ 30092eb8     bg_panimate.obj
 0002:00008ec0       ??_C@_04HIBGFPH@NULL?$AA@  30092ec0     bg_panimate.obj
 0002:00008ec8       ??_C@_0BB@DEPPJPMH@?$CFsanimevents?4cfg?$AA@ 30092ec8     bg_panimate.obj
 0002:00008edc       ??_C@_0BC@NFDFKMPA@File?5?$CFs?5too?5long?6?$AA@ 30092edc     bg_panimate.obj
 0002:00008ef0       ??_C@_07FHOHOHLG@include?$AA@ 30092ef0     bg_panimate.obj
 0002:00008ef8       ??_C@_0BD@MMOHBCGG@models?1players?1?$CFs?1?$AA@ 30092ef8     bg_panimate.obj
 0002:00008f0c       ??_C@_0M@LPEBDMOL@UPPEREVENTS?$AA@ 30092f0c     bg_panimate.obj
 0002:00008f18       ??_C@_0M@PBCCMAPC@LOWEREVENTS?$AA@ 30092f18     bg_panimate.obj
 0002:00008f24       ??_C@_0BD@IAGLKLFM@players?1_humanoid?1?$AA@ 30092f24     bg_panimate.obj
 0002:00008f38       ??_C@_0BH@OHJDKHCL@players?1rockettrooper?1?$AA@ 30092f38     bg_panimate.obj
 0002:00008f50       ??_C@_0DD@BJENEBEN@?$CFs?5exceeds?5the?5allowed?5game?9side@ 30092f50     bg_panimate.obj
 0002:00008f84       __real@3f000000            30092f84     bg_panimate.obj
 0002:00008f88       __real@3f266666            30092f88     bg_panimate.obj
 0002:00008f8c       __real@3f400000            30092f8c     bg_panimate.obj
 0002:00008f90       __real@3fc00000            30092f90     bg_panimate.obj
 0002:00008f98       __real@3ff4cccccccccccd    30092f98     bg_panimate.obj
 0002:00008fa0       __real@3ffb333333333333    30092fa0     bg_panimate.obj
 0002:00008fa8       __real@447a0000            30092fa8     bg_panimate.obj
 0002:00008fb0       __xmm@7fffffffffffffff7fffffffffffffff 30092fb0     bg_panimate.obj
 0002:00008fc0       ??_C@_0N@KJCNHCBK@?$CFi?3allsolid?6?$AA@ 30092fc0     bg_pmove.obj
 0002:00008fd0       ??_C@_08EOGJDHPF@?$CFi?3lift?6?$AA@ 30092fd0     bg_pmove.obj
 0002:00008fdc       ??_C@_0M@CKJFDFGH@?$CFi?3kickoff?6?$AA@ 30092fdc     bg_pmove.obj
 0002:00008fe8       ??_C@_09OPMLNNOA@?$CFi?3steep?6?$AA@ 30092fe8     bg_pmove.obj
 0002:00008ff4       ??_C@_08KACHPCJN@?$CFi?3Land?6?$AA@ 30092ff4     bg_pmove.obj
 0002:00009000       ??_C@_08GMFJNBED@lhumerus?$AA@ 30093000     bg_pmove.obj
 0002:0000900c       ??_C@_07NJHCGBBF@lradius?$AA@ 3009300c     bg_pmove.obj
 0002:00009014       ??_C@_06IHEANBNF@pelvis?$AA@ 30093014     bg_pmove.obj
 0002:0000901c       ??_C@_07JOKDFEMH@cranium?$AA@ 3009301c     bg_pmove.obj
 0002:00009024       ??_C@_08HPHDBPFM@cervical?$AA@ 30093024     bg_pmove.obj
 0002:00009030       ??_C@_08ILEJMJL@thoracic?$AA@ 30093030     bg_pmove.obj
 0002:0000903c       ??_C@_0N@DPOICHCI@lower_lumbar?$AA@ 3009303c     bg_pmove.obj
 0002:0000904c       ??_C@_0N@FLMNOMBE@upper_lumbar?$AA@ 3009304c     bg_pmove.obj
 0002:0000905c       ??_C@_0BP@KPLHHMIM@Bad?5player?5movement?5angle?5?$CI?$CFi?$CJ?$AA@ 3009305c     bg_pmove.obj
 0002:0000907c       __real@00000000            3009307c     bg_pmove.obj
 0002:00009080       __real@0000000000000000    30093080     bg_pmove.obj
 0002:00009088       __real@3c800000            30093088     bg_pmove.obj
 0002:0000908c       __real@3d0f5c29            3009308c     bg_pmove.obj
 0002:00009090       __real@3dcccccd            30093090     bg_pmove.obj
 0002:00009094       __real@3e000000            30093094     bg_pmove.obj
 0002:00009098       __real@3e800000            30093098     bg_pmove.obj
 0002:0000909c       __real@3e99999a            3009309c     bg_pmove.obj
 0002:000090a0       __real@3eb33333            300930a0     bg_pmove.obj
 0002:000090a4       __real@3ecccccd            300930a4     bg_pmove.obj
 0002:000090a8       __real@3ee66666            300930a8     bg_pmove.obj
 0002:000090ac       __real@3f0ccccd            300930ac     bg_pmove.obj
 0002:000090b0       __real@3f19999a            300930b0     bg_pmove.obj
 0002:000090b8       __real@3f1a36e2eb1c432d    300930b8     bg_pmove.obj
 0002:000090c0       __real@3f333333            300930c0     bg_pmove.obj
 0002:000090c4       __real@3f4ccccd            300930c4     bg_pmove.obj
 0002:000090c8       __real@3f59999a            300930c8     bg_pmove.obj
 0002:000090d0       __real@3f689374bc6a7efa    300930d0     bg_pmove.obj
 0002:000090d8       __real@3f76800000000000    300930d8     bg_pmove.obj
 0002:000090e0       __real@3f8020c5            300930e0     bg_pmove.obj
 0002:000090e8       __real@3fa999999999999a    300930e8     bg_pmove.obj
 0002:000090f0       __real@3fb999999999999a    300930f0     bg_pmove.obj
 0002:000090f8       __real@3fc999999999999a    300930f8     bg_pmove.obj
 0002:00009100       __real@3fc99999a0000000    30093100     bg_pmove.obj
 0002:00009108       __real@3fd0000000000000    30093108     bg_pmove.obj
 0002:00009110       __real@3fd3333333333333    30093110     bg_pmove.obj
 0002:00009118       __real@3fd999999999999a    30093118     bg_pmove.obj
 0002:00009120       __real@3fe3333333333333    30093120     bg_pmove.obj
 0002:00009128       __real@3fe6666666666666    30093128     bg_pmove.obj
 0002:00009130       __real@3fe8000000000000    30093130     bg_pmove.obj
 0002:00009138       __real@3fe999999999999a    30093138     bg_pmove.obj
 0002:00009140       __real@3feccccccccccccd    30093140     bg_pmove.obj
 0002:00009148       __real@3ff0000000000000    30093148     bg_pmove.obj
 0002:00009150       __real@3ff8000000000000    30093150     bg_pmove.obj
 0002:00009158       __real@4004000000000000    30093158     bg_pmove.obj
 0002:00009160       __real@4008000000000000    30093160     bg_pmove.obj
 0002:00009168       __real@40100000            30093168     bg_pmove.obj
 0002:00009170       __real@4014000000000000    30093170     bg_pmove.obj
 0002:00009178       __real@4018000000000000    30093178     bg_pmove.obj
 0002:00009180       __real@40200000            30093180     bg_pmove.obj
 0002:00009188       __real@4028000000000000    30093188     bg_pmove.obj
 0002:00009190       __real@4038000000000000    30093190     bg_pmove.obj
 0002:00009198       __real@40400000            30093198     bg_pmove.obj
 0002:000091a0       __real@4059000000000000    300931a0     bg_pmove.obj
 0002:000091a8       __real@405fc00000000000    300931a8     bg_pmove.obj
 0002:000091b0       __real@40a00000            300931b0     bg_pmove.obj
 0002:000091b4       __real@40e00000            300931b4     bg_pmove.obj
 0002:000091b8       __real@41000000            300931b8     bg_pmove.obj
 0002:000091bc       __real@41200000            300931bc     bg_pmove.obj
 0002:000091c0       __real@41400000            300931c0     bg_pmove.obj
 0002:000091c4       __real@41700000            300931c4     bg_pmove.obj
 0002:000091c8       __real@41800000            300931c8     bg_pmove.obj
 0002:000091cc       __real@41900000            300931cc     bg_pmove.obj
 0002:000091d0       __real@41a00000            300931d0     bg_pmove.obj
 0002:000091d4       __real@41c00000            300931d4     bg_pmove.obj
 0002:000091d8       __real@41f00000            300931d8     bg_pmove.obj
 0002:000091dc       __real@42000000            300931dc     bg_pmove.obj
 0002:000091e0       __real@42200000            300931e0     bg_pmove.obj
 0002:000091e4       __real@42480000            300931e4     bg_pmove.obj
 0002:000091e8       __real@42700000            300931e8     bg_pmove.obj
 0002:000091ec       __real@42800000            300931ec     bg_pmove.obj
 0002:000091f0       __real@42a00000            300931f0     bg_pmove.obj
 0002:000091f4       __real@42c80000            300931f4     bg_pmove.obj
 0002:000091f8       __real@42fe0000            300931f8     bg_pmove.obj
 0002:000091fc       __real@43000000            300931fc     bg_pmove.obj
 0002:00009200       __real@43160000            30093200     bg_pmove.obj
 0002:00009204       __real@432f0000            30093204     bg_pmove.obj
 0002:00009208       __real@43480000            30093208     bg_pmove.obj
 0002:0000920c       __real@43610000            3009320c     bg_pmove.obj
 0002:00009210       __real@43700000            30093210     bg_pmove.obj
 0002:00009214       __real@437a0000            30093214     bg_pmove.obj
 0002:00009218       __real@43800000            30093218     bg_pmove.obj
 0002:0000921c       __real@43870000            3009321c     bg_pmove.obj
 0002:00009220       __real@43960000            30093220     bg_pmove.obj
 0002:00009224       __real@43c80000            30093224     bg_pmove.obj
 0002:00009228       __real@43e10000            30093228     bg_pmove.obj
 0002:0000922c       __real@44160000            3009322c     bg_pmove.obj
 0002:00009230       __real@44960000            30093230     bg_pmove.obj
 0002:00009234       __real@44af0000            30093234     bg_pmove.obj
 0002:00009238       __real@44d48000            30093238     bg_pmove.obj
 0002:0000923c       __real@44e10000            3009323c     bg_pmove.obj
 0002:00009240       __real@457a0000            30093240     bg_pmove.obj
 0002:00009244       __real@45800000            30093244     bg_pmove.obj
 0002:00009248       __real@47800000            30093248     bg_pmove.obj
 0002:0000924c       __real@bf000000            3009324c     bg_pmove.obj
 0002:00009250       __real@bf7fbe77            30093250     bg_pmove.obj
 0002:00009254       __real@c0000000            30093254     bg_pmove.obj
 0002:00009258       __real@c0400000            30093258     bg_pmove.obj
 0002:0000925c       __real@c0800000            3009325c     bg_pmove.obj
 0002:00009260       __real@c0a00000            30093260     bg_pmove.obj
 0002:00009264       __real@c1700000            30093264     bg_pmove.obj
 0002:00009268       __real@c1c00000            30093268     bg_pmove.obj
 0002:0000926c       __real@c1f00000            3009326c     bg_pmove.obj
 0002:00009270       __real@c2000000            30093270     bg_pmove.obj
 0002:00009274       __real@c2c80000            30093274     bg_pmove.obj
 0002:00009278       __real@c3000000            30093278     bg_pmove.obj
 0002:0000927c       __real@c3160000            3009327c     bg_pmove.obj
 0002:00009280       __real@c3480000            30093280     bg_pmove.obj
 0002:00009284       __real@c3960000            30093284     bg_pmove.obj
 0002:00009288       __real@c4960000            30093288     bg_pmove.obj
 0002:00009290       __xmm@41f00000c1a00000c1a00000c2b40000 30093290     bg_pmove.obj
 0002:000092a0       ??_C@_04OHJIHAFH@None?$AA@ 300932a0     bg_saber.obj
 0002:000092a8       ??_C@_05GMBADOLI@Ready?$AA@ 300932a8     bg_saber.obj
 0002:000092b0       ??_C@_04HMPDNAFK@Draw?$AA@ 300932b0     bg_saber.obj
 0002:000092b8       ??_C@_07EEKMGHL@Putaway?$AA@ 300932b8     bg_saber.obj
 0002:000092c0       ??_C@_09DLNELECG@TL2BR?5Att?$AA@ 300932c0     bg_saber.obj
 0002:000092cc       ??_C@_07GAJHIGJB@L2R?5Att?$AA@ 300932cc     bg_saber.obj
 0002:000092d4       ??_C@_09BFGKOMHN@BL2TR?5Att?$AA@ 300932d4     bg_saber.obj
 0002:000092e0       ??_C@_09EILEBGHF@BR2TL?5Att?$AA@ 300932e0     bg_saber.obj
 0002:000092ec       ??_C@_07DAHKMGGD@R2L?5Att?$AA@ 300932ec     bg_saber.obj
 0002:000092f4       ??_C@_09GGAKEOCO@TR2BL?5Att?$AA@ 300932f4     bg_saber.obj
 0002:00009300       ??_C@_07MMBPKOJE@T2B?5Att?$AA@ 30093300     bg_saber.obj
 0002:00009308       ??_C@_09JIGLEFGA@Back?5Stab?$AA@ 30093308     bg_saber.obj
 0002:00009314       ??_C@_08NHHMKFDG@Back?5Att?$AA@ 30093314     bg_saber.obj
 0002:00009320       ??_C@_0M@GCNCHFMC@CR?5Back?5Att?$AA@ 30093320     bg_saber.obj
 0002:0000932c       ??_C@_08PKIJPDOE@RollStab?$AA@ 3009332c     bg_saber.obj
 0002:00009338       ??_C@_09LEMMEBE@Lunge?5Att?$AA@ 30093338     bg_saber.obj
 0002:00009344       ??_C@_08KNHLLBPK@Jump?5Att?$AA@ 30093344     bg_saber.obj
 0002:00009350       ??_C@_09JENGNGLB@Flip?5Stab?$AA@ 30093350     bg_saber.obj
 0002:0000935c       ??_C@_0L@FMKCKBGH@Flip?5Slash?$AA@ 3009335c     bg_saber.obj
 0002:00009368       ??_C@_0N@BCAAENJH@DualJump?5Atk?$AA@ 30093368     bg_saber.obj
 0002:00009378       ??_C@_0P@BOMMGCKC@DualJumpAtkL_A?$AA@ 30093378     bg_saber.obj
 0002:00009388       ??_C@_0P@KOAKECAO@DualJumpAtkR_A?$AA@ 30093388     bg_saber.obj
 0002:00009398       ??_C@_0BC@PNIBBCPG@DualJumpAtkLStaff?$AA@ 30093398     bg_saber.obj
 0002:000093ac       ??_C@_0BC@MKGAPFGF@DualJumpAtkRStaff?$AA@ 300933ac     bg_saber.obj
 0002:000093c0       ??_C@_0O@EJCJKPND@ButterflyLeft?$AA@ 300933c0     bg_saber.obj
 0002:000093d0       ??_C@_0P@FGMKFKI@ButterflyRight?$AA@ 300933d0     bg_saber.obj
 0002:000093e0       ??_C@_0L@DLADLIII@BkFlip?5Atk?$AA@ 300933e0     bg_saber.obj
 0002:000093ec       ??_C@_0M@HECJKIFI@DualSpinAtk?$AA@ 300933ec     bg_saber.obj
 0002:000093f8       ??_C@_0L@GNJONGPC@StfSpinAtk?$AA@ 300933f8     bg_saber.obj
 0002:00009404       ??_C@_0L@NEJJNIPN@LngLeapAtk?$AA@ 30093404     bg_saber.obj
 0002:00009410       ??_C@_09OIECNKCB@SwoopAtkR?$AA@ 30093410     bg_saber.obj
 0002:0000941c       ??_C@_09DMADOFPO@SwoopAtkL?$AA@ 3009341c     bg_saber.obj
 0002:00009428       ??_C@_0N@LKHFPAPA@TauntaunAtkR?$AA@ 30093428     bg_saber.obj
 0002:00009438       ??_C@_0N@GODEMPCP@TauntaunAtkL?$AA@ 30093438     bg_saber.obj
 0002:00009448       ??_C@_0L@EBPEBDEI@StfKickFwd?$AA@ 30093448     bg_saber.obj
 0002:00009454       ??_C@_0M@HLPCDHNL@StfKickBack?$AA@ 30093454     bg_saber.obj
 0002:00009460       ??_C@_0N@OEKLCFMN@StfKickRight?$AA@ 30093460     bg_saber.obj
 0002:00009470       ??_C@_0M@IADBNCJI@StfKickLeft?$AA@ 30093470     bg_saber.obj
 0002:0000947c       ??_C@_0M@LODHMIIA@StfKickSpin?$AA@ 3009347c     bg_saber.obj
 0002:00009488       ??_C@_0N@NIILEKHB@StfKickBkFwd?$AA@ 30093488     bg_saber.obj
 0002:00009498       ??_C@_0N@JEMEOOKN@StfKickSplit?$AA@ 30093498     bg_saber.obj
 0002:000094a8       ??_C@_0O@NMBBHPCN@StfKickFwdAir?$AA@ 300934a8     bg_saber.obj
 0002:000094b8       ??_C@_0P@DLMPDNCN@StfKickBackAir?$AA@ 300934b8     bg_saber.obj
 0002:000094c8       ??_C@_0BA@EJCHHLPD@StfKickRightAir?$AA@ 300934c8     bg_saber.obj
 0002:000094d8       ??_C@_0P@GIHHJKOM@StfKickLeftAir?$AA@ 300934d8     bg_saber.obj
 0002:000094e8       ??_C@_08HGDIMBKI@StabDown?$AA@ 300934e8     bg_saber.obj
 0002:000094f4       ??_C@_0M@JEGPPONO@StabDownStf?$AA@ 300934f4     bg_saber.obj
 0002:00009500       ??_C@_0N@MHIEIOPE@StabDownDual?$AA@ 30093500     bg_saber.obj
 0002:00009510       ??_C@_0N@KBDLODPM@dualspinprot?$AA@ 30093510     bg_saber.obj
 0002:00009520       ??_C@_0L@NHJJEIC@StfSoulCal?$AA@ 30093520     bg_saber.obj
 0002:0000952c       ??_C@_0M@GOKDABKC@specialfast?$AA@ 3009352c     bg_saber.obj
 0002:00009538       ??_C@_0L@EKOEFLPJ@specialmed?$AA@ 30093538     bg_saber.obj
 0002:00009544       ??_C@_0L@PLFOAHMF@specialstr?$AA@ 30093544     bg_saber.obj
 0002:00009550       ??_C@_0N@LJBLOMAE@upsidedwnatk?$AA@ 30093550     bg_saber.obj
 0002:00009560       ??_C@_0M@HMDNHOPJ@pullatkstab?$AA@ 30093560     bg_saber.obj
 0002:0000956c       ??_C@_0N@GFKPCBPN@pullatkswing?$AA@ 3009356c     bg_saber.obj
 0002:0000957c       ??_C@_0N@PCBIMGO@AloraSpinAtk?$AA@ 3009357c     bg_saber.obj
 0002:0000958c       ??_C@_0M@BHONLNJO@Dual?5FB?5Atk?$AA@ 3009358c     bg_saber.obj
 0002:00009598       ??_C@_0M@LAELOAEL@Dual?5LR?5Atk?$AA@ 30093598     bg_saber.obj
 0002:000095a4       ??_C@_0M@HBLMDLAK@StfHiltBash?$AA@ 300935a4     bg_saber.obj
 0002:000095b0       ??_C@_08PCFOCMBL@TL2BR?5St?$AA@ 300935b0     bg_saber.obj
 0002:000095bc       ??_C@_06GPMCIGKE@L2R?5St?$AA@ 300935bc     bg_saber.obj
 0002:000095c4       ??_C@_08PIALPGGG@BL2TR?5St?$AA@ 300935c4     bg_saber.obj
 0002:000095d0       ??_C@_08EOOKPMJM@BR2TL?5St?$AA@ 300935d0     bg_saber.obj
 0002:000095dc       ??_C@_06IHPDEINE@R2L?5St?$AA@ 300935dc     bg_saber.obj
 0002:000095e4       ??_C@_08EELPCGOB@TR2BL?5St?$AA@ 300935e4     bg_saber.obj
 0002:000095f0       ??_C@_06FLBDMDIP@T2B?5St?$AA@ 300935f0     bg_saber.obj
 0002:000095f8       ??_C@_09GEJMIFBA@TL2BR?5Ret?$AA@ 300935f8     bg_saber.obj
 0002:00009604       ??_C@_07DPNPLHKH@L2R?5Ret?$AA@ 30093604     bg_saber.obj
 0002:0000960c       ??_C@_09EKCCNNEL@BL2TR?5Ret?$AA@ 3009360c     bg_saber.obj
 0002:00009618       ??_C@_09BHPMCHED@BR2TL?5Ret?$AA@ 30093618     bg_saber.obj
 0002:00009624       ??_C@_07GPDCPHFF@R2L?5Ret?$AA@ 30093624     bg_saber.obj
 0002:0000962c       ??_C@_09DJECHPBI@TR2BL?5Ret?$AA@ 3009362c     bg_saber.obj
 0002:00009638       ??_C@_07JDFHJPKC@T2B?5Ret?$AA@ 30093638     bg_saber.obj
 0002:00009640       ??_C@_0L@KOAIDIAM@BR2R?5Trans?$AA@ 30093640     bg_saber.obj
 0002:0000964c       ??_C@_0M@DCGKFOHF@BR2TR?5Trans?$AA@ 3009364c     bg_saber.obj
 0002:00009658       ??_C@_0L@GIGHDBIL@BR2T?5Trans?$AA@ 30093658     bg_saber.obj
 0002:00009664       ??_C@_0M@FLFLHNGM@BR2TL?5Trans?$AA@ 30093664     bg_saber.obj
 0002:00009670       ??_C@_0L@MHDJBLBF@BR2L?5Trans?$AA@ 30093670     bg_saber.obj
 0002:0000967c       ??_C@_0M@IEIBEGJH@BR2BL?5Trans?$AA@ 3009367c     bg_saber.obj
 0002:00009688       ??_C@_0L@CBLKDLGC@R2BR?5Trans?$AA@ 30093688     bg_saber.obj
 0002:00009694       ??_C@_0L@POGAAAJJ@R2TR?5Trans?$AA@ 30093694     bg_saber.obj
 0002:000096a0       ??_C@_09GOEOEIDP@R2T?5Trans?$AA@ 300936a0     bg_saber.obj
 0002:000096ac       ??_C@_0L@JHFBCDIA@R2TL?5Trans?$AA@ 300936ac     bg_saber.obj
 0002:000096b8       ??_C@_09MBBAGCKB@R2L?5Trans?$AA@ 300936b8     bg_saber.obj
 0002:000096c4       ??_C@_0L@EIILBIHL@R2BL?5Trans?$AA@ 300936c4     bg_saber.obj
 0002:000096d0       ??_C@_0M@OJFCNJC@TR2BR?5Trans?$AA@ 300936d0     bg_saber.obj
 0002:000096dc       ??_C@_0L@OIELDGIE@TR2R?5Trans?$AA@ 300936dc     bg_saber.obj
 0002:000096e8       ??_C@_0L@COCEDPAD@TR2T?5Trans?$AA@ 300936e8     bg_saber.obj
 0002:000096f4       ??_C@_0M@LIHODFHA@TR2TL?5Trans?$AA@ 300936f4     bg_saber.obj
 0002:00009700       ??_C@_0L@IBHKBFJN@TR2L?5Trans?$AA@ 30093700     bg_saber.obj
 0002:0000970c       ??_C@_0M@GHKEAOIL@TR2BL?5Trans?$AA@ 3009370c     bg_saber.obj
 0002:00009718       ??_C@_0L@MJAPPBCB@T2BR?5Trans?$AA@ 30093718     bg_saber.obj
 0002:00009724       ??_C@_09KFDPDBPP@T2R?5Trans?$AA@ 30093724     bg_saber.obj
 0002:00009730       ??_C@_0L@BGNFMKNK@T2TR?5Trans?$AA@ 30093730     bg_saber.obj
 0002:0000973c       ??_C@_0L@HPOEOJMD@T2TL?5Trans?$AA@ 3009373c     bg_saber.obj
 0002:00009748       ??_C@_09MMAOBCOG@T2L?5Trans?$AA@ 30093748     bg_saber.obj
 0002:00009754       ??_C@_0L@KADONCDI@T2BL?5Trans?$AA@ 30093754     bg_saber.obj
 0002:00009760       ??_C@_0M@PCBFMCFP@TL2BR?5Trans?$AA@ 30093760     bg_saber.obj
 0002:0000976c       ??_C@_0L@NBCMIHNP@TL2R?5Trans?$AA@ 3009376c     bg_saber.obj
 0002:00009778       ??_C@_0M@CNMPPJKE@TL2TR?5Trans?$AA@ 30093778     bg_saber.obj
 0002:00009784       ??_C@_0L@BHEDIOFI@TL2T?5Trans?$AA@ 30093784     bg_saber.obj
 0002:00009790       ??_C@_0L@LIBNKEMG@TL2L?5Trans?$AA@ 30093790     bg_saber.obj
 0002:0000979c       ??_C@_0M@JLCEOBEG@TL2BL?5Trans?$AA@ 3009379c     bg_saber.obj
 0002:000097a8       ??_C@_0L@NNDKNEKP@L2BR?5Trans?$AA@ 300937a8     bg_saber.obj
 0002:000097b4       ??_C@_09JBEGPAOD@L2R?5Trans?$AA@ 300937b4     bg_saber.obj
 0002:000097c0       ??_C@_0L@COAOPFE@L2TR?5Trans?$AA@ 300937c0     bg_saber.obj
 0002:000097cc       ??_C@_09FHCJPJGE@L2T?5Trans?$AA@ 300937cc     bg_saber.obj
 0002:000097d8       ??_C@_0L@GLNBMMEN@L2TL?5Trans?$AA@ 300937d8     bg_saber.obj
 0002:000097e4       ??_C@_0L@LEALPHLG@L2BL?5Trans?$AA@ 300937e4     bg_saber.obj
 0002:000097f0       ??_C@_0M@BBDAIKED@BL2BR?5Trans?$AA@ 300937f0     bg_saber.obj
 0002:000097fc       ??_C@_0L@JHGPIJFH@BL2R?5Trans?$AA@ 300937fc     bg_saber.obj
 0002:00009808       ??_C@_0M@MOOKLBLI@BL2TR?5Trans?$AA@ 30093808     bg_saber.obj
 0002:00009814       ??_C@_0L@FBAAIANA@BL2T?5Trans?$AA@ 30093814     bg_saber.obj
 0002:00009820       ??_C@_0M@KHNLJCKB@BL2TL?5Trans?$AA@ 30093820     bg_saber.obj
 0002:0000982c       ??_C@_0L@POFOKKEO@BL2L?5Trans?$AA@ 3009382c     bg_saber.obj
 0002:00009838       ??_C@_09LOMKOKKC@Bounce?5BR?$AA@ 30093838     bg_saber.obj
 0002:00009844       ??_C@_08OFNJAPL@Bounce?5R?$AA@ 30093844     bg_saber.obj
 0002:00009850       ??_C@_09KGGBDFGA@Bounce?5TR?$AA@ 30093850     bg_saber.obj
 0002:0000985c       ??_C@_08FIAHDHHN@Bounce?5T?$AA@ 3009385c     bg_saber.obj
 0002:00009868       ??_C@_09HCCAAKLP@Bounce?5TL?$AA@ 30093868     bg_saber.obj
 0002:00009874       ??_C@_08NKBMKPCE@Bounce?5L?$AA@ 30093874     bg_saber.obj
 0002:00009880       ??_C@_09GKILNFHN@Bounce?5BL?$AA@ 30093880     bg_saber.obj
 0002:0000988c       ??_C@_0L@GNAHDHGP@Deflect?5BR?$AA@ 3009388c     bg_saber.obj
 0002:00009898       ??_C@_09BFHEKGJM@Deflect?5R?$AA@ 30093898     bg_saber.obj
 0002:000098a4       ??_C@_0L@HFKMOIKN@Deflect?5TR?$AA@ 300938a4     bg_saber.obj
 0002:000098b0       ??_C@_09EDCOABBK@Deflect?5T?$AA@ 300938b0     bg_saber.obj
 0002:000098bc       ??_C@_0L@KBONNHHC@Deflect?5TL?$AA@ 300938bc     bg_saber.obj
 0002:000098c8       ??_C@_09MBDFJJED@Deflect?5L?$AA@ 300938c8     bg_saber.obj
 0002:000098d4       ??_C@_0L@LJEGAILA@Deflect?5BL?$AA@ 300938d4     bg_saber.obj
 0002:000098e0       ??_C@_09FPLGLEMN@Deflect?5B?$AA@ 300938e0     bg_saber.obj
 0002:000098ec       ??_C@_0N@GFILIJHD@Reflected?5BR?$AA@ 300938ec     bg_saber.obj
 0002:000098fc       ??_C@_0M@PEPHJHNB@Reflected?5R?$AA@ 300938fc     bg_saber.obj
 0002:00009908       ??_C@_0N@HNCAFGLB@Reflected?5TR?$AA@ 30093908     bg_saber.obj
 0002:00009918       ??_C@_0M@KCKNDAFH@Reflected?5T?$AA@ 30093918     bg_saber.obj
 0002:00009924       ??_C@_0N@KJGBGJGO@Reflected?5TL?$AA@ 30093924     bg_saber.obj
 0002:00009934       ??_C@_0M@CALGKIAO@Reflected?5L?$AA@ 30093934     bg_saber.obj
 0002:00009940       ??_C@_0N@LBMKLGKM@Reflected?5BL?$AA@ 30093940     bg_saber.obj
 0002:00009950       ??_C@_0M@LODFIFIA@Reflected?5B?$AA@ 30093950     bg_saber.obj
 0002:0000995c       ??_C@_0L@LIOFLEGO@BParry?5Top?$AA@ 3009395c     bg_saber.obj
 0002:00009968       ??_C@_09GDDODCIC@BParry?5UR?$AA@ 30093968     bg_saber.obj
 0002:00009974       ??_C@_09LHHPANFN@BParry?5UL?$AA@ 30093974     bg_saber.obj
 0002:00009980       ??_C@_09HAMJKKHN@BParry?5LR?$AA@ 30093980     bg_saber.obj
 0002:0000998c       ??_C@_0L@KJPLHJCJ@BParry?5Bot?$AA@ 3009398c     bg_saber.obj
 0002:00009998       ??_C@_09KEIIJFKC@BParry?5LL?$AA@ 30093998     bg_saber.obj
 0002:000099a4       ??_C@_09NGDCGIAE@Knock?5Top?$AA@ 300939a4     bg_saber.obj
 0002:000099b0       ??_C@_08NPOELPBF@Knock?5UR?$AA@ 300939b0     bg_saber.obj
 0002:000099bc       ??_C@_08LKFIAMK@Knock?5UL?$AA@ 300939bc     bg_saber.obj
 0002:000099c8       ??_C@_08MMBDCHOK@Knock?5LR?$AA@ 300939c8     bg_saber.obj
 0002:000099d4       ??_C@_08BIFCBIDF@Knock?5LL?$AA@ 300939d4     bg_saber.obj
 0002:000099e0       ??_C@_09LOMMMNNK@Parry?5Top?$AA@ 300939e0     bg_saber.obj
 0002:000099ec       ??_C@_08PMPCJJMH@Parry?5UR?$AA@ 300939ec     bg_saber.obj
 0002:000099f8       ??_C@_08CILDKGBI@Parry?5UL?$AA@ 300939f8     bg_saber.obj
 0002:00009a04       ??_C@_08OPAFABDI@Parry?5LR?$AA@ 30093a04     bg_saber.obj
 0002:00009a10       ??_C@_08DLEEDOOH@Parry?5LL?$AA@ 30093a10     bg_saber.obj
 0002:00009a1c       ??_C@_0M@EILLDEJE@Reflect?5Top?$AA@ 30093a1c     bg_saber.obj
 0002:00009a28       ??_C@_0L@DCCNIMBC@Reflect?5UR?$AA@ 30093a28     bg_saber.obj
 0002:00009a34       ??_C@_0L@OGGMLDMN@Reflect?5UL?$AA@ 30093a34     bg_saber.obj
 0002:00009a40       ??_C@_0L@CBNKBEON@Reflect?5LR?$AA@ 30093a40     bg_saber.obj
 0002:00009a4c       ??_C@_0L@PFJLCLDC@Reflect?5LL?$AA@ 30093a4c     bg_saber.obj
 0002:00009a58       __real@4054000000000000    30093a58     bg_saber.obj
 0002:00009a60       __real@428c0000            30093a60     bg_saber.obj
 0002:00009a64       __real@42960000            30093a64     bg_saber.obj
 0002:00009a68       __real@43200000            30093a68     bg_saber.obj
 0002:00009a6c       __real@43240000            30093a6c     bg_saber.obj
 0002:00009a70       __real@433e0000            30093a70     bg_saber.obj
 0002:00009a74       __real@43a00000            30093a74     bg_saber.obj
 0002:00009a78       __real@45c80000            30093a78     bg_saber.obj
 0002:00009a7c       ??_C@_0L@PGJIJNF@SABER_NONE?$AA@ 30093a7c     bg_saberLoad.obj
 0002:00009a88       ??_C@_0N@OGPMBMML@SABER_SINGLE?$AA@ 30093a88     bg_saberLoad.obj
 0002:00009a98       ??_C@_0M@KCMILOII@SABER_STAFF?$AA@ 30093a98     bg_saberLoad.obj
 0002:00009aa4       ??_C@_0M@DCKEJJCC@SABER_BROAD?$AA@ 30093aa4     bg_saberLoad.obj
 0002:00009ab0       ??_C@_0M@FMMLCOEM@SABER_PRONG?$AA@ 30093ab0     bg_saberLoad.obj
 0002:00009abc       ??_C@_0N@KPJEOBIO@SABER_DAGGER?$AA@ 30093abc     bg_saberLoad.obj
 0002:00009acc       ??_C@_09JGPFAKGO@SABER_ARC?$AA@ 30093acc     bg_saberLoad.obj
 0002:00009ad8       ??_C@_09IIGKGANJ@SABER_SAI?$AA@ 30093ad8     bg_saberLoad.obj
 0002:00009ae4       ??_C@_0L@JGOENFGE@SABER_CLAW?$AA@ 30093ae4     bg_saberLoad.obj
 0002:00009af0       ??_C@_0M@INMNJHEK@SABER_LANCE?$AA@ 30093af0     bg_saberLoad.obj
 0002:00009afc       ??_C@_0L@BONOMJND@SABER_STAR?$AA@ 30093afc     bg_saberLoad.obj
 0002:00009b08       ??_C@_0O@JGGDFEFK@SABER_TRIDENT?$AA@ 30093b08     bg_saberLoad.obj
 0002:00009b18       ??_C@_0BA@FOCLBKAP@unexpected?5EOF?6?$AA@ 30093b18     bg_saberLoad.obj
 0002:00009b28       ??_C@_0BO@NBJEGAHB@required?5string?5?8?$CFs?8?5missing?6?$AA@ 30093b28     bg_saberLoad.obj
 0002:00009b48       ??_C@_06HDDOCMMN@orange?$AA@ 30093b48     bg_saberLoad.obj
 0002:00009b50       ??_C@_06ENJNJKEL@yellow?$AA@ 30093b50     bg_saberLoad.obj
 0002:00009b58       ??_C@_05GBEEJKMC@green?$AA@ 30093b58     bg_saberLoad.obj
 0002:00009b60       ??_C@_06GEHONCEN@purple?$AA@ 30093b60     bg_saberLoad.obj
 0002:00009b68       ??_C@_06NLFCANPD@random?$AA@ 30093b68     bg_saberLoad.obj
 0002:00009b70       ??_C@_04LBNBHAJC@fast?$AA@ 30093b70     bg_saberLoad.obj
 0002:00009b78       ??_C@_06HIDOEFBI@medium?$AA@ 30093b78     bg_saberLoad.obj
 0002:00009b80       ??_C@_06KHACOKFA@strong?$AA@ 30093b80     bg_saberLoad.obj
 0002:00009b88       ??_C@_06MBIMHMOE@desann?$AA@ 30093b88     bg_saberLoad.obj
 0002:00009b90       ??_C@_06DBFFGPJE@tavion?$AA@ 30093b90     bg_saberLoad.obj
 0002:00009b98       ??_C@_04IJNDAMHN@dual?$AA@ 30093b98     bg_saberLoad.obj
 0002:00009ba0       ??_C@_05DDLOIMOJ@staff?$AA@ 30093ba0     bg_saberLoad.obj
 0002:00009ba8       ??_C@_0L@CLLBMKKI@lightsaber?$AA@ 30093ba8     bg_saberLoad.obj
 0002:00009bb4       ??_C@_0CJ@PIIDACPD@models?1weapons2?1saber_reborn?1sab@ 30093bb4     bg_saberLoad.obj
 0002:00009be0       ??_C@_0CH@BHNNODOL@sound?1weapons?1saber?1enemy_saber_@ 30093be0     bg_saberLoad.obj
 0002:00009c08       ??_C@_0CC@LJCDHDAP@sound?1weapons?1saber?1saberhum3?4wa@ 30093c08     bg_saberLoad.obj
 0002:00009c2c       ??_C@_0CI@MHFGOOAJ@sound?1weapons?1saber?1enemy_saber_@ 30093c2c     bg_saberLoad.obj
 0002:00009c54       ??_C@_04FJIOCDAK@Kyle?$AA@ 30093c54     bg_saberLoad.obj
 0002:00009c5c       ??_C@_09KGFNABEN@saberinfo?$AA@ 30093c5c     bg_saberLoad.obj
 0002:00009c68       ??_C@_0CM@LKMGCIC@?$FO1ERROR?3?5unexpected?5EOF?5while?5pa@ 30093c68     bg_saberLoad.obj
 0002:00009c94       ??_C@_04MEMAJGDJ@name?$AA@ 30093c94     bg_saberLoad.obj
 0002:00009c9c       ??_C@_09NAGGCFBE@saberType?$AA@ 30093c9c     bg_saberLoad.obj
 0002:00009ca8       ??_C@_0L@MHEAGHEK@saberModel?$AA@ 30093ca8     bg_saberLoad.obj
 0002:00009cb4       ??_C@_0L@EKGCMDJL@customSkin?$AA@ 30093cb4     bg_saberLoad.obj
 0002:00009cc0       ??_C@_07IMONDDDH@soundOn?$AA@ 30093cc0     bg_saberLoad.obj
 0002:00009cc8       ??_C@_09LMHPKFJB@soundLoop?$AA@ 30093cc8     bg_saberLoad.obj
 0002:00009cd4       ??_C@_08IFIFNFKF@soundOff?$AA@ 30093cd4     bg_saberLoad.obj
 0002:00009ce0       ??_C@_09NEDLCGJM@numBlades?$AA@ 30093ce0     bg_saberLoad.obj
 0002:00009cf0       ??_C@_0EH@EGIFGFD@WP_SaberParseParms?3?5saber?5?$CFs?5has@ 30093cf0     bg_saberLoad.obj
 0002:00009d38       ??_C@_0L@OBCIJENM@saberColor?$AA@ 30093d38     bg_saberLoad.obj
 0002:00009d44       ??_C@_0CG@CGJEPIIF@?$FO3WARNING?3?5bad?5saberColor?5?8?$CFs?8?5i@ 30093d44     bg_saberLoad.obj
 0002:00009d6c       ??_C@_0M@MOIKADHG@saberLength?$AA@ 30093d6c     bg_saberLoad.obj
 0002:00009d78       ??_C@_0CH@KPGIKOPP@?$FO3WARNING?3?5bad?5saberLength?5?8?$CFs?8?5@ 30093d78     bg_saberLoad.obj
 0002:00009da0       ??_C@_0M@GAGBGIMM@saberRadius?$AA@ 30093da0     bg_saberLoad.obj
 0002:00009dac       ??_C@_0CH@KBCAKBPO@?$FO3WARNING?3?5bad?5saberRadius?5?8?$CFs?8?5@ 30093dac     bg_saberLoad.obj
 0002:00009dd4       ??_C@_0L@JFMMKNLG@saberStyle?$AA@ 30093dd4     bg_saberLoad.obj
 0002:00009de0       ??_C@_08GIHANBGF@maxChain?$AA@ 30093de0     bg_saberLoad.obj
 0002:00009dec       ??_C@_08BODNEOME@lockable?$AA@ 30093dec     bg_saberLoad.obj
 0002:00009df8       ??_C@_09ONPKMKJM@throwable?$AA@ 30093df8     bg_saberLoad.obj
 0002:00009e04       ??_C@_0L@CPEPMKHD@disarmable?$AA@ 30093e04     bg_saberLoad.obj
 0002:00009e10       ??_C@_08NPIAFDOA@blocking?$AA@ 30093e10     bg_saberLoad.obj
 0002:00009e1c       ??_C@_09BHFJEHJB@twoHanded?$AA@ 30093e1c     bg_saberLoad.obj
 0002:00009e28       ??_C@_0O@IDDONEJ@forceRestrict?$AA@ 30093e28     bg_saberLoad.obj
 0002:00009e38       ??_C@_09FHICMJAA@lockBonus?$AA@ 30093e38     bg_saberLoad.obj
 0002:00009e44       ??_C@_0L@MJIMNAKN@parryBonus?$AA@ 30093e44     bg_saberLoad.obj
 0002:00009e50       ??_C@_0BA@FKMMEMID@breakParryBonus?$AA@ 30093e50     bg_saberLoad.obj
 0002:00009e60       ??_C@_0M@CLGJNKL@disarmBonus?$AA@ 30093e60     bg_saberLoad.obj
 0002:00009e6c       ??_C@_0BB@MNBBHKPM@singleBladeStyle?$AA@ 30093e6c     bg_saberLoad.obj
 0002:00009e80       ??_C@_0BF@MFFEBKBA@singleBladeThrowable?$AA@ 30093e80     bg_saberLoad.obj
 0002:00009e98       ??_C@_0N@MAFMJFFN@brokenSaber1?$AA@ 30093e98     bg_saberLoad.obj
 0002:00009ea8       ??_C@_0N@OLHBMGJO@brokenSaber2?$AA@ 30093ea8     bg_saberLoad.obj
 0002:00009eb8       ??_C@_0N@BLLLLBJF@returnDamage?$AA@ 30093eb8     bg_saberLoad.obj
 0002:00009ec8       ??_C@_07POBCBIAL@notInMP?$AA@ 30093ec8     bg_saberLoad.obj
 0002:00009ed0       ??_C@_06LEMKAMD@remove?$AA@ 30093ed0     bg_saberLoad.obj
 0002:00009ed8       ??_C@_04CAHIDOMH@?4sab?$AA@ 30093ed8     bg_saberLoad.obj
 0002:00009ee0       ??_C@_0BA@MIBHFBCE@ext_data?1sabers?$AA@ 30093ee0     bg_saberLoad.obj
 0002:00009ef0       ??_C@_0BD@NNPCBGHA@ext_data?1sabers?1?$CFs?$AA@ 30093ef0     bg_saberLoad.obj
 0002:00009f04       ??_C@_0BE@DJGNLOAI@error?5reading?5file?6?$AA@ 30093f04     bg_saberLoad.obj
 0002:00009f18       ??_C@_0CH@GILDEJCA@Saber?5extensions?5?$CI?$CK?4sab?$CJ?5are?5too@ 30093f18     bg_saberLoad.obj
 0002:00009f40       ??_C@_01EEMJAFIK@?6?$AA@   30093f40     bg_saberLoad.obj
 0002:00009f48       __real@3f847ae147ae147b    30093f48     bg_saberLoad.obj
 0002:00009f50       ??_C@_0BB@OIJDKHFE@CFL_MORESABERDMG?$AA@ 30093f50     bg_saga.obj
 0002:00009f64       ??_C@_0BK@JLDBMALB@CFL_STRONGAGAINSTPHYSICAL?$AA@ 30093f64     bg_saga.obj
 0002:00009f80       ??_C@_0BD@DNMLPLIL@CFL_FASTFORCEREGEN?$AA@ 30093f80     bg_saga.obj
 0002:00009f94       ??_C@_0P@DKGINMOP@CFL_STATVIEWER?$AA@ 30093f94     bg_saga.obj
 0002:00009fa4       ??_C@_0P@NCLEBEDM@CFL_HEAVYMELEE?$AA@ 30093fa4     bg_saga.obj
 0002:00009fb4       ??_C@_0BC@LICHKKD@CFL_SINGLE_ROCKET?$AA@ 30093fb4     bg_saga.obj
 0002:00009fc8       ??_C@_0P@LBJDDHDM@CFL_CUSTOMSKEL?$AA@ 30093fc8     bg_saga.obj
 0002:00009fd8       ??_C@_0P@KICFDAJ@CFL_EXTRA_AMMO?$AA@ 30093fd8     bg_saga.obj
 0002:00009fe8       ??_C@_07HNCPCIHC@SS_NONE?$AA@ 30093fe8     bg_saga.obj
 0002:00009ff0       ??_C@_07OKKHAHLD@SS_FAST?$AA@ 30093ff0     bg_saga.obj
 0002:00009ff8       ??_C@_09JHAJINFA@SS_MEDIUM?$AA@ 30093ff8     bg_saga.obj
 0002:0000a004       ??_C@_09EIDFCCBI@SS_STRONG?$AA@ 30094004     bg_saga.obj
 0002:0000a010       ??_C@_09COLLLEKM@SS_DESANN?$AA@ 30094010     bg_saga.obj
 0002:0000a01c       ??_C@_09NOGCKHNM@SS_TAVION?$AA@ 3009401c     bg_saga.obj
 0002:0000a028       ??_C@_07NCKFHLFM@SS_DUAL?$AA@ 30094028     bg_saga.obj
 0002:0000a030       ??_C@_08OKAIMOGC@SS_STAFF?$AA@ 30094030     bg_saga.obj
 0002:0000a03c       ??_C@_0O@NNFLCPNL@WP_STUN_BATON?$AA@ 3009403c     bg_saga.obj
 0002:0000a04c       ??_C@_08IGDGHABD@WP_MELEE?$AA@ 3009404c     bg_saga.obj
 0002:0000a058       ??_C@_08KPDGEGJN@WP_SABER?$AA@ 30094058     bg_saga.obj
 0002:0000a064       ??_C@_0BA@GBAOKNDN@WP_BRYAR_PISTOL?$AA@ 30094064     bg_saga.obj
 0002:0000a074       ??_C@_0BC@LEINJGEK@WP_BLASTER_PISTOL?$AA@ 30094074     bg_saga.obj
 0002:0000a088       ??_C@_0L@DIBFNABM@WP_BLASTER?$AA@ 30094088     bg_saga.obj
 0002:0000a094       ??_C@_0N@KLINONG@WP_DISRUPTOR?$AA@ 30094094     bg_saga.obj
 0002:0000a0a4       ??_C@_0N@ODCPPBBA@WP_BOWCASTER?$AA@ 300940a4     bg_saga.obj
 0002:0000a0b4       ??_C@_0M@GCNBMEBC@WP_REPEATER?$AA@ 300940b4     bg_saga.obj
 0002:0000a0c0       ??_C@_08GDBGMIBE@WP_DEMP2?$AA@ 300940c0     bg_saga.obj
 0002:0000a0cc       ??_C@_0N@DNBPCFMC@WP_FLECHETTE?$AA@ 300940cc     bg_saga.obj
 0002:0000a0dc       ??_C@_0BD@JBJHCOEB@WP_ROCKET_LAUNCHER?$AA@ 300940dc     bg_saga.obj
 0002:0000a0f0       ??_C@_0L@COCGCIBD@WP_THERMAL?$AA@ 300940f0     bg_saga.obj
 0002:0000a0fc       ??_C@_0N@OGLOKOOO@WP_TRIP_MINE?$AA@ 300940fc     bg_saga.obj
 0002:0000a10c       ??_C@_0M@EOMDDGDC@WP_DET_PACK?$AA@ 3009410c     bg_saga.obj
 0002:0000a118       ??_C@_0O@MNNKJNKC@WP_CONCUSSION?$AA@ 30094118     bg_saga.obj
 0002:0000a128       ??_C@_0N@OIFGJENP@WP_BRYAR_OLD?$AA@ 30094128     bg_saga.obj
 0002:0000a138       ??_C@_0BA@HPLIMHOO@WP_EMPLACED_GUN?$AA@ 30094138     bg_saga.obj
 0002:0000a148       ??_C@_09LJGBHCLN@WP_TURRET?$AA@ 30094148     bg_saga.obj
 0002:0000a154       ??_C@_07ECPPOEBA@FP_HEAL?$AA@ 30094154     bg_saga.obj
 0002:0000a15c       ??_C@_0O@GOCMKMCC@FP_LEVITATION?$AA@ 3009415c     bg_saga.obj
 0002:0000a16c       ??_C@_08MIECCDPD@FP_SPEED?$AA@ 3009416c     bg_saga.obj
 0002:0000a178       ??_C@_07DJLINNNG@FP_PUSH?$AA@ 30094178     bg_saga.obj
 0002:0000a180       ??_C@_07EKKOPMJP@FP_PULL?$AA@ 30094180     bg_saga.obj
 0002:0000a188       ??_C@_0N@EOKHLCHN@FP_TELEPATHY?$AA@ 30094188     bg_saga.obj
 0002:0000a198       ??_C@_07OFAFBAAC@FP_GRIP?$AA@ 30094198     bg_saga.obj
 0002:0000a1a0       ??_C@_0N@MLCJOEAL@FP_LIGHTNING?$AA@ 300941a0     bg_saga.obj
 0002:0000a1b0       ??_C@_07DCICDLJP@FP_RAGE?$AA@ 300941b0     bg_saga.obj
 0002:0000a1b8       ??_C@_0L@GMEKEMHM@FP_PROTECT?$AA@ 300941b8     bg_saga.obj
 0002:0000a1c4       ??_C@_09MANKLPPB@FP_ABSORB?$AA@ 300941c4     bg_saga.obj
 0002:0000a1d0       ??_C@_0N@MKMKNEAO@FP_TEAM_HEAL?$AA@ 300941d0     bg_saga.obj
 0002:0000a1e0       ??_C@_0O@FDDGJKAO@FP_TEAM_FORCE?$AA@ 300941e0     bg_saga.obj
 0002:0000a1f0       ??_C@_08NAMGMEAJ@FP_DRAIN?$AA@ 300941f0     bg_saga.obj
 0002:0000a1fc       ??_C@_06NBGCGEAI@FP_SEE?$AA@ 300941fc     bg_saga.obj
 0002:0000a204       ??_C@_0BB@IIFNHLOA@FP_SABER_OFFENSE?$AA@ 30094204     bg_saga.obj
 0002:0000a218       ??_C@_0BB@OENPHNCL@FP_SABER_DEFENSE?$AA@ 30094218     bg_saga.obj
 0002:0000a22c       ??_C@_0O@HFIJJPHA@FP_SABERTHROW?$AA@ 3009422c     bg_saga.obj
 0002:0000a23c       ??_C@_07JPFAMGIP@HI_NONE?$AA@ 3009423c     bg_saga.obj
 0002:0000a244       ??_C@_09FNJEOG@HI_SEEKER?$AA@ 30094244     bg_saga.obj
 0002:0000a250       ??_C@_09IKKFJDFC@HI_SHIELD?$AA@ 30094250     bg_saga.obj
 0002:0000a25c       ??_C@_09NJBEABJH@HI_MEDPAC?$AA@ 3009425c     bg_saga.obj
 0002:0000a268       ??_C@_0O@LLNJKJCO@HI_MEDPAC_BIG?$AA@ 30094268     bg_saga.obj
 0002:0000a278       ??_C@_0O@ELJADNKI@HI_BINOCULARS?$AA@ 30094278     bg_saga.obj
 0002:0000a288       ??_C@_0O@FBGGHEEG@HI_SENTRY_GUN?$AA@ 30094288     bg_saga.obj
 0002:0000a298       ??_C@_0L@HECMIPKK@HI_JETPACK?$AA@ 30094298     bg_saga.obj
 0002:0000a2a4       ??_C@_0O@CACPKEEP@HI_HEALTHDISP?$AA@ 300942a4     bg_saga.obj
 0002:0000a2b4       ??_C@_0M@GINCEKMK@HI_AMMODISP?$AA@ 300942b4     bg_saga.obj
 0002:0000a2c0       ??_C@_07DODJPBMI@HI_EWEB?$AA@ 300942c0     bg_saga.obj
 0002:0000a2c8       ??_C@_08CKJOPOAO@HI_CLOAK?$AA@ 300942c8     bg_saga.obj
 0002:0000a2d4       ??_C@_07HOPALIC@PW_NONE?$AA@ 300942d4     bg_saga.obj
 0002:0000a2dc       ??_C@_07MILMMKFG@PW_QUAD?$AA@ 300942dc     bg_saga.obj
 0002:0000a2e4       ??_C@_0O@MMBFHIEB@PW_BATTLESUIT?$AA@ 300942e4     bg_saga.obj
 0002:0000a2f4       ??_C@_07DFNNPKLN@PW_PULL?$AA@ 300942f4     bg_saga.obj
 0002:0000a2fc       ??_C@_0L@EHANBCOH@PW_REDFLAG?$AA@ 300942fc     bg_saga.obj
 0002:0000a308       ??_C@_0M@MJPEKDEL@PW_BLUEFLAG?$AA@ 30094308     bg_saga.obj
 0002:0000a314       ??_C@_0P@IBLDCDDO@PW_NEUTRALFLAG?$AA@ 30094314     bg_saga.obj
 0002:0000a324       ??_C@_0N@GHPJGBHC@PW_SHIELDHIT?$AA@ 30094324     bg_saga.obj
 0002:0000a334       ??_C@_0O@ENGHHLHL@PW_SPEEDBURST?$AA@ 30094334     bg_saga.obj
 0002:0000a344       ??_C@_0M@FBGLLBBK@PW_DISINT_4?$AA@ 30094344     bg_saga.obj
 0002:0000a350       ??_C@_08BNFNBBBB@PW_SPEED?$AA@ 30094350     bg_saga.obj
 0002:0000a35c       ??_C@_0L@LJAIJPE@PW_CLOAKED?$AA@ 3009435c     bg_saga.obj
 0002:0000a368       ??_C@_0BL@EBGCPDCI@PW_FORCE_ENLIGHTENED_LIGHT?$AA@ 30094368     bg_saga.obj
 0002:0000a384       ??_C@_0BK@MOILIMDA@PW_FORCE_ENLIGHTENED_DARK?$AA@ 30094384     bg_saga.obj
 0002:0000a3a0       ??_C@_0O@IGDAJBEG@PW_FORCE_BOON?$AA@ 300943a0     bg_saga.obj
 0002:0000a3b0       ??_C@_0N@POBOEFDG@PW_YSALAMIRI?$AA@ 300943b0     bg_saga.obj
 0002:0000a3c0       ??_C@_08GMEOELGB@infantry?$AA@ 300943c0     bg_saga.obj
 0002:0000a3cc       ??_C@_08KMDKBEDF@vanguard?$AA@ 300943cc     bg_saga.obj
 0002:0000a3d8       ??_C@_07ILMBEDPO@support?$AA@ 300943d8     bg_saga.obj
 0002:0000a3e0       ??_C@_0N@DFCFOLOG@jedi_general?$AA@ 300943e0     bg_saga.obj
 0002:0000a3f0       ??_C@_0O@FEHNADND@demolitionist?$AA@ 300943f0     bg_saga.obj
 0002:0000a400       ??_C@_0O@OALEAKPJ@heavy_weapons?$AA@ 30094400     bg_saga.obj
 0002:0000a410       ??_C@_0CM@DMIPCGDB@Unexpected?5EOF?5while?5looking?5for@ 30094410     bg_saga.obj
 0002:0000a440       ??_C@_0FA@EHNNLFND@Found?5a?5closing?5bracket?5without?5@ 30094440     bg_saga.obj
 0002:0000a490       ??_C@_0CI@BBIKCBO@Group?5?8?$CFs?8?5is?5missing?5a?5closing?5@ 30094490     bg_saga.obj
 0002:0000a4b8       ??_C@_0GA@DIGHOEOC@Error?5parsing?5group?5in?5file?0?5une@ 300944b8     bg_saga.obj
 0002:0000a518       ??_C@_0FJ@KOGMAIHK@Found?5an?5opening?5bracket?5without@ 30094518     bg_saga.obj
 0002:0000a578       ??_C@_0EJ@GJJGBCAC@Unexpected?5closing?5bracket?5?$CItoo?5@ 30094578     bg_saga.obj
 0002:0000a5c8       ??_C@_0EP@OCHOIPPN@Unexpected?5EOF?5while?5looking?5for@ 300945c8     bg_saga.obj
 0002:0000a618       ??_C@_0FH@PHDPJEBI@Unexpected?5EOF?5while?5looking?5for@ 30094618     bg_saga.obj
 0002:0000a670       ??_C@_0EA@CICFFHLL@Error?5parsing?5file?0?5unexpected?5E@ 30094670     bg_saga.obj
 0002:0000a6b0       ??_C@_0DL@MANGCKOJ@Error?5parsing?5file?0?5found?5commen@ 300946b0     bg_saga.obj
 0002:0000a6ec       ??_C@_06PFGBHLNK@FP_ALL?$AA@ 300946ec     bg_saga.obj
 0002:0000a6f4       ??_C@_07IHELEENG@FP_JUMP?$AA@ 300946f4     bg_saga.obj
 0002:0000a6fc       ??_C@_0M@PPJNHBMP@description?$AA@ 300946fc     bg_saga.obj
 0002:0000a708       ??_C@_0BI@JBHHAHFA@DESCRIPTION?5UNAVAILABLE?$AA@ 30094708     bg_saga.obj
 0002:0000a720       ??_C@_09LPPNDGJE@ClassInfo?$AA@ 30094720     bg_saga.obj
 0002:0000a72c       ??_C@_0BP@JPFHBDB@Siege?5class?5without?5name?5entry?$AA@ 3009472c     bg_saga.obj
 0002:0000a74c       ??_C@_05NCCFOPHA@model?$AA@ 3009474c     bg_saga.obj
 0002:0000a754       ??_C@_04NHPAFEHJ@skin?$AA@ 30094754     bg_saga.obj
 0002:0000a75c       ??_C@_06CJJKOFI@saber1?$AA@ 3009475c     bg_saga.obj
 0002:0000a764       ??_C@_06CJLEPNJL@saber2?$AA@ 30094764     bg_saga.obj
 0002:0000a76c       ??_C@_0L@JCGAKIIA@saberstyle?$AA@ 3009476c     bg_saga.obj
 0002:0000a778       ??_C@_0L@OGIEJBOK@sabercolor?$AA@ 30094778     bg_saga.obj
 0002:0000a784       ??_C@_0M@OOLLFDOG@saber2color?$AA@ 30094784     bg_saga.obj
 0002:0000a790       ??_C@_07PKKCMMCH@weapons?$AA@ 30094790     bg_saga.obj
 0002:0000a798       ??_C@_0CC@FAKKFGGN@Siege?5class?5without?5weapons?5entr@ 30094798     bg_saga.obj
 0002:0000a7bc       ??_C@_0M@IOJHBENM@forcepowers?$AA@ 300947bc     bg_saga.obj
 0002:0000a7c8       ??_C@_0L@GKKNICAL@classflags?$AA@ 300947c8     bg_saga.obj
 0002:0000a7d4       ??_C@_09MHNPKMIF@maxhealth?$AA@ 300947d4     bg_saga.obj
 0002:0000a7e0       ??_C@_0M@JKHBPLJM@starthealth?$AA@ 300947e0     bg_saga.obj
 0002:0000a7ec       ??_C@_08KAGIGECM@maxarmor?$AA@ 300947ec     bg_saga.obj
 0002:0000a7f8       ??_C@_0L@GGCEHPNG@startarmor?$AA@ 300947f8     bg_saga.obj
 0002:0000a804       ??_C@_05HJCMGBKF@speed?$AA@ 30094804     bg_saga.obj
 0002:0000a80c       ??_C@_08BGECLNMM@uishader?$AA@ 3009480c     bg_saga.obj
 0002:0000a818       ??_C@_0CD@GDIFDMKP@Siege?5class?5without?5uishader?5ent@ 30094818     bg_saga.obj
 0002:0000a83c       ??_C@_0N@NNMCCMOK@class_shader?$AA@ 3009483c     bg_saga.obj
 0002:0000a84c       ??_C@_0DE@BHILLBOP@ERROR?3?5could?5not?5find?5class_shad@ 3009484c     bg_saga.obj
 0002:0000a880       ??_C@_0CN@HKDFKNIC@ERROR?3?5no?5class_shader?5defined?5f@ 30094880     bg_saga.obj
 0002:0000a8b0       ??_C@_09LOIGNDON@holdables?$AA@ 300948b0     bg_saga.obj
 0002:0000a8bc       ??_C@_08BOHIELLL@powerups?$AA@ 300948bc     bg_saga.obj
 0002:0000a8c8       ??_C@_04LNHPMHCH@?4scl?$AA@ 300948c8     bg_saga.obj
 0002:0000a8d0       ??_C@_0BH@NCMEBBFN@ext_data?1Siege?1Classes?$AA@ 300948d0     bg_saga.obj
 0002:0000a8e8       ??_C@_0BI@HBENBDF@ext_data?1Siege?1Classes?1?$AA@ 300948e8     bg_saga.obj
 0002:0000a900       ??_C@_0CD@FDGFFIBB@Siege?5team?5with?5no?5name?5definiti@ 30094900     bg_saga.obj
 0002:0000a924       ??_C@_0P@JEMEFMOF@FriendlyShader?$AA@ 30094924     bg_saga.obj
 0002:0000a934       ??_C@_07DPIHKJGF@Classes?$AA@ 30094934     bg_saga.obj
 0002:0000a93c       ??_C@_07GEGLMCI@class?$CFi?$AA@ 3009493c     bg_saga.obj
 0002:0000a944       ??_C@_0BO@LFIIBAMC@Invalid?5class?5specified?3?5?8?$CFs?8?$AA@ 30094944     bg_saga.obj
 0002:0000a964       ??_C@_0CI@JBGGEKDP@Team?5defined?5with?5no?5allowable?5c@ 30094964     bg_saga.obj
 0002:0000a98c       ??_C@_05OKHHMPNJ@?4team?$AA@ 3009498c     bg_saga.obj
 0002:0000a994       ??_C@_0BF@KACDOLPP@ext_data?1Siege?1Teams?$AA@ 30094994     bg_saga.obj
 0002:0000a9ac       ??_C@_0BG@DPLOPEAL@ext_data?1Siege?1Teams?1?$AA@ 300949ac     bg_saga.obj
 0002:0000a9c4       ??_C@_0BE@FLPNHHPN@?$CFi?3bend?5can?8t?5step?6?$AA@ 300949c4     bg_slidemove.obj
 0002:0000a9d8       ??_C@_0M@CDHDENEF@?$CFi?3stepped?6?$AA@ 300949d8     bg_slidemove.obj
 0002:0000a9e4       __real@41300000            300949e4     bg_slidemove.obj
 0002:0000a9e8       __real@42340000            300949e8     bg_slidemove.obj
 0002:0000a9ec       __real@42840000            300949ec     bg_slidemove.obj
 0002:0000a9f0       __real@44fa0000            300949f0     bg_slidemove.obj
 0002:0000a9f4       __real@c2340000            300949f4     bg_slidemove.obj
 0002:0000a9f8       ??_C@_04GPMDFGEJ@type?$AA@ 300949f8     bg_vehicleLoad.obj
 0002:0000aa00       ??_C@_08FEOKBMLD@numHands?$AA@ 30094a00     bg_vehicleLoad.obj
 0002:0000aa0c       ??_C@_09EPEKCJNM@lookPitch?$AA@ 30094a0c     bg_vehicleLoad.obj
 0002:0000aa18       ??_C@_07OIEJFMLD@lookYaw?$AA@ 30094a18     bg_vehicleLoad.obj
 0002:0000aa20       ??_C@_06IJDLPEM@length?$AA@ 30094a20     bg_vehicleLoad.obj
 0002:0000aa28       ??_C@_0BA@BPLGJHPJ@centerOfGravity?$AA@ 30094a28     bg_vehicleLoad.obj
 0002:0000aa38       ??_C@_08FGAAHLPO@speedMax?$AA@ 30094a38     bg_vehicleLoad.obj
 0002:0000aa44       ??_C@_0L@MLDLGLOI@turboSpeed?$AA@ 30094a44     bg_vehicleLoad.obj
 0002:0000aa50       ??_C@_08EEILJPJB@speedMin?$AA@ 30094a50     bg_vehicleLoad.obj
 0002:0000aa5c       ??_C@_09JLKIBNNM@speedIdle?$AA@ 30094a5c     bg_vehicleLoad.obj
 0002:0000aa68       ??_C@_09HICLJFH@accelIdle?$AA@ 30094a68     bg_vehicleLoad.obj
 0002:0000aa74       ??_C@_0N@OKFAMOHD@acceleration?$AA@ 30094a74     bg_vehicleLoad.obj
 0002:0000aa84       ??_C@_09JCLBALJJ@decelIdle?$AA@ 30094a84     bg_vehicleLoad.obj
 0002:0000aa90       ??_C@_0P@HHEMMPFK@throttleSticks?$AA@ 30094a90     bg_vehicleLoad.obj
 0002:0000aaa0       ??_C@_0L@FDBPLPOD@strafePerc?$AA@ 30094aa0     bg_vehicleLoad.obj
 0002:0000aaac       ??_C@_0N@ENHLHJGE@bankingSpeed?$AA@ 30094aac     bg_vehicleLoad.obj
 0002:0000aabc       ??_C@_0L@CFHLLIPB@pitchLimit?$AA@ 30094abc     bg_vehicleLoad.obj
 0002:0000aac8       ??_C@_09IPOAKDJE@rollLimit?$AA@ 30094ac8     bg_vehicleLoad.obj
 0002:0000aad4       ??_C@_07HAHFHPDC@braking?$AA@ 30094ad4     bg_vehicleLoad.obj
 0002:0000aadc       ??_C@_08EAELEJGF@mouseYaw?$AA@ 30094adc     bg_vehicleLoad.obj
 0002:0000aae8       ??_C@_0L@PFPFAHKM@mousePitch?$AA@ 30094ae8     bg_vehicleLoad.obj
 0002:0000aaf4       ??_C@_0N@BEECELKI@turningSpeed?$AA@ 30094af4     bg_vehicleLoad.obj
 0002:0000ab04       ??_C@_0BA@DEALIFEA@turnWhenStopped?$AA@ 30094b04     bg_vehicleLoad.obj
 0002:0000ab14       ??_C@_08LOEOBHC@traction?$AA@ 30094b14     bg_vehicleLoad.obj
 0002:0000ab20       ??_C@_08LKDNMFOC@friction?$AA@ 30094b20     bg_vehicleLoad.obj
 0002:0000ab2c       ??_C@_08IOPKEDDJ@maxSlope?$AA@ 30094b2c     bg_vehicleLoad.obj
 0002:0000ab38       ??_C@_0BG@HOKPMJKB@speedDependantTurning?$AA@ 30094b38     bg_vehicleLoad.obj
 0002:0000ab50       ??_C@_04IJEANHEE@mass?$AA@ 30094b50     bg_vehicleLoad.obj
 0002:0000ab58       ??_C@_05JJEJIJLL@armor?$AA@ 30094b58     bg_vehicleLoad.obj
 0002:0000ab60       ??_C@_07EEEOBDLK@shields?$AA@ 30094b60     bg_vehicleLoad.obj
 0002:0000ab68       ??_C@_0BB@BMKKPECK@shieldRechargeMS?$AA@ 30094b68     bg_vehicleLoad.obj
 0002:0000ab7c       ??_C@_09FGFEKOJH@toughness?$AA@ 30094b7c     bg_vehicleLoad.obj
 0002:0000ab88       ??_C@_0BG@ICOPODEK@malfunctionArmorLevel?$AA@ 30094b88     bg_vehicleLoad.obj
 0002:0000aba0       ??_C@_0BA@PLDNJPJN@surfDestruction?$AA@ 30094ba0     bg_vehicleLoad.obj
 0002:0000abb0       ??_C@_08CCPHKHEL@g2radius?$AA@ 30094bb0     bg_vehicleLoad.obj
 0002:0000abbc       ??_C@_09PMPDIAJG@riderAnim?$AA@ 30094bbc     bg_vehicleLoad.obj
 0002:0000abc8       ??_C@_08EJIADHP@droidNPC?$AA@ 30094bc8     bg_vehicleLoad.obj
 0002:0000abd4       ??_C@_09FONOLKPA@radarIcon?$AA@ 30094bd4     bg_vehicleLoad.obj
 0002:0000abe0       ??_C@_0O@DJHCJKGN@dmgIndicFrame?$AA@ 30094be0     bg_vehicleLoad.obj
 0002:0000abf0       ??_C@_0P@FPBFALOJ@dmgIndicShield?$AA@ 30094bf0     bg_vehicleLoad.obj
 0002:0000ac00       ??_C@_0BD@KLFJKOII@dmgIndicBackground?$AA@ 30094c00     bg_vehicleLoad.obj
 0002:0000ac14       ??_C@_0L@CBPHNOBK@icon_front?$AA@ 30094c14     bg_vehicleLoad.obj
 0002:0000ac20       ??_C@_09NHADEJIB@icon_back?$AA@ 30094c20     bg_vehicleLoad.obj
 0002:0000ac2c       ??_C@_0L@GPLJGMFJ@icon_right?$AA@ 30094c2c     bg_vehicleLoad.obj
 0002:0000ac38       ??_C@_09CMMAKMMC@icon_left?$AA@ 30094c38     bg_vehicleLoad.obj
 0002:0000ac44       ??_C@_0BA@FMKKHFFJ@crosshairShader?$AA@ 30094c44     bg_vehicleLoad.obj
 0002:0000ac54       ??_C@_0N@JONDFKLC@shieldShader?$AA@ 30094c54     bg_vehicleLoad.obj
 0002:0000ac64       ??_C@_0N@CDHFELM@health_front?$AA@ 30094c64     bg_vehicleLoad.obj
 0002:0000ac74       ??_C@_0M@MOOOFAHG@health_back?$AA@ 30094c74     bg_vehicleLoad.obj
 0002:0000ac80       ??_C@_0N@EMHJOGPP@health_right?$AA@ 30094c80     bg_vehicleLoad.obj
 0002:0000ac90       ??_C@_0M@DFCNLFDF@health_left?$AA@ 30094c90     bg_vehicleLoad.obj
 0002:0000ac9c       ??_C@_0N@JPGBMOIF@soundTakeOff?$AA@ 30094c9c     bg_vehicleLoad.obj
 0002:0000acac       ??_C@_0BB@GGMAFHFB@soundEngineStart?$AA@ 30094cac     bg_vehicleLoad.obj
 0002:0000acc0       ??_C@_09IGHJKBGG@soundSpin?$AA@ 30094cc0     bg_vehicleLoad.obj
 0002:0000accc       ??_C@_0L@BNNFFMJG@soundTurbo?$AA@ 30094ccc     bg_vehicleLoad.obj
 0002:0000acd8       ??_C@_0L@PMBLMBGF@soundHyper?$AA@ 30094cd8     bg_vehicleLoad.obj
 0002:0000ace4       ??_C@_09HDMMGPMA@soundLand?$AA@ 30094ce4     bg_vehicleLoad.obj
 0002:0000acf0       ??_C@_0L@MNOPHOMD@soundFlyBy?$AA@ 30094cf0     bg_vehicleLoad.obj
 0002:0000acfc       ??_C@_0M@OPNACIAF@soundFlyBy2?$AA@ 30094cfc     bg_vehicleLoad.obj
 0002:0000ad08       ??_C@_0M@CNOCLGAB@soundShift1?$AA@ 30094d08     bg_vehicleLoad.obj
 0002:0000ad14       ??_C@_0M@GMPOFMC@soundShift2?$AA@ 30094d14     bg_vehicleLoad.obj
 0002:0000ad20       ??_C@_0M@BPNENEID@soundShift3?$AA@ 30094d20     bg_vehicleLoad.obj
 0002:0000ad2c       ??_C@_0M@FAJFECEE@soundShift4?$AA@ 30094d2c     bg_vehicleLoad.obj
 0002:0000ad38       ??_C@_09EJLKNCKH@exhaustFX?$AA@ 30094d38     bg_vehicleLoad.obj
 0002:0000ad44       ??_C@_07MMLPAJOM@turboFX?$AA@ 30094d44     bg_vehicleLoad.obj
 0002:0000ad4c       ??_C@_0N@KHLFFGCJ@turboStartFX?$AA@ 30094d4c     bg_vehicleLoad.obj
 0002:0000ad5c       ??_C@_07OJDPNJKI@trailFX?$AA@ 30094d5c     bg_vehicleLoad.obj
 0002:0000ad64       ??_C@_09BPBLMDGM@explodeFX?$AA@ 30094d64     bg_vehicleLoad.obj
 0002:0000ad70       ??_C@_06GMJLHFJI@wakeFX?$AA@ 30094d70     bg_vehicleLoad.obj
 0002:0000ad78       ??_C@_05BMHOEJHI@dmgFX?$AA@ 30094d78     bg_vehicleLoad.obj
 0002:0000ad80       ??_C@_08NBOBHDEO@injureFX?$AA@ 30094d80     bg_vehicleLoad.obj
 0002:0000ad8c       ??_C@_06PEEHBBLG@noseFX?$AA@ 30094d8c     bg_vehicleLoad.obj
 0002:0000ad94       ??_C@_07JNCLAFON@lwingFX?$AA@ 30094d94     bg_vehicleLoad.obj
 0002:0000ad9c       ??_C@_07PEBKCGPE@rwingFX?$AA@ 30094d9c     bg_vehicleLoad.obj
 0002:0000ada4       ??_C@_05BIPOGEJM@weap1?$AA@ 30094da4     bg_vehicleLoad.obj
 0002:0000adac       ??_C@_05DDNDDHFP@weap2?$AA@ 30094dac     bg_vehicleLoad.obj
 0002:0000adb4       ??_C@_0L@JOPAPHJC@weap1Delay?$AA@ 30094db4     bg_vehicleLoad.obj
 0002:0000adc0       ??_C@_0L@KPBIONAP@weap2Delay?$AA@ 30094dc0     bg_vehicleLoad.obj
 0002:0000adcc       ??_C@_09DOHGDAAC@weap1Link?$AA@ 30094dcc     bg_vehicleLoad.obj
 0002:0000add8       ??_C@_09LIOCECKM@weap2Link?$AA@ 30094dd8     bg_vehicleLoad.obj
 0002:0000ade4       ??_C@_08BLGAOKCJ@weap1Aim?$AA@ 30094de4     bg_vehicleLoad.obj
 0002:0000adf0       ??_C@_08FMMAJAPJ@weap2Aim?$AA@ 30094df0     bg_vehicleLoad.obj
 0002:0000adfc       ??_C@_0N@LOHHABAP@weap1AmmoMax?$AA@ 30094dfc     bg_vehicleLoad.obj
 0002:0000ae0c       ??_C@_0N@IHPKDNMK@weap2AmmoMax?$AA@ 30094e0c     bg_vehicleLoad.obj
 0002:0000ae1c       ??_C@_0BE@DHCAAGBM@weap1AmmoRechargeMS?$AA@ 30094e1c     bg_vehicleLoad.obj
 0002:0000ae30       ??_C@_0BE@BOOILCOO@weap2AmmoRechargeMS?$AA@ 30094e30     bg_vehicleLoad.obj
 0002:0000ae44       ??_C@_0BB@EBOBGHDB@weap1SoundNoAmmo?$AA@ 30094e44     bg_vehicleLoad.obj
 0002:0000ae58       ??_C@_0BB@PMCLALPP@weap2SoundNoAmmo?$AA@ 30094e58     bg_vehicleLoad.obj
 0002:0000ae6c       ??_C@_0M@NHFPHPLB@weapMuzzle1?$AA@ 30094e6c     bg_vehicleLoad.obj
 0002:0000ae78       ??_C@_0M@PMHCCMHC@weapMuzzle2?$AA@ 30094e78     bg_vehicleLoad.obj
 0002:0000ae84       ??_C@_0M@OFGJBNDD@weapMuzzle3?$AA@ 30094e84     bg_vehicleLoad.obj
 0002:0000ae90       ??_C@_0M@KKCIILPE@weapMuzzle4?$AA@ 30094e90     bg_vehicleLoad.obj
 0002:0000ae9c       ??_C@_0M@LDDDLKLF@weapMuzzle5?$AA@ 30094e9c     bg_vehicleLoad.obj
 0002:0000aea8       ??_C@_0M@JIBOOJHG@weapMuzzle6?$AA@ 30094ea8     bg_vehicleLoad.obj
 0002:0000aeb4       ??_C@_0M@IBAFNIDH@weapMuzzle7?$AA@ 30094eb4     bg_vehicleLoad.obj
 0002:0000aec0       ??_C@_0M@GJNMEPI@weapMuzzle8?$AA@ 30094ec0     bg_vehicleLoad.obj
 0002:0000aecc       ??_C@_0M@BPIGPFLJ@weapMuzzle9?$AA@ 30094ecc     bg_vehicleLoad.obj
 0002:0000aed8       ??_C@_0N@GDPHOKJG@weapMuzzle10?$AA@ 30094ed8     bg_vehicleLoad.obj
 0002:0000aee8       ??_C@_0O@JIDEEHO@landingHeight?$AA@ 30094ee8     bg_vehicleLoad.obj
 0002:0000aef8       ??_C@_07GFBFDLBM@gravity?$AA@ 30094ef8     bg_vehicleLoad.obj
 0002:0000af00       ??_C@_0M@HKBHLPFK@hoverHeight?$AA@ 30094f00     bg_vehicleLoad.obj
 0002:0000af0c       ??_C@_0O@JOCPMJAA@hoverStrength?$AA@ 30094f0c     bg_vehicleLoad.obj
 0002:0000af1c       ??_C@_0L@KPACIHBI@waterProof?$AA@ 30094f1c     bg_vehicleLoad.obj
 0002:0000af28       ??_C@_08DLBCDKOK@bouyancy?$AA@ 30094f28     bg_vehicleLoad.obj
 0002:0000af34       ??_C@_07PBHPKAIK@fuelMax?$AA@ 30094f34     bg_vehicleLoad.obj
 0002:0000af3c       ??_C@_08POLMHDEL@fuelRate?$AA@ 30094f3c     bg_vehicleLoad.obj
 0002:0000af48       ??_C@_0O@LHGBPOCO@turboDuration?$AA@ 30094f48     bg_vehicleLoad.obj
 0002:0000af58       ??_C@_0O@DAFJHCFD@turboRecharge?$AA@ 30094f58     bg_vehicleLoad.obj
 0002:0000af68       ??_C@_0L@CNKMJODB@visibility?$AA@ 30094f68     bg_vehicleLoad.obj
 0002:0000af74       ??_C@_08PPAAKLBH@loudness?$AA@ 30094f74     bg_vehicleLoad.obj
 0002:0000af80       ??_C@_0BA@LKLGPLNG@explosionRadius?$AA@ 30094f80     bg_vehicleLoad.obj
 0002:0000af90       ??_C@_0BA@HFCGNKHF@explosionDamage?$AA@ 30094f90     bg_vehicleLoad.obj
 0002:0000afa0       ??_C@_0O@NGNHGBJN@maxPassengers?$AA@ 30094fa0     bg_vehicleLoad.obj
 0002:0000afb0       ??_C@_09JBJPOHNK@hideRider?$AA@ 30094fb0     bg_vehicleLoad.obj
 0002:0000afbc       ??_C@_0BB@PDHEMPIJ@killRiderOnDeath?$AA@ 30094fbc     bg_vehicleLoad.obj
 0002:0000afd0       ??_C@_09FEKLMMFJ@flammable?$AA@ 30094fd0     bg_vehicleLoad.obj
 0002:0000afdc       ??_C@_0P@OINMICGP@explosionDelay?$AA@ 30094fdc     bg_vehicleLoad.obj
 0002:0000afec       ??_C@_0P@GNOAPEOI@cameraOverride?$AA@ 30094fec     bg_vehicleLoad.obj
 0002:0000affc       ??_C@_0M@NABKGBHB@cameraRange?$AA@ 30094ffc     bg_vehicleLoad.obj
 0002:0000b008       ??_C@_0BB@JIEFMMG@cameraVertOffset?$AA@ 30095008     bg_vehicleLoad.obj
 0002:0000b01c       ??_C@_0BB@PHKMDBPA@cameraHorzOffset?$AA@ 3009501c     bg_vehicleLoad.obj
 0002:0000b030       ??_C@_0BC@HAMFPJAF@cameraPitchOffset?$AA@ 30095030     bg_vehicleLoad.obj
 0002:0000b044       ??_C@_09DEDNKOMM@cameraFOV?$AA@ 30095044     bg_vehicleLoad.obj
 0002:0000b050       ??_C@_0M@HCDOHHGA@cameraAlpha?$AA@ 30095050     bg_vehicleLoad.obj
 0002:0000b05c       ??_C@_0BP@GIMDHKNG@cameraPitchDependantVertOffset?$AA@ 3009505c     bg_vehicleLoad.obj
 0002:0000b07c       ??_C@_0M@KPBBIBLI@turret1Weap?$AA@ 3009507c     bg_vehicleLoad.obj
 0002:0000b088       ??_C@_0N@FBCEIJCP@turret1Delay?$AA@ 30095088     bg_vehicleLoad.obj
 0002:0000b098       ??_C@_0P@FIKBECBF@turret1AmmoMax?$AA@ 30095098     bg_vehicleLoad.obj
 0002:0000b0a8       ??_C@_0BG@IIODCJED@turret1AmmoRechargeMS?$AA@ 300950a8     bg_vehicleLoad.obj
 0002:0000b0c0       ??_C@_0P@FFEIIECD@turret1YawBone?$AA@ 300950c0     bg_vehicleLoad.obj
 0002:0000b0d0       ??_C@_0BB@NILOLCBI@turret1PitchBone?$AA@ 300950d0     bg_vehicleLoad.obj
 0002:0000b0e4       ??_C@_0P@MGPBDCIH@turret1YawAxis?$AA@ 300950e4     bg_vehicleLoad.obj
 0002:0000b0f4       ??_C@_0BB@ELAHAELM@turret1PitchAxis?$AA@ 300950f4     bg_vehicleLoad.obj
 0002:0000b108       ??_C@_0BB@HFAPNPOM@turret1ClampYawL?$AA@ 30095108     bg_vehicleLoad.obj
 0002:0000b11c       ??_C@_0BB@KBEOOADD@turret1ClampYawR?$AA@ 3009511c     bg_vehicleLoad.obj
 0002:0000b130       ??_C@_0BD@KDJFDHCF@turret1ClampPitchU?$AA@ 30095130     bg_vehicleLoad.obj
 0002:0000b144       ??_C@_0BD@PAEMBEDF@turret1ClampPitchD?$AA@ 30095144     bg_vehicleLoad.obj
 0002:0000b158       ??_C@_0P@NDNADLOJ@turret1Muzzle1?$AA@ 30095158     bg_vehicleLoad.obj
 0002:0000b168       ??_C@_0P@PIPNGICK@turret1Muzzle2?$AA@ 30095168     bg_vehicleLoad.obj
 0002:0000b178       ??_C@_0BB@PDLGOJAM@turret1TurnSpeed?$AA@ 30095178     bg_vehicleLoad.obj
 0002:0000b18c       ??_C@_09IAHODHIH@turret1AI?$AA@ 3009518c     bg_vehicleLoad.obj
 0002:0000b198       ??_C@_0O@NENBBHAC@turret1AILead?$AA@ 30095198     bg_vehicleLoad.obj
 0002:0000b1a8       ??_C@_0P@GACJEEPN@turret1AIRange?$AA@ 300951a8     bg_vehicleLoad.obj
 0002:0000b1b8       ??_C@_0BE@MNFKLHBD@turret1PassengerNum?$AA@ 300951b8     bg_vehicleLoad.obj
 0002:0000b1cc       ??_C@_0BF@EJJOIICO@turret1GunnerViewTag?$AA@ 300951cc     bg_vehicleLoad.obj
 0002:0000b1e4       ??_C@_0M@CJIFPDBG@turret2Weap?$AA@ 300951e4     bg_vehicleLoad.obj
 0002:0000b1f0       ??_C@_0N@GAMMJDLC@turret2Delay?$AA@ 300951f0     bg_vehicleLoad.obj
 0002:0000b200       ??_C@_0P@GBCMHONA@turret2AmmoMax?$AA@ 30095200     bg_vehicleLoad.obj
 0002:0000b210       ??_C@_0BG@KBCLJNLB@turret2AmmoRechargeMS?$AA@ 30095210     bg_vehicleLoad.obj
 0002:0000b228       ??_C@_0P@GMMFLIOG@turret2YawBone?$AA@ 30095228     bg_vehicleLoad.obj
 0002:0000b238       ??_C@_0BB@EBFMNEBJ@turret2PitchBone?$AA@ 30095238     bg_vehicleLoad.obj
 0002:0000b24c       ??_C@_0P@PPHMAOEC@turret2YawAxis?$AA@ 3009524c     bg_vehicleLoad.obj
 0002:0000b25c       ??_C@_0BB@NCOFGCLN@turret2PitchAxis?$AA@ 3009525c     bg_vehicleLoad.obj
 0002:0000b270       ??_C@_0BB@OMONLJON@turret2ClampYawL?$AA@ 30095270     bg_vehicleLoad.obj
 0002:0000b284       ??_C@_0BB@DIKMIGDC@turret2ClampYawR?$AA@ 30095284     bg_vehicleLoad.obj
 0002:0000b298       ??_C@_0BD@BOFPFLOL@turret2ClampPitchU?$AA@ 30095298     bg_vehicleLoad.obj
 0002:0000b2ac       ??_C@_0BD@ENIGHIPL@turret2ClampPitchD?$AA@ 300952ac     bg_vehicleLoad.obj
 0002:0000b2c0       ??_C@_0P@OKFNAHCM@turret2Muzzle1?$AA@ 300952c0     bg_vehicleLoad.obj
 0002:0000b2d0       ??_C@_0P@MBHAFEOP@turret2Muzzle2?$AA@ 300952d0     bg_vehicleLoad.obj
 0002:0000b2e0       ??_C@_0BB@GKFEIPAN@turret2TurnSpeed?$AA@ 300952e0     bg_vehicleLoad.obj
 0002:0000b2f4       ??_C@_09JCMLJIGJ@turret2AI?$AA@ 300952f4     bg_vehicleLoad.obj
 0002:0000b300       ??_C@_0O@FKFOBAOB@turret2AILead?$AA@ 30095300     bg_vehicleLoad.obj
 0002:0000b310       ??_C@_0P@FJKEHIDI@turret2AIRange?$AA@ 30095310     bg_vehicleLoad.obj
 0002:0000b320       ??_C@_0BE@LBDLJCMI@turret2PassengerNum?$AA@ 30095320     bg_vehicleLoad.obj
 0002:0000b334       ??_C@_0BF@FIODOCFH@turret2GunnerViewTag?$AA@ 30095334     bg_vehicleLoad.obj
 0002:0000b34c       ??_C@_07FABGOOCC@VH_NONE?$AA@ 3009534c     bg_vehicleLoad.obj
 0002:0000b354       ??_C@_09EMIPDFIK@VH_WALKER?$AA@ 30095354     bg_vehicleLoad.obj
 0002:0000b360       ??_C@_0L@NKPJKKBD@VH_FIGHTER?$AA@ 30095360     bg_vehicleLoad.obj
 0002:0000b36c       ??_C@_0L@PJKFHOGE@VH_SPEEDER?$AA@ 3009536c     bg_vehicleLoad.obj
 0002:0000b378       ??_C@_09IHBEGJAE@VH_ANIMAL?$AA@ 30095378     bg_vehicleLoad.obj
 0002:0000b384       ??_C@_08GLJJKINI@VH_FLIER?$AA@ 30095384     bg_vehicleLoad.obj
 0002:0000b390       ??_C@_0L@BOMCPGNF@projectile?$AA@ 30095390     bg_vehicleLoad.obj
 0002:0000b39c       ??_C@_0L@IPNKNAOM@hasGravity?$AA@ 3009539c     bg_vehicleLoad.obj
 0002:0000b3a8       ??_C@_09LOOPDJEK@ionWeapon?$AA@ 300953a8     bg_vehicleLoad.obj
 0002:0000b3b4       ??_C@_0P@MLELMPKF@saberBlockable?$AA@ 300953b4     bg_vehicleLoad.obj
 0002:0000b3c4       ??_C@_08OEIEAIMH@muzzleFX?$AA@ 300953c4     bg_vehicleLoad.obj
 0002:0000b3d0       ??_C@_06KCPOJGHJ@shotFX?$AA@ 300953d0     bg_vehicleLoad.obj
 0002:0000b3d8       ??_C@_08LBKCHJGI@impactFX?$AA@ 300953d8     bg_vehicleLoad.obj
 0002:0000b3e4       ??_C@_0N@LOKNPDPD@g2MarkShader?$AA@ 300953e4     bg_vehicleLoad.obj
 0002:0000b3f4       ??_C@_0L@NDLIJKLF@g2MarkSize?$AA@ 300953f4     bg_vehicleLoad.obj
 0002:0000b400       ??_C@_09DPJGNNNM@loopSound?$AA@ 30095400     bg_vehicleLoad.obj
 0002:0000b40c       ??_C@_06GMBBIPLD@homing?$AA@ 3009540c     bg_vehicleLoad.obj
 0002:0000b414       ??_C@_0L@FFLAGJDE@lockOnTime?$AA@ 30095414     bg_vehicleLoad.obj
 0002:0000b420       ??_C@_06GJOIPFFF@damage?$AA@ 30095420     bg_vehicleLoad.obj
 0002:0000b428       ??_C@_0N@LJPCOLCE@splashDamage?$AA@ 30095428     bg_vehicleLoad.obj
 0002:0000b438       ??_C@_0N@HGGCMKIH@splashRadius?$AA@ 30095438     bg_vehicleLoad.obj
 0002:0000b448       ??_C@_0M@EIOFGFCL@ammoPerShot?$AA@ 30095448     bg_vehicleLoad.obj
 0002:0000b454       ??_C@_06KJINILIP@health?$AA@ 30095454     bg_vehicleLoad.obj
 0002:0000b45c       ??_C@_05IGKADHGO@width?$AA@ 3009545c     bg_vehicleLoad.obj
 0002:0000b464       ??_C@_06LNLHEAAG@height?$AA@ 30095464     bg_vehicleLoad.obj
 0002:0000b46c       ??_C@_08MOKDPMFA@lifetime?$AA@ 3009546c     bg_vehicleLoad.obj
 0002:0000b478       ??_C@_0BA@KPKBCLLA@explodeOnExpire?$AA@ 30095478     bg_vehicleLoad.obj
 0002:0000b488       ??_C@_0FD@MDELBJLL@?$FO3BG_ParseVehWeaponParm?3?5VEC3?5ss@ 30095488     bg_vehicleLoad.obj
 0002:0000b4dc       ??_C@_0L@MLJDLEMM@vehWeapons?$AA@ 300954dc     bg_vehicleLoad.obj
 0002:0000b4e8       ??_C@_0DL@FMGLONEB@?$FO1ERROR?3?5unexpected?5EOF?5while?5pa@ 300954e8     bg_vehicleLoad.obj
 0002:0000b524       ??_C@_0DC@DEIKKAAA@?$FO1ERROR?3?5Vehicle?5Weapon?5token?5?8?$CF@ 30095524     bg_vehicleLoad.obj
 0002:0000b558       ??_C@_0DL@NMOBCAIH@?$FO1ERROR?3?5Unknown?5Vehicle?5Weapon?5@ 30095558     bg_vehicleLoad.obj
 0002:0000b594       ??_C@_0CH@LCICPJML@sound?1vehicles?1weapons?1common?1ti@ 30095594     bg_vehicleLoad.obj
 0002:0000b5bc       ??_C@_0CH@GDPFBACF@sound?1vehicles?1weapons?1common?1lo@ 300955bc     bg_vehicleLoad.obj
 0002:0000b5e4       ??_C@_0CF@GPLNCJPC@sound?1vehicles?1common?1lockalarm1@ 300955e4     bg_vehicleLoad.obj
 0002:0000b60c       ??_C@_0CF@OJCJFLFM@sound?1vehicles?1common?1lockalarm2@ 3009560c     bg_vehicleLoad.obj
 0002:0000b634       ??_C@_0CF@CCHFIIPJ@sound?1vehicles?1common?1lockalarm3@ 30095634     bg_vehicleLoad.obj
 0002:0000b65c       ??_C@_0DG@NFPGFPBD@?$FO1ERROR?3?5Trying?5to?5read?5Vehicle?5@ 3009565c     bg_vehicleLoad.obj
 0002:0000b698       ??_C@_0EC@OJBJIBOI@?$FO1ERROR?3?5Too?5many?5Vehicle?5Weapon@ 30095698     bg_vehicleLoad.obj
 0002:0000b6dc       ??_C@_0CM@BOPHHAJF@?$FO1ERROR?3?5Could?5not?5find?5Vehicle?5@ 300956dc     bg_vehicleLoad.obj
 0002:0000b708       ??_C@_0FB@JIOAPADB@?$FO3BG_ParseVehicleParm?3?5VEC3?5ssca@ 30095708     bg_vehicleLoad.obj
 0002:0000b75c       ??_C@_08HAIKMFBJ@vehicles?$AA@ 3009575c     bg_vehicleLoad.obj
 0002:0000b768       ??_C@_0DE@EKJMGPEC@?$FO1ERROR?3?5unexpected?5EOF?5while?5pa@ 30095768     bg_vehicleLoad.obj
 0002:0000b79c       ??_C@_0CL@OGPLJEAB@?$FO1ERROR?3?5Vehicle?5token?5?8?$CFs?8?5has?5@ 3009579c     bg_vehicleLoad.obj
 0002:0000b7c8       ??_C@_0DF@FBDCMFNK@?$FO1ERROR?3?5Unknown?5Vehicle?5key?1val@ 300957c8     bg_vehicleLoad.obj
 0002:0000b800       ??_C@_0DI@OLJGHDLJ@?$FO1ERROR?3?5Unknown?5Vehicle?5key?1val@ 30095800     bg_vehicleLoad.obj
 0002:0000b838       ??_C@_0DI@HCHEBFLI@?$FO1ERROR?3?5Unknown?5Vehicle?5key?1val@ 30095838     bg_vehicleLoad.obj
 0002:0000b870       ??_C@_0DO@DJFHMJDF@?$FO1ERROR?3?5Unknown?5Vehicle?5key?1val@ 30095870     bg_vehicleLoad.obj
 0002:0000b8b0       ??_C@_0DO@KALFKPDE@?$FO1ERROR?3?5Unknown?5Vehicle?5key?1val@ 300958b0     bg_vehicleLoad.obj
 0002:0000b8f0       ??_C@_0DO@GBDLHAPE@?$FO1ERROR?3?5Unknown?5Vehicle?5key?1val@ 300958f0     bg_vehicleLoad.obj
 0002:0000b930       ??_C@_0DO@EIAAGFHH@?$FO1ERROR?3?5Unknown?5Vehicle?5key?1val@ 30095930     bg_vehicleLoad.obj
 0002:0000b970       ??_C@_0DO@IJIOLKLH@?$FO1ERROR?3?5Unknown?5Vehicle?5key?1val@ 30095970     bg_vehicleLoad.obj
 0002:0000b9b0       ??_C@_0DO@BAGMNMLG@?$FO1ERROR?3?5Unknown?5Vehicle?5key?1val@ 300959b0     bg_vehicleLoad.obj
 0002:0000b9f0       ??_C@_0DO@NBOCADHG@?$FO1ERROR?3?5Unknown?5Vehicle?5key?1val@ 300959f0     bg_vehicleLoad.obj
 0002:0000ba30       ??_C@_0DO@ECBKPHLA@?$FO1ERROR?3?5Unknown?5Vehicle?5key?1val@ 30095a30     bg_vehicleLoad.obj
 0002:0000ba70       ??_C@_0DO@IDJECIHA@?$FO1ERROR?3?5Unknown?5Vehicle?5key?1val@ 30095a70     bg_vehicleLoad.obj
 0002:0000bab0       ??_C@_0DP@KOBBMOMH@?$FO1ERROR?3?5Unknown?5Vehicle?5key?1val@ 30095ab0     bg_vehicleLoad.obj
 0002:0000baf0       ??_C@_0BM@KNIODCMI@models?1players?1?$CFs?1model?4glm?$AA@ 30095af0     bg_vehicleLoad.obj
 0002:0000bb0c       ??_C@_0BK@NCALAGBO@ships?1ship_explosion_mark?$AA@ 30095b0c     bg_vehicleLoad.obj
 0002:0000bb28       ??_C@_0CC@DCOMBCFJ@sound?1vehicles?1common?1fire_lp?4wa@ 30095b28     bg_vehicleLoad.obj
 0002:0000bb4c       ??_C@_0BB@DNJHOLNH@ships?1swoop_dust?$AA@ 30095b4c     bg_vehicleLoad.obj
 0002:0000bb60       ??_C@_0BI@IOMIPFAI@gfx?1menus?1radar?1bracket?$AA@ 30095b60     bg_vehicleLoad.obj
 0002:0000bb78       ??_C@_0BJ@POPKHPP@gfx?1menus?1radar?1asteroid?$AA@ 30095b78     bg_vehicleLoad.obj
 0002:0000bb94       ??_C@_0CG@LGHONDOI@sound?1vehicles?1common?1impactalar@ 30095b94     bg_vehicleLoad.obj
 0002:0000bbbc       ??_C@_0CE@OLLPDHPF@sound?1vehicles?1common?1linkweaps?4@ 30095bbc     bg_vehicleLoad.obj
 0002:0000bbe0       ??_C@_0CC@FMEFNJAG@sound?1vehicles?1common?1release?4wa@ 30095be0     bg_vehicleLoad.obj
 0002:0000bc04       ??_C@_0BP@DKDDAPFA@effects?1ships?1dest_burning?4efx?$AA@ 30095c04     bg_vehicleLoad.obj
 0002:0000bc24       ??_C@_0CB@PMCFCAHP@effects?1ships?1dest_destroyed?4efx@ 30095c24     bg_vehicleLoad.obj
 0002:0000bc48       ??_C@_0BH@EGNCFGHP@volumetric?1black_smoke?$AA@ 30095c48     bg_vehicleLoad.obj
 0002:0000bc60       ??_C@_0L@FJMBPMOH@ships?1fire?$AA@ 30095c60     bg_vehicleLoad.obj
 0002:0000bc6c       ??_C@_0BH@MJMHOIHM@ships?1hyperspace_stars?$AA@ 30095c6c     bg_vehicleLoad.obj
 0002:0000bc84       ??_C@_0BM@OMIIFOPC@gfx?1menus?1radar?1circle_base?$AA@ 30095c84     bg_vehicleLoad.obj
 0002:0000bca0       ??_C@_0CC@EFBOPOJ@gfx?1menus?1radar?1circle_base_fram@ 30095ca0     bg_vehicleLoad.obj
 0002:0000bcc4       ??_C@_0CD@LFPNGPKF@gfx?1menus?1radar?1circle_base_shie@ 30095cc4     bg_vehicleLoad.obj
 0002:0000bce8       ??_C@_0CP@GGAMJIMN@?$FO1ERROR?3?5Trying?5to?5read?5Vehicle?5@ 30095ce8     bg_vehicleLoad.obj
 0002:0000bd18       ??_C@_0DL@LHHFHKNO@?$FO1ERROR?3?5Too?5many?5Vehicles?5?$CImax?5@ 30095d18     bg_vehicleLoad.obj
 0002:0000bd54       ??_C@_0CF@JDPFBFFF@?$FO1ERROR?3?5Could?5not?5find?5Vehicle?5@ 30095d54     bg_vehicleLoad.obj
 0002:0000bd7c       ??_C@_04HHPJGBOE@?4vwp?$AA@ 30095d7c     bg_vehicleLoad.obj
 0002:0000bd84       ??_C@_0BK@NBKBPLIB@ext_data?1vehicles?1weapons?$AA@ 30095d84     bg_vehicleLoad.obj
 0002:0000bda0       ??_C@_0BN@HEKLMLDI@ext_data?1vehicles?1weapons?1?$CFs?$AA@ 30095da0     bg_vehicleLoad.obj
 0002:0000bdc0       ??_C@_01CLKCMJKC@?5?$AA@   30095dc0     bg_vehicleLoad.obj
 0002:0000bdc4       ??_C@_0DA@KBNENJDB@Vehicle?5Weapon?5extensions?5?$CI?$CK?4vwp@ 30095dc4     bg_vehicleLoad.obj
 0002:0000bdf4       ??_C@_04OKEAIOKD@?4veh?$AA@ 30095df4     bg_vehicleLoad.obj
 0002:0000bdfc       ??_C@_0BC@OPBPEGFG@ext_data?1vehicles?$AA@ 30095dfc     bg_vehicleLoad.obj
 0002:0000be10       ??_C@_0BF@IBNPKGMN@ext_data?1vehicles?1?$CFs?$AA@ 30095e10     bg_vehicleLoad.obj
 0002:0000be28       ??_C@_0CJ@FOAJMHKE@Vehicle?5extensions?5?$CI?$CK?4veh?$CJ?5are?5t@ 30095e28     bg_vehicleLoad.obj
 0002:0000be54       ??_C@_0DC@CNDALACO@BG_GetVehicleModelName?3?5?5couldn?8@ 30095e54     bg_vehicleLoad.obj
 0002:0000be88       ??_C@_0DB@BEOAHFLB@BG_GetVehicleSkinName?3?5?5couldn?8t@ 30095e88     bg_vehicleLoad.obj
 0002:0000bebc       ??_C@_07ECBLGCPH@?$CKdriver?$AA@ 30095ebc     bg_vehicleLoad.obj
 0002:0000bec4       ??_C@_0CB@LNGBPGCI@NULL?5PS?5in?5BG_FighterUpdate?5?$CI?$CFs?$CJ@ 30095ec4     FighterNPC.obj
 0002:0000bee8       __real@3d4ccccd            30095ee8     FighterNPC.obj
 0002:0000beec       __real@3faaaaab            30095eec     FighterNPC.obj
 0002:0000bef0       __real@4029000000000000    30095ef0     FighterNPC.obj
 0002:0000bef8       __real@4034000000000000    30095ef8     FighterNPC.obj
 0002:0000bf00       __real@4049000000000000    30095f00     FighterNPC.obj
 0002:0000bf08       __real@46192000            30095f08     FighterNPC.obj
 0002:0000bf0c       __real@461c4000            30095f0c     FighterNPC.obj
 0002:0000bf10       __real@be800000            30095f10     FighterNPC.obj
 0002:0000bf14       __real@c1000000            30095f14     FighterNPC.obj
 0002:0000bf18       __real@c2700000            30095f18     FighterNPC.obj
 0002:0000bf1c       __real@c4fa0000            30095f1c     FighterNPC.obj
 0002:0000bf20       __real@37800000            30095f20     q_math.obj
 0002:0000bf24       __real@38000000            30095f24     q_math.obj
 0002:0000bf28       __real@3c8efa35            30095f28     q_math.obj
 0002:0000bf30       __real@4000000000000000    30095f30     q_math.obj
 0002:0000bf38       __real@4066c16c16c16c17    30095f38     q_math.obj
 0002:0000bf40       __real@4076800000000000    30095f40     q_math.obj
 0002:0000bf48       __real@437f0000            30095f48     q_math.obj
 0002:0000bf4c       __real@c3340000            30095f4c     q_math.obj
 0002:0000bf50       __xmm@41f00000000000000000000000000000 30095f50     q_math.obj
 0002:0000bf60       __xmm@80000000000000008000000000000000 30095f60     q_math.obj
 0002:0000bf70       ??_C@_04HDOCAJNK@?$CFs?$CFs?$AA@ 30095f70     q_shared.obj
 0002:0000bf78       ??_C@_02DKCKIIND@?$CFs?$AA@ 30095f78     q_shared.obj
 0002:0000bf7c       ??_C@_0BG@EKAPNPCH@Q_strncpyz?3?5NULL?5dest?$AA@ 30095f7c     q_shared.obj
 0002:0000bf94       ??_C@_0BF@BJHHBLMD@Q_strncpyz?3?5NULL?5src?$AA@ 30095f94     q_shared.obj
 0002:0000bfac       ??_C@_0BJ@OLBOPICM@Q_strncpyz?3?5destsize?5?$DM?51?$AA@ 30095fac     q_shared.obj
 0002:0000bfc8       ??_C@_0BN@EFOOAHFL@Q_strcat?3?5already?5overflowed?$AA@ 30095fc8     q_shared.obj
 0002:0000bfe8       ??_C@_0CC@GMEFDOKA@Com_sprintf?3?5overflowed?5bigbuffe@ 30095fe8     q_shared.obj
 0002:0000c00c       ??_C@_0CD@GIPJKOOD@Com_sprintf?3?5overflow?5of?5?$CFi?5in?5?$CF@ 3009600c     q_shared.obj
 0002:0000c030       ??_C@_0CG@FLHABLN@Info_ValueForKey?3?5oversize?5infos@ 30096030     q_shared.obj
 0002:0000c058       __real@4039000000000000    30096058     SpeederNPC.obj
 0002:0000c060       ??_C@_06GEEPENGB@feeder?$AA@ 30096060     ui_shared.obj
 0002:0000c068       ??_C@_0BA@NNDAHIHE@WINDOW_INACTIVE?$AA@ 30096068     ui_shared.obj
 0002:0000c078       ??_C@_0BD@BJJNFIHK@WINDOW_STYLE_EMPTY?$AA@ 30096078     ui_shared.obj
 0002:0000c08c       ??_C@_0BE@KLCEIIBH@WINDOW_STYLE_FILLED?$AA@ 3009608c     ui_shared.obj
 0002:0000c0a0       ??_C@_0BG@IEFBEMMN@WINDOW_STYLE_GRADIENT?$AA@ 300960a0     ui_shared.obj
 0002:0000c0b8       ??_C@_0BE@HECCLBFC@WINDOW_STYLE_SHADER?$AA@ 300960b8     ui_shared.obj
 0002:0000c0cc       ??_C@_0BH@KNCNDPMK@WINDOW_STYLE_TEAMCOLOR?$AA@ 300960cc     ui_shared.obj
 0002:0000c0e4       ??_C@_0BH@CDGHPFEH@WINDOW_STYLE_CINEMATIC?$AA@ 300960e4     ui_shared.obj
 0002:0000c0fc       ??_C@_0BA@CFDMPPCB@ITEM_ALIGN_LEFT?$AA@ 300960fc     ui_shared.obj
 0002:0000c10c       ??_C@_0BC@JJHJJEIH@ITEM_ALIGN_CENTER?$AA@ 3009610c     ui_shared.obj
 0002:0000c120       ??_C@_0BB@MDDHAHGK@ITEM_ALIGN_RIGHT?$AA@ 30096120     ui_shared.obj
 0002:0000c134       ??_C@_0P@ECMIINLB@ITEM_TYPE_TEXT?$AA@ 30096134     ui_shared.obj
 0002:0000c144       ??_C@_0BB@LJMDMMLE@ITEM_TYPE_BUTTON?$AA@ 30096144     ui_shared.obj
 0002:0000c158       ??_C@_0BG@BAAHBGEB@ITEM_TYPE_RADIOBUTTON?$AA@ 30096158     ui_shared.obj
 0002:0000c170       ??_C@_0BD@ILDGMNNN@ITEM_TYPE_CHECKBOX?$AA@ 30096170     ui_shared.obj
 0002:0000c184       ??_C@_0BE@MNNMOPPO@ITEM_TYPE_EDITFIELD?$AA@ 30096184     ui_shared.obj
 0002:0000c198       ??_C@_0BA@OAMKEKLA@ITEM_TYPE_COMBO?$AA@ 30096198     ui_shared.obj
 0002:0000c1a8       ??_C@_06DDLLCOJG@action?$AA@ 300961a8     ui_shared.obj
 0002:0000c1b0       ??_C@_0BC@OFIOAFNP@ITEM_TYPE_LISTBOX?$AA@ 300961b0     ui_shared.obj
 0002:0000c1c4       ??_C@_0O@BGFKBLBI@addColorRange?$AA@ 300961c4     ui_shared.obj
 0002:0000c1d4       ??_C@_0BA@IJKKCBAM@ITEM_TYPE_MODEL?$AA@ 300961d4     ui_shared.obj
 0002:0000c1e4       ??_C@_05CBJPDLOK@align?$AA@ 300961e4     ui_shared.obj
 0002:0000c1ec       ??_C@_0BE@EAPBKGDL@ITEM_TYPE_OWNERDRAW?$AA@ 300961ec     ui_shared.obj
 0002:0000c200       ??_C@_0M@HHKOOJO@autowrapped?$AA@ 30096200     ui_shared.obj
 0002:0000c20c       ??_C@_0BH@GLLADPJF@ITEM_TYPE_NUMERICFIELD?$AA@ 3009620c     ui_shared.obj
 0002:0000c224       ??_C@_0BA@HJNHMKEG@appearance_slot?$AA@ 30096224     ui_shared.obj
 0002:0000c234       ??_C@_0BB@HPDKNELK@ITEM_TYPE_SLIDER?$AA@ 30096234     ui_shared.obj
 0002:0000c248       ??_C@_0M@DKAIGAGN@asset_model?$AA@ 30096248     ui_shared.obj
 0002:0000c254       ??_C@_0BA@LBOLKKCE@ITEM_TYPE_YESNO?$AA@ 30096254     ui_shared.obj
 0002:0000c264       ??_C@_0N@HLFJAKEA@asset_shader?$AA@ 30096264     ui_shared.obj
 0002:0000c274       ??_C@_0BA@GNNLLMC@ITEM_TYPE_MULTI?$AA@ 30096274     ui_shared.obj
 0002:0000c284       ??_C@_0L@EGCKCJDC@background?$AA@ 30096284     ui_shared.obj
 0002:0000c290       ??_C@_0P@LFNHJNLI@ITEM_TYPE_BIND?$AA@ 30096290     ui_shared.obj
 0002:0000c2a0       ??_C@_06ODFLABIG@border?$AA@ 300962a0     ui_shared.obj
 0002:0000c2a8       ??_C@_0BF@GHBOAADB@ITEM_TYPE_TEXTSCROLL?$AA@ 300962a8     ui_shared.obj
 0002:0000c2c0       ??_C@_0L@BAAMOEHP@bordersize?$AA@ 300962c0     ui_shared.obj
 0002:0000c2cc       ??_C@_09DHDJHDLH@cinematic?$AA@ 300962cc     ui_shared.obj
 0002:0000c2d8       ??_C@_07HIFEPIJN@columns?$AA@ 300962d8     ui_shared.obj
 0002:0000c2e0       ??_C@_04PNAHEAFM@cvar?$AA@ 300962e0     ui_shared.obj
 0002:0000c2e8       ??_C@_09CGGKHKAP@cvarFloat?$AA@ 300962e8     ui_shared.obj
 0002:0000c2f4       ??_C@_0O@IKNDJMDK@cvarFloatList?$AA@ 300962f4     ui_shared.obj
 0002:0000c304       ??_C@_0M@GOKMFACI@cvarStrList?$AA@ 30096304     ui_shared.obj
 0002:0000c310       ??_C@_08KBIDCBHN@cvarTest?$AA@ 30096310     ui_shared.obj
 0002:0000c31c       ??_C@_08MCIJOGEA@desctext?$AA@ 3009631c     ui_shared.obj
 0002:0000c328       ??_C@_0L@GFEIECKE@decoration?$AA@ 30096328     ui_shared.obj
 0002:0000c334       ??_C@_0M@FBHLBFCC@disableCvar?$AA@ 30096334     ui_shared.obj
 0002:0000c340       ??_C@_0M@IHJKFHF@doubleclick?$AA@ 30096340     ui_shared.obj
 0002:0000c34c       ??_C@_0O@MNJDKOBB@elementheight?$AA@ 3009634c     ui_shared.obj
 0002:0000c35c       ??_C@_0M@HBNIAHKL@elementtype?$AA@ 3009635c     ui_shared.obj
 0002:0000c368       ??_C@_0N@MILKKPGL@elementwidth?$AA@ 30096368     ui_shared.obj
 0002:0000c378       ??_C@_0L@LCDHKNEJ@enableCvar?$AA@ 30096378     ui_shared.obj
 0002:0000c384       ??_C@_04DNPGJOMD@flag?$AA@ 30096384     ui_shared.obj
 0002:0000c38c       ??_C@_0L@NOGKCHFE@focusSound?$AA@ 3009638c     ui_shared.obj
 0002:0000c398       ??_C@_04EFPADHIC@font?$AA@ 30096398     ui_shared.obj
 0002:0000c3a0       ??_C@_05MGJOOGAJ@group?$AA@ 300963a0     ui_shared.obj
 0002:0000c3a8       ??_C@_08BDDCOCNI@hideCvar?$AA@ 300963a8     ui_shared.obj
 0002:0000c3b4       ??_C@_0BB@EIBMEDHI@horizontalscroll?$AA@ 300963b4     ui_shared.obj
 0002:0000c3c8       ??_C@_0M@JODFBNF@isCharacter?$AA@ 300963c8     ui_shared.obj
 0002:0000c3d4       ??_C@_07GEILFICD@isSaber?$AA@ 300963d4     ui_shared.obj
 0002:0000c3dc       ??_C@_08EPHDKOFL@isSaber2?$AA@ 300963dc     ui_shared.obj
 0002:0000c3e8       ??_C@_0L@LMAJDKOE@leaveFocus?$AA@ 300963e8     ui_shared.obj
 0002:0000c3f4       ??_C@_08IHGPPBOI@maxChars?$AA@ 300963f4     ui_shared.obj
 0002:0000c400       ??_C@_0O@HPCOAMJM@maxPaintChars?$AA@ 30096400     ui_shared.obj
 0002:0000c410       ??_C@_0M@HHMGANAM@model_angle?$AA@ 30096410     ui_shared.obj
 0002:0000c41c       ??_C@_0L@MFDDKKLB@model_fovx?$AA@ 3009641c     ui_shared.obj
 0002:0000c428       ??_C@_0L@NMCIJLPA@model_fovy?$AA@ 30096428     ui_shared.obj
 0002:0000c434       ??_C@_0N@LHLPLFLG@model_origin?$AA@ 30096434     ui_shared.obj
 0002:0000c444       ??_C@_0P@NOKHMHPD@model_rotation?$AA@ 30096444     ui_shared.obj
 0002:0000c454       ??_C@_0N@GEHEFKNH@model_g2mins?$AA@ 30096454     ui_shared.obj
 0002:0000c464       ??_C@_0N@LJGLKNPK@model_g2maxs?$AA@ 30096464     ui_shared.obj
 0002:0000c474       ??_C@_0O@DMCMCDJO@model_g2scale?$AA@ 30096474     ui_shared.obj
 0002:0000c484       ??_C@_0N@OLIOMBCG@model_g2skin?$AA@ 30096484     ui_shared.obj
 0002:0000c494       ??_C@_0N@ONFNKGDF@model_g2anim?$AA@ 30096494     ui_shared.obj
 0002:0000c4a4       ??_C@_0L@KAGOMOPN@mouseEnter?$AA@ 300964a4     ui_shared.obj
 0002:0000c4b0       ??_C@_0P@BCEPHLNB@mouseEnterText?$AA@ 300964b0     ui_shared.obj
 0002:0000c4c0       ??_C@_09OIHCIOIA@mouseExit?$AA@ 300964c0     ui_shared.obj
 0002:0000c4cc       ??_C@_0O@GFPABKKP@mouseExitText?$AA@ 300964cc     ui_shared.obj
 0002:0000c4dc       ??_C@_0O@FDEIBLKE@notselectable?$AA@ 300964dc     ui_shared.obj
 0002:0000c4ec       ??_C@_07PFEHHELH@onFocus?$AA@ 300964ec     ui_shared.obj
 0002:0000c4f4       ??_C@_0N@LGJOCBPD@outlinecolor?$AA@ 300964f4     ui_shared.obj
 0002:0000c504       ??_C@_09HGLBOMNF@ownerdraw?$AA@ 30096504     ui_shared.obj
 0002:0000c510       ??_C@_0O@DACAJCLK@ownerdrawFlag?$AA@ 30096510     ui_shared.obj
 0002:0000c520       ??_C@_04LHPFHFPH@rect?$AA@ 30096520     ui_shared.obj
 0002:0000c528       ??_C@_08LBJPPPMM@rectcvar?$AA@ 30096528     ui_shared.obj
 0002:0000c534       ??_C@_08LNBEMJIA@showCvar?$AA@ 30096534     ui_shared.obj
 0002:0000c540       ??_C@_07BELCMIIP@special?$AA@ 30096540     ui_shared.obj
 0002:0000c548       ??_C@_05IAKJCFIM@style?$AA@ 30096548     ui_shared.obj
 0002:0000c550       ??_C@_04CIMGMMMG@text?$AA@ 30096550     ui_shared.obj
 0002:0000c558       ??_C@_09PNBDGNCL@textalign?$AA@ 30096558     ui_shared.obj
 0002:0000c564       ??_C@_0L@ELKHBJND@textalignx?$AA@ 30096564     ui_shared.obj
 0002:0000c570       ??_C@_0L@FCLMCIJC@textaligny?$AA@ 30096570     ui_shared.obj
 0002:0000c57c       ??_C@_09BLEIEHKP@textscale?$AA@ 3009657c     ui_shared.obj
 0002:0000c588       ??_C@_09FMCFHDEN@textstyle?$AA@ 30096588     ui_shared.obj
 0002:0000c594       ??_C@_05JPFPPFDI@text2?$AA@ 30096594     ui_shared.obj
 0002:0000c59c       ??_C@_0M@MIFHPNPG@text2alignx?$AA@ 3009659c     ui_shared.obj
 0002:0000c5a8       ??_C@_0M@NBEMMMLH@text2aligny?$AA@ 300965a8     ui_shared.obj
 0002:0000c5b4       ??_C@_07DPDAEJMK@visible?$AA@ 300965b4     ui_shared.obj
 0002:0000c5bc       ??_C@_07FJHHECNJ@wrapped?$AA@ 300965bc     ui_shared.obj
 0002:0000c5c4       ??_C@_0N@NGJINDLF@maxLineChars?$AA@ 300965c4     ui_shared.obj
 0002:0000c5d4       ??_C@_0L@PPHHMIKE@lineHeight?$AA@ 300965d4     ui_shared.obj
 0002:0000c5e0       ??_C@_0M@IMNLLLNC@invertyesno?$AA@ 300965e0     ui_shared.obj
 0002:0000c5ec       ??_C@_0N@OJPOMGGP@scrollhidden?$AA@ 300965ec     ui_shared.obj
 0002:0000c5fc       ??_C@_09GCPJPMCM@xoffset?7?7?$AA@ 300965fc     ui_shared.obj
 0002:0000c608       ??_C@_06JFGPOFJL@fadein?$AA@ 30096608     ui_shared.obj
 0002:0000c610       ??_C@_07BJADIKJG@fadeout?$AA@ 30096610     ui_shared.obj
 0002:0000c618       ??_C@_04FKMICODN@show?$AA@ 30096618     ui_shared.obj
 0002:0000c620       ??_C@_04IBOFHAPJ@hide?$AA@ 30096620     ui_shared.obj
 0002:0000c628       ??_C@_08OKIEAMBM@setcolor?$AA@ 30096628     ui_shared.obj
 0002:0000c634       ??_C@_04PMOCAHAA@open?$AA@ 30096634     ui_shared.obj
 0002:0000c63c       ??_C@_05LBOHBHFK@close?$AA@ 3009663c     ui_shared.obj
 0002:0000c644       ??_C@_08FBOLLCAN@setasset?$AA@ 30096644     ui_shared.obj
 0002:0000c650       ??_C@_0O@FOIIKEEB@setbackground?$AA@ 30096650     ui_shared.obj
 0002:0000c660       ??_C@_0BA@GEEJLPGN@setitemrectcvar?$AA@ 30096660     ui_shared.obj
 0002:0000c670       ??_C@_0BC@IHOKDANM@setitembackground?$AA@ 30096670     ui_shared.obj
 0002:0000c684       ??_C@_0M@KNPKGGHL@setitemtext?$AA@ 30096684     ui_shared.obj
 0002:0000c690       ??_C@_0N@EBBIOPHN@setitemcolor?$AA@ 30096690     ui_shared.obj
 0002:0000c6a0       ??_C@_0BB@HMPBEODN@setitemcolorcvar?$AA@ 300966a0     ui_shared.obj
 0002:0000c6b4       ??_C@_0M@DCMJNPEK@setitemrect?$AA@ 300966b4     ui_shared.obj
 0002:0000c6c0       ??_C@_0N@KMLJLNON@setteamcolor?$AA@ 300966c0     ui_shared.obj
 0002:0000c6d0       ??_C@_08OKIAJKBO@setfocus?$AA@ 300966d0     ui_shared.obj
 0002:0000c6dc       ??_C@_0P@COHLPKKB@setplayermodel?$AA@ 300966dc     ui_shared.obj
 0002:0000c6ec       ??_C@_0L@KGLELNDP@transition?$AA@ 300966ec     ui_shared.obj
 0002:0000c6f8       ??_C@_07DFOFNCMO@setcvar?$AA@ 300966f8     ui_shared.obj
 0002:0000c700       ??_C@_0O@DOIJMEIF@setcvartocvar?$AA@ 30096700     ui_shared.obj
 0002:0000c710       ??_C@_04MGEIEJAD@exec?$AA@ 30096710     ui_shared.obj
 0002:0000c718       ??_C@_04GBHMDDO@play?$AA@  30096718     ui_shared.obj
 0002:0000c720       ??_C@_0L@NDOCJLDE@playlooped?$AA@ 30096720     ui_shared.obj
 0002:0000c72c       ??_C@_05KJPHCDKJ@orbit?$AA@ 3009672c     ui_shared.obj
 0002:0000c734       ??_C@_05MHMEBBGO@scale?$AA@ 30096734     ui_shared.obj
 0002:0000c73c       ??_C@_07DBNODEFN@disable?$AA@ 3009673c     ui_shared.obj
 0002:0000c744       ??_C@_05MBNCFBEN@defer?$AA@ 30096744     ui_shared.obj
 0002:0000c74c       ??_C@_0M@CIHCAJBI@rundeferred?$AA@ 3009674c     ui_shared.obj
 0002:0000c758       ??_C@_0M@FLLAMNPB@transition2?$AA@ 30096758     ui_shared.obj
 0002:0000c764       ??_C@_07PNHLECKB@?$CLscores?$AA@ 30096764     ui_shared.obj
 0002:0000c76c       ??_C@_08GFFBPDLD@?$CLbutton2?$AA@ 3009676c     ui_shared.obj
 0002:0000c778       ??_C@_06JIDIHCBO@?$CLspeed?$AA@ 30096778     ui_shared.obj
 0002:0000c780       ??_C@_08KKEOHAPB@?$CLforward?$AA@ 30096780     ui_shared.obj
 0002:0000c78c       ??_C@_05IPKGNIPH@?$CLback?$AA@ 3009678c     ui_shared.obj
 0002:0000c794       ??_C@_09IPJNFGKP@?$CLmoveleft?$AA@ 30096794     ui_shared.obj
 0002:0000c7a0       ??_C@_0L@FMBJCMEG@?$CLmoveright?$AA@ 300967a0     ui_shared.obj
 0002:0000c7ac       ??_C@_07CKGNAPCP@?$CLmoveup?$AA@ 300967ac     ui_shared.obj
 0002:0000c7b4       ??_C@_09HNJJMOJG@?$CLmovedown?$AA@ 300967b4     ui_shared.obj
 0002:0000c7c0       ??_C@_05HEGFDNLE@?$CLleft?$AA@ 300967c0     ui_shared.obj
 0002:0000c7c8       ??_C@_06NGIHBNMB@?$CLright?$AA@ 300967c8     ui_shared.obj
 0002:0000c7d0       ??_C@_07CHKKNAEO@?$CLstrafe?$AA@ 300967d0     ui_shared.obj
 0002:0000c7d8       ??_C@_07BDFIGFL@?$CLlookup?$AA@ 300967d8     ui_shared.obj
 0002:0000c7e0       ??_C@_09KCKOGCLI@?$CLlookdown?$AA@ 300967e0     ui_shared.obj
 0002:0000c7ec       ??_C@_06OBEGBCAL@?$CLmlook?$AA@ 300967ec     ui_shared.obj
 0002:0000c7f4       ??_C@_0L@FHIBDANG@centerview?$AA@ 300967f4     ui_shared.obj
 0002:0000c800       ??_C@_08NFHIAPM@weapon?51?$AA@ 30096800     ui_shared.obj
 0002:0000c80c       ??_C@_08CGHKNDDP@weapon?52?$AA@ 3009680c     ui_shared.obj
 0002:0000c818       ??_C@_08DPGBOCHO@weapon?53?$AA@ 30096818     ui_shared.obj
 0002:0000c824       ??_C@_08HACAHELJ@weapon?54?$AA@ 30096824     ui_shared.obj
 0002:0000c830       ??_C@_08GJDLEFPI@weapon?55?$AA@ 30096830     ui_shared.obj
 0002:0000c83c       ??_C@_08ECBGBGDL@weapon?56?$AA@ 3009683c     ui_shared.obj
 0002:0000c848       ??_C@_08FLANCHHK@weapon?57?$AA@ 30096848     ui_shared.obj
 0002:0000c854       ??_C@_08NMJFDLLF@weapon?58?$AA@ 30096854     ui_shared.obj
 0002:0000c860       ??_C@_08MFIOAKPE@weapon?59?$AA@ 30096860     ui_shared.obj
 0002:0000c86c       ??_C@_09GLEANPEE@weapon?510?$AA@ 3009686c     ui_shared.obj
 0002:0000c878       ??_C@_0BB@CFPBIBMB@saberAttackCycle?$AA@ 30096878     ui_shared.obj
 0002:0000c88c       ??_C@_09HCFLOOAF@weapon?511?$AA@ 3009688c     ui_shared.obj
 0002:0000c898       ??_C@_09FJHGLNMG@weapon?512?$AA@ 30096898     ui_shared.obj
 0002:0000c8a4       ??_C@_09EAGNIMIH@weapon?513?$AA@ 300968a4     ui_shared.obj
 0002:0000c8b0       ??_C@_07MAODEHGM@?$CLattack?$AA@ 300968b0     ui_shared.obj
 0002:0000c8b8       ??_C@_0L@GDIPNNOO@?$CLaltattack?$AA@ 300968b8     ui_shared.obj
 0002:0000c8c4       ??_C@_04JNBAAPLC@?$CLuse?$AA@ 300968c4     ui_shared.obj
 0002:0000c8cc       ??_C@_0M@HCFMJNJ@engage_duel?$AA@ 300968cc     ui_shared.obj
 0002:0000c8d8       ??_C@_05CPCHEFAA@taunt?$AA@ 300968d8     ui_shared.obj
 0002:0000c8e0       ??_C@_03GMGBHMEH@bow?$AA@  300968e0     ui_shared.obj
 0002:0000c8e4       ??_C@_08LIGJJMBO@meditate?$AA@ 300968e4     ui_shared.obj
 0002:0000c8f0       ??_C@_08KJHFDKHF@flourish?$AA@ 300968f0     ui_shared.obj
 0002:0000c8fc       ??_C@_05GGANABEC@gloat?$AA@ 300968fc     ui_shared.obj
 0002:0000c904       ??_C@_08DMEBPOGB@weapprev?$AA@ 30096904     ui_shared.obj
 0002:0000c910       ??_C@_08IJHOKAF@weapnext?$AA@ 30096910     ui_shared.obj
 0002:0000c91c       ??_C@_0P@NMPIEJIB@prevTeamMember?$AA@ 3009691c     ui_shared.obj
 0002:0000c92c       ??_C@_0P@GJIGAACM@nextTeamMember?$AA@ 3009692c     ui_shared.obj
 0002:0000c93c       ??_C@_09DIHAGAEB@nextOrder?$AA@ 3009693c     ui_shared.obj
 0002:0000c948       ??_C@_0N@KJLGMAFH@confirmOrder?$AA@ 30096948     ui_shared.obj
 0002:0000c958       ??_C@_09PEFBKJOE@denyOrder?$AA@ 30096958     ui_shared.obj
 0002:0000c964       ??_C@_0M@PDBEJPDO@taskOffense?$AA@ 30096964     ui_shared.obj
 0002:0000c970       ??_C@_0M@JPJGJJPF@taskDefense?$AA@ 30096970     ui_shared.obj
 0002:0000c97c       ??_C@_0L@HNDPADH@taskPatrol?$AA@ 3009697c     ui_shared.obj
 0002:0000c988       ??_C@_08OELCHPPI@taskCamp?$AA@ 30096988     ui_shared.obj
 0002:0000c994       ??_C@_0L@HALHAPMG@taskFollow?$AA@ 30096994     ui_shared.obj
 0002:0000c9a0       ??_C@_0N@DNLIECKN@taskRetrieve?$AA@ 300969a0     ui_shared.obj
 0002:0000c9b0       ??_C@_0L@JKHNIMGE@taskEscort?$AA@ 300969b0     ui_shared.obj
 0002:0000c9bc       ??_C@_0M@NPBCACOK@taskOwnFlag?$AA@ 300969bc     ui_shared.obj
 0002:0000c9c8       ??_C@_0M@HEJOPHDA@taskSuicide?$AA@ 300969c8     ui_shared.obj
 0002:0000c9d4       ??_C@_0BA@LAKLAIKA@tauntKillInsult?$AA@ 300969d4     ui_shared.obj
 0002:0000c9e4       ??_C@_0M@FHJJKLIB@tauntPraise?$AA@ 300969e4     ui_shared.obj
 0002:0000c9f0       ??_C@_0L@OFGCNOGN@tauntTaunt?$AA@ 300969f0     ui_shared.obj
 0002:0000c9fc       ??_C@_0BB@DHLHLJJP@tauntDeathInsult?$AA@ 300969fc     ui_shared.obj
 0002:0000ca10       ??_C@_0O@BNPKDDEF@tauntGauntlet?$AA@ 30096a10     ui_shared.obj
 0002:0000ca20       ??_C@_08NILIEBDN@scoresUp?$AA@ 30096a20     ui_shared.obj
 0002:0000ca2c       ??_C@_0L@JEAJCAAH@scoresDown?$AA@ 30096a2c     ui_shared.obj
 0002:0000ca38       ??_C@_0M@JINOELJH@messagemode?$AA@ 30096a38     ui_shared.obj
 0002:0000ca44       ??_C@_0N@IDIDIMNN@messagemode2?$AA@ 30096a44     ui_shared.obj
 0002:0000ca54       ??_C@_0N@JKJILNJM@messagemode3?$AA@ 30096a54     ui_shared.obj
 0002:0000ca64       ??_C@_0N@NFNJCLFL@messagemode4?$AA@ 30096a64     ui_shared.obj
 0002:0000ca74       ??_C@_0M@DBDAMOEM@?$CLforce_jump?$AA@ 30096a74     ui_shared.obj
 0002:0000ca80       ??_C@_0M@IBJPDFKD@force_throw?$AA@ 30096a80     ui_shared.obj
 0002:0000ca8c       ??_C@_0L@IFCEHOHA@force_pull?$AA@ 30096a8c     ui_shared.obj
 0002:0000ca98       ??_C@_0M@GNLMHCDK@force_speed?$AA@ 30096a98     ui_shared.obj
 0002:0000caa4       ??_C@_0P@PMALMCEF@force_distract?$AA@ 30096aa4     ui_shared.obj
 0002:0000cab4       ??_C@_0L@INHFGGPP@force_heal?$AA@ 30096ab4     ui_shared.obj
 0002:0000cac0       ??_C@_0M@FDHOJKJI@?$CLforce_grip?$AA@ 30096ac0     ui_shared.obj
 0002:0000cacc       ??_C@_0BB@PDNGOECE@?$CLforce_lightning?$AA@ 30096acc     ui_shared.obj
 0002:0000cae0       ??_C@_0N@FFCOOBHL@?$CLforce_drain?$AA@ 30096ae0     ui_shared.obj
 0002:0000caf0       ??_C@_0L@PNAILJHA@force_rage?$AA@ 30096af0     ui_shared.obj
 0002:0000cafc       ??_C@_0O@MHNHIGKF@force_protect?$AA@ 30096afc     ui_shared.obj
 0002:0000cb0c       ??_C@_0N@LHEDBPBG@force_absorb?$AA@ 30096b0c     ui_shared.obj
 0002:0000cb1c       ??_C@_0BA@FAEJBFDN@force_healother?$AA@ 30096b1c     ui_shared.obj
 0002:0000cb2c       ??_C@_0BG@IPJAFHDH@force_forcepowerother?$AA@ 30096b2c     ui_shared.obj
 0002:0000cb44       ??_C@_0N@PIIHDBOG@force_seeing?$AA@ 30096b44     ui_shared.obj
 0002:0000cb54       ??_C@_09LMEPJCFC@?$CLuseforce?$AA@ 30096b54     ui_shared.obj
 0002:0000cb60       ??_C@_09HEAPLILA@forcenext?$AA@ 30096b60     ui_shared.obj
 0002:0000cb6c       ??_C@_09EANJKMNE@forceprev?$AA@ 30096b6c     ui_shared.obj
 0002:0000cb78       ??_C@_07GIMAAJGF@invnext?$AA@ 30096b78     ui_shared.obj
 0002:0000cb80       ??_C@_07FMBGBNAB@invprev?$AA@ 30096b80     ui_shared.obj
 0002:0000cb88       ??_C@_0L@PHNIGFGH@use_seeker?$AA@ 30096b88     ui_shared.obj
 0002:0000cb94       ??_C@_09IOIGHDGJ@use_field?$AA@ 30096b94     ui_shared.obj
 0002:0000cba0       ??_C@_09GPEOCDOP@use_bacta?$AA@ 30096ba0     ui_shared.obj
 0002:0000cbac       ??_C@_0BG@OOGFIKBA@use_electrobinoculars?$AA@ 30096bac     ui_shared.obj
 0002:0000cbc4       ??_C@_0L@HCOPHPIB@use_sentry?$AA@ 30096bc4     ui_shared.obj
 0002:0000cbd0       ??_C@_0BB@IOOMJMJB@cg_thirdperson?5?$CB?$AA@ 30096bd0     ui_shared.obj
 0002:0000cbe4       ??_C@_0P@FDFCLGNA@automap_button?$AA@ 30096be4     ui_shared.obj
 0002:0000cbf4       ??_C@_0P@HBEPEMGI@automap_toggle?$AA@ 30096bf4     ui_shared.obj
 0002:0000cc04       ??_C@_09GLHNJALG@voicechat?$AA@ 30096c04     ui_shared.obj
 0002:0000cc10       ??_C@_09OPNKCLNO@backcolor?$AA@ 30096c10     ui_shared.obj
 0002:0000cc1c       ??_C@_09MONNBKNO@forecolor?$AA@ 30096c1c     ui_shared.obj
 0002:0000cc28       ??_C@_0M@CJNAABJD@bordercolor?$AA@ 30096c28     ui_shared.obj
 0002:0000cc34       ??_C@_0BE@MBDLAKDH@appearanceIncrement?$AA@ 30096c34     ui_shared.obj
 0002:0000cc48       ??_C@_0L@NBMNMLHL@borderSize?$AA@ 30096c48     ui_shared.obj
 0002:0000cc54       ??_C@_0O@COCPBLJA@descAlignment?$AA@ 30096c54     ui_shared.obj
 0002:0000cc64       ??_C@_09PAHMHFNJ@desccolor?$AA@ 30096c64     ui_shared.obj
 0002:0000cc70       ??_C@_05MNPDEGHK@descX?$AA@ 30096c70     ui_shared.obj
 0002:0000cc78       ??_C@_05NEOIHHDL@descY?$AA@ 30096c78     ui_shared.obj
 0002:0000cc80       ??_C@_09MEFJHNGH@descScale?$AA@ 30096c80     ui_shared.obj
 0002:0000cc8c       ??_C@_0N@EEPADJLO@disablecolor?$AA@ 30096c8c     ui_shared.obj
 0002:0000cc9c       ??_C@_0L@JDDHILPC@fadeAmount?$AA@ 30096c9c     ui_shared.obj
 0002:0000cca8       ??_C@_09DPBPOIDH@fadeClamp?$AA@ 30096ca8     ui_shared.obj
 0002:0000ccb4       ??_C@_09LGBLEGN@fadeCycle?$AA@ 30096cb4     ui_shared.obj
 0002:0000ccc0       ??_C@_0L@OKFLOHAM@focuscolor?$AA@ 30096cc0     ui_shared.obj
 0002:0000cccc       ??_C@_0L@GIACNHMO@fullscreen?$AA@ 30096ccc     ui_shared.obj
 0002:0000ccd8       ??_C@_07BNAIEIKL@itemDef?$AA@ 30096cd8     ui_shared.obj
 0002:0000cce0       ??_C@_07LAOJOJAJ@onClose?$AA@ 30096ce0     ui_shared.obj
 0002:0000cce8       ??_C@_08POJJMKJK@onAccept?$AA@ 30096ce8     ui_shared.obj
 0002:0000ccf4       ??_C@_05IIPJAONP@onESC?$AA@ 30096cf4     ui_shared.obj
 0002:0000ccfc       ??_C@_0BB@FOHPFLED@outOfBoundsClick?$AA@ 30096cfc     ui_shared.obj
 0002:0000cd10       ??_C@_06CJGNFCEB@onOpen?$AA@ 30096d10     ui_shared.obj
 0002:0000cd18       ??_C@_05EIEHMANA@popup?$AA@ 30096d18     ui_shared.obj
 0002:0000cd20       ??_C@_0CD@LBKPCJLM@UI_Alloc?3?5Failure?4?5Out?5of?5memory@ 30096d20     ui_shared.obj
 0002:0000cd44       ??_C@_0BK@OKFEFFGN@?$FO1ERROR?3?5?$CFs?0?5line?5?$CFd?3?5?$CFs?6?$AA@ 30096d44     ui_shared.obj
 0002:0000cd60       ??_C@_0BN@CKJPOGNB@expected?5float?5but?5found?5?$CFs?6?$AA@ 30096d60     ui_shared.obj
 0002:0000cd80       ??_C@_0BP@FLADEANJ@expected?5integer?5but?5found?5?$CFs?6?$AA@ 30096d80     ui_shared.obj
 0002:0000cda0       ??_C@_04OEDFLLKD@?$CC?$CFs?$CC?$AA@ 30096da0     ui_shared.obj
 0002:0000cda8       ??_C@_0CL@IDBGDCGN@?$FO3WARNING?3?5item?5has?5neither?5name@ 30096da8     ui_shared.obj
 0002:0000cdd4       ??_C@_03NFKEKGGK@all?$AA@  30096dd4     ui_shared.obj
 0002:0000cdd8       ??_C@_0DD@ICNKGIM@?$FO3WARNING?3?5Script_Transition2?3?5e@ 30096dd8     ui_shared.obj
 0002:0000ce0c       ??_C@_05LKKGNBCL@?$CFs?5?$DL?5?$AA@ 30096e0c     ui_shared.obj
 0002:0000ce14       ??_C@_02NJPGOMH@?$CFf?$AA@ 30096e14     ui_shared.obj
 0002:0000ce18       ??_C@_0BI@MLGEDDNA@slider?5handle?5key?5exit?6?$AA@ 30096e18     ui_shared.obj
 0002:0000ce30       ??_C@_09DNECJBKD@developer?$AA@ 30096e30     ui_shared.obj
 0002:0000ce3c       ??_C@_0M@FHKEBODE@screenshot?6?$AA@ 30096e3c     ui_shared.obj
 0002:0000ce48       ??_C@_09MPFFGIMJ@MENUS_YES?$AA@ 30096e48     ui_shared.obj
 0002:0000ce54       ??_C@_08POBJANAH@MENUS_NO?$AA@ 30096e54     ui_shared.obj
 0002:0000ce60       ??_C@_0CH@JIJGKJHM@Could?5not?5find?5?8?$CFs?8?5in?5the?5anim?5@ 30096e60     ui_shared.obj
 0002:0000ce88       ??_C@_0CA@MBEPFCBH@?$FO3Unknown?5item?5style?5value?5?8?$CFs?8?$AA@ 30096e88     ui_shared.obj
 0002:0000cea8       ??_C@_0BL@LEGNDHIH@?$FO3Unknown?5item?5style?5value?$AA@ 30096ea8     ui_shared.obj
 0002:0000cec4       ??_C@_0BP@JDCINHG@?$FO3Unknown?5text?5alignment?5value?$AA@ 30096ec4     ui_shared.obj
 0002:0000cee4       ??_C@_0BO@GKGLOPGG@end?5of?5file?5inside?5menu?5item?6?$AA@ 30096ee4     ui_shared.obj
 0002:0000cf04       ??_C@_0BN@JHFMAPJL@unknown?5menu?5item?5keyword?5?$CFs?$AA@ 30096f04     ui_shared.obj
 0002:0000cf24       ??_C@_0CE@OIGKMGKE@couldn?8t?5parse?5menu?5item?5keyword@ 30096f24     ui_shared.obj
 0002:0000cf48       ??_C@_04GJDJEMBE@?$CFc?$CFc?$AA@ 30096f48     ui_shared.obj
 0002:0000cf50       ??_C@_02HAOIJKIC@?$CFc?$AA@ 30096f50     ui_shared.obj
 0002:0000cf54       ??_C@_04GHJNJNPO@main?$AA@ 30096f54     ui_shared.obj
 0002:0000cf5c       ??_C@_0BL@EDFDLOD@?$FO3Unknown?5menu?5style?5value?$AA@ 30096f5c     ui_shared.obj
 0002:0000cf78       ??_C@_0BP@CHKMFCMK@?$FO3Unknown?5desc?5alignment?5value?$AA@ 30096f78     ui_shared.obj
 0002:0000cf98       ??_C@_0BJ@MPIMCBOA@end?5of?5file?5inside?5menu?6?$AA@ 30096f98     ui_shared.obj
 0002:0000cfb4       ??_C@_0BI@PALCAEGK@unknown?5menu?5keyword?5?$CFs?$AA@ 30096fb4     ui_shared.obj
 0002:0000cfcc       ??_C@_0BP@HJCDHJDP@couldn?8t?5parse?5menu?5keyword?5?$CFs?$AA@ 30096fcc     ui_shared.obj
 0002:0000cff0       __real@3fd126e978d4fdf4    30096ff0     ui_shared.obj
 0002:0000cff8       __real@4010000000000000    30096ff8     ui_shared.obj
 0002:0000d000       __real@4020000000000000    30097000     ui_shared.obj
 0002:0000d008       __real@4024000000000000    30097008     ui_shared.obj
 0002:0000d010       __real@4030000000000000    30097010     ui_shared.obj
 0002:0000d018       __real@4040000000000000    30097018     ui_shared.obj
 0002:0000d020       __real@4058000000000000    30097020     ui_shared.obj
 0002:0000d028       __real@40c00000            30097028     ui_shared.obj
 0002:0000d02c       __real@41980000            3009702c     ui_shared.obj
 0002:0000d030       __real@42c00000            30097030     ui_shared.obj
 0002:0000d034       __real@42cc0000            30097034     ui_shared.obj
 0002:0000d038       __real@44200000            30097038     ui_shared.obj
 0002:0000d040       __real@bfe0000000000000    30097040     ui_shared.obj
 0002:0000d048       __real@c1800000            30097048     ui_shared.obj
 0002:0000d050       __xmm@00000001000000010000000100000001 30097050     ui_shared.obj
 0002:0000d060       __xmm@00100004001000040010000400100004 30097060     ui_shared.obj
 0002:0000d070       __xmm@3f8000003f8000003f8000003f800000 30097070     ui_shared.obj
 0002:0000d080       ??_C@_07OFBIMGPG@testgun?$AA@ 30097080     cg_consolecmds.obj
 0002:0000d088       ??_C@_09FDMDKFOH@testmodel?$AA@ 30097088     cg_consolecmds.obj
 0002:0000d094       ??_C@_09CEJNBBKD@nextframe?$AA@ 30097094     cg_consolecmds.obj
 0002:0000d0a0       ??_C@_09KFHKLKJD@prevframe?$AA@ 300970a0     cg_consolecmds.obj
 0002:0000d0ac       ??_C@_08LEEFJCLI@nextskin?$AA@ 300970ac     cg_consolecmds.obj
 0002:0000d0b8       ??_C@_08ONPIGPGM@prevskin?$AA@ 300970b8     cg_consolecmds.obj
 0002:0000d0c4       ??_C@_07NBKBBFDF@viewpos?$AA@ 300970c4     cg_consolecmds.obj
 0002:0000d0cc       ??_C@_07DLBEELCG@?9scores?$AA@ 300970cc     cg_consolecmds.obj
 0002:0000d0d4       ??_C@_06FCHHJILH@sizeup?$AA@ 300970d4     cg_consolecmds.obj
 0002:0000d0dc       ??_C@_08KKGKLAHJ@sizedown?$AA@ 300970dc     cg_consolecmds.obj
 0002:0000d0e8       ??_C@_06GEPNGEJI@weapon?$AA@ 300970e8     cg_consolecmds.obj
 0002:0000d0f0       ??_C@_0M@IFIOEFBC@weaponclean?$AA@ 300970f0     cg_consolecmds.obj
 0002:0000d0fc       ??_C@_0M@IEEMCPKO@tell_target?$AA@ 300970fc     cg_consolecmds.obj
 0002:0000d108       ??_C@_0O@CIPPGGPC@tell_attacker?$AA@ 30097108     cg_consolecmds.obj
 0002:0000d118       ??_C@_04FNICOANA@tcmd?$AA@ 30097118     cg_consolecmds.obj
 0002:0000d120       ??_C@_05NAPLEAGB@spWin?$AA@ 30097120     cg_consolecmds.obj
 0002:0000d128       ??_C@_06EEKPMAA@spLose?$AA@ 30097128     cg_consolecmds.obj
 0002:0000d130       ??_C@_0L@FBDGNAPC@startOrbit?$AA@ 30097130     cg_consolecmds.obj
 0002:0000d13c       ??_C@_0N@FDCACBMC@loaddeferred?$AA@ 3009713c     cg_consolecmds.obj
 0002:0000d14c       ??_C@_08PLKIGCGP@briefing?$AA@ 3009714c     cg_consolecmds.obj
 0002:0000d158       ??_C@_0BA@NFKMJLPI@siegeCvarUpdate?$AA@ 30097158     cg_consolecmds.obj
 0002:0000d168       ??_C@_0BI@HDGHMOHC@siegeCompleteCvarUpdate?$AA@ 30097168     cg_consolecmds.obj
 0002:0000d180       ??_C@_08FJOFODJK@gc?5?$CFi?5?$CFi?$AA@ 30097180     cg_consolecmds.obj
 0002:0000d18c       ??_C@_0M@NABCNGBA@cg_viewsize?$AA@ 3009718c     cg_consolecmds.obj
 0002:0000d198       ??_C@_0BE@LIFMFIFG@?$CFs?5?$CI?$CFi?5?$CFi?5?$CFi?$CJ?5?3?5?$CFi?6?$AA@ 30097198     cg_consolecmds.obj
 0002:0000d1ac       ??_C@_05DBKDOICH@score?$AA@ 300971ac     cg_consolecmds.obj
 0002:0000d1b4       ??_C@_01FDFGLJHB@2?$AA@    300971b4     cg_consolecmds.obj
 0002:0000d1b8       ??_C@_0P@GDCMABHL@cg_cameraOrbit?$AA@ 300971b8     cg_consolecmds.obj
 0002:0000d1c8       ??_C@_02IEKCLPJC@35?$AA@   300971c8     cg_consolecmds.obj
 0002:0000d1cc       ??_C@_0BE@EKDKKKAP@cg_cameraOrbitDelay?$AA@ 300971cc     cg_consolecmds.obj
 0002:0000d1e0       ??_C@_01HIHLOKLC@1?$AA@    300971e0     cg_consolecmds.obj
 0002:0000d1e4       ??_C@_0P@OPFJLCMG@cg_thirdPerson?$AA@ 300971e4     cg_consolecmds.obj
 0002:0000d1f4       ??_C@_01GBGANLPD@0?$AA@    300971f4     cg_consolecmds.obj
 0002:0000d1f8       ??_C@_0BE@HGBFBDIP@cg_thirdPersonAngle?$AA@ 300971f8     cg_consolecmds.obj
 0002:0000d20c       ??_C@_03GNABGMEE@100?$AA@  3009720c     cg_consolecmds.obj
 0002:0000d210       ??_C@_0BE@FKFEAA@cg_thirdPersonRange?$AA@ 30097210     cg_consolecmds.obj
 0002:0000d224       ??_C@_07MDJMOPGK@YOU_WIN?$AA@ 30097224     cg_consolecmds.obj
 0002:0000d22c       ??_C@_09FBJDPOOB@MP_INGAME?$AA@ 3009722c     cg_consolecmds.obj
 0002:0000d238       ??_C@_08GAPGGIF@YOU_LOSE?$AA@ 30097238     cg_consolecmds.obj
 0002:0000d244       ??_C@_0L@EGAGNODH@tell?5?$CFi?5?$CFs?$AA@ 30097244     cg_consolecmds.obj
 0002:0000d250       ??_C@_01BMBHCPLG@5?$AA@    30097250     cg_consolecmds.obj
 0002:0000d254       ??_C@_0N@GENKAHPG@forcechanged?$AA@ 30097254     cg_consolecmds.obj
 0002:0000d264       ??_C@_0L@FHBJCIGK@sv_invnext?$AA@ 30097264     cg_consolecmds.obj
 0002:0000d270       ??_C@_0L@GDMPDMAO@sv_invprev?$AA@ 30097270     cg_consolecmds.obj
 0002:0000d27c       ??_C@_0N@LPPOILPI@sv_forcenext?$AA@ 3009727c     cg_consolecmds.obj
 0002:0000d28c       ??_C@_0N@ILCIJPJM@sv_forceprev?$AA@ 3009728c     cg_consolecmds.obj
 0002:0000d29c       ??_C@_0P@LACKILCD@sv_saberswitch?$AA@ 3009729c     cg_consolecmds.obj
 0002:0000d2ac       ??_C@_04HKCCIOCO@zoom?$AA@ 300972ac     cg_consolecmds.obj
 0002:0000d2b4       ??_C@_09CKNLHHEO@bot_order?$AA@ 300972b4     cg_consolecmds.obj
 0002:0000d2c0       ??_C@_04BJJEOANI@kill?$AA@ 300972c0     cg_consolecmds.obj
 0002:0000d2c8       ??_C@_03BANJEMDJ@say?$AA@  300972c8     cg_consolecmds.obj
 0002:0000d2cc       ??_C@_08NBFNGOHN@say_team?$AA@ 300972cc     cg_consolecmds.obj
 0002:0000d2d8       ??_C@_04LBPCFPDD@tell?$AA@ 300972d8     cg_consolecmds.obj
 0002:0000d2e0       ??_C@_04BMBHJADG@give?$AA@ 300972e0     cg_consolecmds.obj
 0002:0000d2e8       ??_C@_03DKFAMNOH@god?$AA@  300972e8     cg_consolecmds.obj
 0002:0000d2ec       ??_C@_08HPLPOCJL@notarget?$AA@ 300972ec     cg_consolecmds.obj
 0002:0000d2f8       ??_C@_06IHODGGMJ@noclip?$AA@ 300972f8     cg_consolecmds.obj
 0002:0000d300       ??_C@_04KADBPNCB@team?$AA@ 30097300     cg_consolecmds.obj
 0002:0000d308       ??_C@_06HNJAFFAK@follow?$AA@ 30097308     cg_consolecmds.obj
 0002:0000d310       ??_C@_09EFOFPGPE@levelshot?$AA@ 30097310     cg_consolecmds.obj
 0002:0000d31c       ??_C@_06CJHCPEHG@addbot?$AA@ 3009731c     cg_consolecmds.obj
 0002:0000d324       ??_C@_0L@CCEFBCKP@setviewpos?$AA@ 30097324     cg_consolecmds.obj
 0002:0000d330       ??_C@_08NNMLCPB@callvote?$AA@ 30097330     cg_consolecmds.obj
 0002:0000d33c       ??_C@_04GHHIKFLG@vote?$AA@ 3009733c     cg_consolecmds.obj
 0002:0000d344       ??_C@_0N@JDBKAFAM@callteamvote?$AA@ 30097344     cg_consolecmds.obj
 0002:0000d354       ??_C@_08OLLMCBNG@teamvote?$AA@ 30097354     cg_consolecmds.obj
 0002:0000d360       ??_C@_05BLKJBNOD@stats?$AA@ 30097360     cg_consolecmds.obj
 0002:0000d368       ??_C@_08OKGPDOIO@teamtask?$AA@ 30097368     cg_consolecmds.obj
 0002:0000d374       ??_C@_0M@NJBPNDAH@loaddefered?$AA@ 30097374     cg_consolecmds.obj
 0002:0000d380       ??_C@_0L@BDOGHBMH@armor_tic1?$AA@ 30097380     cg_draw.obj
 0002:0000d38c       ??_C@_0L@DIMLCCAE@armor_tic2?$AA@ 3009738c     cg_draw.obj
 0002:0000d398       ??_C@_0L@CBNABDEF@armor_tic3?$AA@ 30097398     cg_draw.obj
 0002:0000d3a4       ??_C@_0L@GOJBIFIC@armor_tic4?$AA@ 300973a4     cg_draw.obj
 0002:0000d3b0       ??_C@_0M@KEKOKPGF@health_tic1?$AA@ 300973b0     cg_draw.obj
 0002:0000d3bc       ??_C@_0M@IPIDPMKG@health_tic2?$AA@ 300973bc     cg_draw.obj
 0002:0000d3c8       ??_C@_0M@JGJIMNOH@health_tic3?$AA@ 300973c8     cg_draw.obj
 0002:0000d3d4       ??_C@_0M@NJNJFLCA@health_tic4?$AA@ 300973d4     cg_draw.obj
 0002:0000d3e0       ??_C@_0L@GOCCFELD@force_tic1?$AA@ 300973e0     cg_draw.obj
 0002:0000d3ec       ??_C@_0L@EFAPAHHA@force_tic2?$AA@ 300973ec     cg_draw.obj
 0002:0000d3f8       ??_C@_0L@FMBEDGDB@force_tic3?$AA@ 300973f8     cg_draw.obj
 0002:0000d404       ??_C@_0L@BDFFKAPG@force_tic4?$AA@ 30097404     cg_draw.obj
 0002:0000d410       ??_C@_09ICAECBDN@ammo_tic1?$AA@ 30097410     cg_draw.obj
 0002:0000d41c       ??_C@_09KJCJHCPO@ammo_tic2?$AA@ 3009741c     cg_draw.obj
 0002:0000d428       ??_C@_09LADCEDLP@ammo_tic3?$AA@ 30097428     cg_draw.obj
 0002:0000d434       ??_C@_09PPHDNFHI@ammo_tic4?$AA@ 30097434     cg_draw.obj
 0002:0000d440       ??_C@_05IKHNBOOJ@HEAL2?$AA@ 30097440     cg_draw.obj
 0002:0000d448       ??_C@_05PILPMNMM@JUMP2?$AA@ 30097448     cg_draw.obj
 0002:0000d450       ??_C@_06NKBKNFAH@SPEED2?$AA@ 30097450     cg_draw.obj
 0002:0000d458       ??_C@_05PIABDOFF@PUSH2?$AA@ 30097458     cg_draw.obj
 0002:0000d460       ??_C@_05PHHCNBEA@PULL2?$AA@ 30097460     cg_draw.obj
 0002:0000d468       ??_C@_0L@ILKNLNPA@MINDTRICK2?$AA@ 30097468     cg_draw.obj
 0002:0000d474       ??_C@_05HJGDJFFF@GRIP2?$AA@ 30097474     cg_draw.obj
 0002:0000d47c       ??_C@_0L@DOELCCHN@LIGHTNING2?$AA@ 3009747c     cg_draw.obj
 0002:0000d488       ??_C@_0L@MHGIMFCO@DARK_RAGE2?$AA@ 30097488     cg_draw.obj
 0002:0000d494       ??_C@_08MGIMODBK@PROTECT2?$AA@ 30097494     cg_draw.obj
 0002:0000d4a0       ??_C@_07DKNPJIC@ABSORB2?$AA@ 300974a0     cg_draw.obj
 0002:0000d4a8       ??_C@_0L@EOCADFMC@TEAM_HEAL2?$AA@ 300974a8     cg_draw.obj
 0002:0000d4b4       ??_C@_0BA@PGEKMKPK@TEAM_REPLENISH2?$AA@ 300974b4     cg_draw.obj
 0002:0000d4c4       ??_C@_06IHGKEKOC@DRAIN2?$AA@ 300974c4     cg_draw.obj
 0002:0000d4cc       ??_C@_07LOFPMPLA@SEEING2?$AA@ 300974cc     cg_draw.obj
 0002:0000d4d4       ??_C@_0P@EFGPLIOK@SABER_OFFENSE2?$AA@ 300974d4     cg_draw.obj
 0002:0000d4e4       ??_C@_0P@EJLFCBNE@SABER_DEFENSE2?$AA@ 300974e4     cg_draw.obj
 0002:0000d4f4       ??_C@_0N@PIKOAACM@SABER_THROW2?$AA@ 300974f4     cg_draw.obj
 0002:0000d504       ??_C@_0O@NAADLNOK@vehicle_front?$AA@ 30097504     cg_draw.obj
 0002:0000d514       ??_C@_0N@PHICPLFA@vehicle_back?$AA@ 30097514     cg_draw.obj
 0002:0000d524       ??_C@_0N@MEBBOBD@vehicle_left?$AA@ 30097524     cg_draw.obj
 0002:0000d534       ??_C@_0O@JOENAPKJ@vehicle_right?$AA@ 30097534     cg_draw.obj
 0002:0000d544       ??_C@_0N@DHHIJOLI@healthamount?$AA@ 30097544     cg_draw.obj
 0002:0000d554       ??_C@_0M@PBHBEKC@armoramount?$AA@ 30097554     cg_draw.obj
 0002:0000d560       ??_C@_0BA@EHENGAJC@saberstyle_fast?$AA@ 30097560     cg_draw.obj
 0002:0000d570       ??_C@_0BC@GFIJKDOA@saberstyle_medium?$AA@ 30097570     cg_draw.obj
 0002:0000d584       ??_C@_0BC@LKLFAMKI@saberstyle_strong?$AA@ 30097584     cg_draw.obj
 0002:0000d598       ??_C@_0L@FCOOONPA@ammoamount?$AA@ 30097598     cg_draw.obj
 0002:0000d5a4       ??_C@_0N@PHNNNPHC@ammoinfinite?$AA@ 300975a4     cg_draw.obj
 0002:0000d5b4       ??_C@_02BAABKJLB@?9?9?$AA@ 300975b4     cg_draw.obj
 0002:0000d5b8       ??_C@_0M@FIACGFKC@forceamount?$AA@ 300975b8     cg_draw.obj
 0002:0000d5c4       ??_C@_06NNBCBEFP@AKIMBO?$AA@ 300975c4     cg_draw.obj
 0002:0000d5cc       ??_C@_05PICIGLKH@STAFF?$AA@ 300975cc     cg_draw.obj
 0002:0000d5d4       ??_C@_06KDCJDEIC@STRONG?$AA@ 300975d4     cg_draw.obj
 0002:0000d5dc       ??_C@_06HMBFJLMK@MEDIUM?$AA@ 300975dc     cg_draw.obj
 0002:0000d5e4       ??_C@_04HNOLJCOK@FAST?$AA@ 300975e4     cg_draw.obj
 0002:0000d5ec       ??_C@_07LLNBIHJM@lefthud?$AA@ 300975ec     cg_draw.obj
 0002:0000d5f4       ??_C@_08NBKMMBGP@scanline?$AA@ 300975f4     cg_draw.obj
 0002:0000d600       ??_C@_05MIJNFGED@frame?$AA@ 30097600     cg_draw.obj
 0002:0000d608       ??_C@_05PKDFAPGJ@SCORE?$AA@ 30097608     cg_draw.obj
 0002:0000d610       ??_C@_09BGDELMBA@?$CFs?3?5?$CFi?1?$CFi?$AA@ 30097610     cg_draw.obj
 0002:0000d61c       ??_C@_06LDLKBCCJ@?$CFs?3?5?$CFi?$AA@ 3009761c     cg_draw.obj
 0002:0000d624       ??_C@_08DNKNJDF@righthud?$AA@ 30097624     cg_draw.obj
 0002:0000d630       ??_C@_0L@MALOJPGH@score_line?$AA@ 30097630     cg_draw.obj
 0002:0000d63c       ??_C@_09GIPEEPLK@SP_INGAME?$AA@ 3009763c     cg_draw.obj
 0002:0000d648       ??_C@_0BA@HGJCONNI@EMPTY?5INVENTORY?$AA@ 30097648     cg_draw.obj
 0002:0000d658       ??_C@_0N@KMACKPKL@SP_INGAME_?$CFs?$AA@ 30097658     cg_draw.obj
 0002:0000d668       ??_C@_0BA@CCDAELNC@armorbackground?$AA@ 30097668     cg_draw.obj
 0002:0000d678       ??_C@_0M@BPKNBEGN@armor_tic?$CFd?$AA@ 30097678     cg_draw.obj
 0002:0000d684       ??_C@_0P@CJIFLDBJ@ammobackground?$AA@ 30097684     cg_draw.obj
 0002:0000d694       ??_C@_0L@ECFEONDP@ammo_tic?$CFd?$AA@ 30097694     cg_draw.obj
 0002:0000d6a0       ??_C@_0BE@HBKNAKL@ammoupperbackground?$AA@ 300976a0     cg_draw.obj
 0002:0000d6b4       ??_C@_0BA@KDHCKNDD@ammoupper_tic?$CFd?$AA@ 300976b4     cg_draw.obj
 0002:0000d6c4       ??_C@_0BE@EJGBBGPJ@ammolowerbackground?$AA@ 300976c4     cg_draw.obj
 0002:0000d6d8       ??_C@_0BA@ONBBFBCK@ammolower_tic?$CFd?$AA@ 300976d8     cg_draw.obj
 0002:0000d6e8       ??_C@_0O@LCKIPAPA@turborecharge?$AA@ 300976e8     cg_draw.obj
 0002:0000d6f8       ??_C@_0O@IPDIHBJJ@weaponslinked?$AA@ 300976f8     cg_draw.obj
 0002:0000d708       ??_C@_0BA@BBCNBLC@speedbackground?$AA@ 30097708     cg_draw.obj
 0002:0000d718       ??_C@_0M@JLMPCMAJ@speed_tic?$CFd?$AA@ 30097718     cg_draw.obj
 0002:0000d724       ??_C@_0BB@BKBBGJEG@shieldbackground?$AA@ 30097724     cg_draw.obj
 0002:0000d738       ??_C@_0N@OMMCLJEJ@shield_tic?$CFd?$AA@ 30097738     cg_draw.obj
 0002:0000d748       ??_C@_0M@FIHNCPN@outer_frame?$AA@ 30097748     cg_draw.obj
 0002:0000d754       ??_C@_0BA@JPPCKGIP@swoopvehiclehud?$AA@ 30097754     cg_draw.obj
 0002:0000d764       ??_C@_09EJFJOCIH@leftframe?$AA@ 30097764     cg_draw.obj
 0002:0000d770       ??_C@_0L@LKEPCBNP@rightframe?$AA@ 30097770     cg_draw.obj
 0002:0000d77c       ??_C@_0BB@LKHHKMDL@vehicledamagehud?$AA@ 3009777c     cg_draw.obj
 0002:0000d790       ??_C@_0BG@LENGIJP@enemyvehicledamagehud?$AA@ 30097790     cg_draw.obj
 0002:0000d7a8       ??_C@_03FNPLCCOA@RED?$AA@  300977a8     cg_draw.obj
 0002:0000d7ac       ??_C@_04PFAOODAA@?$CFs?3?5?$AA@ 300977ac     cg_draw.obj
 0002:0000d7b4       ??_C@_01JOAMLHOP@?9?$AA@   300977b4     cg_draw.obj
 0002:0000d7b8       ??_C@_04CNFFLDFF@BLUE?$AA@ 300977b8     cg_draw.obj
 0002:0000d7c0       ??_C@_05IFECLAII@?5?$CFs?3?5?$AA@ 300977c0     cg_draw.obj
 0002:0000d7c8       ??_C@_09NAKPECJB@GET_SABER?$AA@ 300977c8     cg_draw.obj
 0002:0000d7d4       ??_C@_07KHFBGKLJ@DUELING?$AA@ 300977d4     cg_draw.obj
 0002:0000d7dc       ??_C@_06DBJEGKDN@LEADER?$AA@ 300977dc     cg_draw.obj
 0002:0000d7e4       ??_C@_05PPJGDEGI@?$CFi?1?$CFi?$AA@ 300977e4     cg_draw.obj
 0002:0000d7ec       ??_C@_0BH@OGHHEKME@time?3?$CFi?5snap?3?$CFi?5cmd?3?$CFi?$AA@ 300977ec     cg_draw.obj
 0002:0000d804       ??_C@_05MDNADFFP@?$CFifps?$AA@ 30097804     cg_draw.obj
 0002:0000d80c       ??_C@_0BD@NPDPLFMD@team?$CFi_objective?$CFi?$AA@ 3009780c     cg_draw.obj
 0002:0000d820       ??_C@_07FFDCCNEB@?$CFi?3?$CFi?$CFi?$AA@ 30097820     cg_draw.obj
 0002:0000d828       ??_C@_07CIFAGBMG@unknown?$AA@ 30097828     cg_draw.obj
 0002:0000d830       ??_C@_07FJAEFGNG@?$CF3i?5?$CF3i?$AA@ 30097830     cg_draw.obj
 0002:0000d838       ??_C@_0BF@IAOLIPJ@gfx?1hud?1mpi_rflag_ys?$AA@ 30097838     cg_draw.obj
 0002:0000d850       ??_C@_0BF@KEMOPKII@gfx?1hud?1mpi_bflag_ys?$AA@ 30097850     cg_draw.obj
 0002:0000d868       ??_C@_0BF@CNEFMHOP@SERVER_CHANGING_MAPS?$AA@ 30097868     cg_draw.obj
 0002:0000d880       ??_C@_0M@ONDMCFFB@PLEASE_WAIT?$AA@ 30097880     cg_draw.obj
 0002:0000d88c       ??_C@_0BH@FMIOKFKB@CONNECTION_INTERRUPTED?$AA@ 3009788c     cg_draw.obj
 0002:0000d8a4       ??_C@_0P@NNJCDNEK@gfx?12d?1net?4tga?$AA@ 300978a4     cg_draw.obj
 0002:0000d8b4       ??_C@_03KLKIPBNP@snc?$AA@  300978b4     cg_draw.obj
 0002:0000d8b8       ??_C@_0BA@JDLOJMCJ@cg_siegeMessage?$AA@ 300978b8     cg_draw.obj
 0002:0000d8c8       ??_C@_0L@MIIDNALC@siegeclass?$AA@ 300978c8     cg_draw.obj
 0002:0000d8d4       ??_C@_0BH@MAPMCHKH@gfx?1effects?1saberFlare?$AA@ 300978d4     cg_draw.obj
 0002:0000d8ec       ??_C@_0BO@OBMMJBM@sound?1weapons?1rocket?1lock?4wav?$AA@ 300978ec     cg_draw.obj
 0002:0000d90c       ??_C@_0BO@NPGLCAPC@sound?1weapons?1rocket?1tick?4wav?$AA@ 3009790c     cg_draw.obj
 0002:0000d92c       ??_C@_0N@HFODKPEP@gfx?12d?1wedge?$AA@ 3009792c     cg_draw.obj
 0002:0000d93c       ??_C@_0M@GFKDFJGL@gfx?12d?1lock?$AA@ 3009793c     cg_draw.obj
 0002:0000d948       ??_C@_0N@MEJHFJDP@?$CKcannonflash?$AA@ 30097948     cg_draw.obj
 0002:0000d958       ??_C@_0L@DNAFAEJK@?$CFs?5?$CIpilot?$CJ?$AA@ 30097958     cg_draw.obj
 0002:0000d964       ??_C@_09GNDCBOBP@SPECTATOR?$AA@ 30097964     cg_draw.obj
 0002:0000d970       ??_C@_03BDACDFHA@AND?$AA@  30097970     cg_draw.obj
 0002:0000d974       ??_C@_0P@DEEIGBMI@SPECHUD_VERSUS?$AA@ 30097974     cg_draw.obj
 0002:0000d984       ??_C@_0BD@KEONDFIM@?$CFs?$FO7?5?$CFs?5?$CFs?$FO7?5?$CFs?5?$CFs?$AA@ 30097984     cg_draw.obj
 0002:0000d998       ??_C@_0L@PHFNKFJL@?$CFs?$FO7?5?$CFs?5?$CFs?$AA@ 30097998     cg_draw.obj
 0002:0000d9a4       ??_C@_0BA@OGEGDHKE@WAITING_TO_PLAY?$AA@ 300979a4     cg_draw.obj
 0002:0000d9b4       ??_C@_0BA@EJICBNBF@SPEC_CHOOSEJOIN?$AA@ 300979b4     cg_draw.obj
 0002:0000d9c4       ??_C@_0M@NBIMEKNE@map_restart?$AA@ 300979c4     cg_draw.obj
 0002:0000d9d0       ??_C@_0BC@GKCGBOPB@MENUS_RESTART_MAP?$AA@ 300979d0     cg_draw.obj
 0002:0000d9e4       ??_C@_0N@NPFCFAAA@vstr?5nextmap?$AA@ 300979e4     cg_draw.obj
 0002:0000d9f4       ??_C@_0P@HJOFCBGG@MENUS_NEXT_MAP?$AA@ 300979f4     cg_draw.obj
 0002:0000da04       ??_C@_0L@LPENDGCI@g_doWarmup?$AA@ 30097a04     cg_draw.obj
 0002:0000da10       ??_C@_0N@GHCHMIMA@MENUS_WARMUP?$AA@ 30097a10     cg_draw.obj
 0002:0000da20       ??_C@_0L@GFINLBEC@g_gametype?$AA@ 30097a20     cg_draw.obj
 0002:0000da2c       ??_C@_0BA@IFPAMCHM@MENUS_GAME_TYPE?$AA@ 30097a2c     cg_draw.obj
 0002:0000da3c       ??_C@_0N@PCEMCJC@Free?5For?5All?$AA@ 30097a3c     cg_draw.obj
 0002:0000da4c       ??_C@_0N@OPJELAJP@FREE_FOR_ALL?$AA@ 30097a4c     cg_draw.obj
 0002:0000da5c       ??_C@_05ONMCFNBF@MENUS?$AA@ 30097a5c     cg_draw.obj
 0002:0000da64       ??_C@_04EPBLILKF@Duel?$AA@ 30097a64     cg_draw.obj
 0002:0000da6c       ??_C@_04ECOAEGNJ@DUEL?$AA@ 30097a6c     cg_draw.obj
 0002:0000da74       ??_C@_0N@BBLBINLJ@Holocron?5FFA?$AA@ 30097a74     cg_draw.obj
 0002:0000da84       ??_C@_0N@IFFHBAH@HOLOCRON_FFA?$AA@ 30097a84     cg_draw.obj
 0002:0000da94       ??_C@_0L@MKHOILHK@Power?5Duel?$AA@ 30097a94     cg_draw.obj
 0002:0000daa0       ??_C@_09NHOBJKNB@POWERDUEL?$AA@ 30097aa0     cg_draw.obj
 0002:0000daac       ??_C@_08NFCDKJPC@Team?5FFA?$AA@ 30097aac     cg_draw.obj
 0002:0000dab8       ??_C@_08JPMGIABA@TEAM_FFA?$AA@ 30097ab8     cg_draw.obj
 0002:0000dac4       ??_C@_05JOPHEEP@Siege?$AA@ 30097ac4     cg_draw.obj
 0002:0000dacc       ??_C@_05MFNFJGDH@SIEGE?$AA@ 30097acc     cg_draw.obj
 0002:0000dad4       ??_C@_0BB@OOIHNFAG@Capture?5the?5Flag?$AA@ 30097ad4     cg_draw.obj
 0002:0000dae8       ??_C@_0BB@NFDNICPD@CAPTURE_THE_FLAG?$AA@ 30097ae8     cg_draw.obj
 0002:0000dafc       ??_C@_0BG@BKPINHAJ@Capture?5the?5Ysalamiri?$AA@ 30097afc     cg_draw.obj
 0002:0000db14       ??_C@_0BG@NKPMOGAN@CAPTURE_THE_YSALIMARI?$AA@ 30097b14     cg_draw.obj
 0002:0000db2c       ??_C@_03HBNNNHNM@map?$AA@  30097b2c     cg_draw.obj
 0002:0000db30       ??_C@_0O@HEKHFFFJ@MENUS_NEW_MAP?$AA@ 30097b30     cg_draw.obj
 0002:0000db40       ??_C@_04FNIJDBCC@kick?$AA@ 30097b40     cg_draw.obj
 0002:0000db48       ??_C@_0BC@IBOFMGKA@MENUS_KICK_PLAYER?$AA@ 30097b48     cg_draw.obj
 0002:0000db5c       ??_C@_0L@IHNLPFAM@MENUS_VOTE?$AA@ 30097b5c     cg_draw.obj
 0002:0000db68       ??_C@_0BL@FBILOGIK@?$CFs?$CI?$CFi?$CJ?3?$DM?$CFs?5?$CFs?$DO?5?$CFs?3?$CFi?5?$CFs?3?$CFi?$AA@ 30097b68     cg_draw.obj
 0002:0000db84       ??_C@_0BI@PGAFFJKF@?$CFs?$CI?$CFi?$CJ?3?$DM?$CFs?$DO?5?$CFs?3?$CFi?5?$CFs?3?$CFi?$AA@ 30097b84     cg_draw.obj
 0002:0000db9c       ??_C@_0BN@JCPMKMDP@OR_PRESS_ESC_THEN_CLICK_VOTE?$AA@ 30097b9c     cg_draw.obj
 0002:0000dbbc       ??_C@_06DFLPLEOP@leader?$AA@ 30097bbc     cg_draw.obj
 0002:0000dbc4       ??_C@_0DI@OLEEFICH@TEAMVOTE?$CI?$CFi?$CJ?3?$CIMake?5?$CFs?5the?5new?5te@ 30097bc4     cg_draw.obj
 0002:0000dbfc       ??_C@_0BN@CPIJHJOL@TEAMVOTE?$CI?$CFi?$CJ?3?$CFs?5yes?3?$CFi?5no?3?$CFi?$AA@ 30097bfc     cg_draw.obj
 0002:0000dc1c       ??_C@_0O@ELOHELF@FOLLOWINGLONE?$AA@ 30097c1c     cg_draw.obj
 0002:0000dc2c       ??_C@_0BA@IDFMPEMP@FOLLOWINGDOUBLE?$AA@ 30097c2c     cg_draw.obj
 0002:0000dc3c       ??_C@_09CEHOCBMK@FOLLOWING?$AA@ 30097c3c     cg_draw.obj
 0002:0000dc48       ??_C@_0BE@ECCNBCF@WAITING_FOR_PLAYERS?$AA@ 30097c48     cg_draw.obj
 0002:0000dc5c       ??_C@_0BA@BLDJAJGC@?$CFs?5vs?5?$CFs?5and?5?$CFs?$AA@ 30097c5c     cg_draw.obj
 0002:0000dc6c       ??_C@_08MFFNPGJB@?$CFs?5vs?5?$CFs?$AA@ 30097c6c     cg_draw.obj
 0002:0000dc78       ??_C@_09FKOGLEJP@STARTS_IN?$AA@ 30097c78     cg_draw.obj
 0002:0000dc84       ??_C@_0BE@LDJCMFIK@gfx?1hud?1mpi_rflag_x?$AA@ 30097c84     cg_draw.obj
 0002:0000dc98       ??_C@_0BE@MPCJPEKB@gfx?1hud?1mpi_bflag_x?$AA@ 30097c98     cg_draw.obj
 0002:0000dcac       ??_C@_08FDNPOCOG@mp_timer?$AA@ 30097cac     cg_draw.obj
 0002:0000dcb8       ??_C@_07PKFONIJM@?$CFi?3?$CF02i?$AA@ 30097cb8     cg_draw.obj
 0002:0000dcc0       ??_C@_05NAPFDJNG@timer?$AA@ 30097cc0     cg_draw.obj
 0002:0000dcc8       ??_C@_06EBOOGEEL@?$CFi?30?$CFi?$AA@ 30097cc8     cg_draw.obj
 0002:0000dcd0       ??_C@_05JIFBJDMF@?$CFi?3?$CFi?$AA@ 30097cd0     cg_draw.obj
 0002:0000dcd8       ??_C@_0L@GCIALBI@deathtimer?$AA@ 30097cd8     cg_draw.obj
 0002:0000dce4       ??_C@_0CM@OKKPOFIP@CG_ChatBox_ArrayInsert?3?5Exceeded@ 30097ce4     cg_draw.obj
 0002:0000dd10       ??_C@_0O@NCEDBAEC@ROUNDBEGINSIN?$AA@ 30097d10     cg_draw.obj
 0002:0000dd20       ??_C@_08IGIILICA@?$CFs?5?$CFi?4?4?4?$AA@ 30097d20     cg_draw.obj
 0002:0000dd2c       ??_C@_0CE@GNKHIBFA@CG_DrawActive?3?5Undefined?5stereoV@ 30097d2c     cg_draw.obj
 0002:0000dd50       __real@39800000            30097d50     cg_draw.obj
 0002:0000dd54       __real@3a800000            30097d54     cg_draw.obj
 0002:0000dd58       __real@3c000000            30097d58     cg_draw.obj
 0002:0000dd5c       __real@3c23d70a            30097d5c     cg_draw.obj
 0002:0000dd60       __real@3cda740e            30097d60     cg_draw.obj
 0002:0000dd64       __real@3d5a740e            30097d64     cg_draw.obj
 0002:0000dd68       __real@3d800000            30097d68     cg_draw.obj
 0002:0000dd6c       __real@3e19999a            30097d6c     cg_draw.obj
 0002:0000dd70       __real@3ed4f8b588e368f1    30097d70     cg_draw.obj
 0002:0000dd78       __real@3f666666            30097d78     cg_draw.obj
 0002:0000dd80       __real@3f747ae147ae147b    30097d80     cg_draw.obj
 0002:0000dd88       __real@3f7ae148            30097d88     cg_draw.obj
 0002:0000dd8c       __real@3f866666            30097d8c     cg_draw.obj
 0002:0000dd90       __real@3f933333            30097d90     cg_draw.obj
 0002:0000dd94       __real@3fa00000            30097d94     cg_draw.obj
 0002:0000dd98       __real@3fa99999a0000000    30097d98     cg_draw.obj
 0002:0000dda0       __real@3fb47ae140000000    30097da0     cg_draw.obj
 0002:0000dda8       __real@3fb99999a0000000    30097da8     cg_draw.obj
 0002:0000ddb0       __real@3fc3333333333333    30097db0     cg_draw.obj
 0002:0000ddb8       __real@3fc3333340000000    30097db8     cg_draw.obj
 0002:0000ddc0       __real@3fd3333340000000    30097dc0     cg_draw.obj
 0002:0000ddc8       __real@3fd6666660000000    30097dc8     cg_draw.obj
 0002:0000ddd0       __real@3fe6666660000000    30097dd0     cg_draw.obj
 0002:0000ddd8       __real@3fe99999a0000000    30097dd8     cg_draw.obj
 0002:0000dde0       __real@404e000000000000    30097de0     cg_draw.obj
 0002:0000dde8       __real@4067c00000000000    30097de8     cg_draw.obj
 0002:0000ddf0       __real@406e000000000000    30097df0     cg_draw.obj
 0002:0000ddf8       __real@4074000000000000    30097df8     cg_draw.obj
 0002:0000de00       __real@4082200000000000    30097e00     cg_draw.obj
 0002:0000de08       __real@408f400000000000    30097e08     cg_draw.obj
 0002:0000de10       __real@409f400000000000    30097e10     cg_draw.obj
 0002:0000de18       __real@41100000            30097e18     cg_draw.obj
 0002:0000de1c       __real@41500000            30097e1c     cg_draw.obj
 0002:0000de20       __real@41940000            30097e20     cg_draw.obj
 0002:0000de24       __real@41c80000            30097e24     cg_draw.obj
 0002:0000de28       __real@41e00000            30097e28     cg_draw.obj
 0002:0000de2c       __real@42400000            30097e2c     cg_draw.obj
 0002:0000de30       __real@42440000            30097e30     cg_draw.obj
 0002:0000de34       __real@42652f1b            30097e34     cg_draw.obj
 0002:0000de38       __real@42680000            30097e38     cg_draw.obj
 0002:0000de3c       __real@42c60000            30097e3c     cg_draw.obj
 0002:0000de40       __real@42ce0000            30097e40     cg_draw.obj
 0002:0000de44       __real@42f00000            30097e44     cg_draw.obj
 0002:0000de48       __real@43060000            30097e48     cg_draw.obj
 0002:0000de4c       __real@43220000            30097e4c     cg_draw.obj
 0002:0000de50       __real@43828000            30097e50     cg_draw.obj
 0002:0000de54       __real@438d0000            30097e54     cg_draw.obj
 0002:0000de58       __real@43918000            30097e58     cg_draw.obj
 0002:0000de5c       __real@43b00000            30097e5c     cg_draw.obj
 0002:0000de60       __real@43c00000            30097e60     cg_draw.obj
 0002:0000de64       __real@43cd8000            30097e64     cg_draw.obj
 0002:0000de68       __real@43f00000            30097e68     cg_draw.obj
 0002:0000de6c       __real@43fa0000            30097e6c     cg_draw.obj
 0002:0000de70       __real@44098000            30097e70     cg_draw.obj
 0002:0000de74       __real@44110000            30097e74     cg_draw.obj
 0002:0000de78       __real@44120000            30097e78     cg_draw.obj
 0002:0000de7c       __real@44190000            30097e7c     cg_draw.obj
 0002:0000de80       __real@44610000            30097e80     cg_draw.obj
 0002:0000de84       __real@44bb8000            30097e84     cg_draw.obj
 0002:0000de88       __real@44f78001            30097e88     cg_draw.obj
 0002:0000de8c       __real@45160000            30097e8c     cg_draw.obj
 0002:0000de90       __real@453b8000            30097e90     cg_draw.obj
 0002:0000de94       __real@45505555            30097e94     cg_draw.obj
 0002:0000de98       __real@45ce4001            30097e98     cg_draw.obj
 0002:0000de9c       __real@460ca000            30097e9c     cg_draw.obj
 0002:0000dea0       __real@469c4000            30097ea0     cg_draw.obj
 0002:0000dea4       __real@46fffe00            30097ea4     cg_draw.obj
 0002:0000dea8       __real@48000000            30097ea8     cg_draw.obj
 0002:0000deac       __real@c1a00000            30097eac     cg_draw.obj
 0002:0000deb0       __real@c3fa0000            30097eb0     cg_draw.obj
 0002:0000dec0       __xmm@3dcccccd3e99999a3dcccccd3dcccccd 30097ec0     cg_draw.obj
 0002:0000ded0       __xmm@3dcccccd3f0000003f0000003f000000 30097ed0     cg_draw.obj
 0002:0000dee0       __xmm@3e99999a3e4ccccd3ecccccd3e4ccccd 30097ee0     cg_draw.obj
 0002:0000def0       __xmm@3ea8f5c300000000000000003f800000 30097ef0     cg_draw.obj
 0002:0000df00       __xmm@3ea8f5c33f8000000000000000000000 30097f00     cg_draw.obj
 0002:0000df10       __xmm@3ecccccd00000000000000003f800000 30097f10     cg_draw.obj
 0002:0000df20       __xmm@3ecccccd000000003f80000000000000 30097f20     cg_draw.obj
 0002:0000df30       __xmm@3ecccccd000000003f8000003f800000 30097f30     cg_draw.obj
 0002:0000df40       __xmm@3ecccccd3f0000003f0000003f000000 30097f40     cg_draw.obj
 0002:0000df50       __xmm@3f4ccccd00000000000000003f000000 30097f50     cg_draw.obj
 0002:0000df60       __xmm@3f4ccccd3f19999a0000000000000000 30097f60     cg_draw.obj
 0002:0000df70       __xmm@3f8000003f0000003f0000003f000000 30097f70     cg_draw.obj
 0002:0000df80       __xmm@3f8000003f1ef9db3f4000003e9fbe77 30097f80     cg_draw.obj
 0002:0000df90       __real@3d000000            30097f90     cg_drawtools.obj
 0002:0000df98       __real@3f90000000000000    30097f98     cg_drawtools.obj
 0002:0000dfa0       __real@3f99999a            30097fa0     cg_drawtools.obj
 0002:0000dfa8       __real@3fb0000000000000    30097fa8     cg_drawtools.obj
 0002:0000dfb0       __real@403e000000000000    30097fb0     cg_drawtools.obj
 0002:0000dfb8       __real@4040800000000000    30097fb8     cg_drawtools.obj
 0002:0000dfc0       __real@4069000000000000    30097fc0     cg_drawtools.obj
 0002:0000dfc8       ??_C@_0BO@IMOAEHBH@sound?1effects?1glassbreak1?4wav?$AA@ 30097fc8     cg_effects.obj
 0002:0000dfe8       ??_C@_0BC@KHOJEJFN@chunks?1glassbreak?$AA@ 30097fe8     cg_effects.obj
 0002:0000dffc       ??_C@_0BE@PFGIPPAI@chunks?1metalexplode?$AA@ 30097ffc     cg_effects.obj
 0002:0000e010       ??_C@_0BE@FIGLPACF@chunks?1sparkexplode?$AA@ 30098010     cg_effects.obj
 0002:0000e024       ??_C@_0BE@FDCAJCD@chunks?1grateexplode?$AA@ 30098024     cg_effects.obj
 0002:0000e038       ??_C@_0BB@IAFIADNA@chunks?1ropebreak?$AA@ 30098038     cg_effects.obj
 0002:0000e04c       ??_C@_0BD@HHBLDKKA@chunks?1rockbreaklg?$AA@ 3009804c     cg_effects.obj
 0002:0000e060       ??_C@_0BE@GMAIKFHK@chunks?1rockbreakmed?$AA@ 30098060     cg_effects.obj
 0002:0000e074       ??_C@_0BL@HGMHPONK@sound?1ambience?1spark?$CFd?4wav?$AA@ 30098074     cg_effects.obj
 0002:0000e090       __real@3c1374bc            30098090     cg_effects.obj
 0002:0000e094       __real@3d23d70a            30098094     cg_effects.obj
 0002:0000e098       __real@3f2a36e2eb1c432d    30098098     cg_effects.obj
 0002:0000e0a0       __real@3f9eb851e0000000    300980a0     cg_effects.obj
 0002:0000e0a8       __real@4044000000000000    300980a8     cg_effects.obj
 0002:0000e0b0       __real@4052c00000000000    300980b0     cg_effects.obj
 0002:0000e0b8       __real@4062c00000000000    300980b8     cg_effects.obj
 0002:0000e0c0       __real@435c0000            300980c0     cg_effects.obj
 0002:0000e0d0       __xmm@3f80000042aa0000000000003e19999a 300980d0     cg_effects.obj
 0002:0000e0e0       ??_C@_0CC@LDMLFDGF@models?1map_objects?1mp?1lt_heal?4md@ 300980e0     cg_ents.obj
 0002:0000e104       ??_C@_0CF@GHNLPHPI@models?1map_objects?1mp?1force_jump@ 30098104     cg_ents.obj
 0002:0000e12c       ??_C@_0CG@JFCOPPHE@models?1map_objects?1mp?1force_spee@ 3009812c     cg_ents.obj
 0002:0000e154       ??_C@_0CF@IGFBFIHC@models?1map_objects?1mp?1force_push@ 30098154     cg_ents.obj
 0002:0000e17c       ??_C@_0CF@IMFGPGED@models?1map_objects?1mp?1force_pull@ 3009817c     cg_ents.obj
 0002:0000e1a4       ??_C@_0CH@EPHIGDHG@models?1map_objects?1mp?1lt_telepat@ 300981a4     cg_ents.obj
 0002:0000e1cc       ??_C@_0CC@GGPFGOPC@models?1map_objects?1mp?1dk_grip?4md@ 300981cc     cg_ents.obj
 0002:0000e1f0       ??_C@_0CH@NPBCBKGE@models?1map_objects?1mp?1dk_lightni@ 300981f0     cg_ents.obj
 0002:0000e218       ??_C@_0CC@HBLCLHHB@models?1map_objects?1mp?1dk_rage?4md@ 30098218     cg_ents.obj
 0002:0000e23c       ??_C@_0CF@JKKDFLBL@models?1map_objects?1mp?1lt_protect@ 3009823c     cg_ents.obj
 0002:0000e264       ??_C@_0CE@OIMHGLCM@models?1map_objects?1mp?1lt_absorb?4@ 30098264     cg_ents.obj
 0002:0000e288       ??_C@_0CH@PGCLJJGA@models?1map_objects?1mp?1lt_healoth@ 30098288     cg_ents.obj
 0002:0000e2b0       ??_C@_0CI@BGHKIJBN@models?1map_objects?1mp?1dk_powerot@ 300982b0     cg_ents.obj
 0002:0000e2d8       ??_C@_0CD@GJNKCFIP@models?1map_objects?1mp?1dk_drain?4m@ 300982d8     cg_ents.obj
 0002:0000e2fc       ??_C@_0CG@LFGJGPHI@models?1map_objects?1mp?1force_sigh@ 300982fc     cg_ents.obj
 0002:0000e324       ??_C@_0CH@EECFHMAE@models?1map_objects?1mp?1saber_atta@ 30098324     cg_ents.obj
 0002:0000e34c       ??_C@_0CH@GLODINII@models?1map_objects?1mp?1saber_defe@ 3009834c     cg_ents.obj
 0002:0000e374       ??_C@_0CG@PIHMAPBC@models?1map_objects?1mp?1saber_thro@ 30098374     cg_ents.obj
 0002:0000e39c       ??_C@_09DIABHAFB@cl_paused?$AA@ 3009839c     cg_ents.obj
 0002:0000e3a8       ??_C@_0BH@IJFAKHJP@gfx?1misc?1red_dmgshield?$AA@ 300983a8     cg_ents.obj
 0002:0000e3c0       ??_C@_0BJ@BMIANOGO@gfx?1misc?1red_portashield?$AA@ 300983c0     cg_ents.obj
 0002:0000e3dc       ??_C@_0BI@JOPMALJL@gfx?1misc?1blue_dmgshield?$AA@ 300983dc     cg_ents.obj
 0002:0000e3f4       ??_C@_0BK@KHIMODAF@gfx?1misc?1blue_portashield?$AA@ 300983f4     cg_ents.obj
 0002:0000e410       ??_C@_05FIALHFBO@lhand?$AA@ 30098410     cg_ents.obj
 0002:0000e418       ??_C@_0L@OPBBEMAA@model_root?$AA@ 30098418     cg_ents.obj
 0002:0000e424       ??_C@_0P@EIKCKNBB@head_cap_torso?$AA@ 30098424     cg_ents.obj
 0002:0000e434       ??_C@_0P@PJCLBOLM@torso_cap_head?$AA@ 30098434     cg_ents.obj
 0002:0000e444       ??_C@_0BA@JAEGCEPC@?$CKhead_cap_torso?$AA@ 30098444     cg_ents.obj
 0002:0000e454       ??_C@_0BA@CBMPJHFP@?$CKtorso_cap_head?$AA@ 30098454     cg_ents.obj
 0002:0000e464       ??_C@_05LAAIDIGB@torso?$AA@ 30098464     cg_ents.obj
 0002:0000e46c       ??_C@_0P@KLJKOMNF@torso_cap_hips?$AA@ 3009846c     cg_ents.obj
 0002:0000e47c       ??_C@_0P@HDEGEHBA@hips_cap_torso?$AA@ 3009847c     cg_ents.obj
 0002:0000e48c       ??_C@_0BA@HDHOGFDG@?$CKtorso_cap_hips?$AA@ 3009848c     cg_ents.obj
 0002:0000e49c       ??_C@_0BA@KLKCMOPD@?$CKhips_cap_torso?$AA@ 3009849c     cg_ents.obj
 0002:0000e4ac       ??_C@_0N@BAHIHPBK@?$CFs_cap_torso?$AA@ 300984ac     cg_ents.obj
 0002:0000e4bc       ??_C@_0N@CPIELHKO@?$CFs_cap_l_arm?$AA@ 300984bc     cg_ents.obj
 0002:0000e4cc       ??_C@_0BB@OBMDNPC@?$CKl_arm_cap_torso?$AA@ 300984cc     cg_ents.obj
 0002:0000e4e0       ??_C@_0BB@EDANKLOL@?$CKtorso_cap_l_arm?$AA@ 300984e0     cg_ents.obj
 0002:0000e4f4       ??_C@_07LAEDECAM@rradius?$AA@ 300984f4     cg_ents.obj
 0002:0000e4fc       ??_C@_0N@BGFINEEF@?$CFs_cap_r_arm?$AA@ 300984fc     cg_ents.obj
 0002:0000e50c       ??_C@_0BB@MILJPFMH@?$CKr_arm_cap_torso?$AA@ 3009850c     cg_ents.obj
 0002:0000e520       ??_C@_0BB@HKNBMIAA@?$CKtorso_cap_r_arm?$AA@ 30098520     cg_ents.obj
 0002:0000e534       ??_C@_05GBNHBGPF@rhand?$AA@ 30098534     cg_ents.obj
 0002:0000e53c       ??_C@_0O@EKMLGHDB@?$CFs_cap_r_hand?$AA@ 3009853c     cg_ents.obj
 0002:0000e54c       ??_C@_0BC@HJGOBMJP@?$CKr_hand_cap_r_arm?$AA@ 3009854c     cg_ents.obj
 0002:0000e560       ??_C@_0BC@LCHBAINC@?$CKr_arm_cap_r_hand?$AA@ 30098560     cg_ents.obj
 0002:0000e574       ??_C@_06IANLMJDK@ltibia?$AA@ 30098574     cg_ents.obj
 0002:0000e57c       ??_C@_05JOBIHFHH@l_leg?$AA@ 3009857c     cg_ents.obj
 0002:0000e584       ??_C@_04IGFCMOIC@hips?$AA@ 30098584     cg_ents.obj
 0002:0000e58c       ??_C@_0M@PMPHMNGC@?$CFs_cap_hips?$AA@ 3009858c     cg_ents.obj
 0002:0000e598       ??_C@_0N@DOGIDCAM@?$CFs_cap_l_leg?$AA@ 30098598     cg_ents.obj
 0002:0000e5a8       ??_C@_0BA@EEEEHBHJ@?$CKl_leg_cap_hips?$AA@ 300985a8     cg_ents.obj
 0002:0000e5b8       ??_C@_0BA@IFLCIDOF@?$CKhips_cap_l_leg?$AA@ 300985b8     cg_ents.obj
 0002:0000e5c8       ??_C@_06LHDKCOKJ@rtibia?$AA@ 300985c8     cg_ents.obj
 0002:0000e5d0       ??_C@_05KHMEBGJM@r_leg?$AA@ 300985d0     cg_ents.obj
 0002:0000e5d8       ??_C@_0N@HLEFBOH@?$CFs_cap_r_leg?$AA@ 300985d8     cg_ents.obj
 0002:0000e5e8       ??_C@_0BA@ONFFPGED@?$CKr_leg_cap_hips?$AA@ 300985e8     cg_ents.obj
 0002:0000e5f8       ??_C@_0BA@LMGOOAAO@?$CKhips_cap_r_leg?$AA@ 300985f8     cg_ents.obj
 0002:0000e608       ??_C@_06KLEEIGKC@Bone02?$AA@ 30098608     cg_ents.obj
 0002:0000e610       ??_C@_0BD@FDGGIEPJ@model_default?4skin?$AA@ 30098610     cg_ents.obj
 0002:0000e624       ??_C@_0BL@MCJIELFO@gfx?1effects?1turretflashdie?$AA@ 30098624     cg_ents.obj
 0002:0000e640       ??_C@_0DB@JMBCFHFK@models?1map_objects?1imp_mine?1turr@ 30098640     cg_ents.obj
 0002:0000e674       ??_C@_0BM@OAKPMOJG@sound?1weapons?1force?1see?4wav?$AA@ 30098674     cg_ents.obj
 0002:0000e690       ??_C@_0BO@GKODPFDH@sound?1weapons?1force?1lightning?$AA@ 30098690     cg_ents.obj
 0002:0000e6b0       ??_C@_0CC@PEOLNCAE@sound?1weapons?1saber?1saberhum1?4wa@ 300986b0     cg_ents.obj
 0002:0000e6d4       ??_C@_0BM@DFPOGHOF@Bad?5item?5index?5?$CFi?5on?5entity?$AA@ 300986d4     cg_ents.obj
 0002:0000e6f0       ??_C@_0CC@EKOKLPLD@gfx?1misc?1mp_light_enlight_disabl@ 300986f0     cg_ents.obj
 0002:0000e714       ??_C@_0CB@EEJJHDFD@gfx?1misc?1mp_dark_enlight_disable@ 30098714     cg_ents.obj
 0002:0000e738       ??_C@_0DB@OLDIELNC@CG_InterpoateEntityPosition?3?5cg?4@ 30098738     cg_ents.obj
 0002:0000e76c       ??_C@_0BF@NGFHFBLN@Bad?5entity?5type?3?5?$CFi?6?$AA@ 3009876c     cg_ents.obj
 0002:0000e784       ??_C@_06HOPIODND@effect?$AA@ 30098784     cg_ents.obj
 0002:0000e78c       ??_C@_05MHNANJII@sound?$AA@ 3009878c     cg_ents.obj
 0002:0000e794       ??_C@_04GKOOIABA@loop?$AA@ 30098794     cg_ents.obj
 0002:0000e79c       ??_C@_0DH@BKFOMJJG@?$FO3Warning?3?5?$CC?$CFs?$CC?5is?5an?5invalid?5RO@ 3009879c     cg_ents.obj
 0002:0000e7d4       ??_C@_0DL@LDBLCIHM@?$FO3Warning?3?5Notetrack?5is?5missing?5@ 300987d4     cg_ents.obj
 0002:0000e810       __real@3b03126f            30098810     cg_ents.obj
 0002:0000e814       __real@3b449ba6            30098814     cg_ents.obj
 0002:0000e818       __real@3ba3d70a            30098818     cg_ents.obj
 0002:0000e820       __real@3ee4f8b588e368f1    30098820     cg_ents.obj
 0002:0000e828       __real@3f40000000000000    30098828     cg_ents.obj
 0002:0000e830       __real@3f70000000000000    30098830     cg_ents.obj
 0002:0000e838       __real@3fb47ae147ae147b    30098838     cg_ents.obj
 0002:0000e840       __real@3fd99999a0000000    30098840     cg_ents.obj
 0002:0000e848       __real@406fc00000000000    30098848     cg_ents.obj
 0002:0000e850       __real@406fe00000000000    30098850     cg_ents.obj
 0002:0000e858       __real@40d33333            30098858     cg_ents.obj
 0002:0000e85c       __real@44000000            3009885c     cg_ents.obj
 0002:0000e860       __real@44800000            30098860     cg_ents.obj
 0002:0000e864       __real@45000000            30098864     cg_ents.obj
 0002:0000e868       __real@45480000            30098868     cg_ents.obj
 0002:0000e86c       __real@468ca000            3009886c     cg_ents.obj
 0002:0000e870       __real@ba800000            30098870     cg_ents.obj
 0002:0000e874       ??_C@_06IHNDPNLA@VC_ATT?$AA@ 30098874     cg_event.obj
 0002:0000e87c       ??_C@_0P@KHGJOOIF@VC_ATT_PRIMARY?$AA@ 3009887c     cg_event.obj
 0002:0000e88c       ??_C@_0BB@KLJFCOAG@VC_ATT_SECONDARY?$AA@ 3009888c     cg_event.obj
 0002:0000e8a0       ??_C@_0M@JFELNFCA@VC_DEF_GUNS?$AA@ 300988a0     cg_event.obj
 0002:0000e8ac       ??_C@_0BA@HLFKBIC@VC_DEF_POSITION?$AA@ 300988ac     cg_event.obj
 0002:0000e8bc       ??_C@_0P@HDOJNDEL@VC_DEF_PRIMARY?$AA@ 300988bc     cg_event.obj
 0002:0000e8cc       ??_C@_0BB@KGIEEMFH@VC_DEF_SECONDARY?$AA@ 300988cc     cg_event.obj
 0002:0000e8e0       ??_C@_0BA@EFOCDAMI@VC_REPLY_COMING?$AA@ 300988e0     cg_event.obj
 0002:0000e8f0       ??_C@_0M@JCBGJIEP@VC_REPLY_GO?$AA@ 300988f0     cg_event.obj
 0002:0000e8fc       ??_C@_0M@JNMHKDMA@VC_REPLY_NO?$AA@ 300988fc     cg_event.obj
 0002:0000e908       ??_C@_0O@IBGMDKJM@VC_REPLY_STAY?$AA@ 30098908     cg_event.obj
 0002:0000e918       ??_C@_0N@MKDGOBHE@VC_REPLY_YES?$AA@ 30098918     cg_event.obj
 0002:0000e928       ??_C@_0O@EPKPIMNE@VC_REQ_ASSIST?$AA@ 30098928     cg_event.obj
 0002:0000e938       ??_C@_0M@BLGAICNA@VC_REQ_DEMO?$AA@ 30098938     cg_event.obj
 0002:0000e944       ??_C@_0L@PNFMICJA@VC_REQ_HVY?$AA@ 30098944     cg_event.obj
 0002:0000e950       ??_C@_0N@DBGMMGA@VC_REQ_MEDIC?$AA@ 30098950     cg_event.obj
 0002:0000e960       ??_C@_0O@KBNCBKOL@VC_REQ_SUPPLY?$AA@ 30098960     cg_event.obj
 0002:0000e970       ??_C@_0M@DOFPKOJP@VC_REQ_TECH?$AA@ 30098970     cg_event.obj
 0002:0000e97c       ??_C@_0M@FFBELII@VC_SPOT_AIR?$AA@ 3009897c     cg_event.obj
 0002:0000e988       ??_C@_0M@BFDLJFIL@VC_SPOT_DEF?$AA@ 30098988     cg_event.obj
 0002:0000e994       ??_C@_0BB@OFFPFDGF@VC_SPOT_EMPLACED?$AA@ 30098994     cg_event.obj
 0002:0000e9a8       ??_C@_0P@CPGCNJAC@VC_SPOT_SNIPER?$AA@ 300989a8     cg_event.obj
 0002:0000e9b8       ??_C@_0O@DFHBKCFK@VC_SPOT_TROOP?$AA@ 300989b8     cg_event.obj
 0002:0000e9c8       ??_C@_0N@LNBDOHMM@VC_TAC_COVER?$AA@ 300989c8     cg_event.obj
 0002:0000e9d8       ??_C@_0BA@JEJBIDNE@VC_TAC_FALLBACK?$AA@ 300989d8     cg_event.obj
 0002:0000e9e8       ??_C@_0O@HGALIJMC@VC_TAC_FOLLOW?$AA@ 300989e8     cg_event.obj
 0002:0000e9f8       ??_C@_0M@FEAKMGNO@VC_TAC_HOLD?$AA@ 300989f8     cg_event.obj
 0002:0000ea04       ??_C@_0N@DMJBAMBN@VC_TAC_SPLIT?$AA@ 30098a04     cg_event.obj
 0002:0000ea14       ??_C@_0BA@CLAAAGCB@VC_TAC_TOGETHER?$AA@ 30098a14     cg_event.obj
 0002:0000ea24       ??_C@_0BE@KOEAJGML@MP_INGAME_NUMBER_ST?$AA@ 30098a24     cg_event.obj
 0002:0000ea38       ??_C@_0BE@PAHMLELJ@MP_INGAME_NUMBER_ND?$AA@ 30098a38     cg_event.obj
 0002:0000ea4c       ??_C@_0BE@OFEAOOKN@MP_INGAME_NUMBER_RD?$AA@ 30098a4c     cg_event.obj
 0002:0000ea60       ??_C@_0BE@ENHINNBD@MP_INGAME_NUMBER_TH?$AA@ 30098a60     cg_event.obj
 0002:0000ea74       ??_C@_0BD@PKKAIICO@MP_INGAME_TIED_FOR?$AA@ 30098a74     cg_event.obj
 0002:0000ea88       ??_C@_03KMLIBBBJ@1?$CFs?$AA@ 30098a88     cg_event.obj
 0002:0000ea8c       ??_C@_03LOANLOPH@2?$CFs?$AA@ 30098a8c     cg_event.obj
 0002:0000ea90       ??_C@_03GLBNJJC@3?$CFs?$AA@ 30098a90     cg_event.obj
 0002:0000ea94       ??_C@_04NHJPKICO@11?$CFs?$AA@ 30098a94     cg_event.obj
 0002:0000ea9c       ??_C@_04MFCKAHMA@12?$CFs?$AA@ 30098a9c     cg_event.obj
 0002:0000eaa4       ??_C@_04HNJGGAKF@13?$CFs?$AA@ 30098aa4     cg_event.obj
 0002:0000eaac       ??_C@_04EMEGLOCB@?$CFi?$CFs?$AA@ 30098aac     cg_event.obj
 0002:0000eab4       ??_C@_0CB@LLKCBBGA@CG_Obituary?3?5target?5out?5of?5range@ 30098ab4     cg_event.obj
 0002:0000ead8       ??_C@_01EFFIKLCJ@n?$AA@    30098ad8     cg_event.obj
 0002:0000eadc       ??_C@_02PGJLIFGD@?$FO7?$AA@ 30098adc     cg_event.obj
 0002:0000eae0       ??_C@_0N@OIOBBDFO@DIED_GENERIC?$AA@ 30098ae0     cg_event.obj
 0002:0000eaf0       ??_C@_0L@EGGEHAEK@DIED_LASER?$AA@ 30098af0     cg_event.obj
 0002:0000eafc       ??_C@_0BE@BKCBNJLP@SUICIDE_SHOT_FEMALE?$AA@ 30098afc     cg_event.obj
 0002:0000eb10       ??_C@_0BI@EDLJKFEC@SUICIDE_SHOT_GENDERLESS?$AA@ 30098b10     cg_event.obj
 0002:0000eb28       ??_C@_0BC@DLPIHFNE@SUICIDE_SHOT_MALE?$AA@ 30098b28     cg_event.obj
 0002:0000eb3c       ??_C@_0BK@GNELLBLD@SUICIDE_EXPLOSIVES_FEMALE?$AA@ 30098b3c     cg_event.obj
 0002:0000eb58       ??_C@_0BO@BONIOHNA@SUICIDE_EXPLOSIVES_GENDERLESS?$AA@ 30098b58     cg_event.obj
 0002:0000eb78       ??_C@_0BI@LOIGJPMB@SUICIDE_EXPLOSIVES_MALE?$AA@ 30098b78     cg_event.obj
 0002:0000eb90       ??_C@_0BM@NIKKDAII@SUICIDE_ELECTROCUTED_FEMALE?$AA@ 30098b90     cg_event.obj
 0002:0000ebac       ??_C@_0CA@CFGLGMGJ@SUICIDE_ELECTROCUTED_GENDERLESS?$AA@ 30098bac     cg_event.obj
 0002:0000ebcc       ??_C@_0BK@JOACMNGP@SUICIDE_ELECTROCUTED_MALE?$AA@ 30098bcc     cg_event.obj
 0002:0000ebe8       ??_C@_0BJ@DCOGPDGK@SUICIDE_FALLDEATH_FEMALE?$AA@ 30098be8     cg_event.obj
 0002:0000ec04       ??_C@_0BN@NGOHMGKM@SUICIDE_FALLDEATH_GENDERLESS?$AA@ 30098c04     cg_event.obj
 0002:0000ec24       ??_C@_0BH@BDIIPDGM@SUICIDE_FALLDEATH_MALE?$AA@ 30098c24     cg_event.obj
 0002:0000ec3c       ??_C@_0BM@PFKEEECI@SUICIDE_GENERICDEATH_FEMALE?$AA@ 30098c3c     cg_event.obj
 0002:0000ec58       ??_C@_0CA@OAKEMEBL@SUICIDE_GENERICDEATH_GENDERLESS?$AA@ 30098c58     cg_event.obj
 0002:0000ec78       ??_C@_0BK@LDDEAKKE@SUICIDE_GENERICDEATH_MALE?$AA@ 30098c78     cg_event.obj
 0002:0000ec94       ??_C@_06IINFAHFO@?$CFs?5?$CFs?6?$AA@ 30098c94     cg_event.obj
 0002:0000ec9c       ??_C@_0BJ@KBGFPHJH@MP_INGAME_KILLED_MESSAGE?$AA@ 30098c9c     cg_event.obj
 0002:0000ecb8       ??_C@_0BJ@NEOJGJCJ@MP_INGAME_JMKILLED_NOTJM?$AA@ 30098cb8     cg_event.obj
 0002:0000ecd4       ??_C@_09OEGONCCB@?$CFs?5?$CFs?6?$CFs?6?$AA@ 30098cd4     cg_event.obj
 0002:0000ece0       ??_C@_0BF@IKFHMHCC@MP_INGAME_PLACE_WITH?$AA@ 30098ce0     cg_event.obj
 0002:0000ecf8       ??_C@_0BB@FMBDAKNB@?$CFs?5?$CFs?4?6?$CFs?5?$CFs?5?$CFi?4?$AA@ 30098cf8     cg_event.obj
 0002:0000ed0c       ??_C@_05DNIIFBMG@?$CFs?5?$CFs?$AA@ 30098d0c     cg_event.obj
 0002:0000ed14       ??_C@_06LNKFDEGN@noname?$AA@ 30098d14     cg_event.obj
 0002:0000ed1c       ??_C@_0M@MHEOJOMG@KILLED_STUN?$AA@ 30098d1c     cg_event.obj
 0002:0000ed28       ??_C@_0N@LKNGLIHG@KILLED_MELEE?$AA@ 30098d28     cg_event.obj
 0002:0000ed38       ??_C@_0N@JDNGIOPI@KILLED_SABER?$AA@ 30098d38     cg_event.obj
 0002:0000ed48       ??_C@_0N@PMANMKNG@KILLED_BRYAR?$AA@ 30098d48     cg_event.obj
 0002:0000ed58       ??_C@_0P@LFCADJJM@KILLED_BLASTER?$AA@ 30098d58     cg_event.obj
 0002:0000ed68       ??_C@_0BB@OIONJBHE@KILLED_DISRUPTOR?$AA@ 30098d68     cg_event.obj
 0002:0000ed7c       ??_C@_0BG@FEEEOEOP@KILLED_DISRUPTORSNIPE?$AA@ 30098d7c     cg_event.obj
 0002:0000ed94       ??_C@_0BB@BHKLOLC@KILLED_BOWCASTER?$AA@ 30098d94     cg_event.obj
 0002:0000eda8       ??_C@_0BA@IPOEHCNL@KILLED_REPEATER?$AA@ 30098da8     cg_event.obj
 0002:0000edb8       ??_C@_0BD@LPENDEOH@KILLED_REPEATERALT?$AA@ 30098db8     cg_event.obj
 0002:0000edcc       ??_C@_0N@FPPGAAHB@KILLED_DEMP2?$AA@ 30098dcc     cg_event.obj
 0002:0000eddc       ??_C@_0BB@NPEKGKGA@KILLED_FLECHETTE?$AA@ 30098ddc     cg_event.obj
 0002:0000edf0       ??_C@_0BG@PKKJJLAL@KILLED_FLECHETTE_MINE?$AA@ 30098df0     cg_event.obj
 0002:0000ee08       ??_C@_0O@DFIJLFEC@KILLED_ROCKET?$AA@ 30098e08     cg_event.obj
 0002:0000ee18       ??_C@_0BF@GEDPKMGM@KILLED_ROCKET_HOMING?$AA@ 30098e18     cg_event.obj
 0002:0000ee30       ??_C@_0P@KDBDMBJD@KILLED_THERMAL?$AA@ 30098e30     cg_event.obj
 0002:0000ee40       ??_C@_0BA@EFIIHAGC@KILLED_TRIPMINE?$AA@ 30098e40     cg_event.obj
 0002:0000ee50       ??_C@_0BG@HOAJDDCM@KILLED_TRIPMINE_TIMED?$AA@ 30098e50     cg_event.obj
 0002:0000ee68       ??_C@_0P@KCGOODH@KILLED_DETPACK?$AA@ 30098e68     cg_event.obj
 0002:0000ee78       ??_C@_0P@JAGCHHE@KILLED_GENERIC?$AA@ 30098e78     cg_event.obj
 0002:0000ee88       ??_C@_0BB@CDNJLIKH@KILLED_DARKFORCE?$AA@ 30098e88     cg_event.obj
 0002:0000ee9c       ??_C@_0O@GOEINFFA@KILLED_SENTRY?$AA@ 30098e9c     cg_event.obj
 0002:0000eeac       ??_C@_0BA@PLHHDAOP@KILLED_TELEFRAG?$AA@ 30098eac     cg_event.obj
 0002:0000eebc       ??_C@_0BB@OPGILALH@KILLED_FORCETOSS?$AA@ 30098ebc     cg_event.obj
 0002:0000eed0       ??_C@_09GPBPOFIE@?$CFs?5?$CFs?5?$CFs?6?$AA@ 30098ed0     cg_event.obj
 0002:0000eedc       ??_C@_0L@OMPHCJLG@PICKUPLINE?$AA@ 30098edc     cg_event.obj
 0002:0000eee8       ??_C@_0M@FAKIOGIA@?$CKpain25?4wav?$AA@ 30098ee8     cg_event.obj
 0002:0000eef4       ??_C@_0M@MFMCEJLN@?$CKpain50?4wav?$AA@ 30098ef4     cg_event.obj
 0002:0000ef00       ??_C@_0M@CJAMJCH@?$CKpain75?4wav?$AA@ 30098f00     cg_event.obj
 0002:0000ef0c       ??_C@_0N@CIPOKOBF@?$CKpain100?4wav?$AA@ 30098f0c     cg_event.obj
 0002:0000ef1c       ??_C@_04HEDFJGEJ@FREE?$AA@ 30098f1c     cg_event.obj
 0002:0000ef24       ??_C@_0BF@MKAEEDCG@FRAGGED_FLAG_CARRIER?$AA@ 30098f24     cg_event.obj
 0002:0000ef3c       ??_C@_0O@MBPOLPAP@FLAG_RETURNED?$AA@ 30098f3c     cg_event.obj
 0002:0000ef4c       ??_C@_0BF@DCOFADEE@PLAYER_RETURNED_FLAG?$AA@ 30098f4c     cg_event.obj
 0002:0000ef64       ??_C@_0BF@GDEBPKGL@PLAYER_CAPTURED_FLAG?$AA@ 30098f64     cg_event.obj
 0002:0000ef7c       ??_C@_0BA@GOKKEBNJ@PLAYER_GOT_FLAG?$AA@ 30098f7c     cg_event.obj
 0002:0000ef8c       ??_C@_03IKGEINEE@?$CFs?5?$AA@ 30098f8c     cg_event.obj
 0002:0000ef90       ??_C@_03OFAPEBGM@?$CFs?6?$AA@ 30098f90     cg_event.obj
 0002:0000ef94       ??_C@_0CD@PBPAMPHJ@sound?1movers?1objects?1objectHit?4w@ 30098f94     cg_event.obj
 0002:0000efb8       ??_C@_0L@LNFPJAAJ@?$CKland1?4wav?$AA@ 30098fb8     cg_event.obj
 0002:0000efc4       ??_C@_0L@PAMDLABJ@voice?5chat?$AA@ 30098fc4     cg_event.obj
 0002:0000efd0       ??_C@_0BE@HGIJDIOP@ent?3?$CF3i?5?5event?3?$CF3i?5?$AA@ 30098fd0     cg_event.obj
 0002:0000efe4       ??_C@_0L@GMIFJJAD@ZEROEVENT?6?$AA@ 30098fe4     cg_event.obj
 0002:0000eff0       ??_C@_0P@LEHMHLJF@EV_CLIENTJOIN?6?$AA@ 30098ff0     cg_event.obj
 0002:0000f000       ??_C@_0N@KAJBJGHI@EV_FOOTSTEP?6?$AA@ 30099000     cg_event.obj
 0002:0000f010       ??_C@_0BD@GPGIDOAE@EV_FOOTSTEP_METAL?6?$AA@ 30099010     cg_event.obj
 0002:0000f024       ??_C@_0P@ECCJNKCN@EV_FOOTSPLASH?6?$AA@ 30099024     cg_event.obj
 0002:0000f034       ??_C@_0N@DBFBMKGC@EV_FOOTWADE?6?$AA@ 30099034     cg_event.obj
 0002:0000f044       ??_C@_08KPLPEGCK@EV_SWIM?6?$AA@ 30099044     cg_event.obj
 0002:0000f050       ??_C@_08CFBICNCF@EV_FALL?6?$AA@ 30099050     cg_event.obj
 0002:0000f05c       ??_C@_08LGDHLDGB@EV_STEP?6?$AA@ 3009905c     cg_event.obj
 0002:0000f068       ??_C@_0N@CDCGGHDH@EV_JUMP_PAD?6?$AA@ 30099068     cg_event.obj
 0002:0000f078       ??_C@_0BA@GNCBDOLB@EV_GHOUL2_MARK?6?$AA@ 30099078     cg_event.obj
 0002:0000f088       ??_C@_0BA@JJCOOCID@EV_GLOBAL_DUEL?6?$AA@ 30099088     cg_event.obj
 0002:0000f098       ??_C@_0L@HMDPGPOM@BEGIN_DUEL?$AA@ 30099098     cg_event.obj
 0002:0000f0a4       ??_C@_09HNLILNJH@MP_SVGAME?$AA@ 300990a4     cg_event.obj
 0002:0000f0b0       ??_C@_0BB@MIEMHGH@EV_PRIVATE_DUEL?6?$AA@ 300990b0     cg_event.obj
 0002:0000f0c4       ??_C@_0BC@BIOHEDAP@music?1mp?1duel?4mp3?$AA@ 300990c4     cg_event.obj
 0002:0000f0d8       ??_C@_08GKDKOBGN@EV_JUMP?6?$AA@ 300990d8     cg_event.obj
 0002:0000f0e4       ??_C@_0L@FMHDEMAN@?$CKjump1?4wav?$AA@ 300990e4     cg_event.obj
 0002:0000f0f0       ??_C@_08CGPNDMJ@EV_ROLL?6?$AA@ 300990f0     cg_event.obj
 0002:0000f0fc       ??_C@_09OAFEJHMF@EV_TAUNT?6?$AA@ 300990fc     cg_event.obj
 0002:0000f108       ??_C@_0L@FDBCLIPJ@?$CKtaunt?4wav?$AA@ 30099108     cg_event.obj
 0002:0000f114       ??_C@_0N@LFMMGJKI@?$CKanger?$CFd?4wav?$AA@ 30099114     cg_event.obj
 0002:0000f124       ??_C@_0N@NFOOMBAN@?$CKtaunt?$CFd?4wav?$AA@ 30099124     cg_event.obj
 0002:0000f134       ??_C@_0P@BAFJNLJH@?$CKdeflect?$CFd?4wav?$AA@ 30099134     cg_event.obj
 0002:0000f144       ??_C@_0N@IKMJGNPG@?$CKgloat?$CFd?4wav?$AA@ 30099144     cg_event.obj
 0002:0000f154       ??_C@_0P@LGDFBLBJ@?$CKvictory?$CFd?4wav?$AA@ 30099154     cg_event.obj
 0002:0000f164       ??_C@_0L@JIMCLEOH@EV_ANGERx?6?$AA@ 30099164     cg_event.obj
 0002:0000f170       ??_C@_0N@JFCHKHG@?$CKanger?$CFi?4wav?$AA@ 30099170     cg_event.obj
 0002:0000f180       ??_C@_0N@HEEPLDGK@EV_VICTORYx?6?$AA@ 30099180     cg_event.obj
 0002:0000f190       ??_C@_0P@KKLAIMH@?$CKvictory?$CFi?4wav?$AA@ 30099190     cg_event.obj
 0002:0000f1a0       ??_C@_0O@KPIHHDB@EV_CONFUSEDx?6?$AA@ 300991a0     cg_event.obj
 0002:0000f1b0       ??_C@_0P@CMIJNIPJ@?$CKconfuse?$CFi?4wav?$AA@ 300991b0     cg_event.obj
 0002:0000f1c0       ??_C@_0M@EODEDNBM@EV_PUSHEDx?6?$AA@ 300991c0     cg_event.obj
 0002:0000f1cc       ??_C@_0O@NKLIIKEJ@?$CKpushed?$CFi?4wav?$AA@ 300991cc     cg_event.obj
 0002:0000f1dc       ??_C@_0L@CHJKNFIK@EV_CHOKEx?6?$AA@ 300991dc     cg_event.obj
 0002:0000f1e8       ??_C@_0N@KALHINPO@?$CKchoke?$CFi?4wav?$AA@ 300991e8     cg_event.obj
 0002:0000f1f8       ??_C@_0L@HHFIMOOA@EV_FFWARN?6?$AA@ 300991f8     cg_event.obj
 0002:0000f204       ??_C@_0M@GLFHPFHD@?$CKffwarn?4wav?$AA@ 30099204     cg_event.obj
 0002:0000f210       ??_C@_0L@GEKMINAM@EV_FFTURN?6?$AA@ 30099210     cg_event.obj
 0002:0000f21c       ??_C@_0M@KKCLPGGH@?$CKffturn?4wav?$AA@ 3009921c     cg_event.obj
 0002:0000f228       ??_C@_0L@ENAAGILJ@EV_CHASEx?6?$AA@ 30099228     cg_event.obj
 0002:0000f234       ??_C@_0N@KJGGFNCE@?$CKchase?$CFi?4wav?$AA@ 30099234     cg_event.obj
 0002:0000f244       ??_C@_0L@LEBKGJBA@EV_COVERx?6?$AA@ 30099244     cg_event.obj
 0002:0000f250       ??_C@_0N@OMILNBPP@?$CKcover?$CFi?4wav?$AA@ 30099250     cg_event.obj
 0002:0000f260       ??_C@_0O@JKILKEDL@EV_DETECTEDx?6?$AA@ 30099260     cg_event.obj
 0002:0000f270       ??_C@_0BA@IEJODIMK@?$CKdetected?$CFi?4wav?$AA@ 30099270     cg_event.obj
 0002:0000f280       ??_C@_0M@PMLMFNPD@EV_GIVEUPx?6?$AA@ 30099280     cg_event.obj
 0002:0000f28c       ??_C@_0O@MKEGNAOE@?$CKgiveup?$CFi?4wav?$AA@ 3009928c     cg_event.obj
 0002:0000f29c       ??_C@_09KCLGOEIJ@EV_LOOKx?6?$AA@ 3009929c     cg_event.obj
 0002:0000f2a8       ??_C@_0M@IECJNBN@?$CKlook?$CFi?4wav?$AA@ 300992a8     cg_event.obj
 0002:0000f2b4       ??_C@_09HAJHGPIM@EV_LOST1?6?$AA@ 300992b4     cg_event.obj
 0002:0000f2c0       ??_C@_0L@PFPNPDKP@?$CKlost1?4wav?$AA@ 300992c0     cg_event.obj
 0002:0000f2cc       ??_C@_0O@JKGLGHPC@EV_OUTFLANKx?6?$AA@ 300992cc     cg_event.obj
 0002:0000f2dc       ??_C@_0BA@ECEMECLD@?$CKoutflank?$CFi?4wav?$AA@ 300992dc     cg_event.obj
 0002:0000f2ec       ??_C@_0O@LBEFKCPP@EV_ESCAPINGx?6?$AA@ 300992ec     cg_event.obj
 0002:0000f2fc       ??_C@_0BA@IAPJDOKJ@?$CKescaping?$CFi?4wav?$AA@ 300992fc     cg_event.obj
 0002:0000f30c       ??_C@_0L@LOAACHFC@EV_SIGHTx?6?$AA@ 3009930c     cg_event.obj
 0002:0000f318       ??_C@_0N@PHGKPCEG@?$CKsight?$CFi?4wav?$AA@ 30099318     cg_event.obj
 0002:0000f328       ??_C@_0L@EMJHBDMH@EV_SOUNDx?6?$AA@ 30099328     cg_event.obj
 0002:0000f334       ??_C@_0N@DDCFCBHB@?$CKsound?$CFi?4wav?$AA@ 30099334     cg_event.obj
 0002:0000f344       ??_C@_0BA@KBLHFCPH@EV_SUSPICIOUSx?6?$AA@ 30099344     cg_event.obj
 0002:0000f354       ??_C@_0BC@PHFLACAM@?$CKsuspicious?$CFi?4wav?$AA@ 30099354     cg_event.obj
 0002:0000f368       ??_C@_0M@FOBFLOB@EV_COMBATx?6?$AA@ 30099368     cg_event.obj
 0002:0000f374       ??_C@_0O@PPKPFKOD@?$CKcombat?$CFi?4wav?$AA@ 30099374     cg_event.obj
 0002:0000f384       ??_C@_0P@GMGCJCFO@EV_JDETECTEDx?6?$AA@ 30099384     cg_event.obj
 0002:0000f394       ??_C@_0BB@JDDLJJHL@?$CKjdetected?$CFi?4wav?$AA@ 30099394     cg_event.obj
 0002:0000f3a8       ??_C@_0L@EGHEDGBM@EV_TAUNTx?6?$AA@ 300993a8     cg_event.obj
 0002:0000f3b4       ??_C@_0N@GJHANCND@?$CKtaunt?$CFi?4wav?$AA@ 300993b4     cg_event.obj
 0002:0000f3c4       ??_C@_0M@NIMEFBOE@EV_JCHASEx?6?$AA@ 300993c4     cg_event.obj
 0002:0000f3d0       ??_C@_0O@NFHHFBIJ@?$CKjchase?$CFi?4wav?$AA@ 300993d0     cg_event.obj
 0002:0000f3e0       ??_C@_0L@HEKPAGAL@EV_JLOSTx?6?$AA@ 300993e0     cg_event.obj
 0002:0000f3ec       ??_C@_0N@CKMOBFDB@?$CKjlost?$CFi?4wav?$AA@ 300993ec     cg_event.obj
 0002:0000f3fc       ??_C@_0N@KDIAIIOP@EV_DEFLECTx?6?$AA@ 300993fc     cg_event.obj
 0002:0000f40c       ??_C@_0P@KMMHMIEJ@?$CKdeflect?$CFi?4wav?$AA@ 3009940c     cg_event.obj
 0002:0000f41c       ??_C@_0L@PFIKNHDI@EV_GLOATx?6?$AA@ 3009941c     cg_event.obj
 0002:0000f428       ??_C@_0N@DGFHHOCI@?$CKgloat?$CFi?4wav?$AA@ 30099428     cg_event.obj
 0002:0000f438       ??_C@_0N@JMFEBDJA@EV_PUSHFAIL?6?$AA@ 30099438     cg_event.obj
 0002:0000f448       ??_C@_0O@HILDDGFG@?$CKpushfail?4wav?$AA@ 30099448     cg_event.obj
 0002:0000f458       ??_C@_0O@LILDLENG@EV_SIEGESPEC?6?$AA@ 30099458     cg_event.obj
 0002:0000f468       ??_C@_0BA@PBFGAGAE@EV_WATER_TOUCH?6?$AA@ 30099468     cg_event.obj
 0002:0000f478       ??_C@_0BA@POIDPCHH@EV_WATER_LEAVE?6?$AA@ 30099478     cg_event.obj
 0002:0000f488       ??_C@_0BA@PFCHBJFN@EV_WATER_UNDER?6?$AA@ 30099488     cg_event.obj
 0002:0000f498       ??_C@_0BA@OODKPEF@EV_WATER_CLEAR?6?$AA@ 30099498     cg_event.obj
 0002:0000f4a8       ??_C@_09OICPJII@?$CKgasp?4wav?$AA@ 300994a8     cg_event.obj
 0002:0000f4b4       ??_C@_0BA@LGJAHGJL@EV_ITEM_PICKUP?6?$AA@ 300994b4     cg_event.obj
 0002:0000f4c4       ??_C@_0BH@BPJPNNOH@EV_GLOBAL_ITEM_PICKUP?6?$AA@ 300994c4     cg_event.obj
 0002:0000f4dc       ??_C@_0N@GJLAOEL@EV_VEH_FIRE?6?$AA@ 300994dc     cg_event.obj
 0002:0000f4ec       ??_C@_0L@CIOCLBPP@EV_NOAMMO?6?$AA@ 300994ec     cg_event.obj
 0002:0000f4f8       ??_C@_0BC@KBHMOJOO@EV_CHANGE_WEAPON?6?$AA@ 300994f8     cg_event.obj
 0002:0000f50c       ??_C@_0BA@CJMMIDHE@EV_FIRE_WEAPON?6?$AA@ 3009950c     cg_event.obj
 0002:0000f51c       ??_C@_08DFMFBHOP@?$CKflash01?$AA@ 3009951c     cg_event.obj
 0002:0000f528       ??_C@_08BOOIEECM@?$CKflash02?$AA@ 30099528     cg_event.obj
 0002:0000f534       ??_C@_0N@EEFOAGOF@EV_ALT_FIRE?6?$AA@ 30099534     cg_event.obj
 0002:0000f544       ??_C@_0BB@EBLNKKNK@EV_SABER_ATTACK?6?$AA@ 30099544     cg_event.obj
 0002:0000f558       ??_C@_0CD@EBJGEHEE@sound?1weapons?1saber?1saberhup?$CFi?4w@ 30099558     cg_event.obj
 0002:0000f57c       ??_C@_0O@FLLECKKD@EV_SABER_HIT?6?$AA@ 3009957c     cg_event.obj
 0002:0000f58c       ??_C@_0CD@IPCIPINL@sound?1weapons?1saber?1saberhit?$CFi?4w@ 3009958c     cg_event.obj
 0002:0000f5b0       ??_C@_0BA@NNCAIIDK@EV_SABER_BLOCK?6?$AA@ 300995b0     cg_event.obj
 0002:0000f5c0       ??_C@_0CF@KPADFJEL@sound?1weapons?1saber?1saberblock?$CFd@ 300995c0     cg_event.obj
 0002:0000f5e8       ??_C@_0BF@BLJMDOGE@EV_SABER_CLASHFLARE?6?$AA@ 300995e8     cg_event.obj
 0002:0000f600       ??_C@_0CD@MINDHCBN@sound?1weapons?1saber?1saberhitwall@ 30099600     cg_event.obj
 0002:0000f624       ??_C@_0BE@LHAIBFCE@EV_SABER_UNHOLSTER?6?$AA@ 30099624     cg_event.obj
 0002:0000f638       ??_C@_0CA@IHKBIIAM@sound?1weapons?1saber?1saberon?4wav?$AA@ 30099638     cg_event.obj
 0002:0000f658       ??_C@_0BI@IGJAGMIN@EV_DISRUPTOR_MAIN_SHOT?6?$AA@ 30099658     cg_event.obj
 0002:0000f670       ??_C@_0BK@HEJCNNBO@EV_DISRUPTOR_SNIPER_SHOT?6?$AA@ 30099670     cg_event.obj
 0002:0000f68c       ??_C@_0BK@GPKOGJOH@EV_DISRUPTOR_SNIPER_MISS?6?$AA@ 3009968c     cg_event.obj
 0002:0000f6a8       ??_C@_0BC@JPMCFDBJ@EV_DISRUPTOR_HIT?6?$AA@ 300996a8     cg_event.obj
 0002:0000f6bc       ??_C@_0BI@GNFPMMKN@EV_DISRUPTOR_ZOOMSOUND?6?$AA@ 300996bc     cg_event.obj
 0002:0000f6d4       ??_C@_0CG@PBOJOFP@sound?1weapons?1disruptor?1zoomstar@ 300996d4     cg_event.obj
 0002:0000f6fc       ??_C@_0CE@PIBAGMCN@sound?1weapons?1disruptor?1zoomend?4@ 300996fc     cg_event.obj
 0002:0000f720       ??_C@_0BA@OCJLFFOK@EV_PREDEFSOUND?6?$AA@ 30099720     cg_event.obj
 0002:0000f730       ??_C@_0CD@DLMOJGKG@sound?1weapons?1force?1protecthit?4m@ 30099730     cg_event.obj
 0002:0000f754       ??_C@_0CA@HJGMCKFK@sound?1weapons?1force?1protect?4mp3?$AA@ 30099754     cg_event.obj
 0002:0000f774       ??_C@_0CC@JDCLBP@sound?1weapons?1force?1absorbhit?4mp@ 30099774     cg_event.obj
 0002:0000f798       ??_C@_0BP@HBDMOEFN@sound?1weapons?1force?1absorb?4mp3?$AA@ 30099798     cg_event.obj
 0002:0000f7b8       ??_C@_0BN@OPAMHANO@sound?1weapons?1force?1jump?4mp3?$AA@ 300997b8     cg_event.obj
 0002:0000f7d8       ??_C@_0BN@OAMJLKID@sound?1weapons?1force?1grip?4mp3?$AA@ 300997d8     cg_event.obj
 0002:0000f7f8       ??_C@_0P@EFHBOHF@EV_TEAM_POWER?6?$AA@ 300997f8     cg_event.obj
 0002:0000f808       ??_C@_0BA@MNHPKCIL@EV_SCREENSHAKE?6?$AA@ 30099808     cg_event.obj
 0002:0000f818       ??_C@_0P@PEFPIADP@EV_LOCALTIMER?6?$AA@ 30099818     cg_event.obj
 0002:0000f828       ??_C@_0O@COHCPJPC@EV_USE_ITEM0?6?$AA@ 30099828     cg_event.obj
 0002:0000f838       ??_C@_0O@CPLAJDMF@EV_USE_ITEM1?6?$AA@ 30099838     cg_event.obj
 0002:0000f848       ??_C@_0O@CNPGCNJM@EV_USE_ITEM2?6?$AA@ 30099848     cg_event.obj
 0002:0000f858       ??_C@_0O@CMDEEHKL@EV_USE_ITEM3?6?$AA@ 30099858     cg_event.obj
 0002:0000f868       ??_C@_0O@CJHLFBCO@EV_USE_ITEM4?6?$AA@ 30099868     cg_event.obj
 0002:0000f878       ??_C@_0O@CILJDLBJ@EV_USE_ITEM5?6?$AA@ 30099878     cg_event.obj
 0002:0000f888       ??_C@_0O@CKPPIFEA@EV_USE_ITEM6?6?$AA@ 30099888     cg_event.obj
 0002:0000f898       ??_C@_0O@CLDNOPHH@EV_USE_ITEM7?6?$AA@ 30099898     cg_event.obj
 0002:0000f8a8       ??_C@_0O@CAGBKIEK@EV_USE_ITEM8?6?$AA@ 300998a8     cg_event.obj
 0002:0000f8b8       ??_C@_0O@CBKDMCHN@EV_USE_ITEM9?6?$AA@ 300998b8     cg_event.obj
 0002:0000f8c8       ??_C@_0P@DIDCAOGA@EV_USE_ITEM10?6?$AA@ 300998c8     cg_event.obj
 0002:0000f8d8       ??_C@_0P@DJPAGEFH@EV_USE_ITEM11?6?$AA@ 300998d8     cg_event.obj
 0002:0000f8e8       ??_C@_0P@DLLGNKAO@EV_USE_ITEM12?6?$AA@ 300998e8     cg_event.obj
 0002:0000f8f8       ??_C@_0P@DKHELADJ@EV_USE_ITEM13?6?$AA@ 300998f8     cg_event.obj
 0002:0000f908       ??_C@_0P@DPDLKGLM@EV_USE_ITEM14?6?$AA@ 30099908     cg_event.obj
 0002:0000f918       ??_C@_0BA@HPBPKKLD@EV_ITEMUSEFAIL?6?$AA@ 30099918     cg_event.obj
 0002:0000f928       ??_C@_0O@HOCAFJFE@SENTRY_NOROOM?$AA@ 30099928     cg_event.obj
 0002:0000f938       ??_C@_0BF@BCPBOCCJ@SENTRY_ALREADYPLACED?$AA@ 30099938     cg_event.obj
 0002:0000f950       ??_C@_0O@EGAENPND@SHIELD_NOROOM?$AA@ 30099950     cg_event.obj
 0002:0000f960       ??_C@_0BH@LIEHOCMA@SEEKER_ALREADYDEPLOYED?$AA@ 30099960     cg_event.obj
 0002:0000f978       ??_C@_0BH@EMPINMBK@EV_PLAYER_TELEPORT_IN?6?$AA@ 30099978     cg_event.obj
 0002:0000f990       ??_C@_0BI@GJLLMPKI@EV_PLAYER_TELEPORT_OUT?6?$AA@ 30099990     cg_event.obj
 0002:0000f9a8       ??_C@_0N@PBHGFCFD@EV_ITEM_POP?6?$AA@ 300999a8     cg_event.obj
 0002:0000f9b8       ??_C@_0BB@JFDGENII@EV_ITEM_RESPAWN?6?$AA@ 300999b8     cg_event.obj
 0002:0000f9cc       ??_C@_0BD@EIBAGLKH@EV_GRENADE_BOUNCE?6?$AA@ 300999cc     cg_event.obj
 0002:0000f9e0       ??_C@_0O@HHOHODHG@EV_SCOREPLUM?6?$AA@ 300999e0     cg_event.obj
 0002:0000f9f0       ??_C@_0P@FDEPALG@EV_CTFMESSAGE?6?$AA@ 300999f0     cg_event.obj
 0002:0000fa00       ??_C@_0BA@HOIEJEJL@head_eyes_mouth?$AA@ 30099a00     cg_event.obj
 0002:0000fa10       ??_C@_0BE@BNOHOFLM@EV_SIEGE_ROUNDOVER?6?$AA@ 30099a10     cg_event.obj
 0002:0000fa24       ??_C@_0BM@BABMLOOH@EV_SIEGE_OBJECTIVECOMPLETE?6?$AA@ 30099a24     cg_event.obj
 0002:0000fa40       ??_C@_0BM@PCLPFHBH@EV_DESTROY_GHOUL2_INSTANCE?6?$AA@ 30099a40     cg_event.obj
 0002:0000fa5c       ??_C@_0BJ@BCHDFDJB@EV_DESTROY_WEAPON_MODEL?6?$AA@ 30099a5c     cg_event.obj
 0002:0000fa78       ??_C@_0BC@HOMJNHOI@EV_GIVE_NEW_RANK?6?$AA@ 30099a78     cg_event.obj
 0002:0000fa8c       ??_C@_0O@LNLHFCCF@ui_rankChange?$AA@ 30099a8c     cg_event.obj
 0002:0000fa9c       ??_C@_09CPHDILCP@ui_myteam?$AA@ 30099a9c     cg_event.obj
 0002:0000faa8       ??_C@_0BD@BKAJJBKD@EV_SET_FREE_SABER?6?$AA@ 30099aa8     cg_event.obj
 0002:0000fabc       ??_C@_0N@KGLGFCPL@ui_freeSaber?$AA@ 30099abc     cg_event.obj
 0002:0000facc       ??_C@_0BG@MIJCAGDM@EV_SET_FORCE_DISABLE?6?$AA@ 30099acc     cg_event.obj
 0002:0000fae4       ??_C@_0BF@LBOIACLJ@ui_forcePowerDisable?$AA@ 30099ae4     cg_event.obj
 0002:0000fafc       ??_C@_0BE@NNBFEJOK@EV_CONC_ALT_IMPACT?6?$AA@ 30099afc     cg_event.obj
 0002:0000fb10       ??_C@_0BC@KFHMIOIE@EV_MISSILE_STICK?6?$AA@ 30099b10     cg_event.obj
 0002:0000fb24       ??_C@_0BA@IGKGMCOM@EV_MISSILE_HIT?6?$AA@ 30099b24     cg_event.obj
 0002:0000fb34       ??_C@_0BB@PNKCFMCO@EV_MISSILE_MISS?6?$AA@ 30099b34     cg_event.obj
 0002:0000fb48       ??_C@_0BH@JAOAMPDI@EV_MISSILE_MISS_METAL?6?$AA@ 30099b48     cg_event.obj
 0002:0000fb60       ??_C@_0BA@EOBPNDFA@EV_PLAY_EFFECT?6?$AA@ 30099b60     cg_event.obj
 0002:0000fb70       ??_C@_0BD@NADCCPEN@EV_PLAY_EFFECT_ID?6?$AA@ 30099b70     cg_event.obj
 0002:0000fb84       ??_C@_0BB@IGHFLFFN@EV_BMODEL_SOUND?6?$AA@ 30099b84     cg_event.obj
 0002:0000fb98       ??_C@_0P@MFMNPEFJ@EV_MUTE_SOUND?6?$AA@ 30099b98     cg_event.obj
 0002:0000fba8       ??_C@_0BD@MDIAINNI@EV_VOICECMD_SOUND?6?$AA@ 30099ba8     cg_event.obj
 0002:0000fbbc       ??_C@_09CLANNEJM@?$DM?$CFs?3?5?$CFs?$DO?6?$AA@ 30099bbc     cg_event.obj
 0002:0000fbc8       ??_C@_0BC@BJDFIFFI@EV_GENERAL_SOUND?6?$AA@ 30099bc8     cg_event.obj
 0002:0000fbdc       ??_C@_0BB@DOBOGIIM@EV_GLOBAL_SOUND?6?$AA@ 30099bdc     cg_event.obj
 0002:0000fbf0       ??_C@_0BG@DDNACAKH@EV_GLOBAL_TEAM_SOUND?6?$AA@ 30099bf0     cg_event.obj
 0002:0000fc08       ??_C@_0BB@MGFHJKEO@EV_ENTITY_SOUND?6?$AA@ 30099c08     cg_event.obj
 0002:0000fc1c       ??_C@_0O@NJJBGPF@EV_PLAY_ROFF?6?$AA@ 30099c1c     cg_event.obj
 0002:0000fc2c       ??_C@_0BC@OFECDCPE@EV_GLASS_SHATTER?6?$AA@ 30099c2c     cg_event.obj
 0002:0000fc40       ??_C@_0L@ODCIENMH@EV_DEBRIS?6?$AA@ 30099c40     cg_event.obj
 0002:0000fc4c       ??_C@_0BD@CICJADGK@EV_MISC_MODEL_EXP?6?$AA@ 30099c4c     cg_event.obj
 0002:0000fc60       ??_C@_08MEMNOIPP@EV_PAIN?6?$AA@ 30099c60     cg_event.obj
 0002:0000fc6c       ??_C@_0L@GGFIAEKN@EV_DEATHx?6?$AA@ 30099c6c     cg_event.obj
 0002:0000fc78       ??_C@_0N@OJAOIBLE@?$CKdeath?$CFi?4wav?$AA@ 30099c78     cg_event.obj
 0002:0000fc88       ??_C@_0N@NHOCPMCE@EV_OBITUARY?6?$AA@ 30099c88     cg_event.obj
 0002:0000fc98       ??_C@_0BB@BAEBNJML@EV_POWERUP_QUAD?6?$AA@ 30099c98     cg_event.obj
 0002:0000fcac       ??_C@_0BH@DMMEDNOI@EV_POWERUP_BATTLESUIT?6?$AA@ 30099cac     cg_event.obj
 0002:0000fcc4       ??_C@_0BC@MLCHKGFI@EV_FORCE_DRAINED?6?$AA@ 30099cc4     cg_event.obj
 0002:0000fcd8       ??_C@_0P@OAKOFJEN@EV_GIB_PLAYER?6?$AA@ 30099cd8     cg_event.obj
 0002:0000fce8       ??_C@_0BG@LDMGNCJJ@EV_STARTLOOPINGSOUND?6?$AA@ 30099ce8     cg_event.obj
 0002:0000fd00       ??_C@_0BF@JEGDHJFI@EV_STOPLOOPINGSOUND?6?$AA@ 30099d00     cg_event.obj
 0002:0000fd18       ??_C@_0BC@FFJFINLG@EV_WEAPON_CHARGE?6?$AA@ 30099d18     cg_event.obj
 0002:0000fd2c       ??_C@_0BG@LPILCDGP@EV_WEAPON_CHARGE_ALT?6?$AA@ 30099d2c     cg_event.obj
 0002:0000fd44       ??_C@_0P@NNMMBHMG@EV_SHIELD_HIT?6?$AA@ 30099d44     cg_event.obj
 0002:0000fd54       ??_C@_0P@DKFKJLCN@EV_DEBUG_LINE?6?$AA@ 30099d54     cg_event.obj
 0002:0000fd64       ??_C@_0N@JKOMGMLA@EV_TESTLINE?6?$AA@ 30099d64     cg_event.obj
 0002:0000fd74       ??_C@_08GCOIMFOL@UNKNOWN?6?$AA@ 30099d74     cg_event.obj
 0002:0000fd80       ??_C@_0BC@OKELKAPM@Unknown?5event?3?5?$CFi?$AA@ 30099d80     cg_event.obj
 0002:0000fd94       __real@459c4000            30099d94     cg_event.obj
 0002:0000fda0       __xmm@3f800000000000003f8000003f800000 30099da0     cg_event.obj
 0002:0000fdb0       ??_C@_07KMNEBLH@mapname?$AA@ 30099db0     cg_info.obj
 0002:0000fdb8       ??_C@_0O@OBEFLHGN@levelshots?1?$CFs?$AA@ 30099db8     cg_info.obj
 0002:0000fdc8       ??_C@_0BH@NKLBLPLI@menu?1art?1unknownmap_mp?$AA@ 30099dc8     cg_info.obj
 0002:0000fde0       ??_C@_0BA@DANNDEJB@LOADING_MAPNAME?$AA@ 30099de0     cg_info.obj
 0002:0000fdf0       ??_C@_0BC@OMJIFLDI@AWAITING_SNAPSHOT?$AA@ 30099df0     cg_info.obj
 0002:0000fe04       ??_C@_0L@MPAGGMDN@sv_running?$AA@ 30099e04     cg_info.obj
 0002:0000fe10       ??_C@_0M@NHCIKFPA@sv_hostname?$AA@ 30099e10     cg_info.obj
 0002:0000fe1c       ??_C@_07CAKOHKGL@sv_pure?$AA@ 30099e1c     cg_info.obj
 0002:0000fe24       ??_C@_0M@LJLDHHA@PURE_SERVER?$AA@ 30099e24     cg_info.obj
 0002:0000fe30       ??_C@_0O@GJFLJONJ@cl_motdString?$AA@ 30099e30     cg_info.obj
 0002:0000fe40       ??_C@_09NFOPKLIK@sv_cheats?$AA@ 30099e40     cg_info.obj
 0002:0000fe4c       ??_C@_0BB@FMGHLLBN@CHEATSAREENABLED?$AA@ 30099e4c     cg_info.obj
 0002:0000fe60       ??_C@_04PJHBGHKA@SAGA?$AA@ 30099e60     cg_info.obj
 0002:0000fe68       ??_C@_09KPHKOKCC@timelimit?$AA@ 30099e68     cg_info.obj
 0002:0000fe74       ??_C@_09JPILNHNF@TIMELIMIT?$AA@ 30099e74     cg_info.obj
 0002:0000fe80       ??_C@_05INKFKLBN@?$CFs?5?$CFi?$AA@ 30099e80     cg_info.obj
 0002:0000fe88       ??_C@_09GCIEGDDN@fraglimit?$AA@ 30099e88     cg_info.obj
 0002:0000fe94       ??_C@_09FCHFFOMK@FRAGLIMIT?$AA@ 30099e94     cg_info.obj
 0002:0000fea0       ??_C@_0P@CFJBJECC@duel_fraglimit?$AA@ 30099ea0     cg_info.obj
 0002:0000feb0       ??_C@_08MILIEONM@WINLIMIT?$AA@ 30099eb0     cg_info.obj
 0002:0000febc       ??_C@_0N@FCAHJCDA@capturelimit?$AA@ 30099ebc     cg_info.obj
 0002:0000fecc       ??_C@_0N@EPCFLABN@CAPTURELIMIT?$AA@ 30099ecc     cg_info.obj
 0002:0000fedc       ??_C@_0BC@PJKMCDAC@g_forceBasedTeams?$AA@ 30099edc     cg_info.obj
 0002:0000fef0       ??_C@_0BA@DGPADPIF@FORCEBASEDTEAMS?$AA@ 30099ef0     cg_info.obj
 0002:0000ff00       ??_C@_0BE@EDCPOKDI@g_forcePowerDisable?$AA@ 30099f00     cg_info.obj
 0002:0000ff14       ??_C@_0P@CHCANPBO@g_maxForceRank?$AA@ 30099f14     cg_info.obj
 0002:0000ff24       ??_C@_0BH@INBNAGOD@MP_INGAME_MAXFORCERANK?$AA@ 30099f24     cg_info.obj
 0002:0000ff3c       ??_C@_0BE@OBOCPLPN@g_duelWeaponDisable?$AA@ 30099f3c     cg_info.obj
 0002:0000ff50       ??_C@_0BA@DKHOJHPN@g_weaponDisable?$AA@ 30099f50     cg_info.obj
 0002:0000ff60       ??_C@_0N@JNDANCJI@SABERONLYSET?$AA@ 30099f60     cg_info.obj
 0002:0000ff70       ??_C@_07IEKFKEFE@NOFPSET?$AA@ 30099f70     cg_info.obj
 0002:0000ff78       ??_C@_0M@MPJDFFIH@RULES_FFA_1?$AA@ 30099f78     cg_info.obj
 0002:0000ff84       ??_C@_0N@CILONNPF@RULES_HOLO_1?$AA@ 30099f84     cg_info.obj
 0002:0000ff94       ??_C@_0N@DJDIODG@RULES_HOLO_2?$AA@ 30099f94     cg_info.obj
 0002:0000ffa4       ??_C@_0N@LKBPLKH@RULES_JEDI_1?$AA@ 30099fa4     cg_info.obj
 0002:0000ffb4       ??_C@_0N@CAIMKIGE@RULES_JEDI_2?$AA@ 30099fb4     cg_info.obj
 0002:0000ffc4       ??_C@_0N@FCPGFLOD@RULES_DUEL_1?$AA@ 30099fc4     cg_info.obj
 0002:0000ffd4       ??_C@_0N@HJNLAICA@RULES_DUEL_2?$AA@ 30099fd4     cg_info.obj
 0002:0000ffe4       ??_C@_0BC@BPHJIFMA@RULES_POWERDUEL_1?$AA@ 30099fe4     cg_info.obj
 0002:0000fff8       ??_C@_0BC@DEFENGAD@RULES_POWERDUEL_2?$AA@ 30099ff8     cg_info.obj
 0002:0001000c       ??_C@_0N@HLMCAEBD@RULES_TEAM_1?$AA@ 3009a00c     cg_info.obj
 0002:0001001c       ??_C@_0N@FAOPFHNA@RULES_TEAM_2?$AA@ 3009a01c     cg_info.obj
 0002:0001002c       ??_C@_0M@BIKJDIGP@RULES_CTF_1?$AA@ 3009a02c     cg_info.obj
 0002:00010038       ??_C@_0M@DDIEGLKM@RULES_CTF_2?$AA@ 3009a038     cg_info.obj
 0002:00010044       ??_C@_0M@BANDHPKG@RULES_CTY_1?$AA@ 3009a044     cg_info.obj
 0002:00010050       ??_C@_0M@DLPOCMGF@RULES_CTY_2?$AA@ 3009a050     cg_info.obj
 0002:0001005c       ??_C@_0BJ@JHLHMDHN@svc_lightstyle?5length?$DN?$CFi?$AA@ 3009a05c     cg_light.obj
 0002:00010078       ??_C@_0BP@HOJADAKE@CG_FreeLocalEntity?3?5not?5active?$AA@ 3009a078     cg_localents.obj
 0002:00010098       ??_C@_0P@JBCHHKP@Bad?5leType?3?5?$CFi?$AA@ 3009a098     cg_localents.obj
 0002:000100a8       __real@3fd51eb851eb851f    3009a0a8     cg_localents.obj
 0002:000100b0       __real@4045000000000000    3009a0b0     cg_localents.obj
 0002:000100b8       __real@42dc0000            3009a0b8     cg_localents.obj
 0002:000100bc       __real@447f0000            3009a0bc     cg_localents.obj
 0002:000100c0       ??_C@_0BG@BKINAJCK@gfx?1mp?1f_icon_lt_heal?$AA@ 3009a0c0     cg_main.obj
 0002:000100d8       ??_C@_0BJ@DCGHGAMM@gfx?1mp?1f_icon_levitation?$AA@ 3009a0d8     cg_main.obj
 0002:000100f4       ??_C@_0BE@GACMMIP@gfx?1mp?1f_icon_speed?$AA@ 3009a0f4     cg_main.obj
 0002:00010108       ??_C@_0BD@CDNNBOGJ@gfx?1mp?1f_icon_push?$AA@ 3009a108     cg_main.obj
 0002:0001011c       ??_C@_0BD@FAMLDPCA@gfx?1mp?1f_icon_pull?$AA@ 3009a11c     cg_main.obj
 0002:00010130       ??_C@_0BL@GPKCAHJD@gfx?1mp?1f_icon_lt_telepathy?$AA@ 3009a130     cg_main.obj
 0002:0001014c       ??_C@_0BG@PPAEAKKK@gfx?1mp?1f_icon_dk_grip?$AA@ 3009a14c     cg_main.obj
 0002:00010164       ??_C@_0BE@FIGKNCGE@gfx?1mp?1f_icon_dk_l1?$AA@ 3009a164     cg_main.obj
 0002:00010178       ??_C@_0BG@CIIDCBDH@gfx?1mp?1f_icon_dk_rage?$AA@ 3009a178     cg_main.obj
 0002:00010190       ??_C@_0BJ@BNJGHMKP@gfx?1mp?1f_icon_lt_protect?$AA@ 3009a190     cg_main.obj
 0002:000101ac       ??_C@_0BI@JGABMFHN@gfx?1mp?1f_icon_lt_absorb?$AA@ 3009a1ac     cg_main.obj
 0002:000101c4       ??_C@_0BL@PHMODMPE@gfx?1mp?1f_icon_lt_healother?$AA@ 3009a1c4     cg_main.obj
 0002:000101e0       ??_C@_0BM@INELODPO@gfx?1mp?1f_icon_dk_forceother?$AA@ 3009a1e0     cg_main.obj
 0002:000101fc       ??_C@_0BH@JNFFMKGL@gfx?1mp?1f_icon_dk_drain?$AA@ 3009a1fc     cg_main.obj
 0002:00010214       ??_C@_0BE@IDOBHAPF@gfx?1mp?1f_icon_sight?$AA@ 3009a214     cg_main.obj
 0002:00010228       ??_C@_0BL@FEKHDPBD@gfx?1mp?1f_icon_saber_attack?$AA@ 3009a228     cg_main.obj
 0002:00010244       ??_C@_0BL@NEBHBNKD@gfx?1mp?1f_icon_saber_defend?$AA@ 3009a244     cg_main.obj
 0002:00010260       ??_C@_0BK@FEFIMOAO@gfx?1mp?1f_icon_saber_throw?$AA@ 3009a260     cg_main.obj
 0002:0001027c       ??_C@_09JDMGBOIM@cg_ignore?$AA@ 3009a27c     cg_main.obj
 0002:00010288       ??_C@_0O@JKEEFDLF@cg_autoswitch?$AA@ 3009a288     cg_main.obj
 0002:00010298       ??_C@_0L@MLBFCMPB@cg_drawGun?$AA@ 3009a298     cg_main.obj
 0002:000102a4       ??_C@_0L@DPFDGKBB@cg_zoomfov?$AA@ 3009a2a4     cg_main.obj
 0002:000102b0       ??_C@_04HAMCLDBM@40?40?$AA@ 3009a2b0     cg_main.obj
 0002:000102b8       ??_C@_06FDNMOLLD@cg_fov?$AA@ 3009a2b8     cg_main.obj
 0002:000102c0       ??_C@_02PFIAKEDG@80?$AA@   3009a2c0     cg_main.obj
 0002:000102c4       ??_C@_0BE@EMBJACLB@cg_stereoSeparation?$AA@ 3009a2c4     cg_main.obj
 0002:000102d8       ??_C@_03KHGJEAFP@0?44?$AA@ 3009a2d8     cg_main.obj
 0002:000102dc       ??_C@_0L@MAOLAFLC@cg_shadows?$AA@ 3009a2dc     cg_main.obj
 0002:000102e8       ??_C@_0BF@NCEBGBDJ@cg_renderToTextureFX?$AA@ 3009a2e8     cg_main.obj
 0002:00010300       ??_C@_09EKPCJMOG@cg_draw2D?$AA@ 3009a300     cg_main.obj
 0002:0001030c       ??_C@_0O@IIACNNIF@cg_drawStatus?$AA@ 3009a30c     cg_main.obj
 0002:0001031c       ??_C@_0N@FOINMAON@cg_drawTimer?$AA@ 3009a31c     cg_main.obj
 0002:0001032c       ??_C@_0L@CHMHIHCB@cg_drawFPS?$AA@ 3009a32c     cg_main.obj
 0002:00010338       ??_C@_0BA@MIPMDAEB@cg_drawSnapshot?$AA@ 3009a338     cg_main.obj
 0002:00010348       ??_C@_0P@DMBICICD@cg_draw3dIcons?$AA@ 3009a348     cg_main.obj
 0002:00010358       ??_C@_0N@BEDCNPCC@cg_drawIcons?$AA@ 3009a358     cg_main.obj
 0002:00010368       ??_C@_0BD@FJPGADGN@cg_drawAmmoWarning?$AA@ 3009a368     cg_main.obj
 0002:0001037c       ??_C@_0BB@LBKBMNKM@cg_drawEnemyInfo?$AA@ 3009a37c     cg_main.obj
 0002:00010390       ??_C@_0BB@KBADOJHA@cg_drawCrosshair?$AA@ 3009a390     cg_main.obj
 0002:000103a4       ??_C@_0BG@PFLNOEEN@cg_drawCrosshairNames?$AA@ 3009a3a4     cg_main.obj
 0002:000103bc       ??_C@_0N@MCKFIPGH@cg_drawRadar?$AA@ 3009a3bc     cg_main.obj
 0002:000103cc       ??_C@_0O@BAKMKNGL@cg_drawScores?$AA@ 3009a3cc     cg_main.obj
 0002:000103dc       ??_C@_0BE@DIOLLFIC@cg_dynamicCrosshair?$AA@ 3009a3dc     cg_main.obj
 0002:000103f0       ??_C@_0BN@BFHNKEKL@cg_dynamicCrosshairPrecision?$AA@ 3009a3f0     cg_main.obj
 0002:00010410       ??_C@_0P@GNHKLMJL@cg_drawRewards?$AA@ 3009a410     cg_main.obj
 0002:00010420       ??_C@_0BB@NJOFJDCL@cg_crosshairSize?$AA@ 3009a420     cg_main.obj
 0002:00010434       ??_C@_02JMHLOEOE@24?$AA@   3009a434     cg_main.obj
 0002:00010438       ??_C@_0BD@JJIJCGAH@cg_crosshairHealth?$AA@ 3009a438     cg_main.obj
 0002:0001044c       ??_C@_0O@IHFEICLM@cg_crosshairX?$AA@ 3009a44c     cg_main.obj
 0002:0001045c       ??_C@_0O@JOEPLDPN@cg_crosshairY?$AA@ 3009a45c     cg_main.obj
 0002:0001046c       ??_C@_0P@CCFIBNOJ@cg_simpleItems?$AA@ 3009a46c     cg_main.obj
 0002:0001047c       ??_C@_08OCDFECFG@cg_marks?$AA@ 3009a47c     cg_main.obj
 0002:00010488       ??_C@_0N@IBNNIGPC@cg_lagometer?$AA@ 3009a488     cg_main.obj
 0002:00010498       ??_C@_07DAKIIFAC@cg_gunX?$AA@ 3009a498     cg_main.obj
 0002:000104a0       ??_C@_07CJLDLEED@cg_gunY?$AA@ 3009a4a0     cg_main.obj
 0002:000104a8       ??_C@_07CJOOHIA@cg_gunZ?$AA@ 3009a4a8     cg_main.obj
 0002:000104b0       ??_C@_0O@CMEJDJHP@cg_centertime?$AA@ 3009a4b0     cg_main.obj
 0002:000104c0       ??_C@_01EKENIIDA@3?$AA@    3009a4c0     cg_main.obj
 0002:000104c4       ??_C@_0M@JHJCCBOJ@cg_runpitch?$AA@ 3009a4c4     cg_main.obj
 0002:000104d0       ??_C@_05NIGIBNE@0?4002?$AA@ 3009a4d0     cg_main.obj
 0002:000104d8       ??_C@_0L@MJJHGKNK@cg_runroll?$AA@ 3009a4d8     cg_main.obj
 0002:000104e4       ??_C@_05ECMHBHBD@0?4005?$AA@ 3009a4e4     cg_main.obj
 0002:000104ec       ??_C@_08MBNPMEME@cg_bobup?$AA@ 3009a4ec     cg_main.obj
 0002:000104f8       ??_C@_0M@BBIJCEAP@cg_bobpitch?$AA@ 3009a4f8     cg_main.obj
 0002:00010504       ??_C@_0L@BEAFIAK@cg_bobroll?$AA@ 3009a504     cg_main.obj
 0002:00010510       ??_C@_0N@EMGODPLM@cg_animspeed?$AA@ 3009a510     cg_main.obj
 0002:00010520       ??_C@_0N@OLFHJPEJ@cg_debuganim?$AA@ 3009a520     cg_main.obj
 0002:00010530       ??_C@_0O@HLOFHCH@cg_debugsaber?$AA@ 3009a530     cg_main.obj
 0002:00010540       ??_C@_0BB@PNGPLJB@cg_debugposition?$AA@ 3009a540     cg_main.obj
 0002:00010554       ??_C@_0P@NKGOJNHN@cg_debugevents?$AA@ 3009a554     cg_main.obj
 0002:00010564       ??_C@_0O@MAANEMBM@cg_errordecay?$AA@ 3009a564     cg_main.obj
 0002:00010574       ??_C@_0N@BMAKLHMK@cg_nopredict?$AA@ 3009a574     cg_main.obj
 0002:00010584       ??_C@_0BB@HOMHKKFN@cg_noplayeranims?$AA@ 3009a584     cg_main.obj
 0002:00010598       ??_C@_0M@DOMGGLDE@cg_showmiss?$AA@ 3009a598     cg_main.obj
 0002:000105a4       ??_C@_0P@KLOAANMO@cg_showVehMiss?$AA@ 3009a5a4     cg_main.obj
 0002:000105b4       ??_C@_0N@GHAOKDNB@cg_footsteps?$AA@ 3009a5b4     cg_main.obj
 0002:000105c4       ??_C@_0P@JLFLAMIK@cg_swingAngles?$AA@ 3009a5c4     cg_main.obj
 0002:000105d4       ??_C@_0BB@FEDAIAGH@cg_oldPainSounds?$AA@ 3009a5d4     cg_main.obj
 0002:000105e8       ??_C@_0L@HNPLAEJB@broadsword?$AA@ 3009a5e8     cg_main.obj
 0002:000105f4       ??_C@_0O@KGIKKFB@cg_jumpSounds?$AA@ 3009a5f4     cg_main.obj
 0002:00010604       ??_C@_09GFLGOEGI@r_autoMap?$AA@ 3009a604     cg_main.obj
 0002:00010610       ??_C@_0L@DBGOIINC@r_autoMapX?$AA@ 3009a610     cg_main.obj
 0002:0001061c       ??_C@_03DFEAAHP@496?$AA@   3009a61c     cg_main.obj
 0002:00010620       ??_C@_0L@CIHFLJJD@r_autoMapY?$AA@ 3009a620     cg_main.obj
 0002:0001062c       ??_C@_02MLODCJFF@32?$AA@   3009a62c     cg_main.obj
 0002:00010630       ??_C@_0L@LGPGJEBN@r_autoMapW?$AA@ 3009a630     cg_main.obj
 0002:0001063c       ??_C@_03KGFMDCCC@128?$AA@  3009a63c     cg_main.obj
 0002:00010640       ??_C@_0L@HLKMJKID@r_autoMapH?$AA@ 3009a640     cg_main.obj
 0002:0001064c       ??_C@_0BF@KOOBPECE@bg_fighterAltControl?$AA@ 3009a64c     cg_main.obj
 0002:00010664       ??_C@_0L@HPCJPPPL@cg_chatBox?$AA@ 3009a664     cg_main.obj
 0002:00010670       ??_C@_05CLDMBJBA@10000?$AA@ 3009a670     cg_main.obj
 0002:00010678       ??_C@_0BB@CHDPLIJE@cg_chatBoxHeight?$AA@ 3009a678     cg_main.obj
 0002:0001068c       ??_C@_03MBMDGGCE@350?$AA@  3009a68c     cg_main.obj
 0002:00010690       ??_C@_0BJ@MEKKLEGB@cg_saberModelTraceEffect?$AA@ 3009a690     cg_main.obj
 0002:000106ac       ??_C@_0CB@MPIDIEDG@cg_saberClientVisualCompensation@ 3009a6ac     cg_main.obj
 0002:000106d0       ??_C@_0O@FGBOGFDL@cg_g2TraceLod?$AA@ 3009a6d0     cg_main.obj
 0002:000106e0       ??_C@_07EPOCHFIH@cg_fpls?$AA@ 3009a6e0     cg_main.obj
 0002:000106e8       ??_C@_0P@LOAKBPJB@cg_ghoul2Marks?$AA@ 3009a6e8     cg_main.obj
 0002:000106f8       ??_C@_02KMALDIDP@16?$AA@   3009a6f8     cg_main.obj
 0002:000106fc       ??_C@_0BF@NABJAOEA@cg_saberDynamicMarks?$AA@ 3009a6fc     cg_main.obj
 0002:00010714       ??_C@_0BI@OHDIIEFC@cg_saberDynamicMarkTime?$AA@ 3009a714     cg_main.obj
 0002:0001072c       ??_C@_05DGDJCJKI@60000?$AA@ 3009a72c     cg_main.obj
 0002:00010734       ??_C@_0BA@JIJPALDE@cg_saberContact?$AA@ 3009a734     cg_main.obj
 0002:00010744       ??_C@_0O@DCMCBFNO@cg_saberTrail?$AA@ 3009a744     cg_main.obj
 0002:00010754       ??_C@_0BC@JMPFMIDA@cg_duelHeadAngles?$AA@ 3009a754     cg_main.obj
 0002:00010768       ??_C@_0O@JKMBDLDF@cg_speedTrail?$AA@ 3009a768     cg_main.obj
 0002:00010778       ??_C@_0N@BELOMMOL@cg_auraShell?$AA@ 3009a778     cg_main.obj
 0002:00010788       ??_C@_0P@KJEOPEGG@cg_repeaterOrb?$AA@ 3009a788     cg_main.obj
 0002:00010798       ??_C@_0N@CKANHONG@cg_animBlend?$AA@ 3009a798     cg_main.obj
 0002:000107a8       ??_C@_0N@OPONILAJ@cg_dismember?$AA@ 3009a7a8     cg_main.obj
 0002:000107b8       ??_C@_0BJ@GCJEPJEL@cg_thirdPersonSpecialCam?$AA@ 3009a7b8     cg_main.obj
 0002:000107d4       ??_C@_0BK@MPOHHNJK@cg_thirdPersonPitchOffset?$AA@ 3009a7d4     cg_main.obj
 0002:000107f0       ??_C@_0BJ@PLGBNFPF@cg_thirdPersonVertOffset?$AA@ 3009a7f0     cg_main.obj
 0002:0001080c       ??_C@_0BJ@BBJMCCPF@cg_thirdPersonCameraDamp?$AA@ 3009a80c     cg_main.obj
 0002:00010828       ??_C@_03OICINGJI@0?43?$AA@ 3009a828     cg_main.obj
 0002:0001082c       ??_C@_0BJ@FGGPEIAI@cg_thirdPersonTargetDamp?$AA@ 3009a82c     cg_main.obj
 0002:00010848       ??_C@_03LOHCHBBO@0?45?$AA@ 3009a848     cg_main.obj
 0002:0001084c       ??_C@_0BJ@FEJLIMD@cg_thirdPersonHorzOffset?$AA@ 3009a84c     cg_main.obj
 0002:00010868       ??_C@_0BE@KCHOECBB@cg_thirdPersonAlpha?$AA@ 3009a868     cg_main.obj
 0002:0001087c       ??_C@_03HLLJOCDO@1?40?$AA@ 3009a87c     cg_main.obj
 0002:00010880       ??_C@_0O@LJBBKNGE@cg_forceModel?$AA@ 3009a880     cg_main.obj
 0002:00010890       ??_C@_0BA@PKAEEJJB@cg_predictItems?$AA@ 3009a890     cg_main.obj
 0002:000108a0       ??_C@_0BA@PFOJHBKN@cg_deferPlayers?$AA@ 3009a8a0     cg_main.obj
 0002:000108b0       ??_C@_0BD@BNGDPIGC@cg_drawTeamOverlay?$AA@ 3009a8b0     cg_main.obj
 0002:000108c4       ??_C@_0M@IKKMOBIP@teamoverlay?$AA@ 3009a8c4     cg_main.obj
 0002:000108d0       ??_C@_08CGDPCFHD@cg_stats?$AA@ 3009a8d0     cg_main.obj
 0002:000108dc       ??_C@_0O@KGJIDOMN@cg_drawFriend?$AA@ 3009a8dc     cg_main.obj
 0002:000108ec       ??_C@_0BB@GFOCPFOA@cg_teamChatsOnly?$AA@ 3009a8ec     cg_main.obj
 0002:00010900       ??_C@_0BA@MOHNLIKA@com_buildScript?$AA@ 3009a900     cg_main.obj
 0002:00010910       ??_C@_09DKNLLEN@com_blood?$AA@ 3009a910     cg_main.obj
 0002:0001091c       ??_C@_0BF@LICFCALK@g_synchronousClients?$AA@ 3009a91c     cg_main.obj
 0002:00010934       ??_C@_09LPNHELAH@g_redteam?$AA@ 3009a934     cg_main.obj
 0002:00010940       ??_C@_06DAMJBNEB@Empire?$AA@ 3009a940     cg_main.obj
 0002:00010948       ??_C@_0L@CPNMJIBN@g_blueteam?$AA@ 3009a948     cg_main.obj
 0002:00010954       ??_C@_09CBAPOGED@Rebellion?$AA@ 3009a954     cg_main.obj
 0002:00010960       ??_C@_0BJ@CEJCFKCN@cg_currentSelectedPlayer?$AA@ 3009a960     cg_main.obj
 0002:0001097c       ??_C@_0BN@HANLGBBD@cg_currentSelectedPlayerName?$AA@ 3009a97c     cg_main.obj
 0002:0001099c       ??_C@_0BG@JDIGCOKJ@ui_singlePlayerActive?$AA@ 3009a99c     cg_main.obj
 0002:000109b4       ??_C@_0N@CMGOADK@g_enableDust?$AA@ 3009a9b4     cg_main.obj
 0002:000109c4       ??_C@_0P@INMNNPOJ@g_enableBreath?$AA@ 3009a9c4     cg_main.obj
 0002:000109d4       ??_C@_0BA@OHINOCDN@ui_recordSPDemo?$AA@ 3009a9d4     cg_main.obj
 0002:000109e4       ??_C@_0BE@CELIAELA@ui_recordSPDemoName?$AA@ 3009a9e4     cg_main.obj
 0002:000109f8       ??_C@_02PNFIDHGF@50?$AA@   3009a9f8     cg_main.obj
 0002:000109fc       ??_C@_0BE@INLNOCBP@cg_timescaleFadeEnd?$AA@ 3009a9fc     cg_main.obj
 0002:00010a10       ??_C@_0BG@HODAAIBP@cg_timescaleFadeSpeed?$AA@ 3009aa10     cg_main.obj
 0002:00010a28       ??_C@_09IIOBMIO@timescale?$AA@ 3009aa28     cg_main.obj
 0002:00010a34       ??_C@_0O@ECBGLFLJ@cg_scorePlums?$AA@ 3009aa34     cg_main.obj
 0002:00010a44       ??_C@_0M@OADJJKKA@cg_hudFiles?$AA@ 3009aa44     cg_main.obj
 0002:00010a50       ??_C@_0N@NPDEHAEG@ui?1jahud?4txt?$AA@ 3009aa50     cg_main.obj
 0002:00010a60       ??_C@_0BB@EPNKMEEL@cg_smoothClients?$AA@ 3009aa60     cg_main.obj
 0002:00010a74       ??_C@_0P@EIAPFKBF@com_cameraMode?$AA@ 3009aa74     cg_main.obj
 0002:00010a84       ??_C@_0M@HOGKGHBI@pmove_fixed?$AA@ 3009aa84     cg_main.obj
 0002:00010a90       ??_C@_0L@JLBEBBAD@pmove_msec?$AA@ 3009aa90     cg_main.obj
 0002:00010a9c       ??_C@_01KJLJFBPL@8?$AA@    3009aa9c     cg_main.obj
 0002:00010aa0       ??_C@_0L@BNLHLPGL@cg_noTaunt?$AA@ 3009aaa0     cg_main.obj
 0002:00010aac       ??_C@_0BF@IHAIMPIG@cg_noProjectileTrail?$AA@ 3009aaac     cg_main.obj
 0002:00010ac4       ??_C@_0BB@DCJMDHFD@cg_trueLightning?$AA@ 3009aac4     cg_main.obj
 0002:00010ad8       ??_C@_03MDAFIFFL@0?40?$AA@ 3009aad8     cg_main.obj
 0002:00010adc       ??_C@_0BB@GNCGINEC@cg_showVehBounds?$AA@ 3009aadc     cg_main.obj
 0002:00010af0       ??_C@_0BD@PBCOGHDJ@cg_snapshotTimeout?$AA@ 3009aaf0     cg_main.obj
 0002:00010b04       ??_C@_02PKFBJPLJ@10?$AA@   3009ab04     cg_main.obj
 0002:00010b08       ??_C@_07HEFMJHOI@debugBB?$AA@ 3009ab08     cg_main.obj
 0002:00010b10       ??_C@_09CNJINBGN@classname?$AA@ 3009ab10     cg_main.obj
 0002:00010b1c       ??_C@_06NHCMNMEH@origin?$AA@ 3009ab1c     cg_main.obj
 0002:00010b24       ??_C@_06GNEAMJOC@angles?$AA@ 3009ab24     cg_main.obj
 0002:00010b2c       ??_C@_05FECBCJJD@angle?$AA@ 3009ab2c     cg_main.obj
 0002:00010b34       ??_C@_0L@HDLPNNAF@modelscale?$AA@ 3009ab34     cg_main.obj
 0002:00010b40       ??_C@_0P@OMAFFCFF@modelscale_vec?$AA@ 3009ab40     cg_main.obj
 0002:00010b50       ??_C@_04FIAKMPII@mins?$AA@ 3009ab50     cg_main.obj
 0002:00010b58       ??_C@_04IFBFDIKF@maxs?$AA@ 3009ab58     cg_main.obj
 0002:00010b60       ??_C@_07GOKJEFCD@zoffset?$AA@ 3009ab60     cg_main.obj
 0002:00010b68       ??_C@_0M@NPFLFEBE@onlyfoghere?$AA@ 3009ab68     cg_main.obj
 0002:00010b74       ??_C@_08GPANHKMJ@fogstart?$AA@ 3009ab74     cg_main.obj
 0002:00010b80       ??_C@_0L@GHJELKA@radarrange?$AA@ 3009ab80     cg_main.obj
 0002:00010b8c       ??_C@_0BL@MDCOCEP@vmMain?3?5unknown?5command?5?$CFi?$AA@ 3009ab8c     cg_main.obj
 0002:00010ba8       ??_C@_0CC@NJMNCFMP@sound?1player?1bodyfall_human?$CFi?4wa@ 3009aba8     cg_main.obj
 0002:00010bcc       ??_C@_0CD@PGGCPIMP@Invalid?5callType?5in?5CG_RagCallba@ 3009abcc     cg_main.obj
 0002:00010bf0       ??_C@_0CK@MLAIPOAD@client_model?5has?5invalid?5model?5d@ 3009abf0     cg_main.obj
 0002:00010c1c       ??_C@_0BH@JHFKKJAL@5?91?9000000000000000000?$AA@ 3009ac1c     cg_main.obj
 0002:00010c34       ??_C@_0BC@CEGLMIAL@ui_about_gametype?$AA@ 3009ac34     cg_main.obj
 0002:00010c48       ??_C@_0BD@ECBGHOAM@ui_about_fraglimit?$AA@ 3009ac48     cg_main.obj
 0002:00010c5c       ??_C@_0BG@JGMDIDMD@ui_about_capturelimit?$AA@ 3009ac5c     cg_main.obj
 0002:00010c74       ??_C@_0BD@KEMPJJPI@ui_about_duellimit?$AA@ 3009ac74     cg_main.obj
 0002:00010c88       ??_C@_0BD@IPOIPHBD@ui_about_timelimit?$AA@ 3009ac88     cg_main.obj
 0002:00010c9c       ??_C@_0BE@MLNAEEGH@ui_about_maxclients?$AA@ 3009ac9c     cg_main.obj
 0002:00010cb0       ??_C@_0BB@JGBJLNBF@ui_about_dmflags?$AA@ 3009acb0     cg_main.obj
 0002:00010cc4       ??_C@_0BB@PALGEOKN@ui_about_mapname?$AA@ 3009acc4     cg_main.obj
 0002:00010cd8       ??_C@_0BC@LKDAODDF@ui_about_hostname?$AA@ 3009acd8     cg_main.obj
 0002:00010cec       ??_C@_0BC@IKMCDPFG@ui_about_needpass?$AA@ 3009acec     cg_main.obj
 0002:00010d00       ??_C@_0BH@MDOIMJCC@ui_about_botminplayers?$AA@ 3009ad00     cg_main.obj
 0002:00010d18       ??_C@_0L@MIDCNNH@ui_tm1_cnt?$AA@ 3009ad18     cg_main.obj
 0002:00010d24       ??_C@_0L@IKBHFPHJ@ui_tm2_cnt?$AA@ 3009ad24     cg_main.obj
 0002:00010d30       ??_C@_0L@EBELIMNM@ui_tm3_cnt?$AA@ 3009ad30     cg_main.obj
 0002:00010d3c       ??_C@_0O@HMEBNOGL@ui_tm1_c0_cnt?$AA@ 3009ad3c     cg_main.obj
 0002:00010d4c       ??_C@_0O@LHBNANMO@ui_tm1_c1_cnt?$AA@ 3009ad4c     cg_main.obj
 0002:00010d5c       ??_C@_0O@DBIJHPGA@ui_tm1_c2_cnt?$AA@ 3009ad5c     cg_main.obj
 0002:00010d6c       ??_C@_0O@PKNFKMMF@ui_tm1_c3_cnt?$AA@ 3009ad6c     cg_main.obj
 0002:00010d7c       ??_C@_0O@OHNAJMHN@ui_tm1_c4_cnt?$AA@ 3009ad7c     cg_main.obj
 0002:00010d8c       ??_C@_0O@CMIMEPNI@ui_tm1_c5_cnt?$AA@ 3009ad8c     cg_main.obj
 0002:00010d9c       ??_C@_0O@EFMMOCKO@ui_tm2_c0_cnt?$AA@ 3009ad9c     cg_main.obj
 0002:00010dac       ??_C@_0O@IOJADBAL@ui_tm2_c1_cnt?$AA@ 3009adac     cg_main.obj
 0002:00010dbc       ??_C@_0O@IAEEDKF@ui_tm2_c2_cnt?$AA@ 3009adbc     cg_main.obj
 0002:00010dcc       ??_C@_0O@MDFIJAAA@ui_tm2_c3_cnt?$AA@ 3009adcc     cg_main.obj
 0002:00010ddc       ??_C@_0O@NOFNKALI@ui_tm2_c4_cnt?$AA@ 3009addc     cg_main.obj
 0002:00010dec       ??_C@_0O@BFABHDBN@ui_tm2_c5_cnt?$AA@ 3009adec     cg_main.obj
 0002:00010dfc       ??_C@_0CJ@CMOPAMCG@PrecacheItem?3?5?$CFs?5has?5bad?5precach@ 3009adfc     cg_main.obj
 0002:00010e28       ??_C@_03HJPPGDLO@efx?$AA@  3009ae28     cg_main.obj
 0002:00010e2c       ??_C@_06BGIAFJGK@?$CDclear?$AA@ 3009ae2c     cg_main.obj
 0002:00010e34       ??_C@_0BP@IIEIAOMN@sound?1weapons?1melee?1punch1?4mp3?$AA@ 3009ae34     cg_main.obj
 0002:00010e54       ??_C@_0BP@ONMHMGD@sound?1weapons?1melee?1punch2?4mp3?$AA@ 3009ae54     cg_main.obj
 0002:00010e74       ??_C@_0BP@MFIAKPMG@sound?1weapons?1melee?1punch3?4mp3?$AA@ 3009ae74     cg_main.obj
 0002:00010e94       ??_C@_0BP@NIIFJPHO@sound?1weapons?1melee?1punch4?4mp3?$AA@ 3009ae94     cg_main.obj
 0002:00010eb4       ??_C@_0CA@CHBAPCJN@sound?1movers?1objects?1saber_slam?$AA@ 3009aeb4     cg_main.obj
 0002:00010ed4       ??_C@_0CB@HLKABIEI@sound?1player?1bodyfall_human1?4wav@ 3009aed4     cg_main.obj
 0002:00010ef8       ??_C@_0CB@PNDEGKOG@sound?1player?1bodyfall_human2?4wav@ 3009aef8     cg_main.obj
 0002:00010f1c       ??_C@_0CB@DGGILJED@sound?1player?1bodyfall_human3?4wav@ 3009af1c     cg_main.obj
 0002:00010f40       ??_C@_0BL@GPCFCJHH@effects?1mp?1test_sparks?4efx?$AA@ 3009af40     cg_main.obj
 0002:00010f5c       ??_C@_0CA@HECOILHC@effects?1mp?1test_wall_impact?4efx?$AA@ 3009af5c     cg_main.obj
 0002:00010f7c       ??_C@_0CD@MEAHMLPM@sound?1chars?1protocol?1misc?140MOM0@ 3009af7c     cg_main.obj
 0002:00010fa0       ??_C@_0CD@NNBMPKLN@sound?1chars?1protocol?1misc?140MOM0@ 3009afa0     cg_main.obj
 0002:00010fc4       ??_C@_0CD@LJHADPLJ@sound?1chars?1protocol?1misc?140MOM0@ 3009afc4     cg_main.obj
 0002:00010fe8       ??_C@_0CD@JCFNGMHK@sound?1chars?1protocol?1misc?140MOM0@ 3009afe8     cg_main.obj
 0002:0001100c       ??_C@_0CD@ILEGFNDL@sound?1chars?1protocol?1misc?140MOM0@ 3009b00c     cg_main.obj
 0002:00011030       ??_C@_0CD@NPFKEEOE@sound?1chars?1protocol?1misc?140MOM0@ 3009b030     cg_main.obj
 0002:00011054       ??_C@_0CD@PEHHBHCH@sound?1chars?1protocol?1misc?140MOM0@ 3009b054     cg_main.obj
 0002:00011078       ??_C@_0CD@ONGMCGGG@sound?1chars?1protocol?1misc?140MOM0@ 3009b078     cg_main.obj
 0002:0001109c       ??_C@_0CD@GKPEDKKJ@sound?1chars?1protocol?1misc?140MOM0@ 3009b09c     cg_main.obj
 0002:000110c0       ??_C@_0BD@CMBDLFG@gfx?1mp?1c_icon_tech?$AA@ 3009b0c0     cg_main.obj
 0002:000110d4       ??_C@_0BM@GFPNKFNM@gfx?1effects?1sabers?1red_glow?$AA@ 3009b0d4     cg_main.obj
 0002:000110f0       ??_C@_0BM@FMMFHOBL@gfx?1effects?1sabers?1red_line?$AA@ 3009b0f0     cg_main.obj
 0002:0001110c       ??_C@_0BP@PNPBNGNI@gfx?1effects?1sabers?1orange_glow?$AA@ 3009b10c     cg_main.obj
 0002:0001112c       ??_C@_0BP@MEMJANBP@gfx?1effects?1sabers?1orange_line?$AA@ 3009b12c     cg_main.obj
 0002:0001114c       ??_C@_0BP@GBLFHKOI@gfx?1effects?1sabers?1yellow_glow?$AA@ 3009b14c     cg_main.obj
 0002:0001116c       ??_C@_0BP@FIINKBCP@gfx?1effects?1sabers?1yellow_line?$AA@ 3009b16c     cg_main.obj
 0002:0001118c       ??_C@_0BO@BBHPNJME@gfx?1effects?1sabers?1green_glow?$AA@ 3009b18c     cg_main.obj
 0002:000111ac       ??_C@_0BO@CIEHACAD@gfx?1effects?1sabers?1green_line?$AA@ 3009b1ac     cg_main.obj
 0002:000111cc       ??_C@_0BN@EHAIJJIG@gfx?1effects?1sabers?1blue_glow?$AA@ 3009b1cc     cg_main.obj
 0002:000111ec       ??_C@_0BN@HODAECEB@gfx?1effects?1sabers?1blue_line?$AA@ 3009b1ec     cg_main.obj
 0002:0001120c       ??_C@_0BP@FPLHAOII@gfx?1effects?1sabers?1purple_glow?$AA@ 3009b20c     cg_main.obj
 0002:0001122c       ??_C@_0BP@GGIPNFEP@gfx?1effects?1sabers?1purple_line?$AA@ 3009b22c     cg_main.obj
 0002:0001124c       ??_C@_0BN@NGIAMIEK@gfx?1effects?1sabers?1saberBlur?$AA@ 3009b24c     cg_main.obj
 0002:0001126c       ??_C@_0BE@EAAEGHFK@gfx?1hud?1force_swirl?$AA@ 3009b26c     cg_main.obj
 0002:00011280       ??_C@_0BI@JJNNJHJD@gfx?1effects?1yellow_glow?$AA@ 3009b280     cg_main.obj
 0002:00011298       ??_C@_0BF@DJENGLFO@gfx?1damage?1rivetmark?$AA@ 3009b298     cg_main.obj
 0002:000112b0       ??_C@_0BI@MCAJLALH@powerups?1ysalimarishell?$AA@ 3009b2b0     cg_main.obj
 0002:000112c8       ??_C@_0BG@BOFAMPFG@gfx?1effects?1forcePush?$AA@ 3009b2c8     cg_main.obj
 0002:000112e0       ??_C@_0CF@BDJNEKJF@sound?1weapons?1saber?1saberblock?$CFi@ 3009b2e0     cg_main.obj
 0002:00011308       ??_C@_0CB@KIOLPEIM@sound?1weapons?1saber?1bounce?$CFi?4wav@ 3009b308     cg_main.obj
 0002:0001132c       ??_C@_0CG@LENDFJGC@sound?1weapons?1saber?1saberoffquic@ 3009b32c     cg_main.obj
 0002:00011354       ??_C@_0CC@BOODJDJL@sound?1weapons?1saber?1saberhitwall@ 3009b354     cg_main.obj
 0002:00011378       ??_C@_0CC@DFMOMAFI@sound?1weapons?1saber?1saberhitwall@ 3009b378     cg_main.obj
 0002:0001139c       ??_C@_0CC@CMNFPBBJ@sound?1weapons?1saber?1saberhitwall@ 3009b39c     cg_main.obj
 0002:000113c0       ??_C@_0CB@ELDLDPNJ@sound?1weapons?1saber?1saberhit?4wav@ 3009b3c0     cg_main.obj
 0002:000113e4       ??_C@_0CC@CNLJCPHN@sound?1weapons?1saber?1saberhit1?4wa@ 3009b3e4     cg_main.obj
 0002:00011408       ??_C@_0CC@KLCNFNND@sound?1weapons?1saber?1saberhit2?4wa@ 3009b408     cg_main.obj
 0002:0001142c       ??_C@_0CC@GAHBIOHG@sound?1weapons?1saber?1saberhit3?4wa@ 3009b42c     cg_main.obj
 0002:00011450       ??_C@_0CE@CFCKGBNH@sound?1weapons?1saber?1saber_catch?4@ 3009b450     cg_main.obj
 0002:00011474       ??_C@_0CB@GOLMPDFB@sound?1weapons?1force?1teamheal?4wav@ 3009b474     cg_main.obj
 0002:00011498       ??_C@_0CC@NGHLBFEO@sound?1weapons?1force?1teamforce?4wa@ 3009b498     cg_main.obj
 0002:000114bc       ??_C@_0BN@KBLLAEBL@sound?1weapons?1force?1heal?4wav?$AA@ 3009b4bc     cg_main.obj
 0002:000114dc       ??_C@_0BO@CMLBKDJG@sound?1weapons?1force?1speed?4wav?$AA@ 3009b4dc     cg_main.obj
 0002:000114fc       ??_C@_0BN@FIMAKGPM@sound?1weapons?1force?1rage?4wav?$AA@ 3009b4fc     cg_main.obj
 0002:0001151c       ??_C@_0CC@HMAOBKHB@sound?1weapons?1force?1lightninghit@ 3009b51c     cg_main.obj
 0002:00011540       ??_C@_0CC@FHCDEJLC@sound?1weapons?1force?1lightninghit@ 3009b540     cg_main.obj
 0002:00011564       ??_C@_0CC@EODIHIPD@sound?1weapons?1force?1lightninghit@ 3009b564     cg_main.obj
 0002:00011588       ??_C@_0BO@CFEEFGGJ@sound?1weapons?1force?1drain?4wav?$AA@ 3009b588     cg_main.obj
 0002:000115a8       ??_C@_0CC@IDPNPIJB@sound?1weapons?1force?1jumpbuild?4wa@ 3009b5a8     cg_main.obj
 0002:000115cc       ??_C@_0CB@DHCOJIOI@sound?1weapons?1force?1distract?4wav@ 3009b5cc     cg_main.obj
 0002:000115f0       ??_C@_0CF@GAOMGDBJ@sound?1weapons?1force?1distractstop@ 3009b5f0     cg_main.obj
 0002:00011618       ??_C@_0BN@KLMPLEJJ@sound?1weapons?1force?1pull?4wav?$AA@ 3009b618     cg_main.obj
 0002:00011638       ??_C@_0BN@KBMIBKKI@sound?1weapons?1force?1push?4wav?$AA@ 3009b638     cg_main.obj
 0002:00011658       ??_C@_0CD@DFAKCMJE@sound?1weapons?1thermal?1bounce?$CFi?4w@ 3009b658     cg_main.obj
 0002:0001167c       ??_C@_0CC@PJOHFIIG@sound?1movers?1switches?1switch2?4wa@ 3009b67c     cg_main.obj
 0002:000116a0       ??_C@_0CC@DCLLILCD@sound?1movers?1switches?1switch3?4wa@ 3009b6a0     cg_main.obj
 0002:000116c4       ??_C@_0BK@BIGBMHEG@sound?1ambience?1spark5?4wav?$AA@ 3009b6c4     cg_main.obj
 0002:000116e0       ??_C@_0BM@MAPGBELF@sound?1chars?1turret?1ping?4wav?$AA@ 3009b6e0     cg_main.obj
 0002:000116fc       ??_C@_0BP@OJENPHJJ@sound?1chars?1turret?1startup?4wav?$AA@ 3009b6fc     cg_main.obj
 0002:0001171c       ??_C@_0CA@DICAJEGI@sound?1chars?1turret?1shutdown?4wav?$AA@ 3009b71c     cg_main.obj
 0002:0001173c       ??_C@_0BM@ECOPMLLG@sound?1chars?1turret?1move?4wav?$AA@ 3009b73c     cg_main.obj
 0002:00011758       ??_C@_0CC@ONCGEBCD@sound?1weapons?1force?1speedloop?4wa@ 3009b758     cg_main.obj
 0002:0001177c       ??_C@_0CD@PBDIABKC@sound?1chars?1protocol?1misc?140MOM0@ 3009b77c     cg_main.obj
 0002:000117a0       ??_C@_0CD@NKBFFCGB@sound?1chars?1protocol?1misc?140MOM0@ 3009b7a0     cg_main.obj
 0002:000117c4       ??_C@_0CD@JABLNCCD@sound?1chars?1protocol?1misc?140MOM0@ 3009b7c4     cg_main.obj
 0002:000117e8       ??_C@_0CD@MDAOGDCA@sound?1chars?1protocol?1misc?140MOM0@ 3009b7e8     cg_main.obj
 0002:0001180c       ??_C@_0CD@IMEPPFOH@sound?1chars?1protocol?1misc?140MOM0@ 3009b80c     cg_main.obj
 0002:00011830       ??_C@_0CD@JFFEMEKG@sound?1chars?1protocol?1misc?140MOM0@ 3009b830     cg_main.obj
 0002:00011854       ??_C@_0CD@LOHJJHGF@sound?1chars?1protocol?1misc?140MOM0@ 3009b854     cg_main.obj
 0002:00011878       ??_C@_0CD@KHGCKGCE@sound?1chars?1protocol?1misc?140MOM0@ 3009b878     cg_main.obj
 0002:0001189c       ??_C@_0CD@HDOPALOI@sound?1chars?1protocol?1misc?140MOM0@ 3009b89c     cg_main.obj
 0002:000118c0       ??_C@_0CD@KGKAMMBD@sound?1chars?1protocol?1misc?140MOM0@ 3009b8c0     cg_main.obj
 0002:000118e4       ??_C@_0CD@HGKABNGN@sound?1chars?1protocol?1misc?140MOM0@ 3009b8e4     cg_main.obj
 0002:00011908       ??_C@_0CD@GPLLCMCM@sound?1chars?1protocol?1misc?140MOM0@ 3009b908     cg_main.obj
 0002:0001192c       ??_C@_0CD@OICDDAOD@sound?1chars?1protocol?1misc?140MOM0@ 3009b92c     cg_main.obj
 0002:00011950       ??_C@_0CA@IFIECLL@sound?1weapons?1force?1drained?4mp3?$AA@ 3009b950     cg_main.obj
 0002:00011970       ??_C@_0BE@CAAOHOKG@music?1goodsmall?4mp3?$AA@ 3009b970     cg_main.obj
 0002:00011984       ??_C@_0BD@PKCEDEMI@music?1badsmall?4mp3?$AA@ 3009b984     cg_main.obj
 0002:00011998       ??_C@_0BJ@EFMFEOAN@sound?1weapons?1change?4wav?$AA@ 3009b998     cg_main.obj
 0002:000119b4       ??_C@_0BI@HJOEIPHG@sound?1player?1telein?4wav?$AA@ 3009b9b4     cg_main.obj
 0002:000119cc       ??_C@_0BJ@JHMBBENI@sound?1player?1teleout?4wav?$AA@ 3009b9cc     cg_main.obj
 0002:000119e8       ??_C@_0BJ@LOHBFELN@sound?1items?1respawn1?4wav?$AA@ 3009b9e8     cg_main.obj
 0002:00011a04       ??_C@_0BG@MOPKJEGA@sound?1player?1talk?4wav?$AA@ 3009ba04     cg_main.obj
 0002:00011a1c       ??_C@_0BH@BPJFFDHG@sound?1player?1land1?4wav?$AA@ 3009ba1c     cg_main.obj
 0002:00011a34       ??_C@_0BL@NBPAAOGK@sound?1player?1fallsplat?4wav?$AA@ 3009ba34     cg_main.obj
 0002:00011a50       ??_C@_0CB@HLPMFIDJ@sound?1effects?1energy_crackle?4wav@ 3009ba50     cg_main.obj
 0002:00011a74       ??_C@_0BH@JPPKHAKF@sound?1player?1roll1?4wav?$AA@ 3009ba74     cg_main.obj
 0002:00011a8c       ??_C@_0BM@BFNDNDLL@sound?1weapons?1force?1noforce?$AA@ 3009ba8c     cg_main.obj
 0002:00011aa8       ??_C@_0BJ@CLKANPDE@sound?1player?1watr_in?4wav?$AA@ 3009baa8     cg_main.obj
 0002:00011ac4       ??_C@_0BK@PEBHADE@sound?1player?1watr_out?4wav?$AA@ 3009bac4     cg_main.obj
 0002:00011ae0       ??_C@_0BJ@ILNOCJIO@sound?1player?1watr_un?4wav?$AA@ 3009bae0     cg_main.obj
 0002:00011afc       ??_C@_0CB@JPBIOOOD@models?1map_objects?1mp?1sphere?4md3@ 3009bafc     cg_main.obj
 0002:00011b20       ??_C@_0BB@LJELJCEE@surfaceExplosion?$AA@ 3009bb20     cg_main.obj
 0002:00011b34       ??_C@_0BB@HDBIPJEB@gfx?1effects?1burn?$AA@ 3009bb34     cg_main.obj
 0002:00011b48       ??_C@_0BM@DLLLNEPJ@gfx?1effects?1solidWhite_cull?$AA@ 3009bb48     cg_main.obj
 0002:00011b64       ??_C@_0BK@PNDKAKFC@sound?1player?1holocron?4wav?$AA@ 3009bb64     cg_main.obj
 0002:00011b80       ??_C@_0BO@IJNKLFAF@sound?1interface?1zoomstart?4wav?$AA@ 3009bb80     cg_main.obj
 0002:00011ba0       ??_C@_0BN@CGCJIHAN@sound?1interface?1zoomloop?4wav?$AA@ 3009bba0     cg_main.obj
 0002:00011bc0       ??_C@_0BM@LGCAPPLD@sound?1interface?1zoomend?4wav?$AA@ 3009bbc0     cg_main.obj
 0002:00011bdc       ??_C@_0CI@DPHHBNJK@sound?1player?1footsteps?1stone_ste@ 3009bbdc     cg_main.obj
 0002:00011c04       ??_C@_0CH@JGCHGDKG@sound?1player?1footsteps?1stone_run@ 3009bc04     cg_main.obj
 0002:00011c2c       ??_C@_0CI@GKNKFENB@sound?1player?1footsteps?1metal_ste@ 3009bc2c     cg_main.obj
 0002:00011c54       ??_C@_0CH@DOEIAHBB@sound?1player?1footsteps?1metal_run@ 3009bc54     cg_main.obj
 0002:00011c7c       ??_C@_0CH@GKBLNPHE@sound?1player?1footsteps?1pipe_step@ 3009bc7c     cg_main.obj
 0002:00011ca4       ??_C@_0CG@PPMDKCBB@sound?1player?1footsteps?1pipe_run?$CF@ 3009bca4     cg_main.obj
 0002:00011ccc       ??_C@_0CH@IDDALCLE@sound?1player?1footsteps?1water_run@ 3009bccc     cg_main.obj
 0002:00011cf4       ??_C@_0CI@DAPHNJAL@sound?1player?1footsteps?1water_wal@ 3009bcf4     cg_main.obj
 0002:00011d1c       ??_C@_0CK@POKBBDJH@sound?1player?1footsteps?1water_wad@ 3009bd1c     cg_main.obj
 0002:00011d48       ??_C@_0CH@DMKPPPJH@sound?1player?1footsteps?1snow_step@ 3009bd48     cg_main.obj
 0002:00011d70       ??_C@_0CG@PICHGCCE@sound?1player?1footsteps?1snow_run?$CF@ 3009bd70     cg_main.obj
 0002:00011d98       ??_C@_0CH@MJLFGA@sound?1player?1footsteps?1sand_walk@ 3009bd98     cg_main.obj
 0002:00011dc0       ??_C@_0CG@IKDDAFL@sound?1player?1footsteps?1sand_run?$CF@ 3009bdc0     cg_main.obj
 0002:00011de8       ??_C@_0CI@CAGGOHIJ@sound?1player?1footsteps?1grass_ste@ 3009bde8     cg_main.obj
 0002:00011e10       ??_C@_0CH@FNFOBOHF@sound?1player?1footsteps?1grass_run@ 3009be10     cg_main.obj
 0002:00011e38       ??_C@_0CH@NAPCBGJP@sound?1player?1footsteps?1dirt_step@ 3009be38     cg_main.obj
 0002:00011e60       ??_C@_0CG@MGDMEMOF@sound?1player?1footsteps?1dirt_run?$CF@ 3009be60     cg_main.obj
 0002:00011e88       ??_C@_0CG@DJANFOAN@sound?1player?1footsteps?1mud_walk?$CF@ 3009be88     cg_main.obj
 0002:00011eb0       ??_C@_0CF@MPPLJPLI@sound?1player?1footsteps?1mud_run?$CFi@ 3009beb0     cg_main.obj
 0002:00011ed8       ??_C@_0CJ@MJFKMPMO@sound?1player?1footsteps?1gravel_wa@ 3009bed8     cg_main.obj
 0002:00011f04       ??_C@_0CI@JHPJBICI@sound?1player?1footsteps?1gravel_ru@ 3009bf04     cg_main.obj
 0002:00011f2c       ??_C@_0CG@GIABMMBJ@sound?1player?1footsteps?1rug_step?$CF@ 3009bf2c     cg_main.obj
 0002:00011f54       ??_C@_0CF@IIEDMFNC@sound?1player?1footsteps?1rug_run?$CFi@ 3009bf54     cg_main.obj
 0002:00011f7c       ??_C@_0CH@KEIEAAOE@sound?1player?1footsteps?1wood_walk@ 3009bf7c     cg_main.obj
 0002:00011fa4       ??_C@_0CG@JENCNJDN@sound?1player?1footsteps?1wood_run?$CF@ 3009bfa4     cg_main.obj
 0002:00011fcc       ??_C@_0BN@KKOEBMCN@sound?1chars?1seeker?1misc?1hiss?$AA@ 3009bfcc     cg_main.obj
 0002:00011fec       ??_C@_0BK@FFKIOHJN@sound?1items?1use_bacta?4wav?$AA@ 3009bfec     cg_main.obj
 0002:00012008       ??_C@_0CD@PGDBKJHO@sound?1chars?1protocol?1misc?140MOM0@ 3009c008     cg_main.obj
 0002:0001202c       ??_C@_0CD@KBKJGEMP@sound?1chars?1protocol?1misc?140MOM0@ 3009c02c     cg_main.obj
 0002:00012050       ??_C@_0O@MGCCPCPC@materials?1mud?$AA@ 3009c050     cg_main.obj
 0002:00012060       ??_C@_0P@FPNIHDJM@materials?1sand?$AA@ 3009c060     cg_main.obj
 0002:00012070       ??_C@_0P@GHJGEIGP@materials?1snow?$AA@ 3009c070     cg_main.obj
 0002:00012080       ??_C@_0BB@PNDPFHAF@materials?1gravel?$AA@ 3009c080     cg_main.obj
 0002:00012094       ??_C@_0BE@GPGKBELK@materials?1mud_large?$AA@ 3009c094     cg_main.obj
 0002:000120a8       ??_C@_0BF@MKALJGAO@materials?1sand_large?$AA@ 3009c0a8     cg_main.obj
 0002:000120c0       ??_C@_0BF@GIFOIHPM@materials?1dirt_large?$AA@ 3009c0c0     cg_main.obj
 0002:000120d8       ??_C@_0BF@NOEPOPAI@materials?1snow_large?$AA@ 3009c0d8     cg_main.obj
 0002:000120f0       ??_C@_0BH@FFHHKIMO@materials?1gravel_large?$AA@ 3009c0f0     cg_main.obj
 0002:00012108       ??_C@_0BB@JJBGBOML@env?1water_impact?$AA@ 3009c108     cg_main.obj
 0002:0001211c       ??_C@_0BA@LJAMMEG@env?1lava_splash?$AA@ 3009c11c     cg_main.obj
 0002:0001212c       ??_C@_0BA@FBGBOLED@env?1acid_splash?$AA@ 3009c12c     cg_main.obj
 0002:0001213c       ??_C@_0BE@EPHCALE@gfx?12d?1numbers?1zero?$AA@ 3009c13c     cg_main.obj
 0002:00012150       ??_C@_0BD@JPBKBBJF@gfx?12d?1numbers?1one?$AA@ 3009c150     cg_main.obj
 0002:00012164       ??_C@_0BD@PBBKLBHO@gfx?12d?1numbers?1two?$AA@ 3009c164     cg_main.obj
 0002:00012178       ??_C@_0BF@BLIPDPEA@gfx?12d?1numbers?1three?$AA@ 3009c178     cg_main.obj
 0002:00012190       ??_C@_0BE@DEHJMAMK@gfx?12d?1numbers?1four?$AA@ 3009c190     cg_main.obj
 0002:000121a4       ??_C@_0BE@BGNHKFNJ@gfx?12d?1numbers?1five?$AA@ 3009c1a4     cg_main.obj
 0002:000121b8       ??_C@_0BD@HPPGIDCL@gfx?12d?1numbers?1six?$AA@ 3009c1b8     cg_main.obj
 0002:000121cc       ??_C@_0BF@JCIMIFNF@gfx?12d?1numbers?1seven?$AA@ 3009c1cc     cg_main.obj
 0002:000121e4       ??_C@_0BF@NCKDNACA@gfx?12d?1numbers?1eight?$AA@ 3009c1e4     cg_main.obj
 0002:000121fc       ??_C@_0BE@DEJCBMNA@gfx?12d?1numbers?1nine?$AA@ 3009c1fc     cg_main.obj
 0002:00012210       ??_C@_0BF@BIEHLLCD@gfx?12d?1numbers?1minus?$AA@ 3009c210     cg_main.obj
 0002:00012228       ??_C@_0BG@KEMEHAOG@gfx?12d?1numbers?1t_zero?$AA@ 3009c228     cg_main.obj
 0002:00012240       ??_C@_0BF@KGKIDLHF@gfx?12d?1numbers?1t_one?$AA@ 3009c240     cg_main.obj
 0002:00012258       ??_C@_0BF@MIKIJLJO@gfx?12d?1numbers?1t_two?$AA@ 3009c258     cg_main.obj
 0002:00012270       ??_C@_0BH@JOEKDMMI@gfx?12d?1numbers?1t_three?$AA@ 3009c270     cg_main.obj
 0002:00012288       ??_C@_0BG@JEEKJAJI@gfx?12d?1numbers?1t_four?$AA@ 3009c288     cg_main.obj
 0002:000122a0       ??_C@_0BG@LGOEPFIL@gfx?12d?1numbers?1t_five?$AA@ 3009c2a0     cg_main.obj
 0002:000122b8       ??_C@_0BF@EGEEKJML@gfx?12d?1numbers?1t_six?$AA@ 3009c2b8     cg_main.obj
 0002:000122d0       ??_C@_0BH@BHEJIGFN@gfx?12d?1numbers?1t_seven?$AA@ 3009c2d0     cg_main.obj
 0002:000122e8       ??_C@_0BH@FHGGNDKI@gfx?12d?1numbers?1t_eight?$AA@ 3009c2e8     cg_main.obj
 0002:00012300       ??_C@_0BG@JEKBEMIC@gfx?12d?1numbers?1t_nine?$AA@ 3009c300     cg_main.obj
 0002:00012318       ??_C@_0BH@JNICLIKL@gfx?12d?1numbers?1t_minus?$AA@ 3009c318     cg_main.obj
 0002:00012330       ??_C@_0BG@GLNNCKG@gfx?12d?1numbers?1c_zero?$AA@ 3009c330     cg_main.obj
 0002:00012348       ??_C@_0BF@LIHLAJFG@gfx?12d?1numbers?1c_one?$AA@ 3009c348     cg_main.obj
 0002:00012360       ??_C@_0BF@NGHLKJLN@gfx?12d?1numbers?1c_two?$AA@ 3009c360     cg_main.obj
 0002:00012378       ??_C@_0BH@OIDEAEPK@gfx?12d?1numbers?1c_three?$AA@ 3009c378     cg_main.obj
 0002:00012390       ??_C@_0BG@DGDDDCNI@gfx?12d?1numbers?1c_four?$AA@ 3009c390     cg_main.obj
 0002:000123a8       ??_C@_0BG@BEJNFHML@gfx?12d?1numbers?1c_five?$AA@ 3009c3a8     cg_main.obj
 0002:000123c0       ??_C@_0BF@FIJHJLOI@gfx?12d?1numbers?1c_six?$AA@ 3009c3c0     cg_main.obj
 0002:000123d8       ??_C@_0BH@GBDHLOGP@gfx?12d?1numbers?1c_seven?$AA@ 3009c3d8     cg_main.obj
 0002:000123f0       ??_C@_0BH@CBBIOLJK@gfx?12d?1numbers?1c_eight?$AA@ 3009c3f0     cg_main.obj
 0002:00012408       ??_C@_0BG@DGNIOOMC@gfx?12d?1numbers?1c_nine?$AA@ 3009c408     cg_main.obj
 0002:00012420       ??_C@_0BH@HELDPHNE@gfx?1mp?1pduel_icon_lone?$AA@ 3009c420     cg_main.obj
 0002:00012438       ??_C@_0BJ@CGMCGOPM@gfx?1mp?1pduel_icon_double?$AA@ 3009c438     cg_main.obj
 0002:00012454       ??_C@_0BB@EPCKOLB@gfx?1mp?1chat_icon?$AA@ 3009c454     cg_main.obj
 0002:00012468       ??_C@_0BC@OGJIGJAP@gfx?1mp?1vchat_icon?$AA@ 3009c468     cg_main.obj
 0002:0001247c       ??_C@_0BB@OIENEINL@gfx?12d?1defer?4tga?$AA@ 3009c47c     cg_main.obj
 0002:00012490       ??_C@_0BK@IEPPFEFE@gfx?1menus?1radar?1radar?4png?$AA@ 3009c490     cg_main.obj
 0002:000124ac       ??_C@_0BJ@NPICMJA@gfx?1menus?1radar?1goalitem?$AA@ 3009c4ac     cg_main.obj
 0002:000124c8       ??_C@_0BI@FIOLLEHN@gfx?1menus?1radar?1arrow_w?$AA@ 3009c4c8     cg_main.obj
 0002:000124e0       ??_C@_0BH@BPNHLMKG@gfx?1menus?1radar?1rocket?$AA@ 3009c4e0     cg_main.obj
 0002:000124f8       ??_C@_0CB@FGMDPPAE@gfx?1mp_automap?1mpauto_frame_left@ 3009c4f8     cg_main.obj
 0002:0001251c       ??_C@_0CC@BNMEAIIP@gfx?1mp_automap?1mpauto_frame_righ@ 3009c51c     cg_main.obj
 0002:00012540       ??_C@_0CA@KDPBNNGB@gfx?1mp_automap?1mpauto_frame_top?$AA@ 3009c540     cg_main.obj
 0002:00012560       ??_C@_0CD@DBDCHJGE@gfx?1mp_automap?1mpauto_frame_bott@ 3009c560     cg_main.obj
 0002:00012584       ??_C@_0L@KHBCPNIG@gfx?12d?1lag?$AA@ 3009c584     cg_main.obj
 0002:00012590       ??_C@_0L@GLPNNMED@gfx?12d?1net?$AA@ 3009c590     cg_main.obj
 0002:0001259c       ??_C@_0BC@DOELBOML@gfx?1misc?1blueLine?$AA@ 3009c59c     cg_main.obj
 0002:000125b0       ??_C@_0M@DOBEFLEE@turret?1shot?$AA@ 3009c5b0     cg_main.obj
 0002:000125bc       ??_C@_0BI@DFPFFJME@emplaced?1dead_smoke?4efx?$AA@ 3009c5bc     cg_main.obj
 0002:000125d4       ??_C@_0BF@JBOEDKLA@emplaced?1explode?4efx?$AA@ 3009c5d4     cg_main.obj
 0002:000125ec       ??_C@_0BD@CIEJDHGF@turret?1explode?4efx?$AA@ 3009c5ec     cg_main.obj
 0002:00012600       ??_C@_0BL@GALBHNII@sparks?1spark_explosion?4efx?$AA@ 3009c600     cg_main.obj
 0002:0001261c       ??_C@_0BH@LGEKJMJF@tripMine?1explosion?4efx?$AA@ 3009c61c     cg_main.obj
 0002:00012634       ??_C@_0BG@OPKCOLIH@detpack?1explosion?4efx?$AA@ 3009c634     cg_main.obj
 0002:0001264c       ??_C@_0BH@IGPEPEKB@flechette?1alt_blow?4efx?$AA@ 3009c64c     cg_main.obj
 0002:00012664       ??_C@_0BL@ENBMGPII@stunBaton?1flesh_impact?4efx?$AA@ 3009c664     cg_main.obj
 0002:00012680       ??_C@_0BG@JJPEKAJ@demp2?1altDetonate?4efx?$AA@ 3009c680     cg_main.obj
 0002:00012698       ??_C@_0BH@HKDCPBHI@sparks?1spark_exp_nosnd?$AA@ 3009c698     cg_main.obj
 0002:000126b0       ??_C@_0BD@BEOLDAGA@tripMine?1laser?4efx?$AA@ 3009c6b0     cg_main.obj
 0002:000126c4       ??_C@_0BO@JELNEKOO@effects?1emplaced?1muzzle_flash?$AA@ 3009c6c4     cg_main.obj
 0002:000126e4       ??_C@_0BE@EJCDPDIJ@concussion?1alt_ring?$AA@ 3009c6e4     cg_main.obj
 0002:000126f8       ??_C@_0BA@CDHDMGGO@mp?1itemcone?4efx?$AA@ 3009c6f8     cg_main.obj
 0002:00012708       ??_C@_0CA@HGFMJEIC@effects?1turret?1muzzle_flash?4efx?$AA@ 3009c708     cg_main.obj
 0002:00012728       ??_C@_0BH@JDPGNKAL@sparks?1spark_nosnd?4efx?$AA@ 3009c728     cg_main.obj
 0002:00012740       ??_C@_0BE@JLBEFIFN@saber?1saber_cut?4efx?$AA@ 3009c740     cg_main.obj
 0002:00012754       ??_C@_0BG@NKEPHOMN@saber?1saber_block?4efx?$AA@ 3009c754     cg_main.obj
 0002:0001276c       ??_C@_0BK@POKMLLAA@saber?1blood_sparks_mp?4efx?$AA@ 3009c76c     cg_main.obj
 0002:00012788       ??_C@_0BN@JCMGEEBK@saber?1blood_sparks_25_mp?4efx?$AA@ 3009c788     cg_main.obj
 0002:000127a8       ??_C@_0BN@DKINBKCM@saber?1blood_sparks_50_mp?4efx?$AA@ 3009c7a8     cg_main.obj
 0002:000127c8       ??_C@_0N@LLGCPGGE@mp?1spawn?4efx?$AA@ 3009c7c8     cg_main.obj
 0002:000127d8       ??_C@_0BB@CKIDHIKN@mp?1jedispawn?4efx?$AA@ 3009c7d8     cg_main.obj
 0002:000127ec       ??_C@_0BE@EDNJGAOC@blaster?1deflect?4efx?$AA@ 3009c7ec     cg_main.obj
 0002:00012800       ??_C@_0BF@BPNBJBAC@blaster?1smoke_bolton?$AA@ 3009c800     cg_main.obj
 0002:00012818       ??_C@_0BI@EKDCGGPA@force?1confusion_old?4efx?$AA@ 3009c818     cg_main.obj
 0002:00012830       ??_C@_0BM@PFBHLOPA@effects?1force?1lightning?4efx?$AA@ 3009c830     cg_main.obj
 0002:0001284c       ??_C@_0CA@PJMOHHIO@effects?1force?1lightningwide?4efx?$AA@ 3009c84c     cg_main.obj
 0002:0001286c       ??_C@_0BF@DOMCBFFK@effects?1mp?1drain?4efx?$AA@ 3009c86c     cg_main.obj
 0002:00012884       ??_C@_0BJ@POMMBGAM@effects?1mp?1drainwide?4efx?$AA@ 3009c884     cg_main.obj
 0002:000128a0       ??_C@_0BI@FFKPJFGI@effects?1mp?1drainhit?4efx?$AA@ 3009c8a0     cg_main.obj
 0002:000128b8       ??_C@_0BG@KLAJLGNE@disruptor?1death_smoke?$AA@ 3009c8b8     cg_main.obj
 0002:000128d0       ??_C@_0BD@PPPBDMEH@gfx?12d?1crosshair?$CFc?$AA@ 3009c8d0     cg_main.obj
 0002:000128e4       ??_C@_0BA@PJMLIFEA@gfx?12d?1backtile?$AA@ 3009c8e4     cg_main.obj
 0002:000128f4       ??_C@_0BF@KCKLAPFP@powerups?1placeholder?$AA@ 3009c8f4     cg_main.obj
 0002:0001290c       ??_C@_0BA@PEFPEMDE@powerups?1rezout?$AA@ 3009c90c     cg_main.obj
 0002:0001291c       ??_C@_0BI@MGAOKANG@gfx?1misc?1personalshield?$AA@ 3009c91c     cg_main.obj
 0002:00012934       ??_C@_0BG@LLDBPCCL@gfx?1misc?1forceprotect?$AA@ 3009c934     cg_main.obj
 0002:0001294c       ??_C@_0BF@NLDNMFFP@gfx?1misc?1sightbubble?$AA@ 3009c94c     cg_main.obj
 0002:00012964       ??_C@_0BE@DDKEHNDP@powerups?1forceshell?$AA@ 3009c964     cg_main.obj
 0002:00012978       ??_C@_0BE@JLIPOJOD@powerups?1sightshell?$AA@ 3009c978     cg_main.obj
 0002:0001298c       ??_C@_0BP@JIAHAICB@models?1map_objects?1mp?1holo?4md3?$AA@ 3009c98c     cg_main.obj
 0002:000129ac       ??_C@_0BK@NHEDDPHF@models?1flag2?1flagpole?4md3?$AA@ 3009c9ac     cg_main.obj
 0002:000129c8       ??_C@_0BL@NNONIMAN@models?1flag2?1flagflap3?4md3?$AA@ 3009c9c8     cg_main.obj
 0002:000129e4       ??_C@_0CI@PFOOJNMO@models?1mapobjects?1flagbase?1red_b@ 3009c9e4     cg_main.obj
 0002:00012a0c       ??_C@_0CJ@MEDKOFPD@models?1mapobjects?1flagbase?1blue_@ 3009ca0c     cg_main.obj
 0002:00012a38       ??_C@_0CJ@PBONGGD@models?1mapobjects?1flagbase?1ntrl_@ 3009ca38     cg_main.obj
 0002:00012a64       ??_C@_0BB@NJDEKCOL@sprites?1team_red?$AA@ 3009ca64     cg_main.obj
 0002:00012a78       ??_C@_0BC@CPIHIBPP@sprites?1team_blue?$AA@ 3009ca78     cg_main.obj
 0002:00012a8c       ??_C@_0BE@MEJHIMJO@gfx?12d?1colorbar?4tga?$AA@ 3009ca8c     cg_main.obj
 0002:00012aa0       ??_C@_0CH@BGFFCLAG@ui?1assets?1statusbar?1selectedheal@ 3009caa0     cg_main.obj
 0002:00012ac8       ??_C@_0BH@CBLAHDFN@powerups?1ysaliredshell?$AA@ 3009cac8     cg_main.obj
 0002:00012ae0       ??_C@_0BI@PCIGPAA@powerups?1ysaliblueshell?$AA@ 3009cae0     cg_main.obj
 0002:00012af8       ??_C@_0BD@FDOCLGBJ@powerups?1boonshell?$AA@ 3009caf8     cg_main.obj
 0002:00012b0c       ??_C@_0BL@JAOFPJCP@powerups?1endarkenmentshell?$AA@ 3009cb0c     cg_main.obj
 0002:00012b28       ??_C@_0BM@CILICBLC@powerups?1enlightenmentshell?$AA@ 3009cb28     cg_main.obj
 0002:00012b44       ??_C@_0BO@PBALHOFA@powerups?1invulnerabilityshell?$AA@ 3009cb44     cg_main.obj
 0002:00012b64       ??_C@_0BB@ENOKEJMK@gfx?12d?1binCircle?$AA@ 3009cb64     cg_main.obj
 0002:00012b78       ??_C@_0P@LHEFCKJK@gfx?12d?1binMask?$AA@ 3009cb78     cg_main.obj
 0002:00012b88       ??_C@_0BE@IIMHDGMO@gfx?12d?1binSideArrow?$AA@ 3009cb88     cg_main.obj
 0002:00012b9c       ??_C@_0BB@JEPLFKJJ@gfx?12d?1binTopTri?$AA@ 3009cb9c     cg_main.obj
 0002:00012bb0       ??_C@_0BH@MANIHANO@gfx?12d?1binocularWindow?$AA@ 3009cbb0     cg_main.obj
 0002:00012bc8       ??_C@_0BL@MMBFBAIB@gfx?12d?1binocularNumOverlay?$AA@ 3009cbc8     cg_main.obj
 0002:00012be4       ??_C@_0CC@GKPEHNOE@models?1chunks?1metal?1metal1_?$CFi?4md@ 3009cbe4     cg_main.obj
 0002:00012c08       ??_C@_0CC@FDHJEBCB@models?1chunks?1metal?1metal2_?$CFi?4md@ 3009cc08     cg_main.obj
 0002:00012c2c       ??_C@_0CA@LNLFMHFJ@models?1chunks?1rock?1rock1_?$CFi?4md3?$AA@ 3009cc2c     cg_main.obj
 0002:00012c4c       ??_C@_0CA@IEDIPLJM@models?1chunks?1rock?1rock2_?$CFi?4md3?$AA@ 3009cc4c     cg_main.obj
 0002:00012c6c       ??_C@_0CA@JDEDOPNP@models?1chunks?1rock?1rock3_?$CFi?4md3?$AA@ 3009cc6c     cg_main.obj
 0002:00012c8c       ??_C@_0CC@GLENOMLP@models?1chunks?1crate?1crate1_?$CFi?4md@ 3009cc8c     cg_main.obj
 0002:00012cb0       ??_C@_0CC@FCMANAHK@models?1chunks?1crate?1crate2_?$CFi?4md@ 3009ccb0     cg_main.obj
 0002:00012cd4       ??_C@_0CD@KGJEJJO@models?1chunks?1metal?1wmetal1_?$CFi?4m@ 3009ccd4     cg_main.obj
 0002:00012cf8       ??_C@_0CD@JACKJPA@sound?1weapons?1explosions?1glasslc@ 3009ccf8     cg_main.obj
 0002:00012d1c       ??_C@_0BM@OAFICFND@sound?1effects?1grate_destroy?$AA@ 3009cd1c     cg_main.obj
 0002:00012d38       ??_C@_0BJ@DLLIGKEF@sound?1effects?1wall_smash?$AA@ 3009cd38     cg_main.obj
 0002:00012d54       ??_C@_0BL@MIMICCND@sound?1effects?1stone_bounce?$AA@ 3009cd54     cg_main.obj
 0002:00012d70       ??_C@_0BM@PCGCBPDN@sound?1effects?1stone_bounce2?$AA@ 3009cd70     cg_main.obj
 0002:00012d8c       ??_C@_0BL@MBOLIHHD@sound?1effects?1metal_bounce?$AA@ 3009cd8c     cg_main.obj
 0002:00012da8       ??_C@_0BM@CELNJPHA@sound?1effects?1metal_bounce2?$AA@ 3009cda8     cg_main.obj
 0002:00012dc4       ??_C@_0CF@BGPACEFC@sound?1weapons?1explosions?1glassbr@ 3009cdc4     cg_main.obj
 0002:00012dec       ??_C@_0CE@NAAHHAPB@sound?1weapons?1explosions?1crateBu@ 3009cdec     cg_main.obj
 0002:00012e10       ??_C@_0CE@PLCKCDDC@sound?1weapons?1explosions?1crateBu@ 3009ce10     cg_main.obj
 0002:00012e34       ??_C@_0BG@JIBKAJPC@gfx?1misc?1test_crackle?$AA@ 3009ce34     cg_main.obj
 0002:00012e4c       ??_C@_0BC@KOPBJOAL@gfx?1misc?1electric?$AA@ 3009ce4c     cg_main.obj
 0002:00012e60       ??_C@_0BL@KONNHIGJ@gfx?1misc?1fullbodyelectric2?$AA@ 3009ce60     cg_main.obj
 0002:00012e7c       ??_C@_0L@KKACDDLD@footstep_r?$AA@ 3009ce7c     cg_main.obj
 0002:00012e88       ??_C@_0L@HOEDAMGM@footstep_l?$AA@ 3009ce88     cg_main.obj
 0002:00012e94       ??_C@_0BB@OJCIKJGO@footstep_heavy_r?$AA@ 3009ce94     cg_main.obj
 0002:00012ea8       ??_C@_0BB@DNGJJGLB@footstep_heavy_l?$AA@ 3009cea8     cg_main.obj
 0002:00012ebc       ??_C@_0BD@MCDAOGIB@effects?1refraction?$AA@ 3009cebc     cg_main.obj
 0002:00012ed0       ??_C@_0BK@IBFDCHFF@gfx?1effects?1cloakedShader?$AA@ 3009ced0     cg_main.obj
 0002:00012eec       ??_C@_0L@KHLAIOEE@markShadow?$AA@ 3009ceec     cg_main.obj
 0002:00012ef8       ??_C@_04KNLNBPHI@wake?$AA@ 3009cef8     cg_main.obj
 0002:00012f00       ??_C@_0BG@HJJFHBCH@gfx?1misc?1borgeyeflare?$AA@ 3009cf00     cg_main.obj
 0002:00012f18       ??_C@_0BJ@DBMHLADB@gfx?1mp?1dmgshader_shields?$AA@ 3009cf18     cg_main.obj
 0002:00012f34       ??_C@_0CC@BMBLEHAM@gfx?1mp?1dmgshader_shieldsandhealt@ 3009cf34     cg_main.obj
 0002:00012f58       ??_C@_03JLINDLFM@?$CK?$CFi?$AA@ 3009cf58     cg_main.obj
 0002:00012f5c       ??_C@_04HAEDHBJD@?4glm?$AA@ 3009cf5c     cg_main.obj
 0002:00012f64       ??_C@_06FPMCFOBA@?$CK?$CFd?9?$CFd?$AA@ 3009cf64     cg_main.obj
 0002:00012f6c       ??_C@_0BP@JMKNBDMD@ui?1assets?1statusbar?1patrol?4tga?$AA@ 3009cf6c     cg_main.obj
 0002:00012f8c       ??_C@_0CA@BMENIIHA@ui?1assets?1statusbar?1assault?4tga?$AA@ 3009cf8c     cg_main.obj
 0002:00012fac       ??_C@_0BN@IFHLAFIM@ui?1assets?1statusbar?1camp?4tga?$AA@ 3009cfac     cg_main.obj
 0002:00012fcc       ??_C@_0BP@NDBPBMNA@ui?1assets?1statusbar?1follow?4tga?$AA@ 3009cfcc     cg_main.obj
 0002:00012fec       ??_C@_0BP@DFAFNPOM@ui?1assets?1statusbar?1defend?4tga?$AA@ 3009cfec     cg_main.obj
 0002:0001300c       ??_C@_0CE@MMLKAKOP@ui?1assets?1statusbar?1team_leader?4@ 3009d00c     cg_main.obj
 0002:00013030       ??_C@_0CB@LAIMNJFD@ui?1assets?1statusbar?1retrieve?4tga@ 3009d030     cg_main.obj
 0002:00013054       ??_C@_0BP@KGMEFMCF@ui?1assets?1statusbar?1escort?4tga?$AA@ 3009d054     cg_main.obj
 0002:00013074       ??_C@_0BD@CHEDBJDN@menu?1art?13_cursor2?$AA@ 3009d074     cg_main.obj
 0002:00013088       ??_C@_0BJ@LEDAGAI@ui?1assets?1sizecursor?4tga?$AA@ 3009d088     cg_main.obj
 0002:000130a4       ??_C@_0BL@LPJJLJJG@ui?1assets?1selectcursor?4tga?$AA@ 3009d0a4     cg_main.obj
 0002:000130c0       ??_C@_0CF@ENDMFFOH@ui?1assets?1statusbar?1flag_in_base@ 3009d0c0     cg_main.obj
 0002:000130e8       ??_C@_0CF@LPJBOID@ui?1assets?1statusbar?1flag_capture@ 3009d0e8     cg_main.obj
 0002:00013110       ??_C@_0CF@BBPPIJMH@ui?1assets?1statusbar?1flag_missing@ 3009d110     cg_main.obj
 0002:00013138       ??_C@_0BN@OJIAAIJF@models?1weaphits?1testboom?4md3?$AA@ 3009d138     cg_main.obj
 0002:00013158       ??_C@_0BA@GPIBLNDH@halfShieldShell?$AA@ 3009d158     cg_main.obj
 0002:00013168       ??_C@_0BC@LNMDPJLI@force?1force_touch?$AA@ 3009d168     cg_main.obj
 0002:0001317c       ??_C@_05ONEOBAM@?$CFs_?$CFs?$AA@ 3009d17c     cg_main.obj
 0002:00013184       ??_C@_02DPKJAMEF@?$CFd?$AA@ 3009d184     cg_main.obj
 0002:00013188       ??_C@_0BH@OELCJKFF@gfx?1mp?1c_icon_infantry?$AA@ 3009d188     cg_main.obj
 0002:000131a0       ??_C@_0BM@GFHJFCLE@gfx?1mp?1c_icon_heavy_weapons?$AA@ 3009d1a0     cg_main.obj
 0002:000131bc       ??_C@_0BM@NBLAFLJO@gfx?1mp?1c_icon_demolitionist?$AA@ 3009d1bc     cg_main.obj
 0002:000131d8       ??_C@_0BH@CEMGMFAB@gfx?1mp?1c_icon_vanguard?$AA@ 3009d1d8     cg_main.obj
 0002:000131f0       ??_C@_0BG@HPEKJBCG@gfx?1mp?1c_icon_support?$AA@ 3009d1f0     cg_main.obj
 0002:00013208       ??_C@_0BL@JNENHOLE@gfx?1mp?1c_icon_jedi_general?$AA@ 3009d208     cg_main.obj
 0002:00013224       ??_C@_07DNFNGBFM@?$CFs?5?5?5?5?5?$AA@ 3009d224     cg_main.obj
 0002:0001322c       ??_C@_0BP@KAAOENNK@CG_ConfigString?3?5bad?5index?3?5?$CFi?$AA@ 3009d22c     cg_main.obj
 0002:0001324c       ??_C@_0CK@ECPONHFG@?$FO1menu?5file?5not?5found?3?5?$CFs?0?5using@ 3009d24c     cg_main.obj
 0002:00013278       ??_C@_0DD@JILOANNP@?$FO1menu?5file?5too?5large?3?5?$CFs?5is?5?$CFi?0@ 3009d278     cg_main.obj
 0002:000132ac       ??_C@_09DOKKJGBA@smallFont?$AA@ 3009d2ac     cg_main.obj
 0002:000132b8       ??_C@_0L@KDLFEFGB@small2Font?$AA@ 3009d2b8     cg_main.obj
 0002:000132c4       ??_C@_07HPOBIOOE@bigfont?$AA@ 3009d2c4     cg_main.obj
 0002:000132cc       ??_C@_0M@KMLBJNNP@gradientbar?$AA@ 3009d2cc     cg_main.obj
 0002:000132d8       ??_C@_0P@HOFNPEDB@menuEnterSound?$AA@ 3009d2d8     cg_main.obj
 0002:000132e8       ??_C@_0O@CCIDDBMD@menuExitSound?$AA@ 3009d2e8     cg_main.obj
 0002:000132f8       ??_C@_0P@IGAMHAPB@itemFocusSound?$AA@ 3009d2f8     cg_main.obj
 0002:00013308       ??_C@_0O@JDBLIAHI@menuBuzzSound?$AA@ 3009d308     cg_main.obj
 0002:00013318       ??_C@_06CHDIMBDP@cursor?$AA@ 3009d318     cg_main.obj
 0002:00013320       ??_C@_07OPNIPHMJ@shadowX?$AA@ 3009d320     cg_main.obj
 0002:00013328       ??_C@_07PGMDMGII@shadowY?$AA@ 3009d328     cg_main.obj
 0002:00013330       ??_C@_0M@JPJLLJDB@shadowColor?$AA@ 3009d330     cg_main.obj
 0002:0001333c       ??_C@_0BA@HHBGDHLB@ui?1testhud?4menu?$AA@ 3009d33c     cg_main.obj
 0002:0001334c       ??_C@_0P@JJKHBDCP@assetGlobalDef?$AA@ 3009d34c     cg_main.obj
 0002:0001335c       ??_C@_07MCIOFCJF@menudef?$AA@ 3009d35c     cg_main.obj
 0002:00013364       ??_C@_09BCJOCADI@Spectator?$AA@ 3009d364     cg_main.obj
 0002:00013370       ??_C@_06PKACINHD@Leader?$AA@ 3009d370     cg_main.obj
 0002:00013378       ??_C@_03NOAKOCEN@?$CF4i?$AA@ 3009d378     cg_main.obj
 0002:0001337c       ??_C@_0L@FJAFPCBC@connecting?$AA@ 3009d37c     cg_main.obj
 0002:00013388       ??_C@_0EA@NOKNMOHD@?$FO1default?5menu?5file?5not?5found?3?5u@ 3009d388     cg_main.obj
 0002:000133c8       ??_C@_08GJJFPOLP@loadmenu?$AA@ 3009d3c8     cg_main.obj
 0002:000133d4       ??_C@_0BL@LDKEDAHM@ui?1assets?1gradientbar2?4tga?$AA@ 3009d3d4     cg_main.obj
 0002:000133f0       ??_C@_0BB@OMABGHIG@menu?1art?1fx_base?$AA@ 3009d3f0     cg_main.obj
 0002:00013404       ??_C@_0BA@NNOEOMD@menu?1art?1fx_red?$AA@ 3009d404     cg_main.obj
 0002:00013414       ??_C@_0BA@BCAGEDMK@menu?1art?1fx_yel?$AA@ 3009d414     cg_main.obj
 0002:00013424       ??_C@_0BA@IJJPLEBB@menu?1art?1fx_grn?$AA@ 3009d424     cg_main.obj
 0002:00013434       ??_C@_0BB@ECKDFOKE@menu?1art?1fx_teal?$AA@ 3009d434     cg_main.obj
 0002:00013448       ??_C@_0BB@BKOGMDOJ@menu?1art?1fx_blue?$AA@ 3009d448     cg_main.obj
 0002:0001345c       ??_C@_0BB@LIJKJPJD@menu?1art?1fx_cyan?$AA@ 3009d45c     cg_main.obj
 0002:00013470       ??_C@_0BC@GAPGDHHF@menu?1art?1fx_white?$AA@ 3009d470     cg_main.obj
 0002:00013484       ??_C@_0BI@FDOMFDJL@gfx?1menus?1scrollbar?4tga?$AA@ 3009d484     cg_main.obj
 0002:0001349c       ??_C@_0CE@COBFEBJB@gfx?1menus?1scrollbar_arrow_dwn_a?4@ 3009d49c     cg_main.obj
 0002:000134c0       ??_C@_0CD@CMMKEMFC@gfx?1menus?1scrollbar_arrow_up_a?4t@ 3009d4c0     cg_main.obj
 0002:000134e4       ??_C@_0CD@HGBCPEJO@gfx?1menus?1scrollbar_arrow_left?4t@ 3009d4e4     cg_main.obj
 0002:00013508       ??_C@_0CE@EBDHDKAC@gfx?1menus?1scrollbar_arrow_right?4@ 3009d508     cg_main.obj
 0002:0001352c       ??_C@_0BO@OGCKOCFI@gfx?1menus?1scrollbar_thumb?4tga?$AA@ 3009d52c     cg_main.obj
 0002:0001354c       ??_C@_0BA@IIPDBPAH@menu?1new?1slider?$AA@ 3009d54c     cg_main.obj
 0002:0001355c       ??_C@_0BF@IMFGDGLA@menu?1new?1sliderthumb?$AA@ 3009d55c     cg_main.obj
 0002:00013574       ??_C@_0DK@MEMBGKNJ@You?5exceeded?5the?5cgame?5string?5po@ 3009d574     cg_main.obj
 0002:000135b0       ??_C@_0GN@MCPHADGE@Too?5many?5misc_model_static?8s?5on?5@ 3009d5b0     cg_main.obj
 0002:00013620       ??_C@_0CB@IEGPOIHD@misc_model_static?5with?5no?5model?4@ 3009d620     cg_main.obj
 0002:00013644       ??_C@_0CM@COEPIPFK@misc_model_static?5failed?5to?5load@ 3009d644     cg_main.obj
 0002:00013670       ??_C@_0CE@KFIMGHLL@CG_AddSpawnVarToken?3?5MAX_SPAWN_V@ 3009d670     cg_main.obj
 0002:00013694       ??_C@_0CN@LHOGJKHF@CG_ParseSpawnVars?3?5found?5?$CFs?5when@ 3009d694     cg_main.obj
 0002:000136c4       ??_C@_0CN@KDIJEMJC@CG_ParseSpawnVars?3?5EOF?5without?5c@ 3009d6c4     cg_main.obj
 0002:000136f4       ??_C@_0CO@LBIGDOPL@CG_ParseSpawnVars?3?5closing?5brace@ 3009d6f4     cg_main.obj
 0002:00013724       ??_C@_0CC@FFKCCAOL@CG_ParseSpawnVars?3?5MAX_SPAWN_VAR@ 3009d724     cg_main.obj
 0002:00013748       ??_C@_0L@BIFLFHPF@worldspawn?$AA@ 3009d748     cg_main.obj
 0002:00013754       ??_C@_0BC@LMMEGHFB@misc_model_static?$AA@ 3009d754     cg_main.obj
 0002:00013768       ??_C@_0BG@DHHABGNA@misc_skyportal_orient?$AA@ 3009d768     cg_main.obj
 0002:00013780       ??_C@_0P@IFKMPLOL@misc_skyportal?$AA@ 3009d780     cg_main.obj
 0002:00013790       ??_C@_0BC@CAFACOKO@misc_weather_zone?$AA@ 3009d790     cg_main.obj
 0002:000137a4       ??_C@_0BM@BLBJHDKM@no?5entities?5for?5cgame?5parse?$AA@ 3009d7a4     cg_main.obj
 0002:000137c0       ??_C@_05LDDNLFDC@ocr_a?$AA@ 3009d7c0     cg_main.obj
 0002:000137c8       ??_C@_06LFGMJCKO@ergoec?$AA@ 3009d7c8     cg_main.obj
 0002:000137d0       ??_C@_0BF@NCICKGDM@gfx?12d?1charsgrid_med?$AA@ 3009d7d0     cg_main.obj
 0002:000137e8       ??_C@_05PMAELIEO@white?$AA@ 3009d7e8     cg_main.obj
 0002:000137f0       ??_C@_0BC@EMACFANC@gfx?1hud?1load_tick?$AA@ 3009d7f0     cg_main.obj
 0002:00013804       ??_C@_0BG@FIEHOIIN@gfx?1hud?1load_tick_cap?$AA@ 3009d804     cg_main.obj
 0002:0001381c       ??_C@_0BF@EGEEPHON@gfx?1hud?1mp_levelload?$AA@ 3009d81c     cg_main.obj
 0002:00013834       ??_C@_05KOPPDPO@?$CFs_na?$AA@ 3009d834     cg_main.obj
 0002:0001383c       ??_C@_0BA@BMAIBDM@com_buildscript?$AA@ 3009d83c     cg_main.obj
 0002:0001384c       ??_C@_0BK@DOBGMPNF@gfx?1hud?1w_icon_saberstaff?$AA@ 3009d84c     cg_main.obj
 0002:00013868       ??_C@_0BO@FFKCLDKB@gfx?1hud?1w_icon_duallightsaber?$AA@ 3009d868     cg_main.obj
 0002:00013888       ??_C@_0BD@GDEFAJLE@gfx?1hud?1background?$AA@ 3009d888     cg_main.obj
 0002:0001389c       ??_C@_0BF@KNDCBFPB@gfx?1hud?1background_f?$AA@ 3009d89c     cg_main.obj
 0002:000138b4       ??_C@_0BF@CKKKAJDO@gfx?1hud?1background_i?$AA@ 3009d8b4     cg_main.obj
 0002:000138cc       ??_C@_0BG@BLLMADBO@gfx?1mp?1f_icon_ragerec?$AA@ 3009d8cc     cg_main.obj
 0002:000138e4       ??_C@_0BJ@KJBKAEPO@gfx?1damage?1bodyburnmark1?$AA@ 3009d8e4     cg_main.obj
 0002:00013900       ??_C@_0BJ@PPPMPMKG@gfx?1damage?1saberglowmark?$AA@ 3009d900     cg_main.obj
 0002:0001391c       ??_C@_0BM@CCKANNO@gfx?1damage?1bodybigburnmark1?$AA@ 3009d91c     cg_main.obj
 0002:00013938       ??_C@_0BM@EGCEFOFI@gfx?1effects?1saberDamageGlow?$AA@ 3009d938     cg_main.obj
 0002:00013954       ??_C@_08DLPGHLOG@basejk?91?$AA@ 3009d954     cg_main.obj
 0002:00013960       ??_C@_0CD@GOCPBDLD@Client?1Server?5game?5mismatch?3?5?$CFs?1@ 3009d960     cg_main.obj
 0002:00013984       ??_C@_03DFHDCPPK@die?$AA@  3009d984     cg_main.obj
 0002:00013988       __real@407e000000000000    3009d988     cg_main.obj
 0002:00013990       __real@4084000000000000    3009d990     cg_main.obj
 0002:000139a0       __xmm@00000002000000020000000200000002 3009d9a0     cg_main.obj
 0002:000139b0       __xmm@ffffffffffffffffffffffffffffffff 3009d9b0     cg_main.obj
 0002:000139c0       ??_C@_0CG@NBPMFGF@CG_ImpactMark?5called?5with?5?$DM?$DN?50?5r@ 3009d9c0     cg_marks.obj
 0002:000139e8       ??_C@_08MEIODECE@explode1?$AA@ 3009d9e8     cg_marks.obj
 0002:000139f4       __real@3e6147ae            3009d9f4     cg_marks.obj
 0002:000139f8       __real@3f7ff972            3009d9f8     cg_marks.obj
 0002:000139fc       ??_C@_08BENANNLH@KILLEDBY?$AA@ 3009d9fc     cg_newDraw.obj
 0002:00013a08       ??_C@_08PPGKHGBD@?$CFs?5?$CFs?5?$CFi?$AA@ 3009da08     cg_newDraw.obj
 0002:00013a14       ??_C@_06LGLENBHF@TIEDAT?$AA@ 3009da14     cg_newDraw.obj
 0002:00013a1c       ??_C@_09GAPPNLAA@RED_LEADS?$AA@ 3009da1c     cg_newDraw.obj
 0002:00013a28       ??_C@_0M@HFOGODEL@?$CFs?0?5?$CFi?5?1?5?$CFi?$AA@ 3009da28     cg_newDraw.obj
 0002:00013a34       ??_C@_0L@DPNLFBAA@BLUE_LEADS?$AA@ 3009da34     cg_newDraw.obj
 0002:00013a40       ??_C@_0M@EBAJNKPF@Jedi?5Master?$AA@ 3009da40     cg_newDraw.obj
 0002:00013a4c       ??_C@_08JIDHMNC@teamMenu?$AA@ 3009da4c     cg_newDraw.obj
 0002:00013a58       ??_C@_07LFFEFFPB@getMenu?$AA@ 3009da58     cg_newDraw.obj
 0002:00013a60       ??_C@_07BFDNFMAL@?$CKdeath1?$AA@ 3009da60     cg_players.obj
 0002:00013a68       ??_C@_07DOBAAPMI@?$CKdeath2?$AA@ 3009da68     cg_players.obj
 0002:00013a70       ??_C@_07CHALDOIJ@?$CKdeath3?$AA@ 3009da70     cg_players.obj
 0002:00013a78       ??_C@_06MKODEFOM@?$CKjump1?$AA@ 3009da78     cg_players.obj
 0002:00013a80       ??_C@_07BHKODEJI@?$CKpain25?$AA@ 3009da80     cg_players.obj
 0002:00013a88       ??_C@_07GPJGNGFI@?$CKpain50?$AA@ 3009da88     cg_players.obj
 0002:00013a90       ??_C@_07BBGFPGHD@?$CKpain75?$AA@ 3009da90     cg_players.obj
 0002:00013a98       ??_C@_08DFPLOOLE@?$CKpain100?$AA@ 3009da98     cg_players.obj
 0002:00013aa4       ??_C@_09IAAMPKDA@?$CKfalling1?$AA@ 3009daa4     cg_players.obj
 0002:00013ab0       ??_C@_07NDJGBLKA@?$CKchoke1?$AA@ 3009dab0     cg_players.obj
 0002:00013ab8       ??_C@_07PILLEIGD@?$CKchoke2?$AA@ 3009dab8     cg_players.obj
 0002:00013ac0       ??_C@_07OBKAHJCC@?$CKchoke3?$AA@ 3009dac0     cg_players.obj
 0002:00013ac8       ??_C@_05DJAKOMMI@?$CKgasp?$AA@ 3009dac8     cg_players.obj
 0002:00013ad0       ??_C@_06IAEADDPB@?$CKland1?$AA@ 3009dad0     cg_players.obj
 0002:00013ad8       ??_C@_06GIEEFNAP@?$CKtaunt?$AA@ 3009dad8     cg_players.obj
 0002:00013ae0       ??_C@_07FLJGGAJD@?$CKanger1?$AA@ 3009dae0     cg_players.obj
 0002:00013ae8       ??_C@_07HALLDDFA@?$CKanger2?$AA@ 3009dae8     cg_players.obj
 0002:00013af0       ??_C@_07GJKAACBB@?$CKanger3?$AA@ 3009daf0     cg_players.obj
 0002:00013af8       ??_C@_09GFNDMABG@?$CKvictory1?$AA@ 3009daf8     cg_players.obj
 0002:00013b04       ??_C@_09EOPOJDNF@?$CKvictory2?$AA@ 3009db04     cg_players.obj
 0002:00013b10       ??_C@_09FHOFKCJE@?$CKvictory3?$AA@ 3009db10     cg_players.obj
 0002:00013b1c       ??_C@_09ONPCLOKN@?$CKconfuse1?$AA@ 3009db1c     cg_players.obj
 0002:00013b28       ??_C@_09MGNPONGO@?$CKconfuse2?$AA@ 3009db28     cg_players.obj
 0002:00013b34       ??_C@_09NPMENMCP@?$CKconfuse3?$AA@ 3009db34     cg_players.obj
 0002:00013b40       ??_C@_08LNKGKNOM@?$CKpushed1?$AA@ 3009db40     cg_players.obj
 0002:00013b4c       ??_C@_08JGILPOCP@?$CKpushed2?$AA@ 3009db4c     cg_players.obj
 0002:00013b58       ??_C@_08IPJAMPGO@?$CKpushed3?$AA@ 3009db58     cg_players.obj
 0002:00013b64       ??_C@_07KAMDJNDO@?$CKffwarn?$AA@ 3009db64     cg_players.obj
 0002:00013b6c       ??_C@_07DIBICHCG@?$CKffturn?$AA@ 3009db6c     cg_players.obj
 0002:00013b74       ??_C@_07PJALNKLB@?$CKchase1?$AA@ 3009db74     cg_players.obj
 0002:00013b7c       ??_C@_07NCCGIJHC@?$CKchase2?$AA@ 3009db7c     cg_players.obj
 0002:00013b84       ??_C@_07MLDNLIDD@?$CKchase3?$AA@ 3009db84     cg_players.obj
 0002:00013b8c       ??_C@_07FKNFBMCN@?$CKcover1?$AA@ 3009db8c     cg_players.obj
 0002:00013b94       ??_C@_07HBPIEPOO@?$CKcover2?$AA@ 3009db94     cg_players.obj
 0002:00013b9c       ??_C@_07GIODHOKP@?$CKcover3?$AA@ 3009db9c     cg_players.obj
 0002:00013ba4       ??_C@_07CHKCOIGI@?$CKcover4?$AA@ 3009dba4     cg_players.obj
 0002:00013bac       ??_C@_07DOLJNJCJ@?$CKcover5?$AA@ 3009dbac     cg_players.obj
 0002:00013bb4       ??_C@_0L@MIGOFNAN@?$CKdetected1?$AA@ 3009dbb4     cg_players.obj
 0002:00013bc0       ??_C@_0L@ODEDAOMO@?$CKdetected2?$AA@ 3009dbc0     cg_players.obj
 0002:00013bcc       ??_C@_0L@PKFIDPIP@?$CKdetected3?$AA@ 3009dbcc     cg_players.obj
 0002:00013bd8       ??_C@_0L@LFBJKJEI@?$CKdetected4?$AA@ 3009dbd8     cg_players.obj
 0002:00013be4       ??_C@_0L@KMACJIAJ@?$CKdetected5?$AA@ 3009dbe4     cg_players.obj
 0002:00013bf0       ??_C@_06IBCFKBKC@?$CKlost1?$AA@ 3009dbf0     cg_players.obj
 0002:00013bf8       ??_C@_0L@CIKNJEAN@?$CKoutflank1?$AA@ 3009dbf8     cg_players.obj
 0002:00013c04       ??_C@_0L@DIAMHMO@?$CKoutflank2?$AA@ 3009dc04     cg_players.obj
 0002:00013c10       ??_C@_0L@LCDCALLH@?$CKescaping1?$AA@ 3009dc10     cg_players.obj
 0002:00013c1c       ??_C@_0L@JJBPFIHE@?$CKescaping2?$AA@ 3009dc1c     cg_players.obj
 0002:00013c28       ??_C@_0L@IAAEGJDF@?$CKescaping3?$AA@ 3009dc28     cg_players.obj
 0002:00013c34       ??_C@_08IIMNGKFF@?$CKgiveup1?$AA@ 3009dc34     cg_players.obj
 0002:00013c40       ??_C@_08KDOADJJG@?$CKgiveup2?$AA@ 3009dc40     cg_players.obj
 0002:00013c4c       ??_C@_08LKPLAINH@?$CKgiveup3?$AA@ 3009dc4c     cg_players.obj
 0002:00013c58       ??_C@_08PFLKJOBA@?$CKgiveup4?$AA@ 3009dc58     cg_players.obj
 0002:00013c64       ??_C@_06IMJAKNMI@?$CKlook1?$AA@ 3009dc64     cg_players.obj
 0002:00013c6c       ??_C@_06KHLNPOAL@?$CKlook2?$AA@ 3009dc6c     cg_players.obj
 0002:00013c74       ??_C@_07EADFHJKD@?$CKsight1?$AA@ 3009dc74     cg_players.obj
 0002:00013c7c       ??_C@_07GLBICKGA@?$CKsight2?$AA@ 3009dc7c     cg_players.obj
 0002:00013c84       ??_C@_07HCADBLCB@?$CKsight3?$AA@ 3009dc84     cg_players.obj
 0002:00013c8c       ??_C@_07LFABKCPA@?$CKsound1?$AA@ 3009dc8c     cg_players.obj
 0002:00013c94       ??_C@_07JOCMPBDD@?$CKsound2?$AA@ 3009dc94     cg_players.obj
 0002:00013c9c       ??_C@_07IHDHMAHC@?$CKsound3?$AA@ 3009dc9c     cg_players.obj
 0002:00013ca4       ??_C@_0N@MFLOBGKG@?$CKsuspicious1?$AA@ 3009dca4     cg_players.obj
 0002:00013cb4       ??_C@_0N@OOJDEFGF@?$CKsuspicious2?$AA@ 3009dcb4     cg_players.obj
 0002:00013cc4       ??_C@_0N@PHIIHECE@?$CKsuspicious3?$AA@ 3009dcc4     cg_players.obj
 0002:00013cd4       ??_C@_0N@LIMJOCOD@?$CKsuspicious4?$AA@ 3009dcd4     cg_players.obj
 0002:00013ce4       ??_C@_0N@KBNCNDKC@?$CKsuspicious5?$AA@ 3009dce4     cg_players.obj
 0002:00013cf4       ??_C@_08GMBEBHMJ@?$CKcombat1?$AA@ 3009dcf4     cg_players.obj
 0002:00013d00       ??_C@_08EHDJEEAK@?$CKcombat2?$AA@ 3009dd00     cg_players.obj
 0002:00013d0c       ??_C@_08FOCCHFEL@?$CKcombat3?$AA@ 3009dd0c     cg_players.obj
 0002:00013d18       ??_C@_0M@PMHCAAPI@?$CKjdetected1?$AA@ 3009dd18     cg_players.obj
 0002:00013d24       ??_C@_0M@NHFPFDDL@?$CKjdetected2?$AA@ 3009dd24     cg_players.obj
 0002:00013d30       ??_C@_0M@MOEEGCHK@?$CKjdetected3?$AA@ 3009dd30     cg_players.obj
 0002:00013d3c       ??_C@_07FGIKFOHO@?$CKtaunt1?$AA@ 3009dd3c     cg_players.obj
 0002:00013d44       ??_C@_07HNKHANLN@?$CKtaunt2?$AA@ 3009dd44     cg_players.obj
 0002:00013d4c       ??_C@_07GELMDMPM@?$CKtaunt3?$AA@ 3009dd4c     cg_players.obj
 0002:00013d54       ??_C@_08EEGCNLKG@?$CKjchase1?$AA@ 3009dd54     cg_players.obj
 0002:00013d60       ??_C@_08GPEPIIGF@?$CKjchase2?$AA@ 3009dd60     cg_players.obj
 0002:00013d6c       ??_C@_08HGFELJCE@?$CKjchase3?$AA@ 3009dd6c     cg_players.obj
 0002:00013d78       ??_C@_07FFNGKKFC@?$CKjlost1?$AA@ 3009dd78     cg_players.obj
 0002:00013d80       ??_C@_07HOPLPJJB@?$CKjlost2?$AA@ 3009dd80     cg_players.obj
 0002:00013d88       ??_C@_07GHOAMINA@?$CKjlost3?$AA@ 3009dd88     cg_players.obj
 0002:00013d90       ??_C@_09KHDKKLPH@?$CKdeflect1?$AA@ 3009dd90     cg_players.obj
 0002:00013d9c       ??_C@_09IMBHPIDE@?$CKdeflect2?$AA@ 3009dd9c     cg_players.obj
 0002:00013da8       ??_C@_09JFAMMJHF@?$CKdeflect3?$AA@ 3009dda8     cg_players.obj
 0002:00013db4       ??_C@_07MOBBFEIG@?$CKgloat1?$AA@ 3009ddb4     cg_players.obj
 0002:00013dbc       ??_C@_07OFDMAHEF@?$CKgloat2?$AA@ 3009ddbc     cg_players.obj
 0002:00013dc4       ??_C@_07PMCHDGAE@?$CKgloat3?$AA@ 3009ddc4     cg_players.obj
 0002:00013dcc       ??_C@_09HCJINJLP@?$CKpushfail?$AA@ 3009ddcc     cg_players.obj
 0002:00013dd8       ??_C@_0BJ@HBJEEGKP@Unknown?5custom?5sound?3?5?$CFs?$AA@ 3009ddd8     cg_players.obj
 0002:00013df4       ??_C@_0CA@ILAKKBMK@models?1players?1?$CFs?1model_?$CFs?4surf?$AA@ 3009ddf4     cg_players.obj
 0002:00013e14       ??_C@_07OKEAFEJG@surfOff?$AA@ 3009de14     cg_players.obj
 0002:00013e1c       ??_C@_01IHBHIGKO@?0?$AA@   3009de1c     cg_players.obj
 0002:00013e20       ??_C@_06PJBLOBOB@surfOn?$AA@ 3009de20     cg_players.obj
 0002:00013e28       ??_C@_0HG@JDBGMCOG@WARNING?3?5Attempted?5to?5load?5an?5un@ 3009de28     cg_players.obj
 0002:00013ea0       ??_C@_0BG@BBLNABEM@models?1players?1?$CFs?1?$HM?$CFs?$AA@ 3009dea0     cg_players.obj
 0002:00013eb8       ??_C@_0CF@FIHHFCC@models?1players?1?$CFs?1model_default?4@ 3009deb8     cg_players.obj
 0002:00013ee0       ??_C@_0P@BNFHKDFH@?1animation?4cfg?$AA@ 3009dee0     cg_players.obj
 0002:00013ef0       ??_C@_0CH@JMNIMDPG@models?1players?1_humanoid?1animati@ 3009def0     cg_players.obj
 0002:00013f18       ??_C@_0DA@JJDBLPFJ@Model?5does?5not?5use?5supported?5ani@ 3009df18     cg_players.obj
 0002:00013f48       ??_C@_0EG@ONAEEHHL@Failed?5to?5load?5animation?5file?5mo@ 3009df48     cg_players.obj
 0002:00013f90       ??_C@_0BK@HAPHLECL@models?1players?1_humanoid?1?$AA@ 3009df90     cg_players.obj
 0002:00013fac       ??_C@_07CKKFCGNI@?$CKl_hand?$AA@ 3009dfac     cg_players.obj
 0002:00013fb4       ??_C@_07PNIOEPOE@?$CKchestg?$AA@ 3009dfb4     cg_players.obj
 0002:00013fbc       ??_C@_09LHLEBJNE@?$CKhead_top?$AA@ 3009dfbc     cg_players.obj
 0002:00013fc8       ??_C@_08MEOLNMOI@ceyebrow?$AA@ 3009dfc8     cg_players.obj
 0002:00013fd4       ??_C@_06EMGELNAF@Motion?$AA@ 3009dfd4     cg_players.obj
 0002:00013fdc       ??_C@_09KELKOKG@boba_fett?$AA@ 3009dfdc     cg_players.obj
 0002:00013fe8       ??_C@_0L@FEAFNKGA@torso_rjet?$AA@ 3009dfe8     cg_players.obj
 0002:00013ff4       ??_C@_0L@JIFGEFC@torso_cjet?$AA@ 3009dff4     cg_players.obj
 0002:00014000       ??_C@_0L@ILNFPDID@torso_ljet?$AA@ 3009e000     cg_players.obj
 0002:0001400c       ??_C@_0BK@DLHLILP@models?1players?1?$CFs?1icon_?$CFs?$AA@ 3009e00c     cg_players.obj
 0002:00014028       ??_C@_05KDHLENLH@icon_?$AA@ 3009e028     cg_players.obj
 0002:00014030       ??_C@_0BF@PKIKNPLA@models?1players?1?$CFs?1?$CFs?$AA@ 3009e030     cg_players.obj
 0002:00014048       ??_C@_0BN@CHNFAMLI@models?1players?1?$CFs?1sounds?4cfg?$AA@ 3009e048     cg_players.obj
 0002:00014068       ??_C@_0CF@NEPCHIHA@models?1players?1?$CFs?1sounds_default@ 3009e068     cg_players.obj
 0002:00014090       ??_C@_0CA@JPONKMJK@models?1players?1?$CFs?1sounds_?$CFs?4cfg?$AA@ 3009e090     cg_players.obj
 0002:000140b0       ??_C@_0BH@FNMNDJNM@sound?1chars?1?$CFs?1misc?1?$CFs?$AA@ 3009e0b0     cg_players.obj
 0002:000140c8       ??_C@_0BN@JCOIBIKF@chars?1mp_generic_female?1misc?$AA@ 3009e0c8     cg_players.obj
 0002:000140e8       ??_C@_0M@NGJBOEHI@sound?1?$CFs?1?$CFs?$AA@ 3009e0e8     cg_players.obj
 0002:000140f4       ??_C@_0BL@JMBOPOOA@chars?1mp_generic_male?1misc?$AA@ 3009e0f4     cg_players.obj
 0002:00014110       ??_C@_01KMDKNFGN@?1?$AA@   3009e110     cg_players.obj
 0002:00014114       ??_C@_0CG@NFMPGJHJ@DEFAULT_MODEL?5?$CI?$CFs?$CJ?5failed?5to?5reg@ 3009e114     cg_players.obj
 0002:0001413c       ??_C@_0DA@IABNNPOG@DEFAULT_MODEL?5?1?5skin?5?$CI?$CFs?1?$CFs?$CJ?5fai@ 3009e13c     cg_players.obj
 0002:0001416c       ??_C@_04POCOPAPC@face?$AA@ 3009e16c     cg_players.obj
 0002:00014174       ??_C@_08BPBKIHMF@tag_flag?$AA@ 3009e174     cg_players.obj
 0002:00014180       ??_C@_08PJKKDMJN@?$CKblade?$CFi?$AA@ 3009e180     cg_players.obj
 0002:0001418c       ??_C@_06PDDIJHJI@?$CKflash?$AA@ 3009e18c     cg_players.obj
 0002:00014194       ??_C@_02IMHCFECG@c1?$AA@   3009e194     cg_players.obj
 0002:00014198       ??_C@_02KHFPAHOF@c2?$AA@   3009e198     cg_players.obj
 0002:0001419c       ??_C@_05ODMCMJAJ@skill?$AA@ 3009e19c     cg_players.obj
 0002:000141a4       ??_C@_02IKKIEBB@hc?$AA@    3009e1a4     cg_players.obj
 0002:000141a8       ??_C@_01NOFIACDB@w?$AA@    3009e1a8     cg_players.obj
 0002:000141ac       ??_C@_01HHGOMJKL@l?$AA@    3009e1ac     cg_players.obj
 0002:000141b0       ??_C@_01PFHFFBPC@t?$AA@    3009e1b0     cg_players.obj
 0002:000141b4       ??_C@_07EHHPJLF@ui_team?$AA@ 3009e1b4     cg_players.obj
 0002:000141bc       ??_C@_02BIBFFKJD@tt?$AA@   3009e1bc     cg_players.obj
 0002:000141c0       ??_C@_02JKAOMCMK@tl?$AA@   3009e1c0     cg_players.obj
 0002:000141c4       ??_C@_03KDLMPAJP@sdt?$AA@  3009e1c4     cg_players.obj
 0002:000141c8       ??_C@_02BNFKEMBG@st?$AA@   3009e1c8     cg_players.obj
 0002:000141cc       ??_C@_03BJLJLLGM@st2?$AA@  3009e1cc     cg_players.obj
 0002:000141d0       ??_C@_02EDDPJOD@dt?$AA@    3009e1d0     cg_players.obj
 0002:000141d4       ??_C@_0M@HEAHHNIP@?$CKr_leg_foot?$AA@ 3009e1d4     cg_players.obj
 0002:000141e0       ??_C@_0M@IIIHJCEC@?$CKl_leg_foot?$AA@ 3009e1e0     cg_players.obj
 0002:000141ec       ??_C@_06MEGOBODG@?$CKblade?$AA@ 3009e1ec     cg_players.obj
 0002:000141f4       ??_C@_0BJ@OHDPKGG@Bad?5animation?5number?3?5?$CFi?$AA@ 3009e1f4     cg_players.obj
 0002:00014210       ??_C@_0BN@MKPFOCIE@?$CFd?3?5?$CFd?5TORSO?5Anim?3?5?$CFi?0?5?8?$CFs?8?6?$AA@ 3009e210     cg_players.obj
 0002:00014230       ??_C@_0BM@FOJNPCCA@?$CFd?3?5?$CFd?5LEGS?5Anim?3?5?$CFi?0?5?8?$CFs?8?6?$AA@ 3009e230     cg_players.obj
 0002:0001424c       ??_C@_06KFNDIJM@rtalus?$AA@ 3009e24c     cg_players.obj
 0002:00014254       ??_C@_06DNLMNPAP@ltalus?$AA@ 3009e254     cg_players.obj
 0002:0001425c       ??_C@_08BPGGEBNG@lradiusX?$AA@ 3009e25c     cg_players.obj
 0002:00014268       ??_C@_07NMKDNJHN@rfemurX?$AA@ 3009e268     cg_players.obj
 0002:00014270       ??_C@_07LFJCPKGE@lfemurX?$AA@ 3009e270     cg_players.obj
 0002:00014278       ??_C@_08HLGENIDF@rradiusX?$AA@ 3009e278     cg_players.obj
 0002:00014284       ??_C@_09KELMCPPM@rhumerusX?$AA@ 3009e284     cg_players.obj
 0002:00014290       ??_C@_08IFLEIKA@rhumerus?$AA@ 3009e290     cg_players.obj
 0002:0001429c       ??_C@_04PFJNHAEB@reye?$AA@ 3009e29c     cg_players.obj
 0002:000142a4       ??_C@_04CKENFJKC@leye?$AA@ 3009e2a4     cg_players.obj
 0002:000142ac       ??_C@_0BC@GCOANANI@effects?1refract_2?$AA@ 3009e2ac     cg_players.obj
 0002:000142c0       ??_C@_06CKEMEABK@?$CFs?1?$HM?$CFs?$AA@ 3009e2c0     cg_players.obj
 0002:000142c8       ??_C@_0BB@HCAEDMI@?$CFs?1model_?$CFs?4skin?$AA@ 3009e2c8     cg_players.obj
 0002:000142dc       ??_C@_0BJ@OHOJGDLI@sound?1weapons?1noammo?4wav?$AA@ 3009e2dc     cg_players.obj
 0002:000142f8       ??_C@_0L@JEAMIDKG@?$CKdroidunit?$AA@ 3009e2f8     cg_players.obj
 0002:00014304       ??_C@_0L@CJEIKOKF@?$CKexhaust?$CFi?$AA@ 3009e304     cg_players.obj
 0002:00014310       ??_C@_09DFLEJFMN@?$CKmuzzle?$CFi?$AA@ 3009e310     cg_players.obj
 0002:0001431c       ??_C@_08FNEKKBCI@?$CKflash?$CFi?$AA@ 3009e31c     cg_players.obj
 0002:00014328       ??_C@_0O@BKEPGGED@?$CKr_wingdamage?$AA@ 3009e328     cg_players.obj
 0002:00014338       ??_C@_0O@FEKOMMCJ@?$CKl_wingdamage?$AA@ 3009e338     cg_players.obj
 0002:00014348       ??_C@_0M@ODMGMNB@?$CKnosedamage?$AA@ 3009e348     cg_players.obj
 0002:00014354       ??_C@_09ILKHDDNA@?$CKexhaust1?$AA@ 3009e354     cg_players.obj
 0002:00014360       ??_C@_0N@HHJGGMON@?$CKl_arm_elbow?$AA@ 3009e360     cg_players.obj
 0002:00014370       ??_C@_0N@JCLPFCAP@?$CKr_arm_elbow?$AA@ 3009e370     cg_players.obj
 0002:00014380       ??_C@_0N@BNEPHBPB@?$CKhips_l_knee?$AA@ 3009e380     cg_players.obj
 0002:00014390       ??_C@_0N@CKKOJGGC@?$CKhips_r_knee?$AA@ 3009e390     cg_players.obj
 0002:000143a0       ??_C@_09BKJBOOKM@?$CKbicep_lg?$AA@ 3009e3a0     cg_players.obj
 0002:000143ac       ??_C@_09MCJGANG@?$CKbicep_rg?$AA@ 3009e3ac     cg_players.obj
 0002:000143b8       ??_C@_07LFHEGECL@?$CKhand_l?$AA@ 3009e3b8     cg_players.obj
 0002:000143c0       ??_C@_07PEAFBKBB@?$CKweapon?$AA@ 3009e3c0     cg_players.obj
 0002:000143c8       ??_C@_09LAMJPHMP@?$CKthigh_lg?$AA@ 3009e3c8     cg_players.obj
 0002:000143d4       ??_C@_09KGHBHJLF@?$CKthigh_rg?$AA@ 3009e3d4     cg_players.obj
 0002:000143e0       ??_C@_08GILMFNAM@?$CKfoot_lg?$AA@ 3009e3e0     cg_players.obj
 0002:000143ec       ??_C@_08HOAENDHG@?$CKfoot_rg?$AA@ 3009e3ec     cg_players.obj
 0002:000143f8       ??_C@_0CC@JOOHECEC@models?1weapons2?1jetpack?1model?4gl@ 3009e3f8     cg_players.obj
 0002:0001441c       ??_C@_08EEKJBGNE@?$CKtrail?$CFd?$AA@ 3009e41c     cg_players.obj
 0002:00014428       ??_C@_0BP@EEHJJPLA@Bad?5clientNum?5on?5player?5entity?$AA@ 3009e428     cg_players.obj
 0002:00014448       ??_C@_0BG@ECFPMGGA@sound?1effects?1fire_lp?$AA@ 3009e448     cg_players.obj
 0002:00014460       ??_C@_0BE@ONCAFADF@sound?1boba?1JETHOVER?$AA@ 3009e460     cg_players.obj
 0002:00014474       ??_C@_0BN@PLJLAFDF@sound?1weapons?1baton?1idle?4wav?$AA@ 3009e474     cg_players.obj
 0002:00014494       ??_C@_0BN@FKDGBGEH@?$CFi?5ResetPlayerEntity?5yaw?$DN?$CFi?6?$AA@ 3009e494     cg_players.obj
 0002:000144b4       __real@3b83126f            3009e4b4     cg_players.obj
 0002:000144b8       __real@3cf5c28f            3009e4b8     cg_players.obj
 0002:000144bc       __real@3d99999a            3009e4bc     cg_players.obj
 0002:000144c0       __real@3ef9db23            3009e4c0     cg_players.obj
 0002:000144c8       __real@3f59b34ce68019b4    3009e4c8     cg_players.obj
 0002:000144d0       __real@3f70624dd2f1a9fc    3009e4d0     cg_players.obj
 0002:000144d8       __real@3f70a3d7            3009e4d8     cg_players.obj
 0002:000144dc       __real@3f733333            3009e4dc     cg_players.obj
 0002:000144e0       __real@3fa66666            3009e4e0     cg_players.obj
 0002:000144e4       __real@3fb33333            3009e4e4     cg_players.obj
 0002:000144e8       __real@3fd9999a            3009e4e8     cg_players.obj
 0002:000144f0       __real@3ff6666666666666    3009e4f0     cg_players.obj
 0002:000144f8       __real@3ff921fb60000000    3009e4f8     cg_players.obj
 0002:00014500       __real@4022000000000000    3009e500     cg_players.obj
 0002:00014508       __real@4060000000000000    3009e508     cg_players.obj
 0002:00014510       __real@40c90fdb            3009e510     cg_players.obj
 0002:00014514       __real@41180000            3009e514     cg_players.obj
 0002:00014518       __real@41580000            3009e518     cg_players.obj
 0002:0001451c       __real@42280000            3009e51c     cg_players.obj
 0002:00014520       __real@425c0000            3009e520     cg_players.obj
 0002:00014524       __real@43570000            3009e524     cg_players.obj
 0002:00014528       __real@43740000            3009e528     cg_players.obj
 0002:0001452c       __real@4ab71b00            3009e52c     cg_players.obj
 0002:00014530       __real@4cbebc20            3009e530     cg_players.obj
 0002:00014534       __real@c25c0000            3009e534     cg_players.obj
 0002:00014540       __xmm@000000000000000040c0000040c00000 3009e540     cg_players.obj
 0002:00014550       __xmm@000000003f8000000000000000000000 3009e550     cg_players.obj
 0002:00014560       __xmm@00000000437f0000000000003f800000 3009e560     cg_players.obj
 0002:00014570       __xmm@3f80000000000000408000003fc00000 3009e570     cg_players.obj
 0002:00014580       __xmm@3f8000003f800000000000003f000000 3009e580     cg_players.obj
 0002:00014590       __xmm@3f8000003f8000003f80000000000000 3009e590     cg_players.obj
 0002:000145a0       ??_C@_0CE@JCAHPAJ@exceeded?5PACKET_BACKUP?5on?5comman@ 3009e5a0     cg_predict.obj
 0002:000145c4       ??_C@_02NCPIBIBE@33?$AA@   3009e5c4     cg_predict.obj
 0002:000145c8       ??_C@_0BI@BEHCKC@VEH?5PredictionTeleport?6?$AA@ 3009e5c8     cg_predict.obj
 0002:000145e0       ??_C@_0BG@EBLEHBAE@VEH?5prediction?5error?6?$AA@ 3009e5e0     cg_predict.obj
 0002:000145f8       ??_C@_0BJ@HCFMGHKL@VEH?5Prediction?5miss?3?5?$CFf?6?$AA@ 3009e5f8     cg_predict.obj
 0002:00014614       ??_C@_0CB@NOHEDLOG@VEH?5Double?5prediction?5decay?3?5?$CFf?6@ 3009e614     cg_predict.obj
 0002:00014638       ??_C@_0BN@PFOHEJFJ@VEH?5orient?5prediction?5error?6?$AA@ 3009e638     cg_predict.obj
 0002:00014658       ??_C@_0BP@EMNHCEKM@VEH?5pitch?5prediction?5miss?3?5?$CFf?6?$AA@ 3009e658     cg_predict.obj
 0002:00014678       ??_C@_0BN@FDMMHJCM@VEH?5yaw?5prediction?5miss?3?5?$CFf?6?$AA@ 3009e678     cg_predict.obj
 0002:00014698       ??_C@_0BO@EJDICJHE@VEH?5roll?5prediction?5miss?3?5?$CFf?6?$AA@ 3009e698     cg_predict.obj
 0002:000146b8       ??_C@_0BE@DPKKIGLP@PredictionTeleport?6?$AA@ 3009e6b8     cg_predict.obj
 0002:000146cc       ??_C@_0BC@GIKLPGML@prediction?5error?6?$AA@ 3009e6cc     cg_predict.obj
 0002:000146e0       ??_C@_0BF@BBGFLFIG@Prediction?5miss?3?5?$CFf?6?$AA@ 3009e6e0     cg_predict.obj
 0002:000146f8       ??_C@_0BN@HNLMAFPF@Double?5prediction?5decay?3?5?$CFf?6?$AA@ 3009e6f8     cg_predict.obj
 0002:00014718       ??_C@_0L@NKHFPHNI@?$FL?$CFi?5?3?5?$CFi?$FN?5?$AA@ 3009e718     cg_predict.obj
 0002:00014724       ??_C@_0L@DOJHFFNN@not?5moved?6?$AA@ 3009e724     cg_predict.obj
 0002:00014730       ??_C@_0BI@ELMKHMCD@WARNING?3?5dropped?5event?6?$AA@ 3009e730     cg_predict.obj
 0002:00014748       ??_C@_0BH@JOJLKMBP@WARNING?3?5double?5event?6?$AA@ 3009e748     cg_predict.obj
 0002:00014760       __real@4be6ca08            3009e760     cg_predict.obj
 0002:00014764       ??_C@_0CG@DGOPCHAC@Siege?5data?5does?5not?5exist?5on?5cli@ 3009e764     cg_saga.obj
 0002:0001478c       ??_C@_0M@IHDPCFPD@Objective?$CFi?$AA@ 3009e78c     cg_saga.obj
 0002:00014798       ??_C@_0M@NFIGFDNC@sound_team1?$AA@ 3009e798     cg_saga.obj
 0002:000147a4       ??_C@_0M@POKLAABB@sound_team2?$AA@ 3009e7a4     cg_saga.obj
 0002:000147b0       ??_C@_06IEJOFGOG@objgfx?$AA@ 3009e7b0     cg_saga.obj
 0002:000147b8       ??_C@_07PCJEFIIJ@mapicon?$AA@ 3009e7b8     cg_saga.obj
 0002:000147c0       ??_C@_0L@CGECIPJA@litmapicon?$AA@ 3009e7c0     cg_saga.obj
 0002:000147cc       ??_C@_0M@NNMBIECO@donemapicon?$AA@ 3009e7cc     cg_saga.obj
 0002:000147d8       ??_C@_03BPOAKJOG@?$CFs?$AA?$AA@ 3009e7d8     cg_saga.obj
 0002:000147dc       ??_C@_09NLJHHKAB@?$CFs?4siege?$AA?$AA@ 3009e7dc     cg_saga.obj
 0002:000147e8       ??_C@_05EPHHAOKA@Teams?$AA@ 3009e7e8     cg_saga.obj
 0002:000147f0       ??_C@_0O@HPPEFNIJ@cg_siegeTeam1?$AA@ 3009e7f0     cg_saga.obj
 0002:00014800       ??_C@_05IKJECGBB@team1?$AA@ 3009e800     cg_saga.obj
 0002:00014808       ??_C@_0BC@HIIDLNJJ@cg_siegeTeam1Name?$AA@ 3009e808     cg_saga.obj
 0002:0001481c       ??_C@_0O@FENJAOEK@cg_siegeTeam2?$AA@ 3009e81c     cg_saga.obj
 0002:0001482c       ??_C@_05KBLJHFNC@team2?$AA@ 3009e82c     cg_saga.obj
 0002:00014834       ??_C@_0BC@POBHMPDH@cg_siegeTeam2Name?$AA@ 3009e834     cg_saga.obj
 0002:00014848       ??_C@_0BI@IFMEDMFB@Siege?5teams?5not?5defined?$AA@ 3009e848     cg_saga.obj
 0002:00014860       ??_C@_08PDGNKGMA@TeamIcon?$AA@ 3009e860     cg_saga.obj
 0002:0001486c       ??_C@_0L@BLDDBDPK@team1_icon?$AA@ 3009e86c     cg_saga.obj
 0002:00014878       ??_C@_05MLMBIJDH@Timed?$AA@ 3009e878     cg_saga.obj
 0002:00014880       ??_C@_0BI@HADAPHEO@No?5team?5entry?5for?5?8?$CFs?8?6?$AA@ 3009e880     cg_saga.obj
 0002:00014898       ??_C@_0L@KNFJHKAA@mapgraphic?$AA@ 3009e898     cg_saga.obj
 0002:000148a4       ??_C@_0BB@BJLPFOEO@siege_mapgraphic?$AA@ 3009e8a4     cg_saga.obj
 0002:000148b8       ??_C@_0BJ@MIDFBPDP@gfx?1mplevels?1siege1_hoth?$AA@ 3009e8b8     cg_saga.obj
 0002:000148d4       ??_C@_0M@LAKHEKCN@missionname?$AA@ 3009e8d4     cg_saga.obj
 0002:000148e0       ??_C@_0BC@CBHHMAJO@siege_missionname?$AA@ 3009e8e0     cg_saga.obj
 0002:000148f4       ??_C@_0L@CKNLAJGH@team2_icon?$AA@ 3009e8f4     cg_saga.obj
 0002:00014900       ??_C@_0CL@BBGLILIJ@Couldn?8t?5find?5any?5player?5classes@ 3009e900     cg_saga.obj
 0002:0001492c       ??_C@_0CJ@KLKCMJCL@Couldn?8t?5find?5any?5player?5teams?5f@ 3009e92c     cg_saga.obj
 0002:00014958       ??_C@_07FKIPFDKM@UseTeam?$AA@ 3009e958     cg_saga.obj
 0002:00014960       ??_C@_0BM@OPMJLBOG@team?$CFi_objective?$CFi_longdesc?$AA@ 3009e960     cg_saga.obj
 0002:0001497c       ??_C@_07FOHNNLKA@objdesc?$AA@ 3009e97c     cg_saga.obj
 0002:00014984       ??_C@_0M@GLJPNNOF@UNSPECIFIED?$AA@ 3009e984     cg_saga.obj
 0002:00014990       ??_C@_0BH@FONBELKG@team?$CFi_objective?$CFi_gfx?$AA@ 3009e990     cg_saga.obj
 0002:000149a8       ??_C@_0BL@LNEPILJL@team?$CFi_objective?$CFi_mapicon?$AA@ 3009e9a8     cg_saga.obj
 0002:000149c4       ??_C@_0BO@ICPEGFEB@team?$CFi_objective?$CFi_litmapicon?$AA@ 3009e9c4     cg_saga.obj
 0002:000149e4       ??_C@_0BP@CMLBNAIG@team?$CFi_objective?$CFi_donemapicon?$AA@ 3009e9e4     cg_saga.obj
 0002:00014a04       ??_C@_0BK@JKAPHHID@team?$CFi_objective?$CFi_mappos?$AA@ 3009ea04     cg_saga.obj
 0002:00014a20       ??_C@_06JOCODHCA@mappos?$AA@ 3009ea20     cg_saga.obj
 0002:00014a28       ??_C@_09IOGHMDJA@0?50?532?532?$AA@ 3009ea28     cg_saga.obj
 0002:00014a34       ??_C@_0CN@BEHJJGAC@ERROR?3?5Siege?5data?5does?5not?5exist@ 3009ea34     cg_saga.obj
 0002:00014a64       ??_C@_08BNMHJEJD@wonround?$AA@ 3009ea64     cg_saga.obj
 0002:00014a70       ??_C@_09CMDNALDI@lostround?$AA@ 3009ea70     cg_saga.obj
 0002:00014a7c       ??_C@_0BG@LLHJNGLO@roundover_sound_wewon?$AA@ 3009ea7c     cg_saga.obj
 0002:00014a94       ??_C@_0BH@GEPPMNBP@roundover_sound_welost?$AA@ 3009ea94     cg_saga.obj
 0002:00014aac       ??_C@_08IHNFKDIA@goalname?$AA@ 3009eaac     cg_saga.obj
 0002:00014ab8       ??_C@_05FPBGKCKL@final?$AA@ 3009eab8     cg_saga.obj
 0002:00014ac0       ??_C@_0BE@CPFHCKII@siege_primobj_inuse?$AA@ 3009eac0     cg_saga.obj
 0002:00014ad4       ??_C@_0O@EMONNPOK@siege_primobj?$AA@ 3009ead4     cg_saga.obj
 0002:00014ae4       ??_C@_0BC@ONOHELI@siege_objective?$CFi?$AA@ 3009eae4     cg_saga.obj
 0002:00014af8       ??_C@_0BH@CHBOEPOM@siege_primobj_longdesc?$AA@ 3009eaf8     cg_saga.obj
 0002:00014b10       ??_C@_0BL@FHIGMJGO@siege_objective?$CFi_longdesc?$AA@ 3009eb10     cg_saga.obj
 0002:00014b2c       ??_C@_0BC@BMKDIAIH@siege_primobj_gfx?$AA@ 3009eb2c     cg_saga.obj
 0002:00014b40       ??_C@_0BG@MEDDLAKD@siege_objective?$CFi_gfx?$AA@ 3009eb40     cg_saga.obj
 0002:00014b58       ??_C@_0BG@LNOAABKJ@siege_primobj_mapicon?$AA@ 3009eb58     cg_saga.obj
 0002:00014b70       ??_C@_0BK@EPJCAMKM@siege_objective?$CFi_mapicon?$AA@ 3009eb70     cg_saga.obj
 0002:00014b8c       ??_C@_0BF@DFIFEFID@siege_primobj_mappos?$AA@ 3009eb8c     cg_saga.obj
 0002:00014ba4       ??_C@_0BJ@CFIIAONA@siege_objective?$CFi_mappos?$AA@ 3009eba4     cg_saga.obj
 0002:00014bc0       ??_C@_0BD@GEFALHLI@siege_primobj_desc?$AA@ 3009ebc0     cg_saga.obj
 0002:00014bd4       ??_C@_0BI@PIGGCDBC@siege_objective?$CFi_inuse?$AA@ 3009ebd4     cg_saga.obj
 0002:00014bec       ??_C@_0BJ@KPHOGGCB@team?$CFi_objective?$CFi_inuse?$AA@ 3009ebec     cg_saga.obj
 0002:00014c08       ??_C@_0BH@FIILMDFJ@siege_objective?$CFi_desc?$AA@ 3009ec08     cg_saga.obj
 0002:00014c20       ??_C@_0O@LNLDLLBO@message_team1?$AA@ 3009ec20     cg_saga.obj
 0002:00014c30       ??_C@_0O@JGJOOINN@message_team2?$AA@ 3009ec30     cg_saga.obj
 0002:00014c40       ??_C@_0O@EBADDJCE@ui_siegeTimer?$AA@ 3009ec40     cg_saga.obj
 0002:00014c50       ??_C@_0BH@DLHNHBEG@Bad?5score?9?$DOclient?3?5?$CFi?6?$AA@ 3009ec50     cg_scoreboard.obj
 0002:00014c68       ??_C@_05KACKNMMA@READY?$AA@ 3009ec68     cg_scoreboard.obj
 0002:00014c70       ??_C@_09CLFCPHPN@DUEL_WINS?$AA@ 3009ec70     cg_scoreboard.obj
 0002:00014c7c       ??_C@_07EJOIIKAD@?$CFs?$FO7?5?$CFs?$AA@ 3009ec7c     cg_scoreboard.obj
 0002:00014c84       ??_C@_0BA@HAPNLPLG@MP_INGAME_PLACE?$AA@ 3009ec84     cg_scoreboard.obj
 0002:00014c94       ??_C@_0N@FJCIJIB@MP_INGAME_OF?$AA@ 3009ec94     cg_scoreboard.obj
 0002:00014ca4       ??_C@_0P@ONBKBIGI@MP_INGAME_WITH?$AA@ 3009eca4     cg_scoreboard.obj
 0002:00014cb4       ??_C@_0BE@NFGIJENK@?$CFs?5?$CFs?5?$CI?$CFs?5?$CFi?$CJ?5?$CFs?5?$CFi?$AA@ 3009ecb4     cg_scoreboard.obj
 0002:00014cc8       ??_C@_0O@KEEFDKDA@SIEGETEAM1WIN?$AA@ 3009ecc8     cg_scoreboard.obj
 0002:00014cd8       ??_C@_0O@ODOFEAOA@SIEGETEAM2WIN?$AA@ 3009ecd8     cg_scoreboard.obj
 0002:00014ce8       ??_C@_0BO@OHCPGADJ@gfx?1menus?1menu_buttonback?4tga?$AA@ 3009ece8     cg_scoreboard.obj
 0002:00014d08       ??_C@_04IPKHEEB@NAME?$AA@  3009ed08     cg_scoreboard.obj
 0002:00014d10       ??_C@_0O@EACMMGLJ@MP_INGAME_W_L?$AA@ 3009ed10     cg_scoreboard.obj
 0002:00014d20       ??_C@_04CCOOKJJG@PING?$AA@ 3009ed20     cg_scoreboard.obj
 0002:00014d28       ??_C@_04OHBONDIN@TIME?$AA@ 3009ed28     cg_scoreboard.obj
 0002:00014d30       ??_C@_0N@HGBPBCI@g_debugMelee?$AA@ 3009ed30     cg_servercmds.obj
 0002:00014d40       ??_C@_0P@HJKJKMBJ@g_stepSlideFix?$AA@ 3009ed40     cg_servercmds.obj
 0002:00014d50       ??_C@_0N@NEBLEAPN@g_noSpecMove?$AA@ 3009ed50     cg_servercmds.obj
 0002:00014d60       ??_C@_0BC@HHPGHHIK@g_siegeTeamSwitch?$AA@ 3009ed60     cg_servercmds.obj
 0002:00014d74       ??_C@_0BC@FPNNEGCD@g_showDuelHealths?$AA@ 3009ed74     cg_servercmds.obj
 0002:00014d88       ??_C@_08HHFKLNCD@needpass?$AA@ 3009ed88     cg_servercmds.obj
 0002:00014d94       ??_C@_0M@HDALJKN@g_jediVmerc?$AA@ 3009ed94     cg_servercmds.obj
 0002:00014da0       ??_C@_08CGDHFBIG@wdisable?$AA@ 3009eda0     cg_servercmds.obj
 0002:00014dac       ??_C@_08JNIMAHLE@fdisable?$AA@ 3009edac     cg_servercmds.obj
 0002:00014db8       ??_C@_07GMGCLCAP@dmflags?$AA@ 3009edb8     cg_servercmds.obj
 0002:00014dc0       ??_C@_09ELHMOKHN@teamflags?$AA@ 3009edc0     cg_servercmds.obj
 0002:00014dcc       ??_C@_0O@OCOCOONB@sv_maxclients?$AA@ 3009edcc     cg_servercmds.obj
 0002:00014ddc       ??_C@_0M@DKNJHPLK@maps?1?$CFs?4bsp?$AA@ 3009eddc     cg_servercmds.obj
 0002:00014de8       ??_C@_09HOBGGEAD@g_redTeam?$AA@ 3009ede8     cg_servercmds.obj
 0002:00014df4       ??_C@_0L@OOBNLHBJ@g_blueTeam?$AA@ 3009edf4     cg_servercmds.obj
 0002:00014e00       ??_C@_0L@MLCEEGBP@g_needpass?$AA@ 3009ee00     cg_servercmds.obj
 0002:00014e0c       ??_C@_0P@IGNPDGBD@bot_minplayers?$AA@ 3009ee0c     cg_servercmds.obj
 0002:00014e1c       ??_C@_0N@FBIHMIDO@g_siegeTeam1?$AA@ 3009ee1c     cg_servercmds.obj
 0002:00014e2c       ??_C@_0N@HKKKJLPN@g_siegeTeam2?$AA@ 3009ee2c     cg_servercmds.obj
 0002:00014e3c       ??_C@_03HIMFCAJL@RMG?$AA@  3009ee3c     cg_servercmds.obj
 0002:00014e40       ??_C@_0M@IFFNJHPN@RMG_weather?$AA@ 3009ee40     cg_servercmds.obj
 0002:00014e4c       ??_C@_01NEMOKFLO@?$DN?$AA@ 3009ee4c     cg_servercmds.obj
 0002:00014e50       ??_C@_01JLIPDDHJ@?3?$AA@   3009ee50     cg_servercmds.obj
 0002:00014e54       ??_C@_01EOFPKCAF@?$EA?$AA@ 3009ee54     cg_servercmds.obj
 0002:00014e58       ??_C@_05DJHCPMHD@1?4wav?$AA@ 3009ee58     cg_servercmds.obj
 0002:00014e60       ??_C@_0P@HFBEHELF@CG_MapRestart?6?$AA@ 3009ee60     cg_servercmds.obj
 0002:00014e70       ??_C@_03PMECLINK@sxd?$AA@  3009ee70     cg_servercmds.obj
 0002:00014e74       ??_C@_02BMCPJMB@sb?$AA@    3009ee74     cg_servercmds.obj
 0002:00014e78       ??_C@_03CEOIHOED@scl?$AA@  3009ee78     cg_servercmds.obj
 0002:00014e7c       ??_C@_03LNBAHPKF@spc?$AA@  3009ee7c     cg_servercmds.obj
 0002:00014e80       ??_C@_03FEBBAMDF@nfr?$AA@  3009ee80     cg_servercmds.obj
 0002:00014e84       ??_C@_03JCHENJDF@kg2?$AA@  3009ee84     cg_servercmds.obj
 0002:00014e88       ??_C@_03HHEDEIJA@kls?$AA@  3009ee88     cg_servercmds.obj
 0002:00014e8c       ??_C@_04MOEPNNA@ircg?$AA@  3009ee8c     cg_servercmds.obj
 0002:00014e94       ??_C@_03HPKAMAON@rcg?$AA@  3009ee94     cg_servercmds.obj
 0002:00014e98       ??_C@_02GFBACKGC@cp?$AA@   3009ee98     cg_servercmds.obj
 0002:00014e9c       ??_C@_03KHMLDKGL@cps?$AA@  3009ee9c     cg_servercmds.obj
 0002:00014ea0       ??_C@_02EODNHJKB@cs?$AA@   3009eea0     cg_servercmds.obj
 0002:00014ea4       ??_C@_05IJDJACGD@print?$AA@ 3009eea4     cg_servercmds.obj
 0002:00014eac       ??_C@_04BLJLMHHG@chat?$AA@ 3009eeac     cg_servercmds.obj
 0002:00014eb4       ??_C@_04IJBIFOMI@?$CK?$CFs?6?$AA@ 3009eeb4     cg_servercmds.obj
 0002:00014ebc       ??_C@_05PMMINOBP@tchat?$AA@ 3009eebc     cg_servercmds.obj
 0002:00014ec4       ??_C@_05BDENFOOJ@lchat?$AA@ 3009eec4     cg_servercmds.obj
 0002:00014ecc       ??_C@_0M@HPOJCEBD@?$CFs?$DM?$CFs?$DO?$FO?$CFs?$CFs?$AA@ 3009eecc     cg_servercmds.obj
 0002:00014ed8       ??_C@_06JMHAIGFD@ltchat?$AA@ 3009eed8     cg_servercmds.obj
 0002:00014ee0       ??_C@_0N@GMGFOMKM@?$CFs?$DM?$CFs?$DO?5?$FO?$CFs?$CFs?$AA@ 3009eee0     cg_servercmds.obj
 0002:00014ef0       ??_C@_06KBCJDMLG@scores?$AA@ 3009eef0     cg_servercmds.obj
 0002:00014ef8       ??_C@_05DPGKEEHN@tinfo?$AA@ 3009eef8     cg_servercmds.obj
 0002:00014f00       ??_C@_0M@BLBAMFDN@remapShader?$AA@ 3009ef00     cg_servercmds.obj
 0002:00014f0c       ??_C@_0BA@GNMFKLDC@clientLevelShot?$AA@ 3009ef0c     cg_servercmds.obj
 0002:00014f1c       ??_C@_0CB@KPHIIGNM@Unknown?5client?5game?5command?3?5?$CFs?6@ 3009ef1c     cg_servercmds.obj
 0002:00014f40       ??_C@_0CE@BCLPNDDL@CG_TransitionSnapshot?3?5NULL?5cg?4s@ 3009ef40     cg_snapshot.obj
 0002:00014f64       ??_C@_0CI@JDFDPIEH@CG_TransitionSnapshot?3?5NULL?5cg?4n@ 3009ef64     cg_snapshot.obj
 0002:00014f8c       ??_C@_0DI@DABDJKNL@WARNING?3?5CG_ReadNextSnapshot?3?5wa@ 3009ef8c     cg_snapshot.obj
 0002:00014fc4       ??_C@_0CO@FFJEMNFE@CG_ProcessSnapshots?3?5n?5?$DM?5cg?4late@ 3009efc4     cg_snapshot.obj
 0002:00014ff4       ??_C@_0DA@GODLLJKJ@CG_ProcessSnapshots?3?5Server?5time@ 3009eff4     cg_snapshot.obj
 0002:00015024       ??_C@_0CF@EPBFNJFD@CG_ProcessSnapshots?3?5cg?4snap?5?$DN?$DN?5@ 3009f024     cg_snapshot.obj
 0002:0001504c       ??_C@_0DI@NCDIEGIG@CG_ProcessSnapshots?3?5cg?4nextSnap@ 3009f04c     cg_snapshot.obj
 0002:00015084       ??_C@_0L@JLHFAJNM@bone_hinge?$AA@ 3009f084     cg_turret.obj
 0002:00015090       ??_C@_0L@NMBKBPBM@bone_gback?$AA@ 3009f090     cg_turret.obj
 0002:0001509c       ??_C@_0M@MMECMPFA@bone_barrel?$AA@ 3009f09c     cg_turret.obj
 0002:000150a8       __real@3f9eb851eb851eb8    3009f0a8     cg_turret.obj
 0002:000150b0       __real@43b48000            3009f0b0     cg_turret.obj
 0002:000150b4       ??_C@_0BG@GCFGCMGP@Can?8t?5register?5model?6?$AA@ 3009f0b4     cg_view.obj
 0002:000150cc       ??_C@_09FLAEHDCJ@frame?5?$CFi?6?$AA@ 3009f0cc     cg_view.obj
 0002:000150d8       ??_C@_08JKENKHJN@skin?5?$CFi?6?$AA@ 3009f0d8     cg_view.obj
 0002:000150e4       ??_C@_02PJNFELNH@30?$AA@   3009f0e4     cg_view.obj
 0002:000150e8       ??_C@_0DI@FBMMMHLO@CG_DrawSkyBoxPortal?3?5error?5parsi@ 3009f0e8     cg_view.obj
 0002:00015120       ??_C@_0EH@HBCAEGHH@CG_DrawSkyBoxPortal?3?5error?5parsi@ 3009f120     cg_view.obj
 0002:00015168       ??_C@_0EE@BEKLHJKK@CG_DrawSkyBoxPortal?3?5error?5parsi@ 3009f168     cg_view.obj
 0002:000151b0       ??_C@_0EE@KMBHBOMP@CG_DrawSkyBoxPortal?3?5error?5parsi@ 3009f1b0     cg_view.obj
 0002:000151f8       ??_C@_0EE@LOKCLBCB@CG_DrawSkyBoxPortal?3?5error?5parsi@ 3009f1f8     cg_view.obj
 0002:0001523c       ??_C@_0M@OGBIOKHN@s_musicMult?$AA@ 3009f23c     cg_view.obj
 0002:00015248       ??_C@_06PAOMPDJH@?$DMnone?$DO?$AA@ 3009f248     cg_view.obj
 0002:00015250       ??_C@_0BA@NOFPOCEH@ui_mySiegeClass?$AA@ 3009f250     cg_view.obj
 0002:00015260       ??_C@_0BD@PLOBIDP@cg?4clientFrame?3?$CFi?6?$AA@ 3009f260     cg_view.obj
 0002:00015278       __real@3f947ae147ae147b    3009f278     cg_view.obj
 0002:00015280       __real@405cc00000000000    3009f280     cg_view.obj
 0002:00015288       __real@42b20000            3009f288     cg_view.obj
 0002:0001528c       __real@42c20000            3009f28c     cg_view.obj
 0002:00015290       __real@43020000            3009f290     cg_view.obj
 0002:00015298       __real@bfe8000000000000    3009f298     cg_view.obj
 0002:000152a0       __real@c2a00000            3009f2a0     cg_view.obj
 0002:000152a4       __real@c2b20000            3009f2a4     cg_view.obj
 0002:000152a8       __real@c32a0000            3009f2a8     cg_view.obj
 0002:000152ac       ??_C@_0BI@JJFMDMDC@Couldn?8t?5find?5weapon?5?$CFi?$AA@ 3009f2ac     cg_weaponinit.obj
 0002:000152c4       ??_C@_0M@GGMINFPA@_barrel?4md3?$AA@ 3009f2c4     cg_weaponinit.obj
 0002:000152d0       ??_C@_0CM@BAIIJBLO@models?1weapons2?1stun_baton?1baton@ 3009f2d0     cg_weaponinit.obj
 0002:000152fc       ??_C@_0CN@KHBOOEOM@models?1weapons2?1stun_baton?1baton@ 3009f2fc     cg_weaponinit.obj
 0002:0001532c       ??_C@_0CN@GMECDHEJ@models?1weapons2?1stun_baton?1baton@ 3009f32c     cg_weaponinit.obj
 0002:0001535c       ??_C@_09OLHEALFG@_hand?4md3?$AA@ 3009f35c     cg_weaponinit.obj
 0002:00015368       ??_C@_0BH@HJDNBHMB@stunBaton?1flesh_impact?$AA@ 3009f368     cg_weaponinit.obj
 0002:00015380       ??_C@_0BN@CHIIPNFK@sound?1weapons?1baton?1fire?4mp3?$AA@ 3009f380     cg_weaponinit.obj
 0002:000153a0       ??_C@_0CE@KGGFKOKK@sound?1weapons?1concussion?1select?4@ 3009f3a0     cg_weaponinit.obj
 0002:000153c4       ??_C@_0BI@LEFNPLAK@concussion?1muzzle_flash?$AA@ 3009f3c4     cg_weaponinit.obj
 0002:000153dc       ??_C@_0CC@PMHFGFB@sound?1weapons?1bryar?1altcharge?4wa@ 3009f3dc     cg_weaponinit.obj
 0002:00015400       ??_C@_0BL@NBLMMMNB@concussion?1altmuzzle_flash?$AA@ 3009f400     cg_weaponinit.obj
 0002:0001541c       ??_C@_0BD@GMJOGKFI@disruptor?1alt_miss?$AA@ 3009f41c     cg_weaponinit.obj
 0002:00015430       ??_C@_0BA@LLBDOLLK@concussion?1shot?$AA@ 3009f430     cg_weaponinit.obj
 0002:00015440       ??_C@_0BF@IMIJKLAL@concussion?1explosion?$AA@ 3009f440     cg_weaponinit.obj
 0002:00015458       ??_C@_0BF@JPNAFPJM@gfx?1effects?1blueLine?$AA@ 3009f458     cg_weaponinit.obj
 0002:00015470       ??_C@_0BE@DCALKONJ@gfx?1misc?1whiteline2?$AA@ 3009f470     cg_weaponinit.obj
 0002:00015484       ??_C@_0BP@FGCADJJP@sound?1weapons?1bryar?1select?4wav?$AA@ 3009f484     cg_weaponinit.obj
 0002:000154a4       ??_C@_0BN@JIOEMEHN@sound?1weapons?1bryar?1fire?4wav?$AA@ 3009f4a4     cg_weaponinit.obj
 0002:000154c4       ??_C@_0BD@FEAFGDCF@bryar?1muzzle_flash?$AA@ 3009f4c4     cg_weaponinit.obj
 0002:000154d8       ??_C@_0CB@NOOHMAPO@sound?1weapons?1bryar?1alt_fire?4wav@ 3009f4d8     cg_weaponinit.obj
 0002:000154fc       ??_C@_0L@OLAIOCBJ@bryar?1shot?$AA@ 3009f4fc     cg_weaponinit.obj
 0002:00015508       ??_C@_0BC@BOLKNOFJ@bryar?1crackleShot?$AA@ 3009f508     cg_weaponinit.obj
 0002:0001551c       ??_C@_0BC@EBGIPNAG@bryar?1wall_impact?$AA@ 3009f51c     cg_weaponinit.obj
 0002:00015530       ??_C@_0BD@EFCJJLJ@bryar?1wall_impact2?$AA@ 3009f530     cg_weaponinit.obj
 0002:00015544       ??_C@_0BD@BNEJKIPI@bryar?1wall_impact3?$AA@ 3009f544     cg_weaponinit.obj
 0002:00015558       ??_C@_0BD@FELCOKJA@bryar?1flesh_impact?$AA@ 3009f558     cg_weaponinit.obj
 0002:0001556c       ??_C@_0BD@OFNANLII@bryar?1droid_impact?$AA@ 3009f56c     cg_weaponinit.obj
 0002:00015580       ??_C@_0BM@JKHHLDPP@gfx?1effects?1bryarFrontFlash?$AA@ 3009f580     cg_weaponinit.obj
 0002:0001559c       ??_C@_0BI@BJLFJMEC@blaster?1wall_impact?4efx?$AA@ 3009f59c     cg_weaponinit.obj
 0002:000155b4       ??_C@_0BJ@JOIPHIFH@blaster?1flesh_impact?4efx?$AA@ 3009f5b4     cg_weaponinit.obj
 0002:000155d0       ??_C@_0CB@BLKDMLBK@sound?1weapons?1blaster?1select?4wav@ 3009f5d0     cg_weaponinit.obj
 0002:000155f4       ??_C@_0BP@GFLHELND@sound?1weapons?1blaster?1fire?4wav?$AA@ 3009f5f4     cg_weaponinit.obj
 0002:00015614       ??_C@_0BF@DOFNBELO@blaster?1muzzle_flash?$AA@ 3009f614     cg_weaponinit.obj
 0002:0001562c       ??_C@_0CD@MLKAHCED@sound?1weapons?1blaster?1alt_fire?4w@ 3009f62c     cg_weaponinit.obj
 0002:00015650       ??_C@_0BA@BHMDGDMI@blaster?1deflect?$AA@ 3009f650     cg_weaponinit.obj
 0002:00015660       ??_C@_0N@MPCJLPHJ@blaster?1shot?$AA@ 3009f660     cg_weaponinit.obj
 0002:00015670       ??_C@_0BE@KJDPJEBH@blaster?1wall_impact?$AA@ 3009f670     cg_weaponinit.obj
 0002:00015684       ??_C@_0BF@DOOKJNAL@blaster?1flesh_impact?$AA@ 3009f684     cg_weaponinit.obj
 0002:0001569c       ??_C@_0BF@IPIIKMBD@blaster?1droid_impact?$AA@ 3009f69c     cg_weaponinit.obj
 0002:000156b4       ??_C@_0CD@DFFAFGLL@sound?1weapons?1disruptor?1select?4w@ 3009f6b4     cg_weaponinit.obj
 0002:000156d8       ??_C@_0CB@EHFIEJDN@sound?1weapons?1disruptor?1fire?4wav@ 3009f6d8     cg_weaponinit.obj
 0002:000156fc       ??_C@_0BH@CPCPJCBI@disruptor?1muzzle_flash?$AA@ 3009f6fc     cg_weaponinit.obj
 0002:00015714       ??_C@_0CF@PCACDOOB@sound?1weapons?1disruptor?1alt_fire@ 3009f714     cg_weaponinit.obj
 0002:0001573c       ??_C@_0CG@EHPDBIN@sound?1weapons?1disruptor?1altCharg@ 3009f73c     cg_weaponinit.obj
 0002:00015764       ??_C@_0BA@CPFGKGDJ@disruptor?1rings?$AA@ 3009f764     cg_weaponinit.obj
 0002:00015774       ??_C@_0BF@CMBFLDCN@disruptor?1projectile?$AA@ 3009f774     cg_weaponinit.obj
 0002:0001578c       ??_C@_0BG@NKLCGOMM@disruptor?1wall_impact?$AA@ 3009f78c     cg_weaponinit.obj
 0002:000157a4       ??_C@_0BH@CPJIBLKN@disruptor?1flesh_impact?$AA@ 3009f7a4     cg_weaponinit.obj
 0002:000157bc       ??_C@_0BC@CJGMPDCH@disruptor?1alt_hit?$AA@ 3009f7bc     cg_weaponinit.obj
 0002:000157d0       ??_C@_0BE@MOEMNEGA@gfx?1effects?1redLine?$AA@ 3009f7d0     cg_weaponinit.obj
 0002:000157e4       ??_C@_0BH@MMADONKH@gfx?1effects?1smokeTrail?$AA@ 3009f7e4     cg_weaponinit.obj
 0002:000157fc       ??_C@_0BD@EJMIPBKG@gfx?12d?1cropCircle2?$AA@ 3009f7fc     cg_weaponinit.obj
 0002:00015810       ??_C@_0BC@GJGBLKGG@gfx?12d?1cropCircle?$AA@ 3009f810     cg_weaponinit.obj
 0002:00015824       ??_C@_0BG@CGNKPPMN@gfx?12d?1cropCircleGlow?$AA@ 3009f824     cg_weaponinit.obj
 0002:0001583c       ??_C@_0BC@MNEMOCHO@gfx?12d?1insertTick?$AA@ 3009f83c     cg_weaponinit.obj
 0002:00015850       ??_C@_0BD@FIJJMHEA@gfx?12d?1crop_charge?$AA@ 3009f850     cg_weaponinit.obj
 0002:00015864       ??_C@_0CF@DBNAAJNN@sound?1weapons?1disruptor?1zoomloop@ 3009f864     cg_weaponinit.obj
 0002:0001588c       ??_C@_0CD@PAHBPJGI@sound?1weapons?1bowcaster?1select?4w@ 3009f88c     cg_weaponinit.obj
 0002:000158b0       ??_C@_0CB@LHPHEBPN@sound?1weapons?1bowcaster?1fire?4wav@ 3009f8b0     cg_weaponinit.obj
 0002:000158d4       ??_C@_0BH@MDFDHPJM@bowcaster?1muzzle_flash?$AA@ 3009f8d4     cg_weaponinit.obj
 0002:000158ec       ??_C@_0CG@GINKIFIO@sound?1weapons?1bowcaster?1altcharg@ 3009f8ec     cg_weaponinit.obj
 0002:00015914       ??_C@_0P@PMMDLPAJ@bowcaster?1shot?$AA@ 3009f914     cg_weaponinit.obj
 0002:00015924       ??_C@_0BE@KNDAKNMI@bowcaster?1explosion?$AA@ 3009f924     cg_weaponinit.obj
 0002:00015938       ??_C@_0BC@DONAAMN@bowcaster?1deflect?$AA@ 3009f938     cg_weaponinit.obj
 0002:0001594c       ??_C@_0BM@GFMCAJED@gfx?1effects?1greenFrontFlash?$AA@ 3009f94c     cg_weaponinit.obj
 0002:00015968       ??_C@_0CC@FIKMAEPH@sound?1weapons?1repeater?1select?4wa@ 3009f968     cg_weaponinit.obj
 0002:0001598c       ??_C@_0CA@EFALOJAJ@sound?1weapons?1repeater?1fire?4wav?$AA@ 3009f98c     cg_weaponinit.obj
 0002:000159ac       ??_C@_0BG@IKAOHIPP@repeater?1muzzle_flash?$AA@ 3009f9ac     cg_weaponinit.obj
 0002:000159c4       ??_C@_0CE@CLKLGDMM@sound?1weapons?1repeater?1alt_fire?4@ 3009f9c4     cg_weaponinit.obj
 0002:000159e8       ??_C@_0BE@MHMDAGJH@repeater?1projectile?$AA@ 3009f9e8     cg_weaponinit.obj
 0002:000159fc       ??_C@_0BI@KJBEKPOJ@repeater?1alt_projectile?$AA@ 3009f9fc     cg_weaponinit.obj
 0002:00015a14       ??_C@_0BF@PBONOCOL@repeater?1wall_impact?$AA@ 3009fa14     cg_weaponinit.obj
 0002:00015a2c       ??_C@_0BG@IKLJPBEK@repeater?1flesh_impact?$AA@ 3009fa2c     cg_weaponinit.obj
 0002:00015a44       ??_C@_0BE@BNCJIELK@repeater?1concussion?$AA@ 3009fa44     cg_weaponinit.obj
 0002:00015a58       ??_C@_0BP@GCOEPOOB@sound?1weapons?1demp2?1select?4wav?$AA@ 3009fa58     cg_weaponinit.obj
 0002:00015a78       ??_C@_0BN@IMCKPCBD@sound?1weapons?1demp2?1fire?4wav?$AA@ 3009fa78     cg_weaponinit.obj
 0002:00015a98       ??_C@_0BD@OALJFEIK@demp2?1muzzle_flash?$AA@ 3009fa98     cg_weaponinit.obj
 0002:00015aac       ??_C@_0CA@PGAHJLAO@sound?1weapons?1demp2?1altfire?4wav?$AA@ 3009faac     cg_weaponinit.obj
 0002:00015acc       ??_C@_0CC@MPIGNLMI@sound?1weapons?1demp2?1altCharge?4wa@ 3009facc     cg_weaponinit.obj
 0002:00015af0       ??_C@_0BB@KGIAAOJD@demp2?1projectile?$AA@ 3009faf0     cg_weaponinit.obj
 0002:00015b04       ??_C@_0BC@PGOBGFPK@demp2?1wall_impact?$AA@ 3009fb04     cg_weaponinit.obj
 0002:00015b18       ??_C@_0BD@OAAONNDP@demp2?1flesh_impact?$AA@ 3009fb18     cg_weaponinit.obj
 0002:00015b2c       ??_C@_0BI@EMCCKEMO@models?1items?1sphere?4md3?$AA@ 3009fb2c     cg_weaponinit.obj
 0002:00015b44       ??_C@_0BH@IBMEBMI@gfx?1effects?1demp2shell?$AA@ 3009fb44     cg_weaponinit.obj
 0002:00015b5c       ??_C@_0BI@BPJONCHM@gfx?1misc?1lightningFlash?$AA@ 3009fb5c     cg_weaponinit.obj
 0002:00015b74       ??_C@_0CD@MMBOCDNN@sound?1weapons?1flechette?1select?4w@ 3009fb74     cg_weaponinit.obj
 0002:00015b98       ??_C@_0CB@IPAGIIKJ@sound?1weapons?1flechette?1fire?4wav@ 3009fb98     cg_weaponinit.obj
 0002:00015bbc       ??_C@_0BH@DMOHCCME@flechette?1muzzle_flash?$AA@ 3009fbbc     cg_weaponinit.obj
 0002:00015bd4       ??_C@_0CO@KGLEGKPD@models?1weapons2?1golan_arms?1proje@ 3009fbd4     cg_weaponinit.obj
 0002:00015c04       ??_C@_0CF@OBMKIODN@sound?1weapons?1flechette?1alt_fire@ 3009fc04     cg_weaponinit.obj
 0002:00015c2c       ??_C@_0CK@KOEFLOG@models?1weapons2?1golan_arms?1proje@ 3009fc2c     cg_weaponinit.obj
 0002:00015c58       ??_C@_0P@JNBALAPP@flechette?1shot?$AA@ 3009fc58     cg_weaponinit.obj
 0002:00015c68       ??_C@_0BD@JJNBCJJJ@flechette?1alt_shot?$AA@ 3009fc68     cg_weaponinit.obj
 0002:00015c7c       ??_C@_0BG@HOJKOENE@flechette?1wall_impact?$AA@ 3009fc7c     cg_weaponinit.obj
 0002:00015c94       ??_C@_0BH@DMFAKLHB@flechette?1flesh_impact?$AA@ 3009fc94     cg_weaponinit.obj
 0002:00015cac       ??_C@_0CA@BFPHOFPP@sound?1weapons?1rocket?1select?4wav?$AA@ 3009fcac     cg_weaponinit.obj
 0002:00015ccc       ??_C@_0BO@KGPOLMAP@sound?1weapons?1rocket?1fire?4wav?$AA@ 3009fccc     cg_weaponinit.obj
 0002:00015cec       ??_C@_0BE@EHKIPHHK@rocket?1muzzle_flash?$AA@ 3009fcec     cg_weaponinit.obj
 0002:00015d00       ??_C@_0CJ@EIJKNCLJ@models?1weapons2?1merr_sonn?1projec@ 3009fd00     cg_weaponinit.obj
 0002:00015d2c       ??_C@_0CE@IOBLFLKH@sound?1weapons?1rocket?1missleloop?4@ 3009fd2c     cg_weaponinit.obj
 0002:00015d50       ??_C@_0CC@DEHPHGHB@sound?1weapons?1rocket?1alt_fire?4wa@ 3009fd50     cg_weaponinit.obj
 0002:00015d74       ??_C@_0BH@OECPONON@rocket?1altmuzzle_flash?$AA@ 3009fd74     cg_weaponinit.obj
 0002:00015d8c       ??_C@_0M@FFHPHMBH@rocket?1shot?$AA@ 3009fd8c     cg_weaponinit.obj
 0002:00015d98       ??_C@_0BB@KFJJMFBH@rocket?1explosion?$AA@ 3009fd98     cg_weaponinit.obj
 0002:00015dac       ??_C@_0CB@CGKIDHAK@sound?1weapons?1thermal?1select?4wav@ 3009fdac     cg_weaponinit.obj
 0002:00015dd0       ??_C@_0BP@NKIENFLE@sound?1weapons?1thermal?1fire?4wav?$AA@ 3009fdd0     cg_weaponinit.obj
 0002:00015df0       ??_C@_0CB@MGFEFCDJ@sound?1weapons?1thermal?1charge?4wav@ 3009fdf0     cg_weaponinit.obj
 0002:00015e14       ??_C@_0CJ@BFFBHEKC@models?1weapons2?1thermal?1thermal_@ 3009fe14     cg_weaponinit.obj
 0002:00015e40       ??_C@_0BC@NHJFLKCE@thermal?1explosion?$AA@ 3009fe40     cg_weaponinit.obj
 0002:00015e54       ??_C@_0BC@FJJANHJJ@thermal?1shockwave?$AA@ 3009fe54     cg_weaponinit.obj
 0002:00015e68       ??_C@_0CC@NPFLGFIJ@sound?1weapons?1thermal?1bounce1?4wa@ 3009fe68     cg_weaponinit.obj
 0002:00015e8c       ??_C@_0CC@FJMPBHCH@sound?1weapons?1thermal?1bounce2?4wa@ 3009fe8c     cg_weaponinit.obj
 0002:00015eb0       ??_C@_0CE@MDLOFNAP@sound?1weapons?1thermal?1thermloop?4@ 3009feb0     cg_weaponinit.obj
 0002:00015ed4       ??_C@_0CC@LCFKGMMC@sound?1weapons?1thermal?1warning?4wa@ 3009fed4     cg_weaponinit.obj
 0002:00015ef8       ??_C@_0CB@IPONPKH@sound?1weapons?1detpack?1select?4wav@ 3009fef8     cg_weaponinit.obj
 0002:00015f1c       ??_C@_0CC@MCJFLHDA@sound?1weapons?1laser_trap?1fire?4wa@ 3009ff1c     cg_weaponinit.obj
 0002:00015f40       ??_C@_0BF@MMIBFHCA@tripMine?1laserMP?4efx?$AA@ 3009ff40     cg_weaponinit.obj
 0002:00015f58       ??_C@_0BF@BCFHNODM@tripMine?1glowbit?4efx?$AA@ 3009ff58     cg_weaponinit.obj
 0002:00015f70       ??_C@_0BD@NFNOIGGP@tripMine?1explosion?$AA@ 3009ff70     cg_weaponinit.obj
 0002:00015f84       ??_C@_0CD@IHPKAHHF@sound?1weapons?1laser_trap?1stick?4w@ 3009ff84     cg_weaponinit.obj
 0002:00015fa8       ??_C@_0CF@GJBNPGFB@sound?1weapons?1laser_trap?1warning@ 3009ffa8     cg_weaponinit.obj
 0002:00015fd0       ??_C@_0BP@IHNCLMHN@sound?1weapons?1detpack?1fire?4wav?$AA@ 3009ffd0     cg_weaponinit.obj
 0002:00015ff0       ??_C@_0CA@IPNCHNFD@sound?1weapons?1detpack?1stick?4wav?$AA@ 3009fff0     cg_weaponinit.obj
 0002:00016010       ??_C@_0CC@BKBDOFHP@sound?1weapons?1detpack?1warning?4wa@ 300a0010     cg_weaponinit.obj
 0002:00016034       ??_C@_0CG@KEDFKHHA@sound?1weapons?1explosions?1explode@ 300a0034     cg_weaponinit.obj
 0002:0001605c       ??_C@_0CA@JPEAOPNB@effects?1blaster?1wall_impact?4efx?$AA@ 300a005c     cg_weaponinit.obj
 0002:0001607c       ??_C@_0CB@PHAPEPNK@effects?1blaster?1flesh_impact?4efx@ 300a007c     cg_weaponinit.obj
 0002:000160a0       ??_C@_0CC@OIFCIFP@sound?1weapons?1rocket?1rocklf1a?4wa@ 300a00a0     cg_weaponinit.obj
 0002:000160c4       ??_C@_0DH@ECKDIILO@CG_RegisterItemVisuals?3?5itemNum?5@ 300a00c4     cg_weapons.obj
 0002:000160fc       ??_C@_0L@FGMMEJDC@tag_weapon?$AA@ 300a00fc     cg_weapons.obj
 0002:00016108       ??_C@_0L@EKFDHKMA@tag_barrel?$AA@ 300a0108     cg_weapons.obj
 0002:00016114       ??_C@_0M@HGFOMFLL@tag_barrel2?$AA@ 300a0114     cg_weapons.obj
 0002:00016120       ??_C@_0M@GPEFPEPK@tag_barrel3?$AA@ 300a0120     cg_weapons.obj
 0002:0001612c       ??_C@_09FNBKMGLL@tag_flash?$AA@ 300a012c     cg_weapons.obj
 0002:00016138       ??_C@_0BA@FIDILDHD@sv_saberswitch?6?$AA@ 300a0138     cg_weapons.obj
 0002:00016148       ??_C@_0CN@NBNBAPF@CG_FireWeapon?3?5ent?9?$DOweapon?5?$DO?$DN?5WP@ 300a0148     cg_weapons.obj
 0002:00016178       ??_C@_07JCDPMDF@?$CKblade1?$AA@ 300a0178     cg_weapons.obj
 0002:00016180       __real@3fe00000            300a0180     cg_weapons.obj
 0002:00016188       __real@4072c00000000000    300a0188     cg_weapons.obj
 0002:00016190       __real@41600000            300a0190     cg_weapons.obj
 0002:00016194       __real@42380000            300a0194     cg_weapons.obj
 0002:00016198       __real@bfc999999999999a    300a0198     cg_weapons.obj
 0002:000161a0       __xmm@3f8000003df7ced93f37ced93f600000 300a01a0     cg_weapons.obj
 0002:000161b0       __xmm@3f0000003f0000003f0000003f000000 300a01b0     fx_heavyrepeater.obj
 0002:000161c0       __pRawDllMain              300a01c0     LIBCMT:dll_dllmain.obj
 0002:000161c0       __pDefaultRawDllMain       300a01c0     LIBCMT:dll_dllmain.obj
 0002:000161cc       __Microsoft_CRTProvider    300a01cc     libvcruntime:telemetry.obj
 0002:000161d0       ??_C@_11LOCGONAA@?$AA?$AA@ 300a01d0     libvcruntime:telemetry.obj
 0002:000161d4       ??_C@_0O@JEOPJOMI@Main?5Invoked?4?$AA@ 300a01d4     libvcruntime:telemetry.obj
 0002:000161e4       ??_C@_0P@NEAEIBDO@Main?5Returned?4?$AA@ 300a01e4     libvcruntime:telemetry.obj
 0002:00016204       ??_C@_1BC@DNHGCMLG@?$AAa?$AAd?$AAv?$AAa?$AAp?$AAi?$AA3?$AA2?$AA?$AA@ 300a0204     libvcruntime:winapi_downlevel.obj
 0002:00016218       ??_C@_1DM@KHCHBNEB@?$AAa?$AAp?$AAi?$AA?9?$AAm?$AAs?$AA?9?$AAw?$AAi?$AAn?$AA?9?$AAc?$AAo?$AAr?$AAe?$AA?9?$AAf?$AAi?$AAb?$AAe?$AAr?$AAs?$AA?9?$AAl?$AA1?$AA?9?$AA1?$AA?9?$AA1?$AA?$AA@ 300a0218     libvcruntime:winapi_downlevel.obj
 0002:00016254       ??_C@_1DK@LPPGFMPP@?$AAa?$AAp?$AAi?$AA?9?$AAm?$AAs?$AA?9?$AAw?$AAi?$AAn?$AA?9?$AAc?$AAo?$AAr?$AAe?$AA?9?$AAs?$AAy?$AAn?$AAc?$AAh?$AA?9?$AAl?$AA1?$AA?9?$AA2?$AA?9?$AA0?$AA?$AA@ 300a0254     libvcruntime:winapi_downlevel.obj
 0002:00016290       ??_C@_1BC@GDMECMAK@?$AAk?$AAe?$AAr?$AAn?$AAe?$AAl?$AA3?$AA2?$AA?$AA@ 300a0290     libvcruntime:winapi_downlevel.obj
 0002:000162a8       ??_C@_0O@BAMBGLIE@EventRegister?$AA@ 300a02a8     libvcruntime:winapi_downlevel.obj
 0002:000162bc       ??_C@_0BE@BJEEGHGK@EventSetInformation?$AA@ 300a02bc     libvcruntime:winapi_downlevel.obj
 0002:000162d4       ??_C@_0BA@FAKLIPIC@EventUnregister?$AA@ 300a02d4     libvcruntime:winapi_downlevel.obj
 0002:000162e8       ??_C@_0BD@PKLHJPHD@EventWriteTransfer?$AA@ 300a02e8     libvcruntime:winapi_downlevel.obj
 0002:00016304       ??_C@_08KNHFBNJ@FlsAlloc?$AA@ 300a0304     libvcruntime:winapi_downlevel.obj
 0002:00016318       ??_C@_07PEJMOBNF@FlsFree?$AA@ 300a0318     libvcruntime:winapi_downlevel.obj
 0002:00016328       ??_C@_0M@GDNOONDI@FlsGetValue?$AA@ 300a0328     libvcruntime:winapi_downlevel.obj
 0002:0001633c       ??_C@_0M@JCPCPOEF@FlsSetValue?$AA@ 300a033c     libvcruntime:winapi_downlevel.obj
 0002:00016350       ??_C@_0BM@HCFOFFN@InitializeCriticalSectionEx?$AA@ 300a0350     libvcruntime:winapi_downlevel.obj
 0002:00016500       ??_C@_08EHJDFFNH@__based?$CI?$AA@ 300a0500     libvcruntime:undname.obj
 0002:0001650c       ??_C@_07KOLFKCDI@__cdecl?$AA@ 300a050c     libvcruntime:undname.obj
 0002:00016514       ??_C@_08GHMPAG@__pascal?$AA@ 300a0514     libvcruntime:undname.obj
 0002:00016520       ??_C@_09IFJBGAPI@__stdcall?$AA@ 300a0520     libvcruntime:undname.obj
 0002:0001652c       ??_C@_0L@NPHFGOKO@__thiscall?$AA@ 300a052c     libvcruntime:undname.obj
 0002:00016538       ??_C@_0L@JMKHOMEK@__fastcall?$AA@ 300a0538     libvcruntime:undname.obj
 0002:00016544       ??_C@_0N@BCKKPABJ@__vectorcall?$AA@ 300a0544     libvcruntime:undname.obj
 0002:00016554       ??_C@_09HIJEGCPM@__clrcall?$AA@ 300a0554     libvcruntime:undname.obj
 0002:00016560       ??_C@_06GHPCKEAG@__eabi?$AA@ 300a0560     libvcruntime:undname.obj
 0002:00016568       ??_C@_07JOMMBBKO@__ptr64?$AA@ 300a0568     libvcruntime:undname.obj
 0002:00016570       ??_C@_0L@PILCLIHE@__restrict?$AA@ 300a0570     libvcruntime:undname.obj
 0002:0001657c       ??_C@_0M@GFIIJFMG@__unaligned?$AA@ 300a057c     libvcruntime:undname.obj
 0002:00016588       ??_C@_09DHDLOLLB@restrict?$CI?$AA@ 300a0588     libvcruntime:undname.obj
 0002:00016594       ??_C@_04NIHEBCM@?5new?$AA@ 300a0594     libvcruntime:undname.obj
 0002:0001659c       ??_C@_07FPCDHGMM@?5delete?$AA@ 300a059c     libvcruntime:undname.obj
 0002:000165a4       ??_C@_02GPIOPFAK@?$DO?$DO?$AA@ 300a05a4     libvcruntime:undname.obj
 0002:000165a8       ??_C@_02FODMEDOG@?$DM?$DM?$AA@ 300a05a8     libvcruntime:undname.obj
 0002:000165ac       ??_C@_01DCLJPIOD@?$CB?$AA@ 300a05ac     libvcruntime:undname.obj
 0002:000165b0       ??_C@_02EGOFBIJA@?$DN?$DN?$AA@ 300a05b0     libvcruntime:undname.obj
 0002:000165b4       ??_C@_02FDNJECIE@?$CB?$DN?$AA@ 300a05b4     libvcruntime:undname.obj
 0002:000165b8       ??_C@_02GPECMEKF@?$FL?$FN?$AA@ 300a05b8     libvcruntime:undname.obj
 0002:000165bc       ??_C@_08LHJFAFGD@operator?$AA@ 300a05bc     libvcruntime:undname.obj
 0002:000165c8       ??_C@_02HBOOOICD@?9?$DO?$AA@ 300a05c8     libvcruntime:undname.obj
 0002:000165cc       ??_C@_01NBENCBCI@?$CK?$AA@ 300a05cc     libvcruntime:undname.obj
 0002:000165d0       ??_C@_02ECNGHCIF@?$CL?$CL?$AA@ 300a05d0     libvcruntime:undname.obj
 0002:000165d4       ??_C@_01MIFGBAGJ@?$CL?$AA@ 300a05d4     libvcruntime:undname.obj
 0002:000165d8       ??_C@_01HNPIGOCE@?$CG?$AA@ 300a05d8     libvcruntime:undname.obj
 0002:000165dc       ??_C@_03MNHNFDLC@?9?$DO?$CK?$AA@ 300a05dc     libvcruntime:undname.obj
 0002:000165e0       ??_C@_01FGNFDNOH@?$CF?$AA@ 300a05e0     libvcruntime:undname.obj
 0002:000165e4       ??_C@_01MNNFJEPP@?$DM?$AA@ 300a05e4     libvcruntime:undname.obj
 0002:000165e8       ??_C@_02EHCHHCKH@?$DM?$DN?$AA@ 300a05e8     libvcruntime:undname.obj
 0002:000165ec       ??_C@_01PPODPGHN@?$DO?$AA@ 300a05ec     libvcruntime:undname.obj
 0002:000165f0       ??_C@_02EEKDKGMJ@?$DO?$DN?$AA@ 300a05f0     libvcruntime:undname.obj
 0002:000165f4       ??_C@_02HCKGKOFO@?$CI?$CJ?$AA@ 300a05f4     libvcruntime:undname.obj
 0002:000165f8       ??_C@_01PJKLJHI@?$HO?$AA@  300a05f8     libvcruntime:undname.obj
 0002:000165fc       ??_C@_01JKBOJNNK@?$FO?$AA@ 300a05fc     libvcruntime:undname.obj
 0002:00016600       ??_C@_01DNKMNLPK@?$HM?$AA@ 300a0600     libvcruntime:undname.obj
 0002:00016604       ??_C@_02PPKAJPJL@?$CG?$CG?$AA@ 300a0604     libvcruntime:undname.obj
 0002:00016608       ??_C@_02NONPIBCD@?$HM?$HM?$AA@ 300a0608     libvcruntime:undname.obj
 0002:0001660c       ??_C@_02FPIMKNGF@?$CK?$DN?$AA@ 300a060c     libvcruntime:undname.obj
 0002:00016610       ??_C@_02FOEOMHFC@?$CL?$DN?$AA@ 300a0610     libvcruntime:undname.obj
 0002:00016614       ??_C@_02FKMDLLOA@?9?$DN?$AA@ 300a0614     libvcruntime:undname.obj
 0002:00016618       ??_C@_02FJEHGPIO@?1?$DN?$AA@ 300a0618     libvcruntime:undname.obj
 0002:0001661c       ??_C@_02FENAOKFI@?$CF?$DN?$AA@ 300a061c     libvcruntime:undname.obj
 0002:00016620       ??_C@_03IKFCCPFF@?$DO?$DO?$DN?$AA@ 300a0620     libvcruntime:undname.obj
 0002:00016624       ??_C@_03CDNPDDLA@?$DM?$DM?$DN?$AA@ 300a0624     libvcruntime:undname.obj
 0002:00016628       ??_C@_02FGJGFEAB@?$CG?$DN?$AA@ 300a0628     libvcruntime:undname.obj
 0002:0001662c       ??_C@_02DHLNPPGH@?$HM?$DN?$AA@ 300a062c     libvcruntime:undname.obj
 0002:00016630       ??_C@_02MHEGNOJ@?$FO?$DN?$AA@ 300a0630     libvcruntime:undname.obj
 0002:00016634       ??_C@_09IFPLHPGF@?$GAvftable?8?$AA@ 300a0634     libvcruntime:undname.obj
 0002:00016640       ??_C@_09BLBHBJP@?$GAvbtable?8?$AA@ 300a0640     libvcruntime:undname.obj
 0002:0001664c       ??_C@_07FEEIOKP@?$GAvcall?8?$AA@ 300a064c     libvcruntime:undname.obj
 0002:00016654       ??_C@_08LLFFHHDJ@?$GAtypeof?8?$AA@ 300a0654     libvcruntime:undname.obj
 0002:00016660       ??_C@_0BF@KDPPACIK@?$GAlocal?5static?5guard?8?$AA@ 300a0660     libvcruntime:undname.obj
 0002:00016678       ??_C@_08OBABFOLI@?$GAstring?8?$AA@ 300a0678     libvcruntime:undname.obj
 0002:00016684       ??_C@_0BD@JDLKDPAB@?$GAvbase?5destructor?8?$AA@ 300a0684     libvcruntime:undname.obj
 0002:00016698       ??_C@_0BN@DEGPLNFK@?$GAvector?5deleting?5destructor?8?$AA@ 300a0698     libvcruntime:undname.obj
 0002:000166b8       ??_C@_0BO@OBMKPJIG@?$GAdefault?5constructor?5closure?8?$AA@ 300a06b8     libvcruntime:undname.obj
 0002:000166d8       ??_C@_0BN@IMDCHIKM@?$GAscalar?5deleting?5destructor?8?$AA@ 300a06d8     libvcruntime:undname.obj
 0002:000166f8       ??_C@_0BO@PFGOCPJJ@?$GAvector?5constructor?5iterator?8?$AA@ 300a06f8     libvcruntime:undname.obj
 0002:00016718       ??_C@_0BN@LFPFMEDL@?$GAvector?5destructor?5iterator?8?$AA@ 300a0718     libvcruntime:undname.obj
 0002:00016738       ??_C@_0CE@IKBNEHA@?$GAvector?5vbase?5constructor?5iterat@ 300a0738     libvcruntime:undname.obj
 0002:0001675c       ??_C@_0BL@NILFHHPC@?$GAvirtual?5displacement?5map?8?$AA@ 300a075c     libvcruntime:undname.obj
 0002:00016778       ??_C@_0CB@JONCMFFK@?$GAeh?5vector?5constructor?5iterator?8@ 300a0778     libvcruntime:undname.obj
 0002:0001679c       ??_C@_0CA@GCEOPDGL@?$GAeh?5vector?5destructor?5iterator?8?$AA@ 300a079c     libvcruntime:undname.obj
 0002:000167bc       ??_C@_0CH@OOJPLCPH@?$GAeh?5vector?5vbase?5constructor?5ite@ 300a07bc     libvcruntime:undname.obj
 0002:000167e4       ??_C@_0BL@LLKPOHJI@?$GAcopy?5constructor?5closure?8?$AA@ 300a07e4     libvcruntime:undname.obj
 0002:00016800       ??_C@_0BA@KBCDOMBN@?$GAudt?5returning?8?$AA@ 300a0800     libvcruntime:undname.obj
 0002:00016810       ??_C@_03KLGMFNMG@?$GAEH?$AA@ 300a0810     libvcruntime:undname.obj
 0002:00016814       ??_C@_05KHLCHHI@?$GARTTI?$AA@ 300a0814     libvcruntime:undname.obj
 0002:0001681c       ??_C@_0BA@KKLDJDLB@?$GAlocal?5vftable?8?$AA@ 300a081c     libvcruntime:undname.obj
 0002:0001682c       ??_C@_0CE@IIHCMGGL@?$GAlocal?5vftable?5constructor?5closu@ 300a082c     libvcruntime:undname.obj
 0002:00016850       ??_C@_06FHBGPFGH@?5new?$FL?$FN?$AA@ 300a0850     libvcruntime:undname.obj
 0002:00016858       ??_C@_09LBNFPBCA@?5delete?$FL?$FN?$AA@ 300a0858     libvcruntime:undname.obj
 0002:00016864       ??_C@_0P@HJKNJFNN@?$GAomni?5callsig?8?$AA@ 300a0864     libvcruntime:undname.obj
 0002:00016874       ??_C@_0BL@CNOONJFP@?$GAplacement?5delete?5closure?8?$AA@ 300a0874     libvcruntime:undname.obj
 0002:00016890       ??_C@_0BN@CKNJLHMB@?$GAplacement?5delete?$FL?$FN?5closure?8?$AA@ 300a0890     libvcruntime:undname.obj
 0002:000168b0       ??_C@_0CG@CFDHKGGD@?$GAmanaged?5vector?5constructor?5iter@ 300a08b0     libvcruntime:undname.obj
 0002:000168d8       ??_C@_0CF@IMGKMJNO@?$GAmanaged?5vector?5destructor?5itera@ 300a08d8     libvcruntime:undname.obj
 0002:00016900       ??_C@_0CG@HLDDJMAG@?$GAeh?5vector?5copy?5constructor?5iter@ 300a0900     libvcruntime:undname.obj
 0002:00016928       ??_C@_0CM@FCBBDIGB@?$GAeh?5vector?5vbase?5copy?5constructo@ 300a0928     libvcruntime:undname.obj
 0002:00016954       ??_C@_0BL@CLIPGLGB@?$GAdynamic?5initializer?5for?5?8?$AA@ 300a0954     libvcruntime:undname.obj
 0002:00016970       ??_C@_0CB@PDBIFEP@?$GAdynamic?5atexit?5destructor?5for?5?8@ 300a0970     libvcruntime:undname.obj
 0002:00016994       ??_C@_0CD@CGAJBKEJ@?$GAvector?5copy?5constructor?5iterato@ 300a0994     libvcruntime:undname.obj
 0002:000169b8       ??_C@_0CJ@GJELGAMM@?$GAvector?5vbase?5copy?5constructor?5i@ 300a09b8     libvcruntime:undname.obj
 0002:000169e4       ??_C@_0CL@FGIJHLCE@?$GAmanaged?5vector?5copy?5constructor@ 300a09e4     libvcruntime:undname.obj
 0002:00016a10       ??_C@_0BM@PMGGMLDN@?$GAlocal?5static?5thread?5guard?8?$AA@ 300a0a10     libvcruntime:undname.obj
 0002:00016a2c       ??_C@_0N@BDNMDMOL@operator?5?$CC?$CC?5?$AA@ 300a0a2c     libvcruntime:undname.obj
 0002:00016a3c       ??_C@_0BC@DAFEJGAK@?5Type?5Descriptor?8?$AA@ 300a0a3c     libvcruntime:undname.obj
 0002:00016a50       ??_C@_0BM@LDKODKLH@?5Base?5Class?5Descriptor?5at?5?$CI?$AA@ 300a0a50     libvcruntime:undname.obj
 0002:00016a6c       ??_C@_0BD@LGICGFMM@?5Base?5Class?5Array?8?$AA@ 300a0a6c     libvcruntime:undname.obj
 0002:00016a80       ??_C@_0BN@MECKDCOJ@?5Class?5Hierarchy?5Descriptor?8?$AA@ 300a0a80     libvcruntime:undname.obj
 0002:00016aa0       ??_C@_0BK@CFCOFLF@?5Complete?5Object?5Locator?8?$AA@ 300a0aa0     libvcruntime:undname.obj
 0002:00016ac0       ?large_power_data@?1??multiply_by_power_of_ten@__crt_strtox@@YA_NAAUbig_integer@2@I@Z@4QBIB 300a0ac0     libucrt:atof.obj
 0002:000173c8       ?large_power_indices@?1??multiply_by_power_of_ten@__crt_strtox@@YA_NAAUbig_integer@2@I@Z@4QBUunpack_index@?1??12@YA_N0I@Z@B 300a13c8     libucrt:atof.obj
 0002:00017460       ?small_powers_of_ten@?6??multiply_by_power_of_ten@__crt_strtox@@YA_NAAUbig_integer@2@I@Z@4QBIB 300a1460     libucrt:atof.obj
 0002:00017488       ??_C@_1GE@DPGDJKLM@?$AAm?$AAi?$AAn?$AAk?$AAe?$AAr?$AAn?$AAe?$AAl?$AA?2?$AAc?$AAr?$AAt?$AAs?$AA?2?$AAu?$AAc?$AAr?$AAt?$AA?2?$AAi?$AAn?$AAc?$AA?2?$AAc?$AAo?$AAr?$AAe?$AAc?$AAr?$AAt?$AA_@ 300a1488     libucrt:atof.obj
 0002:000174f0       ??_C@_1FM@FELNCOBF@?$AA_?$AA_?$AAc?$AAr?$AAt?$AA_?$AAs?$AAt?$AAr?$AAt?$AAo?$AAx?$AA?3?$AA?3?$AAf?$AAl?$AAo?$AAa?$AAt?$AAi?$AAn?$AAg?$AA_?$AAp?$AAo?$AAi?$AAn?$AAt?$AA_?$AAv?$AAa?$AAl@ 300a14f0     libucrt:atof.obj
 0002:0001754c       ??_C@_1BG@GEMHBGAF@?$AA_?$AAi?$AAs?$AA_?$AAd?$AAo?$AAu?$AAb?$AAl?$AAe?$AA?$AA@ 300a154c     libucrt:atof.obj
 0002:00017568       ??_C@_1FK@JOJELFFO@?$AA_?$AA_?$AAc?$AAr?$AAt?$AA_?$AAs?$AAt?$AAr?$AAt?$AAo?$AAx?$AA?3?$AA?3?$AAf?$AAl?$AAo?$AAa?$AAt?$AAi?$AAn?$AAg?$AA_?$AAp?$AAo?$AAi?$AAn?$AAt?$AA_?$AAv?$AAa?$AAl@ 300a1568     libucrt:atof.obj
 0002:000175c4       ??_C@_1BI@BANMPGJI@?$AA?$CB?$AA_?$AAi?$AAs?$AA_?$AAd?$AAo?$AAu?$AAb?$AAl?$AAe?$AA?$AA@ 300a15c4     libucrt:atof.obj
 0002:000175dc       ?inf_uppercase@?2???$parse_floating_point_possible_infinity@DV?$c_string_character_source@D@__crt_strtox@@PBD@__crt_strtox@@YA?AW4floating_point_parse_result@1@AADAAV?$c_string_character_source@D@1@PBD@Z@4QBDB 300a15dc     libucrt:atof.obj
 0002:000175e0       ?inf_lowercase@?2???$parse_floating_point_possible_infinity@DV?$c_string_character_source@D@__crt_strtox@@PBD@__crt_strtox@@YA?AW4floating_point_parse_result@1@AADAAV?$c_string_character_source@D@1@PBD@Z@4QBDB 300a15e0     libucrt:atof.obj
 0002:000175e4       ?inity_uppercase@?5???$parse_floating_point_possible_infinity@DV?$c_string_character_source@D@__crt_strtox@@PBD@__crt_strtox@@YA?AW4floating_point_parse_result@1@AADAAV?$c_string_character_source@D@1@PBD@Z@4QBDB 300a15e4     libucrt:atof.obj
 0002:000175ec       ?inity_lowercase@?5???$parse_floating_point_possible_infinity@DV?$c_string_character_source@D@__crt_strtox@@PBD@__crt_strtox@@YA?AW4floating_point_parse_result@1@AADAAV?$c_string_character_source@D@1@PBD@Z@4QBDB 300a15ec     libucrt:atof.obj
 0002:000175f4       ?uppercase@?2???$parse_floating_point_possible_nan@DV?$c_string_character_source@D@__crt_strtox@@PBD@__crt_strtox@@YA?AW4floating_point_parse_result@1@AADAAV?$c_string_character_source@D@1@PBD@Z@4QBDB 300a15f4     libucrt:atof.obj
 0002:000175f8       ?lowercase@?2???$parse_floating_point_possible_nan@DV?$c_string_character_source@D@__crt_strtox@@PBD@__crt_strtox@@YA?AW4floating_point_parse_result@1@AADAAV?$c_string_character_source@D@1@PBD@Z@4QBDB 300a15f8     libucrt:atof.obj
 0002:000175fc       ?uppercase@?1???$parse_floating_point_possible_nan_is_snan@DV?$c_string_character_source@D@__crt_strtox@@@__crt_strtox@@YA_NAADAAV?$c_string_character_source@D@1@@Z@4QBDB 300a15fc     libucrt:atof.obj
 0002:00017604       ?lowercase@?1???$parse_floating_point_possible_nan_is_snan@DV?$c_string_character_source@D@__crt_strtox@@@__crt_strtox@@YA_NAADAAV?$c_string_character_source@D@1@@Z@4QBDB 300a1604     libucrt:atof.obj
 0002:0001760c       ?uppercase@?1???$parse_floating_point_possible_nan_is_ind@DV?$c_string_character_source@D@__crt_strtox@@@__crt_strtox@@YA_NAADAAV?$c_string_character_source@D@1@@Z@4QBDB 300a160c     libucrt:atof.obj
 0002:00017610       ?lowercase@?1???$parse_floating_point_possible_nan_is_ind@DV?$c_string_character_source@D@__crt_strtox@@@__crt_strtox@@YA_NAADAAV?$c_string_character_source@D@1@@Z@4QBDB 300a1610     libucrt:atof.obj
 0002:00017618       ?constraints@?1??is_length_valid@__crt_stdio_input@@YA_NW4conversion_mode@2@W4length_modifier@2@@Z@4QAY0M@$$CBEA 300a1618     libucrt:input.obj
 0002:00017690       ?inf_uppercase@?2???$parse_floating_point_possible_infinity@DV?$input_adapter_character_source@V?$string_input_adapter@D@__crt_stdio_input@@@__crt_strtox@@_K@__crt_strtox@@YA?AW4floating_point_parse_result@1@AADAAV?$input_adapter_character_source@V?$string_input_adapter@D@__crt_stdio_input@@@1@_K@Z@4QBDB 300a1690     libucrt:input.obj
 0002:00017694       ?inf_lowercase@?2???$parse_floating_point_possible_infinity@DV?$input_adapter_character_source@V?$string_input_adapter@D@__crt_stdio_input@@@__crt_strtox@@_K@__crt_strtox@@YA?AW4floating_point_parse_result@1@AADAAV?$input_adapter_character_source@V?$string_input_adapter@D@__crt_stdio_input@@@1@_K@Z@4QBDB 300a1694     libucrt:input.obj
 0002:00017698       ?inity_uppercase@?5???$parse_floating_point_possible_infinity@DV?$input_adapter_character_source@V?$string_input_adapter@D@__crt_stdio_input@@@__crt_strtox@@_K@__crt_strtox@@YA?AW4floating_point_parse_result@1@AADAAV?$input_adapter_character_source@V?$string_input_adapter@D@__crt_stdio_input@@@1@_K@Z@4QBDB 300a1698     libucrt:input.obj
 0002:000176a0       ?inity_lowercase@?5???$parse_floating_point_possible_infinity@DV?$input_adapter_character_source@V?$string_input_adapter@D@__crt_stdio_input@@@__crt_strtox@@_K@__crt_strtox@@YA?AW4floating_point_parse_result@1@AADAAV?$input_adapter_character_source@V?$string_input_adapter@D@__crt_stdio_input@@@1@_K@Z@4QBDB 300a16a0     libucrt:input.obj
 0002:000176a8       ?uppercase@?2???$parse_floating_point_possible_nan@DV?$input_adapter_character_source@V?$string_input_adapter@D@__crt_stdio_input@@@__crt_strtox@@_K@__crt_strtox@@YA?AW4floating_point_parse_result@1@AADAAV?$input_adapter_character_source@V?$string_input_adapter@D@__crt_stdio_input@@@1@_K@Z@4QBDB 300a16a8     libucrt:input.obj
 0002:000176ac       ?lowercase@?2???$parse_floating_point_possible_nan@DV?$input_adapter_character_source@V?$string_input_adapter@D@__crt_stdio_input@@@__crt_strtox@@_K@__crt_strtox@@YA?AW4floating_point_parse_result@1@AADAAV?$input_adapter_character_source@V?$string_input_adapter@D@__crt_stdio_input@@@1@_K@Z@4QBDB 300a16ac     libucrt:input.obj
 0002:000176b0       ?uppercase@?1???$parse_floating_point_possible_nan_is_snan@DV?$input_adapter_character_source@V?$string_input_adapter@D@__crt_stdio_input@@@__crt_strtox@@@__crt_strtox@@YA_NAADAAV?$input_adapter_character_source@V?$string_input_adapter@D@__crt_stdio_input@@@1@@Z@4QBDB 300a16b0     libucrt:input.obj
 0002:000176b8       ?lowercase@?1???$parse_floating_point_possible_nan_is_snan@DV?$input_adapter_character_source@V?$string_input_adapter@D@__crt_stdio_input@@@__crt_strtox@@@__crt_strtox@@YA_NAADAAV?$input_adapter_character_source@V?$string_input_adapter@D@__crt_stdio_input@@@1@@Z@4QBDB 300a16b8     libucrt:input.obj
 0002:000176c0       ?uppercase@?1???$parse_floating_point_possible_nan_is_ind@DV?$input_adapter_character_source@V?$string_input_adapter@D@__crt_stdio_input@@@__crt_strtox@@@__crt_strtox@@YA_NAADAAV?$input_adapter_character_source@V?$string_input_adapter@D@__crt_stdio_input@@@1@@Z@4QBDB 300a16c0     libucrt:input.obj
 0002:000176c4       ?lowercase@?1???$parse_floating_point_possible_nan_is_ind@DV?$input_adapter_character_source@V?$string_input_adapter@D@__crt_stdio_input@@@__crt_strtox@@@__crt_strtox@@YA_NAADAAV?$input_adapter_character_source@V?$string_input_adapter@D@__crt_stdio_input@@@1@@Z@4QBDB 300a16c4     libucrt:input.obj
 0002:000178c0       __OP_FMODjmptab            300a18c0     libucrt:87fmod.obj
 0002:00017a30       _standard_lookup_table     300a1a30     libucrt:output.obj
 0002:00017a8c       ??_C@_06OJHGLDPL@?$CInull?$CJ?$AA@ 300a1a8c     libucrt:output.obj
 0002:00017a94       ??_C@_1O@CEDCILHN@?$AA?$CI?$AAn?$AAu?$AAl?$AAl?$AA?$CJ?$AA?$AA@ 300a1a94     libucrt:output.obj
 0002:00017c10       ___acrt_exception_action_table 300a1c10     libucrt:exception_filter.obj
 0002:00017ca0       ___acrt_signal_action_table_count 300a1ca0     libucrt:exception_filter.obj
 0002:00017ca4       ___acrt_signal_action_first_fpe_index 300a1ca4     libucrt:exception_filter.obj
 0002:00017ca8       ___acrt_signal_action_fpe_count 300a1ca8     libucrt:exception_filter.obj
 0002:00017cac       ??_C@_1BI@BGOHAHKC@?$AAm?$AAs?$AAc?$AAo?$AAr?$AAe?$AAe?$AA?4?$AAd?$AAl?$AAl?$AA?$AA@ 300a1cac     libucrt:exit.obj
 0002:00017cc4       ??_C@_0P@MIGLKIOC@CorExitProcess?$AA@ 300a1cc4     libucrt:exit.obj
 0002:00017eb8       ___newctype                300a1eb8     libucrt:ctype.obj
 0002:000181b8       ___newclmap                300a21b8     libucrt:ctype.obj
 0002:00018338       ___newcumap                300a2338     libucrt:ctype.obj
 0002:000184b8       ??_C@_03KOEHGMDN@Sun?$AA@  300a24b8     libucrt:nlsdata.obj
 0002:000184bc       ??_C@_03PDAGKDH@Mon?$AA@   300a24bc     libucrt:nlsdata.obj
 0002:000184c0       ??_C@_03NAGEINEP@Tue?$AA@  300a24c0     libucrt:nlsdata.obj
 0002:000184c4       ??_C@_03MHOMLAJA@Wed?$AA@  300a24c4     libucrt:nlsdata.obj
 0002:000184c8       ??_C@_03IOFIKPDN@Thu?$AA@  300a24c8     libucrt:nlsdata.obj
 0002:000184cc       ??_C@_03IDIOELNC@Fri?$AA@  300a24cc     libucrt:nlsdata.obj
 0002:000184d0       ??_C@_03FEFJNEK@Sat?$AA@   300a24d0     libucrt:nlsdata.obj
 0002:000184d4       ??_C@_06OOPIFAJ@Sunday?$AA@ 300a24d4     libucrt:nlsdata.obj
 0002:000184dc       ??_C@_06JLEDEDGH@Monday?$AA@ 300a24dc     libucrt:nlsdata.obj
 0002:000184e4       ??_C@_07BAAGCFCM@Tuesday?$AA@ 300a24e4     libucrt:nlsdata.obj
 0002:000184ec       ??_C@_09DLIGFAKA@Wednesday?$AA@ 300a24ec     libucrt:nlsdata.obj
 0002:000184f8       ??_C@_08HACCIKIA@Thursday?$AA@ 300a24f8     libucrt:nlsdata.obj
 0002:00018504       ??_C@_06JECMNKMI@Friday?$AA@ 300a2504     libucrt:nlsdata.obj
 0002:0001850c       ??_C@_08INBOOONO@Saturday?$AA@ 300a250c     libucrt:nlsdata.obj
 0002:00018518       ??_C@_03JIHJHPIE@Jan?$AA@  300a2518     libucrt:nlsdata.obj
 0002:0001851c       ??_C@_03HJBDCHOM@Feb?$AA@  300a251c     libucrt:nlsdata.obj
 0002:00018520       ??_C@_03ODNJBKGA@Mar?$AA@  300a2520     libucrt:nlsdata.obj
 0002:00018524       ??_C@_03LEOLGMJP@Apr?$AA@  300a2524     libucrt:nlsdata.obj
 0002:00018528       ??_C@_03CNMDKL@May?$AA@    300a2528     libucrt:nlsdata.obj
 0002:0001852c       ??_C@_03IDFGHECI@Jun?$AA@  300a252c     libucrt:nlsdata.obj
 0002:00018530       ??_C@_03LBGABGKK@Jul?$AA@  300a2530     libucrt:nlsdata.obj
 0002:00018534       ??_C@_03IFJFEIGA@Aug?$AA@  300a2534     libucrt:nlsdata.obj
 0002:00018538       ??_C@_03GGCAPAJC@Sep?$AA@  300a2538     libucrt:nlsdata.obj
 0002:0001853c       ??_C@_03BMAOKBAD@Oct?$AA@  300a253c     libucrt:nlsdata.obj
 0002:00018540       ??_C@_03JPJOFNIA@Nov?$AA@  300a2540     libucrt:nlsdata.obj
 0002:00018544       ??_C@_03MKABNOCG@Dec?$AA@  300a2544     libucrt:nlsdata.obj
 0002:00018548       ??_C@_07CGJPFGJA@January?$AA@ 300a2548     libucrt:nlsdata.obj
 0002:00018550       ??_C@_08GNJGEPFN@February?$AA@ 300a2550     libucrt:nlsdata.obj
 0002:0001855c       ??_C@_05HPCKOFNC@March?$AA@ 300a255c     libucrt:nlsdata.obj
 0002:00018564       ??_C@_05DMJDNLEJ@April?$AA@ 300a2564     libucrt:nlsdata.obj
 0002:0001856c       ??_C@_04CNLMGBGM@June?$AA@ 300a256c     libucrt:nlsdata.obj
 0002:00018574       ??_C@_04MIEPOIFP@July?$AA@ 300a2574     libucrt:nlsdata.obj
 0002:0001857c       ??_C@_06LBBHFDDG@August?$AA@ 300a257c     libucrt:nlsdata.obj
 0002:00018584       ??_C@_09BHHEALKD@September?$AA@ 300a2584     libucrt:nlsdata.obj
 0002:00018590       ??_C@_07JJNFCEND@October?$AA@ 300a2590     libucrt:nlsdata.obj
 0002:00018598       ??_C@_08HCHEGEOA@November?$AA@ 300a2598     libucrt:nlsdata.obj
 0002:000185a4       ??_C@_08EDHMEBNP@December?$AA@ 300a25a4     libucrt:nlsdata.obj
 0002:000185b0       ??_C@_02DEDBPAFC@AM?$AA@   300a25b0     libucrt:nlsdata.obj
 0002:000185b4       ??_C@_02CJNFDJBF@PM?$AA@   300a25b4     libucrt:nlsdata.obj
 0002:000185b8       ??_C@_08BPBNCDIB@MM?1dd?1yy?$AA@ 300a25b8     libucrt:nlsdata.obj
 0002:000185c4       ??_C@_0BE@CKGJFCPC@dddd?0?5MMMM?5dd?0?5yyyy?$AA@ 300a25c4     libucrt:nlsdata.obj
 0002:000185d8       ??_C@_08JCCMCCIL@HH?3mm?3ss?$AA@ 300a25d8     libucrt:nlsdata.obj
 0002:000185e4       ??_C@_17MBGCMIPB@?$AAS?$AAu?$AAn?$AA?$AA@ 300a25e4     libucrt:nlsdata.obj
 0002:000185ec       ??_C@_17KBOMKBF@?$AAM?$AAo?$AAn?$AA?$AA@ 300a25ec     libucrt:nlsdata.obj
 0002:000185f4       ??_C@_17BMKGEGOJ@?$AAT?$AAu?$AAe?$AA?$AA@ 300a25f4     libucrt:nlsdata.obj
 0002:000185fc       ??_C@_17CJEDCEPE@?$AAW?$AAe?$AAd?$AA?$AA@ 300a25fc     libucrt:nlsdata.obj
 0002:00018604       ??_C@_17PDPHAADD@?$AAT?$AAh?$AAu?$AA?$AA@ 300a2604     libucrt:nlsdata.obj
 0002:0001860c       ??_C@_17HFOLPPLP@?$AAF?$AAr?$AAi?$AA?$AA@ 300a260c     libucrt:nlsdata.obj
 0002:00018614       ??_C@_17GGIBDPIH@?$AAS?$AAa?$AAt?$AA?$AA@ 300a2614     libucrt:nlsdata.obj
 0002:0001861c       ??_C@_1O@IHNHDHPB@?$AAS?$AAu?$AAn?$AAd?$AAa?$AAy?$AA?$AA@ 300a261c     libucrt:nlsdata.obj
 0002:0001862c       ??_C@_1O@MMNBFLIA@?$AAM?$AAo?$AAn?$AAd?$AAa?$AAy?$AA?$AA@ 300a262c     libucrt:nlsdata.obj
 0002:0001863c       ??_C@_1BA@ENFBFFEK@?$AAT?$AAu?$AAe?$AAs?$AAd?$AAa?$AAy?$AA?$AA@ 300a263c     libucrt:nlsdata.obj
 0002:0001864c       ??_C@_1BE@EBOGMDOH@?$AAW?$AAe?$AAd?$AAn?$AAe?$AAs?$AAd?$AAa?$AAy?$AA?$AA@ 300a264c     libucrt:nlsdata.obj
 0002:00018660       ??_C@_1BC@HHMNLIHE@?$AAT?$AAh?$AAu?$AAr?$AAs?$AAd?$AAa?$AAy?$AA?$AA@ 300a2660     libucrt:nlsdata.obj
 0002:00018674       ??_C@_1O@PDICJHAG@?$AAF?$AAr?$AAi?$AAd?$AAa?$AAy?$AA?$AA@ 300a2674     libucrt:nlsdata.obj
 0002:00018684       ??_C@_1BC@ENMNNPAJ@?$AAS?$AAa?$AAt?$AAu?$AAr?$AAd?$AAa?$AAy?$AA?$AA@ 300a2684     libucrt:nlsdata.obj
 0002:00018698       ??_C@_17DKNBKCHM@?$AAJ?$AAa?$AAn?$AA?$AA@ 300a2698     libucrt:nlsdata.obj
 0002:000186a0       ??_C@_17LMDJEKJN@?$AAF?$AAe?$AAb?$AA?$AA@ 300a26a0     libucrt:nlsdata.obj
 0002:000186a8       ??_C@_17CKNLEDEC@?$AAM?$AAa?$AAr?$AA?$AA@ 300a26a8     libucrt:nlsdata.obj
 0002:000186b0       ??_C@_17LFPOIHDD@?$AAA?$AAp?$AAr?$AA?$AA@ 300a26b0     libucrt:nlsdata.obj
 0002:000186b8       ??_C@_17PNNKMEED@?$AAM?$AAa?$AAy?$AA?$AA@ 300a26b8     libucrt:nlsdata.obj
 0002:000186c0       ??_C@_17KCJGOCPB@?$AAJ?$AAu?$AAn?$AA?$AA@ 300a26c0     libucrt:nlsdata.obj
 0002:000186c8       ??_C@_17IJPCKHK@?$AAJ?$AAu?$AAl?$AA?$AA@ 300a26c8     libucrt:nlsdata.obj
 0002:000186d0       ??_C@_17ICPELBCN@?$AAA?$AAu?$AAg?$AA?$AA@ 300a26d0     libucrt:nlsdata.obj
 0002:000186d8       ??_C@_17HCHCOKMG@?$AAS?$AAe?$AAp?$AA?$AA@ 300a26d8     libucrt:nlsdata.obj
 0002:000186e0       ??_C@_17FNLKOI@?$AAO?$AAc?$AAt?$AA?$AA@ 300a26e0     libucrt:nlsdata.obj
 0002:000186e8       ??_C@_17BBDMLCIG@?$AAN?$AAo?$AAv?$AA?$AA@ 300a26e8     libucrt:nlsdata.obj
 0002:000186f0       ??_C@_17EGKACKIF@?$AAD?$AAe?$AAc?$AA?$AA@ 300a26f0     libucrt:nlsdata.obj
 0002:000186f8       ??_C@_1BA@EFMEIEBA@?$AAJ?$AAa?$AAn?$AAu?$AAa?$AAr?$AAy?$AA?$AA@ 300a26f8     libucrt:nlsdata.obj
 0002:00018708       ??_C@_1BC@JGDDFFAM@?$AAF?$AAe?$AAb?$AAr?$AAu?$AAa?$AAr?$AAy?$AA?$AA@ 300a2708     libucrt:nlsdata.obj
 0002:0001871c       ??_C@_1M@IKEENEDF@?$AAM?$AAa?$AAr?$AAc?$AAh?$AA?$AA@ 300a271c     libucrt:nlsdata.obj
 0002:00018728       ??_C@_1M@GJNLMHFD@?$AAA?$AAp?$AAr?$AAi?$AAl?$AA?$AA@ 300a2728     libucrt:nlsdata.obj
 0002:00018734       ??_C@_19EPFLPGAP@?$AAJ?$AAu?$AAn?$AAe?$AA?$AA@ 300a2734     libucrt:nlsdata.obj
 0002:00018740       ??_C@_19BIFMLPCD@?$AAJ?$AAu?$AAl?$AAy?$AA?$AA@ 300a2740     libucrt:nlsdata.obj
 0002:0001874c       ??_C@_1O@PAHLKOAC@?$AAA?$AAu?$AAg?$AAu?$AAs?$AAt?$AA?$AA@ 300a274c     libucrt:nlsdata.obj
 0002:0001875c       ??_C@_1BE@DKAAMBJL@?$AAS?$AAe?$AAp?$AAt?$AAe?$AAm?$AAb?$AAe?$AAr?$AA?$AA@ 300a275c     libucrt:nlsdata.obj
 0002:00018770       ??_C@_1BA@EPANDLNG@?$AAO?$AAc?$AAt?$AAo?$AAb?$AAe?$AAr?$AA?$AA@ 300a2770     libucrt:nlsdata.obj
 0002:00018780       ??_C@_1BC@BGLIFPF@?$AAN?$AAo?$AAv?$AAe?$AAm?$AAb?$AAe?$AAr?$AA?$AA@ 300a2780     libucrt:nlsdata.obj
 0002:00018794       ??_C@_1BC@FEMKIFH@?$AAD?$AAe?$AAc?$AAe?$AAm?$AAb?$AAe?$AAr?$AA?$AA@ 300a2794     libucrt:nlsdata.obj
 0002:000187a8       ??_C@_15ODEHAHHF@?$AAA?$AAM?$AA?$AA@ 300a27a8     libucrt:nlsdata.obj
 0002:000187b0       ??_C@_15CLMNNGEL@?$AAP?$AAM?$AA?$AA@ 300a27b0     libucrt:nlsdata.obj
 0002:000187b8       ??_C@_1BC@IEBCMHCM@?$AAM?$AAM?$AA?1?$AAd?$AAd?$AA?1?$AAy?$AAy?$AA?$AA@ 300a27b8     libucrt:nlsdata.obj
 0002:000187cc       ??_C@_1CI@KNAKOEBC@?$AAd?$AAd?$AAd?$AAd?$AA?0?$AA?5?$AAM?$AAM?$AAM?$AAM?$AA?5?$AAd?$AAd?$AA?0?$AA?5?$AAy?$AAy?$AAy?$AAy?$AA?$AA@ 300a27cc     libucrt:nlsdata.obj
 0002:000187f4       ??_C@_1BC@GDGBMEMK@?$AAH?$AAH?$AA?3?$AAm?$AAm?$AA?3?$AAs?$AAs?$AA?$AA@ 300a27f4     libucrt:nlsdata.obj
 0002:00018808       ??_C@_1M@BMHNFIME@?$AAe?$AAn?$AA?9?$AAU?$AAS?$AA?$AA@ 300a2808     libucrt:nlsdata.obj
 0002:00018818       ___lc_time_c               300a2818     libucrt:nlsdata.obj
 0002:00018980       __OP_ATAN2jmptab           300a2980     libucrt:87triga.obj
 0002:00018a10       ___acrt_cos_sin_ctable     300a2a10     libucrt:cos_sin_ctable.obj
 0002:00019218       ??_C@_03MGHMBJCF@log?$AA@  300a3218     libucrt:libm_error.obj
 0002:0001921c       ??_C@_05HGHHAHAP@log10?$AA@ 300a321c     libucrt:libm_error.obj
 0002:00019224       ??_C@_03KHJOGHMM@exp?$AA@  300a3224     libucrt:libm_error.obj
 0002:00019228       ??_C@_03JGHBODFD@pow?$AA@  300a3228     libucrt:libm_error.obj
 0002:0001922c       ??_C@_04FIHNOPOL@asin?$AA@ 300a322c     libucrt:libm_error.obj
 0002:00019234       ??_C@_04PDIFKINK@acos?$AA@ 300a3234     libucrt:libm_error.obj
 0002:0001923c       ??_C@_04EIAKFFMI@sqrt?$AA@ 300a323c     libucrt:libm_error.obj
 0002:00019260       __indefinite               300a3260     libucrt:87disp.obj
 0002:0001926a       __piby2                    300a326a     libucrt:87disp.obj
 0002:00019274       __piby4                    300a3274     libucrt:87disp.obj
 0002:000192b0       ___acrt_acos_asin_tbl_addr 300a32b0     libucrt:acos_asin_tbl_addr.obj
 0002:0001a1b0       ___acrt_acos_asin_t_table  300a41b0     libucrt:acos_asin_t_table.obj
 0002:0001a9b0       ??_C@_03OEIAHPBN@INF?$AA@  300a49b0     libucrt:cvt.obj
 0002:0001a9b4       ??_C@_03OJHLLCGB@inf?$AA@  300a49b4     libucrt:cvt.obj
 0002:0001a9b8       ??_C@_03LKNCIKJB@NAN?$AA@  300a49b8     libucrt:cvt.obj
 0002:0001a9bc       ??_C@_03LHCJEHON@nan?$AA@  300a49bc     libucrt:cvt.obj
 0002:0001a9c0       ??_C@_09OFJJIMPC@NAN?$CISNAN?$CJ?$AA@ 300a49c0     libucrt:cvt.obj
 0002:0001a9cc       ??_C@_09IPFBKMDL@nan?$CIsnan?$CJ?$AA@ 300a49cc     libucrt:cvt.obj
 0002:0001a9d8       ??_C@_08IKHNHAJ@NAN?$CIIND?$CJ?$AA@ 300a49d8     libucrt:cvt.obj
 0002:0001a9e4       ??_C@_08OFCDMILK@nan?$CIind?$CJ?$AA@ 300a49e4     libucrt:cvt.obj
 0002:0001a9f0       ??_C@_05KLBDPFGC@e?$CL000?$AA@ 300a49f0     libucrt:cvt.obj
 0002:0001aa10       ___acrt_tan_ctable         300a4a10     libucrt:tan_tables.obj
 0002:0001c014       __half                     300a6014     libucrt:pow.obj
 0002:0001c020       ___acrt_pow_rcp_t1         300a6020     libucrt:pow_tables.obj
 0002:0001c430       ___acrt_pow_log2_t1        300a6430     libucrt:pow_tables.obj
 0002:0001cc40       ___acrt_pow_rcp_t2         300a6c40     libucrt:pow_tables.obj
 0002:0001d050       ___acrt_pow_log2_t2        300a7050     libucrt:pow_tables.obj
 0002:0001d860       ___acrt_pow_rcp_t3         300a7860     libucrt:pow_tables.obj
 0002:0001e070       ___acrt_pow_log2_t3        300a8070     libucrt:pow_tables.obj
 0002:0001f080       ___acrt_pow_clv            300a9080     libucrt:pow_tables.obj
 0002:0001f0a0       ___acrt_pow_exp2_tbl       300a90a0     libucrt:pow_tables.obj
 0002:0001f8f0       ??_C@_1EG@CNNIPFIM@?$AAa?$AAp?$AAi?$AA?9?$AAm?$AAs?$AA?9?$AAw?$AAi?$AAn?$AA?9?$AAa?$AAp?$AAp?$AAm?$AAo?$AAd?$AAe?$AAl?$AA?9?$AAr?$AAu?$AAn?$AAt?$AAi?$AAm?$AAe?$AA?9?$AAl?$AA1?$AA?9?$AA1@ 300a98f0     libucrt:winapi_thunks.obj
 0002:0001f938       ??_C@_1EA@JGEFHKEI@?$AAa?$AAp?$AAi?$AA?9?$AAm?$AAs?$AA?9?$AAw?$AAi?$AAn?$AA?9?$AAc?$AAo?$AAr?$AAe?$AA?9?$AAd?$AAa?$AAt?$AAe?$AAt?$AAi?$AAm?$AAe?$AA?9?$AAl?$AA1?$AA?9?$AA1?$AA?9?$AA1?$AA?$AA@ 300a9938     libucrt:winapi_thunks.obj
 0002:0001f978       ??_C@_1DI@GCIAAENM@?$AAa?$AAp?$AAi?$AA?9?$AAm?$AAs?$AA?9?$AAw?$AAi?$AAn?$AA?9?$AAc?$AAo?$AAr?$AAe?$AA?9?$AAf?$AAi?$AAl?$AAe?$AA?9?$AAl?$AA2?$AA?9?$AA1?$AA?9?$AA1?$AA?$AA@ 300a9978     libucrt:winapi_thunks.obj
 0002:0001f9b0       ??_C@_1EI@MPIAOHOC@?$AAa?$AAp?$AAi?$AA?9?$AAm?$AAs?$AA?9?$AAw?$AAi?$AAn?$AA?9?$AAc?$AAo?$AAr?$AAe?$AA?9?$AAl?$AAo?$AAc?$AAa?$AAl?$AAi?$AAz?$AAa?$AAt?$AAi?$AAo?$AAn?$AA?9?$AAl?$AA1?$AA?9@ 300a99b0     libucrt:winapi_thunks.obj
 0002:0001f9f8       ??_C@_1FK@FPHCKFIE@?$AAa?$AAp?$AAi?$AA?9?$AAm?$AAs?$AA?9?$AAw?$AAi?$AAn?$AA?9?$AAc?$AAo?$AAr?$AAe?$AA?9?$AAl?$AAo?$AAc?$AAa?$AAl?$AAi?$AAz?$AAa?$AAt?$AAi?$AAo?$AAn?$AA?9?$AAo?$AAb?$AAs@ 300a99f8     libucrt:winapi_thunks.obj
 0002:0001fa58       ??_C@_1EM@DILCGIIO@?$AAa?$AAp?$AAi?$AA?9?$AAm?$AAs?$AA?9?$AAw?$AAi?$AAn?$AA?9?$AAc?$AAo?$AAr?$AAe?$AA?9?$AAp?$AAr?$AAo?$AAc?$AAe?$AAs?$AAs?$AAt?$AAh?$AAr?$AAe?$AAa?$AAd?$AAs?$AA?9?$AAl@ 300a9a58     libucrt:winapi_thunks.obj
 0002:0001faa4       ??_C@_1DM@LNCGDDPN@?$AAa?$AAp?$AAi?$AA?9?$AAm?$AAs?$AA?9?$AAw?$AAi?$AAn?$AA?9?$AAc?$AAo?$AAr?$AAe?$AA?9?$AAs?$AAt?$AAr?$AAi?$AAn?$AAg?$AA?9?$AAl?$AA1?$AA?9?$AA1?$AA?9?$AA0?$AA?$AA@ 300a9aa4     libucrt:winapi_thunks.obj
 0002:0001fae0       ??_C@_1DO@FPAPJEMD@?$AAa?$AAp?$AAi?$AA?9?$AAm?$AAs?$AA?9?$AAw?$AAi?$AAn?$AA?9?$AAc?$AAo?$AAr?$AAe?$AA?9?$AAs?$AAy?$AAs?$AAi?$AAn?$AAf?$AAo?$AA?9?$AAl?$AA1?$AA?9?$AA2?$AA?9?$AA1?$AA?$AA@ 300a9ae0     libucrt:winapi_thunks.obj
 0002:0001fb20       ??_C@_1DK@NDHNAHIO@?$AAa?$AAp?$AAi?$AA?9?$AAm?$AAs?$AA?9?$AAw?$AAi?$AAn?$AA?9?$AAc?$AAo?$AAr?$AAe?$AA?9?$AAw?$AAi?$AAn?$AAr?$AAt?$AA?9?$AAl?$AA1?$AA?9?$AA1?$AA?9?$AA0?$AA?$AA@ 300a9b20     libucrt:winapi_thunks.obj
 0002:0001fb5c       ??_C@_1DM@KGHDGBCM@?$AAa?$AAp?$AAi?$AA?9?$AAm?$AAs?$AA?9?$AAw?$AAi?$AAn?$AA?9?$AAc?$AAo?$AAr?$AAe?$AA?9?$AAx?$AAs?$AAt?$AAa?$AAt?$AAe?$AA?9?$AAl?$AA2?$AA?9?$AA1?$AA?9?$AA0?$AA?$AA@ 300a9b5c     libucrt:winapi_thunks.obj
 0002:0001fb98       ??_C@_1EO@IJIOEFOH@?$AAa?$AAp?$AAi?$AA?9?$AAm?$AAs?$AA?9?$AAw?$AAi?$AAn?$AA?9?$AAr?$AAt?$AAc?$AAo?$AAr?$AAe?$AA?9?$AAn?$AAt?$AAu?$AAs?$AAe?$AAr?$AA?9?$AAw?$AAi?$AAn?$AAd?$AAo?$AAw?$AA?9@ 300a9b98     libucrt:winapi_thunks.obj
 0002:0001fbe8       ??_C@_1FG@HHGEKANL@?$AAa?$AAp?$AAi?$AA?9?$AAm?$AAs?$AA?9?$AAw?$AAi?$AAn?$AA?9?$AAs?$AAe?$AAc?$AAu?$AAr?$AAi?$AAt?$AAy?$AA?9?$AAs?$AAy?$AAs?$AAt?$AAe?$AAm?$AAf?$AAu?$AAn?$AAc?$AAt?$AAi@ 300a9be8     libucrt:winapi_thunks.obj
 0002:0001fc40       ??_C@_1FG@NCKKOLKO@?$AAe?$AAx?$AAt?$AA?9?$AAm?$AAs?$AA?9?$AAw?$AAi?$AAn?$AA?9?$AAk?$AAe?$AAr?$AAn?$AAe?$AAl?$AA3?$AA2?$AA?9?$AAp?$AAa?$AAc?$AAk?$AAa?$AAg?$AAe?$AA?9?$AAc?$AAu?$AAr?$AAr@ 300a9c40     libucrt:winapi_thunks.obj
 0002:0001fc98       ??_C@_1EG@DBIOJECG@?$AAe?$AAx?$AAt?$AA?9?$AAm?$AAs?$AA?9?$AAw?$AAi?$AAn?$AA?9?$AAn?$AAt?$AAu?$AAs?$AAe?$AAr?$AA?9?$AAd?$AAi?$AAa?$AAl?$AAo?$AAg?$AAb?$AAo?$AAx?$AA?9?$AAl?$AA1?$AA?9?$AA1@ 300a9c98     libucrt:winapi_thunks.obj
 0002:0001fce0       ??_C@_1EO@FIHMJCLF@?$AAe?$AAx?$AAt?$AA?9?$AAm?$AAs?$AA?9?$AAw?$AAi?$AAn?$AA?9?$AAn?$AAt?$AAu?$AAs?$AAe?$AAr?$AA?9?$AAw?$AAi?$AAn?$AAd?$AAo?$AAw?$AAs?$AAt?$AAa?$AAt?$AAi?$AAo?$AAn?$AA?9@ 300a9ce0     libucrt:winapi_thunks.obj
 0002:0001fd30       ??_C@_1O@BCCLBEOE@?$AAu?$AAs?$AAe?$AAr?$AA3?$AA2?$AA?$AA@ 300a9d30     libucrt:winapi_thunks.obj
 0002:0001fd68       ??_C@_0BE@JOGNEJCI@GetCurrentPackageId?$AA@ 300a9d68     libucrt:winapi_thunks.obj
 0002:0001fd8c       ??_C@_0O@KKBNKAPF@LCMapStringEx?$AA@ 300a9d8c     libucrt:winapi_thunks.obj
 0002:0001fda4       ??_C@_0BB@HBDEELFH@LocaleNameToLCID?$AA@ 300a9da4     libucrt:winapi_thunks.obj
 0002:0001fdc8       ??_C@_1M@HPNHIDJI@?$AAj?$AAa?$AA?9?$AAJ?$AAP?$AA?$AA@ 300a9dc8     libucrt:mbctype.obj
 0002:0001fdd4       ??_C@_1M@BIBDDEMK@?$AAz?$AAh?$AA?9?$AAC?$AAN?$AA?$AA@ 300a9dd4     libucrt:mbctype.obj
 0002:0001fde0       ??_C@_1M@JLOOOEGK@?$AAk?$AAo?$AA?9?$AAK?$AAR?$AA?$AA@ 300a9de0     libucrt:mbctype.obj
 0002:0001fdec       ??_C@_1M@CLNBBOPM@?$AAz?$AAh?$AA?9?$AAT?$AAW?$AA?$AA@ 300a9dec     libucrt:mbctype.obj
 0002:0001fdf8       ??_C@_15PJPFLCCM@?$AAu?$AAk?$AA?$AA@ 300a9df8     libucrt:get_qualified_locale.obj
 0002:0001feb8       __DEFAULT_CW_in_mem        300a9eb8     libucrt:common.obj
 0002:0001feba       __pi_by_2_to_61            300a9eba     libucrt:common.obj
 0002:0001ffa0       ??_C@_04FJHINJAO@tanh?$AA@ 300a9fa0     libucrt:fpexcept.obj
 0002:0001ffa8       ??_C@_04MLLJIGOK@atan?$AA@ 300a9fa8     libucrt:fpexcept.obj
 0002:0001ffb0       ??_C@_05KNGEOGJB@atan2?$AA@ 300a9fb0     libucrt:fpexcept.obj
 0002:0001ffb8       ??_C@_03BLEJJJBH@sin?$AA@  300a9fb8     libucrt:fpexcept.obj
 0002:0001ffbc       ??_C@_03LALBNOCG@cos?$AA@  300a9fbc     libucrt:fpexcept.obj
 0002:0001ffc0       ??_C@_03IIINPABG@tan?$AA@  300a9fc0     libucrt:fpexcept.obj
 0002:0001ffc4       ??_C@_04GFPJNGEK@ceil?$AA@ 300a9fc4     libucrt:fpexcept.obj
 0002:0001ffcc       ??_C@_05PBJFFIGL@floor?$AA@ 300a9fcc     libucrt:fpexcept.obj
 0002:0001ffd4       ??_C@_04ODHECPBC@fabs?$AA@ 300a9fd4     libucrt:fpexcept.obj
 0002:0001ffdc       ??_C@_04EHEDPDJG@modf?$AA@ 300a9fdc     libucrt:fpexcept.obj
 0002:0001ffe4       ??_C@_05CEJMAHNP@ldexp?$AA@ 300a9fe4     libucrt:fpexcept.obj
 0002:0001ffec       ??_C@_05KBKMEMPO@_cabs?$AA@ 300a9fec     libucrt:fpexcept.obj
 0002:0001fff4       ??_C@_06MEIMCGCF@_hypot?$AA@ 300a9ff4     libucrt:fpexcept.obj
 0002:0001fffc       ??_C@_04KEPJIHGP@fmod?$AA@ 300a9ffc     libucrt:fpexcept.obj
 0002:00020004       ??_C@_05GKKHEGJL@frexp?$AA@ 300aa004     libucrt:fpexcept.obj
 0002:0002000c       ??_C@_03MJLDFKDL@_y0?$AA@  300aa00c     libucrt:fpexcept.obj
 0002:00020010       ??_C@_03NAKIGLHK@_y1?$AA@  300aa010     libucrt:fpexcept.obj
 0002:00020014       ??_C@_03ONILCKOB@_yn?$AA@  300aa014     libucrt:fpexcept.obj
 0002:00020018       ??_C@_05JGDBENOH@_logb?$AA@ 300aa018     libucrt:fpexcept.obj
 0002:00020020       ??_C@_0L@KDOEJCKC@_nextafter?$AA@ 300aa020     libucrt:fpexcept.obj
 0002:00020118       ??_C@_04COOMCNPB@sinh?$AA@ 300aa118     libucrt:fpexcept.obj
 0002:00020120       ??_C@_04HPJJNFIM@cosh?$AA@ 300aa120     libucrt:fpexcept.obj
 0002:00020128       __d_inf                    300aa128     libucrt:util.obj
 0002:00020130       __d_max                    300aa130     libucrt:util.obj
 0002:00020138       __d_mzero                  300aa138     libucrt:util.obj
 0002:00020280       ??_C@_05DNEBIAHO@1?$CDINF?$AA@ 300aa280     libucrt:cfout.obj
 0002:00020288       ??_C@_06IMKFLFPG@1?$CDQNAN?$AA@ 300aa288     libucrt:cfout.obj
 0002:00020290       ??_C@_06PGGFOGJG@1?$CDSNAN?$AA@ 300aa290     libucrt:cfout.obj
 0002:00020298       ??_C@_05PHHOCPM@1?$CDIND?$AA@ 300aa298     libucrt:cfout.obj
 0002:00020400       __infinity                 300aa400     libucrt:87tran.obj
 0002:0002040a       __minfinity                300aa40a     libucrt:87tran.obj
 0002:00020414       __logemax                  300aa414     libucrt:87tran.obj
 0002:0002043a       __OP_EXPjmptab             300aa43a     libucrt:87tran.obj
 0002:00020b80       ??_C@_15EMKDOKLE@?$AAa?$AAr?$AA?$AA@ 300aab80     libucrt:lcidtoname_downlevel.obj
 0002:00020b88       ??_C@_15KNPADPLH@?$AAb?$AAg?$AA?$AA@ 300aab88     libucrt:lcidtoname_downlevel.obj
 0002:00020b90       ??_C@_15EDMHLDMO@?$AAc?$AAa?$AA?$AA@ 300aab90     libucrt:lcidtoname_downlevel.obj
 0002:00020b98       ??_C@_1O@BPEAJADD@?$AAz?$AAh?$AA?9?$AAC?$AAH?$AAS?$AA?$AA@ 300aab98     libucrt:lcidtoname_downlevel.obj
 0002:00020ba8       ??_C@_15LJNHCMNK@?$AAc?$AAs?$AA?$AA@ 300aaba8     libucrt:lcidtoname_downlevel.obj
 0002:00020bb0       ??_C@_15FOMCIDHG@?$AAd?$AAa?$AA?$AA@ 300aabb0     libucrt:lcidtoname_downlevel.obj
 0002:00020bb8       ??_C@_15NBKABECB@?$AAd?$AAe?$AA?$AA@ 300aabb8     libucrt:lcidtoname_downlevel.obj
 0002:00020bc0       ??_C@_15GHPEIIAO@?$AAe?$AAl?$AA?$AA@ 300aabc0     libucrt:lcidtoname_downlevel.obj
 0002:00020bc8       ??_C@_15MNPNEAIF@?$AAe?$AAn?$AA?$AA@ 300aabc8     libucrt:lcidtoname_downlevel.obj
 0002:00020bd0       ??_C@_15GPIOMPMH@?$AAe?$AAs?$AA?$AA@ 300aabd0     libucrt:lcidtoname_downlevel.obj
 0002:00020bd8       ??_C@_15NGLOAKJC@?$AAf?$AAi?$AA?$AA@ 300aabd8     libucrt:lcidtoname_downlevel.obj
 0002:00020be0       ??_C@_15FBKGNKAM@?$AAf?$AAr?$AA?$AA@ 300aabe0     libucrt:lcidtoname_downlevel.obj
 0002:00020be8       ??_C@_15KGGCNEFK@?$AAh?$AAe?$AA?$AA@ 300aabe8     libucrt:lcidtoname_downlevel.obj
 0002:00020bf0       ??_C@_15PGHLIDMF@?$AAh?$AAu?$AA?$AA@ 300aabf0     libucrt:lcidtoname_downlevel.obj
 0002:00020bf8       ??_C@_15BIEMAPLM@?$AAi?$AAs?$AA?$AA@ 300aabf8     libucrt:lcidtoname_downlevel.obj
 0002:00020c00       ??_C@_15IFJLDHAF@?$AAi?$AAt?$AA?$AA@ 300aac00     libucrt:lcidtoname_downlevel.obj
 0002:00020c08       ??_C@_15GEMIOCAG@?$AAj?$AAa?$AA?$AA@ 300aac08     libucrt:lcidtoname_downlevel.obj
 0002:00020c10       ??_C@_15EPELEGJA@?$AAk?$AAo?$AA?$AA@ 300aac10     libucrt:lcidtoname_downlevel.obj
 0002:00020c18       ??_C@_15NDDHIMN@?$AAn?$AAl?$AA?$AA@ 300aac18     libucrt:lcidtoname_downlevel.obj
 0002:00020c20       ??_C@_15BPIGNHCD@?$AAn?$AAo?$AA?$AA@ 300aac20     libucrt:lcidtoname_downlevel.obj
 0002:00020c28       ??_C@_15DEOPBLCG@?$AAp?$AAl?$AA?$AA@ 300aac28     libucrt:lcidtoname_downlevel.obj
 0002:00020c30       ??_C@_15KBECGEFG@?$AAp?$AAt?$AA?$AA@ 300aac30     libucrt:lcidtoname_downlevel.obj
 0002:00020c38       ??_C@_15GLJCBFMD@?$AAr?$AAo?$AA?$AA@ 300aac38     libucrt:lcidtoname_downlevel.obj
 0002:00020c40       ??_C@_15FEDGKCDI@?$AAr?$AAu?$AA?$AA@ 300aac40     libucrt:lcidtoname_downlevel.obj
 0002:00020c48       ??_C@_15GLKMLLHM@?$AAh?$AAr?$AA?$AA@ 300aac48     libucrt:lcidtoname_downlevel.obj
 0002:00020c50       ??_C@_15CPKMFBDB@?$AAs?$AAk?$AA?$AA@ 300aac50     libucrt:lcidtoname_downlevel.obj
 0002:00020c58       ??_C@_15BAAIOGMK@?$AAs?$AAq?$AA?$AA@ 300aac58     libucrt:lcidtoname_downlevel.obj
 0002:00020c60       ??_C@_15INNPNOHD@?$AAs?$AAv?$AA?$AA@ 300aac60     libucrt:lcidtoname_downlevel.obj
 0002:00020c68       ??_C@_15CABMMOGH@?$AAt?$AAh?$AA?$AA@ 300aac68     libucrt:lcidtoname_downlevel.obj
 0002:00020c70       ??_C@_15BPLIHJJM@?$AAt?$AAr?$AA?$AA@ 300aac70     libucrt:lcidtoname_downlevel.obj
 0002:00020c78       ??_C@_15NEOEKKDJ@?$AAu?$AAr?$AA?$AA@ 300aac78     libucrt:lcidtoname_downlevel.obj
 0002:00020c80       ??_C@_15NFICGAJK@?$AAi?$AAd?$AA?$AA@ 300aac80     libucrt:lcidtoname_downlevel.obj
 0002:00020c88       ??_C@_15HPJPHDM@?$AAb?$AAe?$AA?$AA@ 300aac88     libucrt:lcidtoname_downlevel.obj
 0002:00020c90       ??_C@_15LCHLGJII@?$AAs?$AAl?$AA?$AA@ 300aac90     libucrt:lcidtoname_downlevel.obj
 0002:00020c98       ??_C@_15PCFJPHHO@?$AAe?$AAt?$AA?$AA@ 300aac98     libucrt:lcidtoname_downlevel.obj
 0002:00020ca0       ??_C@_15HPFPGODN@?$AAl?$AAv?$AA?$AA@ 300aaca0     libucrt:lcidtoname_downlevel.obj
 0002:00020ca8       ??_C@_15NFFGKGLG@?$AAl?$AAt?$AA?$AA@ 300aaca8     libucrt:lcidtoname_downlevel.obj
 0002:00020cb0       ??_C@_15BDAKCCHN@?$AAf?$AAa?$AA?$AA@ 300aacb0     libucrt:lcidtoname_downlevel.obj
 0002:00020cb8       ??_C@_15NFGIAIAJ@?$AAv?$AAi?$AA?$AA@ 300aacb8     libucrt:lcidtoname_downlevel.obj
 0002:00020cc0       ??_C@_15LMKNDMHN@?$AAh?$AAy?$AA?$AA@ 300aacc0     libucrt:lcidtoname_downlevel.obj
 0002:00020cc8       ??_C@_15IJBHMCFL@?$AAa?$AAz?$AA?$AA@ 300aacc8     libucrt:lcidtoname_downlevel.obj
 0002:00020cd0       ??_C@_15EKOFJABL@?$AAe?$AAu?$AA?$AA@ 300aacd0     libucrt:lcidtoname_downlevel.obj
 0002:00020cd8       ??_C@_15BGHADCNK@?$AAm?$AAk?$AA?$AA@ 300aacd8     libucrt:lcidtoname_downlevel.obj
 0002:00020ce0       ??_C@_15JDNICKHM@?$AAa?$AAf?$AA?$AA@ 300aace0     libucrt:lcidtoname_downlevel.obj
 0002:00020ce8       ??_C@_15KPJEDBKD@?$AAk?$AAa?$AA?$AA@ 300aace8     libucrt:lcidtoname_downlevel.obj
 0002:00020cf0       ??_C@_15PDNFFFEO@?$AAf?$AAo?$AA?$AA@ 300aacf0     libucrt:lcidtoname_downlevel.obj
 0002:00020cf8       ??_C@_15OMLEGLOC@?$AAh?$AAi?$AA?$AA@ 300aacf8     libucrt:lcidtoname_downlevel.obj
 0002:00020d00       ??_C@_15IDNNENKK@?$AAm?$AAs?$AA?$AA@ 300aad00     libucrt:lcidtoname_downlevel.obj
 0002:00020d08       ??_C@_15MACJNBMH@?$AAk?$AAk?$AA?$AA@ 300aad08     libucrt:lcidtoname_downlevel.obj
 0002:00020d10       ??_C@_15DKDJEOND@?$AAk?$AAy?$AA?$AA@ 300aad10     libucrt:lcidtoname_downlevel.obj
 0002:00020d18       ??_C@_15DFGDLJBG@?$AAs?$AAw?$AA?$AA@ 300aad18     libucrt:lcidtoname_downlevel.obj
 0002:00020d20       ??_C@_15BBFAICNG@?$AAu?$AAz?$AA?$AA@ 300aad20     libucrt:lcidtoname_downlevel.obj
 0002:00020d28       ??_C@_15DKNDCGEA@?$AAt?$AAt?$AA?$AA@ 300aad28     libucrt:lcidtoname_downlevel.obj
 0002:00020d30       ??_C@_15MGIFMDPL@?$AAp?$AAa?$AA?$AA@ 300aad30     libucrt:lcidtoname_downlevel.obj
 0002:00020d38       ??_C@_15HCNDBBA@?$AAg?$AAu?$AA?$AA@ 300aad38     libucrt:lcidtoname_downlevel.obj
 0002:00020d40       ??_C@_15FNBEIBON@?$AAt?$AAa?$AA?$AA@ 300aad40     libucrt:lcidtoname_downlevel.obj
 0002:00020d48       ??_C@_15NCHGBGLK@?$AAt?$AAe?$AA?$AA@ 300aad48     libucrt:lcidtoname_downlevel.obj
 0002:00020d50       ??_C@_15PHPHCBPF@?$AAk?$AAn?$AA?$AA@ 300aad50     libucrt:lcidtoname_downlevel.obj
 0002:00020d58       ??_C@_15DLGBCKMP@?$AAm?$AAr?$AA?$AA@ 300aad58     libucrt:lcidtoname_downlevel.obj
 0002:00020d60       ??_C@_15EABBLBFF@?$AAs?$AAa?$AA?$AA@ 300aad60     libucrt:lcidtoname_downlevel.obj
 0002:00020d68       ??_C@_15CBKOMCOI@?$AAm?$AAn?$AA?$AA@ 300aad68     libucrt:lcidtoname_downlevel.obj
 0002:00020d70       ??_C@_15CKDMCJAF@?$AAg?$AAl?$AA?$AA@ 300aad70     libucrt:lcidtoname_downlevel.obj
 0002:00020d78       ??_C@_17CNJFBPG@?$AAk?$AAo?$AAk?$AA?$AA@ 300aad78     libucrt:lcidtoname_downlevel.obj
 0002:00020d80       ??_C@_17FFBJICPL@?$AAs?$AAy?$AAr?$AA?$AA@ 300aad80     libucrt:lcidtoname_downlevel.obj
 0002:00020d88       ??_C@_17KPNDCPAF@?$AAd?$AAi?$AAv?$AA?$AA@ 300aad88     libucrt:lcidtoname_downlevel.obj
 0002:00020d90       ??_C@_1M@OKAHONE@?$AAa?$AAr?$AA?9?$AAS?$AAA?$AA?$AA@ 300aad90     libucrt:lcidtoname_downlevel.obj
 0002:00020d9c       ??_C@_1M@FFFIGIGK@?$AAb?$AAg?$AA?9?$AAB?$AAG?$AA?$AA@ 300aad9c     libucrt:lcidtoname_downlevel.obj
 0002:00020da8       ??_C@_1M@BJNKEDC@?$AAc?$AAa?$AA?9?$AAE?$AAS?$AA?$AA@ 300aada8     libucrt:lcidtoname_downlevel.obj
 0002:00020db4       ??_C@_1M@IJJHFJHA@?$AAc?$AAs?$AA?9?$AAC?$AAZ?$AA?$AA@ 300aadb4     libucrt:lcidtoname_downlevel.obj
 0002:00020dc0       ??_C@_1M@CLPEOBGI@?$AAd?$AAa?$AA?9?$AAD?$AAK?$AA?$AA@ 300aadc0     libucrt:lcidtoname_downlevel.obj
 0002:00020dcc       ??_C@_1M@MCMADGCB@?$AAd?$AAe?$AA?9?$AAD?$AAE?$AA?$AA@ 300aadcc     libucrt:lcidtoname_downlevel.obj
 0002:00020dd8       ??_C@_1M@OOCKEMAM@?$AAe?$AAl?$AA?9?$AAG?$AAR?$AA?$AA@ 300aadd8     libucrt:lcidtoname_downlevel.obj
 0002:00020de4       ??_C@_1M@DDNJFGID@?$AAf?$AAi?$AA?9?$AAF?$AAI?$AA?$AA@ 300aade4     libucrt:lcidtoname_downlevel.obj
 0002:00020df0       ??_C@_1M@GLIPPMAC@?$AAf?$AAr?$AA?9?$AAF?$AAR?$AA?$AA@ 300aadf0     libucrt:lcidtoname_downlevel.obj
 0002:00020dfc       ??_C@_1M@GFMCHPE@?$AAh?$AAe?$AA?9?$AAI?$AAL?$AA?$AA@ 300aadfc     libucrt:lcidtoname_downlevel.obj
 0002:00020e08       ??_C@_1M@MHLPGNKM@?$AAh?$AAu?$AA?9?$AAH?$AAU?$AA?$AA@ 300aae08     libucrt:lcidtoname_downlevel.obj
 0002:00020e14       ??_C@_1M@LPDDNNPN@?$AAi?$AAs?$AA?9?$AAI?$AAS?$AA?$AA@ 300aae14     libucrt:lcidtoname_downlevel.obj
 0002:00020e20       ??_C@_1M@MADIPODN@?$AAi?$AAt?$AA?9?$AAI?$AAT?$AA?$AA@ 300aae20     libucrt:lcidtoname_downlevel.obj
 0002:00020e2c       ??_C@_1M@IHBJJGG@?$AAn?$AAl?$AA?9?$AAN?$AAL?$AA?$AA@ 300aae2c     libucrt:lcidtoname_downlevel.obj
 0002:00020e38       ??_C@_1M@EANAGDL@?$AAn?$AAb?$AA?9?$AAN?$AAO?$AA?$AA@ 300aae38     libucrt:lcidtoname_downlevel.obj
 0002:00020e44       ??_C@_1M@NEIEMEGP@?$AAp?$AAl?$AA?9?$AAP?$AAL?$AA?$AA@ 300aae44     libucrt:lcidtoname_downlevel.obj
 0002:00020e50       ??_C@_1M@BOCFIGEP@?$AAp?$AAt?$AA?9?$AAB?$AAR?$AA?$AA@ 300aae50     libucrt:lcidtoname_downlevel.obj
 0002:00020e5c       ??_C@_1M@IMPFOPBG@?$AAr?$AAo?$AA?9?$AAR?$AAO?$AA?$AA@ 300aae5c     libucrt:lcidtoname_downlevel.obj
 0002:00020e68       ??_C@_1M@IDNNEJMM@?$AAr?$AAu?$AA?9?$AAR?$AAU?$AA?$AA@ 300aae68     libucrt:lcidtoname_downlevel.obj
 0002:00020e74       ??_C@_1M@LILEEOGM@?$AAh?$AAr?$AA?9?$AAH?$AAR?$AA?$AA@ 300aae74     libucrt:lcidtoname_downlevel.obj
 0002:00020e80       ??_C@_1M@FKIFEHPB@?$AAs?$AAk?$AA?9?$AAS?$AAK?$AA?$AA@ 300aae80     libucrt:lcidtoname_downlevel.obj
 0002:00020e8c       ??_C@_1M@LJMAMNPJ@?$AAs?$AAq?$AA?9?$AAA?$AAL?$AA?$AA@ 300aae8c     libucrt:lcidtoname_downlevel.obj
 0002:00020e98       ??_C@_1M@GIAKDKJK@?$AAs?$AAv?$AA?9?$AAS?$AAE?$AA?$AA@ 300aae98     libucrt:lcidtoname_downlevel.obj
 0002:00020ea4       ??_C@_1M@MKJKIKCL@?$AAt?$AAh?$AA?9?$AAT?$AAH?$AA?$AA@ 300aaea4     libucrt:lcidtoname_downlevel.obj
 0002:00020eb0       ??_C@_1M@MFLCCMPB@?$AAt?$AAr?$AA?9?$AAT?$AAR?$AA?$AA@ 300aaeb0     libucrt:lcidtoname_downlevel.obj
 0002:00020ebc       ??_C@_1M@OIJHDKJN@?$AAu?$AAr?$AA?9?$AAP?$AAK?$AA?$AA@ 300aaebc     libucrt:lcidtoname_downlevel.obj
 0002:00020ec8       ??_C@_1M@LHIPCIEK@?$AAi?$AAd?$AA?9?$AAI?$AAD?$AA?$AA@ 300aaec8     libucrt:lcidtoname_downlevel.obj
 0002:00020ed4       ??_C@_1M@MFMOBGI@?$AAu?$AAk?$AA?9?$AAU?$AAA?$AA?$AA@ 300aaed4     libucrt:lcidtoname_downlevel.obj
 0002:00020ee0       ??_C@_1M@OBGLJIPL@?$AAb?$AAe?$AA?9?$AAB?$AAY?$AA?$AA@ 300aaee0     libucrt:lcidtoname_downlevel.obj
 0002:00020eec       ??_C@_1M@BCFAJEAD@?$AAs?$AAl?$AA?9?$AAS?$AAI?$AA?$AA@ 300aaeec     libucrt:lcidtoname_downlevel.obj
 0002:00020ef8       ??_C@_1M@FKFFEDDN@?$AAe?$AAt?$AA?9?$AAE?$AAE?$AA?$AA@ 300aaef8     libucrt:lcidtoname_downlevel.obj
 0002:00020f04       ??_C@_1M@KGKKAACI@?$AAl?$AAv?$AA?9?$AAL?$AAV?$AA?$AA@ 300aaf04     libucrt:lcidtoname_downlevel.obj
 0002:00020f10       ??_C@_1M@IFGBIJO@?$AAl?$AAt?$AA?9?$AAL?$AAT?$AA?$AA@ 300aaf10     libucrt:lcidtoname_downlevel.obj
 0002:00020f1c       ??_C@_1M@FGEAHEDM@?$AAf?$AAa?$AA?9?$AAI?$AAR?$AA?$AA@ 300aaf1c     libucrt:lcidtoname_downlevel.obj
 0002:00020f28       ??_C@_1M@KBMAIBFN@?$AAv?$AAi?$AA?9?$AAV?$AAN?$AA?$AA@ 300aaf28     libucrt:lcidtoname_downlevel.obj
 0002:00020f34       ??_C@_1M@GPCBKDJK@?$AAh?$AAy?$AA?9?$AAA?$AAM?$AA?$AA@ 300aaf34     libucrt:lcidtoname_downlevel.obj
 0002:00020f40       ??_C@_1BG@BECMDDJB@?$AAa?$AAz?$AA?9?$AAA?$AAZ?$AA?9?$AAL?$AAa?$AAt?$AAn?$AA?$AA@ 300aaf40     libucrt:lcidtoname_downlevel.obj
 0002:00020f58       ??_C@_1M@MAOFCAEA@?$AAe?$AAu?$AA?9?$AAE?$AAS?$AA?$AA@ 300aaf58     libucrt:lcidtoname_downlevel.obj
 0002:00020f64       ??_C@_1M@IGHABKPI@?$AAm?$AAk?$AA?9?$AAM?$AAK?$AA?$AA@ 300aaf64     libucrt:lcidtoname_downlevel.obj
 0002:00020f70       ??_C@_1M@IAIGNEJG@?$AAt?$AAn?$AA?9?$AAZ?$AAA?$AA?$AA@ 300aaf70     libucrt:lcidtoname_downlevel.obj
 0002:00020f7c       ??_C@_1M@IIJCOJFA@?$AAx?$AAh?$AA?9?$AAZ?$AAA?$AA?$AA@ 300aaf7c     libucrt:lcidtoname_downlevel.obj
 0002:00020f88       ??_C@_1M@LGPJHNJH@?$AAz?$AAu?$AA?9?$AAZ?$AAA?$AA?$AA@ 300aaf88     libucrt:lcidtoname_downlevel.obj
 0002:00020f94       ??_C@_1M@HOKAOIO@?$AAa?$AAf?$AA?9?$AAZ?$AAA?$AA?$AA@ 300aaf94     libucrt:lcidtoname_downlevel.obj
 0002:00020fa0       ??_C@_1M@DPCLHLIE@?$AAk?$AAa?$AA?9?$AAG?$AAE?$AA?$AA@ 300aafa0     libucrt:lcidtoname_downlevel.obj
 0002:00020fac       ??_C@_1M@BLKMHJBI@?$AAf?$AAo?$AA?9?$AAF?$AAO?$AA?$AA@ 300aafac     libucrt:lcidtoname_downlevel.obj
 0002:00020fb8       ??_C@_1M@LGGJAPPB@?$AAh?$AAi?$AA?9?$AAI?$AAN?$AA?$AA@ 300aafb8     libucrt:lcidtoname_downlevel.obj
 0002:00020fc4       ??_C@_1M@FIKPIHFE@?$AAm?$AAt?$AA?9?$AAM?$AAT?$AA?$AA@ 300aafc4     libucrt:lcidtoname_downlevel.obj
 0002:00020fd0       ??_C@_1M@HEGGPBFA@?$AAs?$AAe?$AA?9?$AAN?$AAO?$AA?$AA@ 300aafd0     libucrt:lcidtoname_downlevel.obj
 0002:00020fdc       ??_C@_1M@EIBJEEPA@?$AAm?$AAs?$AA?9?$AAM?$AAY?$AA?$AA@ 300aafdc     libucrt:lcidtoname_downlevel.obj
 0002:00020fe8       ??_C@_1M@FHLBGMPP@?$AAk?$AAk?$AA?9?$AAK?$AAZ?$AA?$AA@ 300aafe8     libucrt:lcidtoname_downlevel.obj
 0002:00020ff4       ??_C@_1M@NGJJLCGI@?$AAk?$AAy?$AA?9?$AAK?$AAG?$AA?$AA@ 300aaff4     libucrt:lcidtoname_downlevel.obj
 0002:00021000       ??_C@_1M@GIENNBFC@?$AAs?$AAw?$AA?9?$AAK?$AAE?$AA?$AA@ 300ab000     libucrt:lcidtoname_downlevel.obj
 0002:0002100c       ??_C@_1BG@NDGMJIMJ@?$AAu?$AAz?$AA?9?$AAU?$AAZ?$AA?9?$AAL?$AAa?$AAt?$AAn?$AA?$AA@ 300ab00c     libucrt:lcidtoname_downlevel.obj
 0002:00021024       ??_C@_1M@IDCCIHBC@?$AAt?$AAt?$AA?9?$AAR?$AAU?$AA?$AA@ 300ab024     libucrt:lcidtoname_downlevel.obj
 0002:00021030       ??_C@_1M@LOICPMOJ@?$AAb?$AAn?$AA?9?$AAI?$AAN?$AA?$AA@ 300ab030     libucrt:lcidtoname_downlevel.obj
 0002:0002103c       ??_C@_1M@KPKKNEAH@?$AAp?$AAa?$AA?9?$AAI?$AAN?$AA?$AA@ 300ab03c     libucrt:lcidtoname_downlevel.obj
 0002:00021048       ??_C@_1M@PJGPPBOG@?$AAg?$AAu?$AA?9?$AAI?$AAN?$AA?$AA@ 300ab048     libucrt:lcidtoname_downlevel.obj
 0002:00021054       ??_C@_1M@KMKMOPHI@?$AAt?$AAa?$AA?9?$AAI?$AAN?$AA?$AA@ 300ab054     libucrt:lcidtoname_downlevel.obj
 0002:00021060       ??_C@_1M@KFEHEPAC@?$AAt?$AAe?$AA?9?$AAI?$AAN?$AA?$AA@ 300ab060     libucrt:lcidtoname_downlevel.obj
 0002:0002106c       ??_C@_1M@CDCLMGHI@?$AAk?$AAn?$AA?9?$AAI?$AAN?$AA?$AA@ 300ab06c     libucrt:lcidtoname_downlevel.obj
 0002:00021078       ??_C@_1M@MIODLDKF@?$AAm?$AAl?$AA?9?$AAI?$AAN?$AA?$AA@ 300ab078     libucrt:lcidtoname_downlevel.obj
 0002:00021084       ??_C@_1M@PBIEACPO@?$AAm?$AAr?$AA?9?$AAI?$AAN?$AA?$AA@ 300ab084     libucrt:lcidtoname_downlevel.obj
 0002:00021090       ??_C@_1M@NIDEAGPH@?$AAs?$AAa?$AA?9?$AAI?$AAN?$AA?$AA@ 300ab090     libucrt:lcidtoname_downlevel.obj
 0002:0002109c       ??_C@_1M@FHIHCBIO@?$AAm?$AAn?$AA?9?$AAM?$AAN?$AA?$AA@ 300ab09c     libucrt:lcidtoname_downlevel.obj
 0002:000210a8       ??_C@_1M@JAIJPENP@?$AAc?$AAy?$AA?9?$AAG?$AAB?$AA?$AA@ 300ab0a8     libucrt:lcidtoname_downlevel.obj
 0002:000210b4       ??_C@_1M@PHGFBEPN@?$AAg?$AAl?$AA?9?$AAE?$AAS?$AA?$AA@ 300ab0b4     libucrt:lcidtoname_downlevel.obj
 0002:000210c0       ??_C@_1O@KPIPDNCP@?$AAk?$AAo?$AAk?$AA?9?$AAI?$AAN?$AA?$AA@ 300ab0c0     libucrt:lcidtoname_downlevel.obj
 0002:000210d0       ??_C@_1O@KNHJLDJA@?$AAs?$AAy?$AAr?$AA?9?$AAS?$AAY?$AA?$AA@ 300ab0d0     libucrt:lcidtoname_downlevel.obj
 0002:000210e0       ??_C@_1O@MKEKBLAH@?$AAd?$AAi?$AAv?$AA?9?$AAM?$AAV?$AA?$AA@ 300ab0e0     libucrt:lcidtoname_downlevel.obj
 0002:000210f0       ??_C@_1O@OHDCKDDF@?$AAq?$AAu?$AAz?$AA?9?$AAB?$AAO?$AA?$AA@ 300ab0f0     libucrt:lcidtoname_downlevel.obj
 0002:00021100       ??_C@_1M@LEPJNLFD@?$AAn?$AAs?$AA?9?$AAZ?$AAA?$AA?$AA@ 300ab100     libucrt:lcidtoname_downlevel.obj
 0002:0002110c       ??_C@_1M@OMLEIIJB@?$AAm?$AAi?$AA?9?$AAN?$AAZ?$AA?$AA@ 300ab10c     libucrt:lcidtoname_downlevel.obj
 0002:00021118       ??_C@_1M@PMPEAILG@?$AAa?$AAr?$AA?9?$AAI?$AAQ?$AA?$AA@ 300ab118     libucrt:lcidtoname_downlevel.obj
 0002:00021124       ??_C@_1M@CNKPNOEE@?$AAd?$AAe?$AA?9?$AAC?$AAH?$AA?$AA@ 300ab124     libucrt:lcidtoname_downlevel.obj
 0002:00021130       ??_C@_1M@LKMGMLKO@?$AAe?$AAn?$AA?9?$AAG?$AAB?$AA?$AA@ 300ab130     libucrt:lcidtoname_downlevel.obj
 0002:0002113c       ??_C@_1M@PGKJFFGL@?$AAe?$AAs?$AA?9?$AAM?$AAX?$AA?$AA@ 300ab13c     libucrt:lcidtoname_downlevel.obj
 0002:00021148       ??_C@_1M@DNNANBDC@?$AAf?$AAr?$AA?9?$AAB?$AAE?$AA?$AA@ 300ab148     libucrt:lcidtoname_downlevel.obj
 0002:00021154       ??_C@_1M@HLGMDFHM@?$AAi?$AAt?$AA?9?$AAC?$AAH?$AA?$AA@ 300ab154     libucrt:lcidtoname_downlevel.obj
 0002:00021160       ??_C@_1M@CLLBGJH@?$AAn?$AAl?$AA?9?$AAB?$AAE?$AA?$AA@ 300ab160     libucrt:lcidtoname_downlevel.obj
 0002:0002116c       ??_C@_1M@BODBOGLF@?$AAn?$AAn?$AA?9?$AAN?$AAO?$AA?$AA@ 300ab16c     libucrt:lcidtoname_downlevel.obj
 0002:00021178       ??_C@_1M@HFFAHKAD@?$AAp?$AAt?$AA?9?$AAP?$AAT?$AA?$AA@ 300ab178     libucrt:lcidtoname_downlevel.obj
 0002:00021184       ??_C@_1BG@LNOAKHIE@?$AAs?$AAr?$AA?9?$AAS?$AAP?$AA?9?$AAL?$AAa?$AAt?$AAn?$AA?$AA@ 300ab184     libucrt:lcidtoname_downlevel.obj
 0002:0002119c       ??_C@_1M@HBMHBGAK@?$AAs?$AAv?$AA?9?$AAF?$AAI?$AA?$AA@ 300ab19c     libucrt:lcidtoname_downlevel.obj
 0002:000211a8       ??_C@_1BG@DGCJGJBE@?$AAa?$AAz?$AA?9?$AAA?$AAZ?$AA?9?$AAC?$AAy?$AAr?$AAl?$AA?$AA@ 300ab1a8     libucrt:lcidtoname_downlevel.obj
 0002:000211c0       ??_C@_1M@KEJDAAHB@?$AAs?$AAe?$AA?9?$AAS?$AAE?$AA?$AA@ 300ab1c0     libucrt:lcidtoname_downlevel.obj
 0002:000211cc       ??_C@_1M@HEIBJJAD@?$AAm?$AAs?$AA?9?$AAB?$AAN?$AA?$AA@ 300ab1cc     libucrt:lcidtoname_downlevel.obj
 0002:000211d8       ??_C@_1BG@PBGJMCEM@?$AAu?$AAz?$AA?9?$AAU?$AAZ?$AA?9?$AAC?$AAy?$AAr?$AAl?$AA?$AA@ 300ab1d8     libucrt:lcidtoname_downlevel.obj
 0002:000211f0       ??_C@_1O@LAOBCMDF@?$AAq?$AAu?$AAz?$AA?9?$AAE?$AAC?$AA?$AA@ 300ab1f0     libucrt:lcidtoname_downlevel.obj
 0002:00021200       ??_C@_1M@POEEMAIO@?$AAa?$AAr?$AA?9?$AAE?$AAG?$AA?$AA@ 300ab200     libucrt:lcidtoname_downlevel.obj
 0002:0002120c       ??_C@_1M@EFAKDEDL@?$AAz?$AAh?$AA?9?$AAH?$AAK?$AA?$AA@ 300ab20c     libucrt:lcidtoname_downlevel.obj
 0002:00021218       ??_C@_1M@HKKIJHGI@?$AAd?$AAe?$AA?9?$AAA?$AAT?$AA?$AA@ 300ab218     libucrt:lcidtoname_downlevel.obj
 0002:00021224       ??_C@_1M@KBFBEHJF@?$AAe?$AAn?$AA?9?$AAA?$AAU?$AA?$AA@ 300ab224     libucrt:lcidtoname_downlevel.obj
 0002:00021230       ??_C@_1M@MNPLFAAH@?$AAe?$AAs?$AA?9?$AAE?$AAS?$AA?$AA@ 300ab230     libucrt:lcidtoname_downlevel.obj
 0002:0002123c       ??_C@_1M@HJOOJFMA@?$AAf?$AAr?$AA?9?$AAC?$AAA?$AA?$AA@ 300ab23c     libucrt:lcidtoname_downlevel.obj
 0002:00021248       ??_C@_1BG@JPOFPNAB@?$AAs?$AAr?$AA?9?$AAS?$AAP?$AA?9?$AAC?$AAy?$AAr?$AAl?$AA?$AA@ 300ab248     libucrt:lcidtoname_downlevel.obj
 0002:00021260       ??_C@_1M@LNFOCMOB@?$AAs?$AAe?$AA?9?$AAF?$AAI?$AA?$AA@ 300ab260     libucrt:lcidtoname_downlevel.obj
 0002:0002126c       ??_C@_1O@MGJBOAMB@?$AAq?$AAu?$AAz?$AA?9?$AAP?$AAE?$AA?$AA@ 300ab26c     libucrt:lcidtoname_downlevel.obj
 0002:0002127c       ??_C@_1M@GJINLBOK@?$AAa?$AAr?$AA?9?$AAL?$AAY?$AA?$AA@ 300ab27c     libucrt:lcidtoname_downlevel.obj
 0002:00021288       ??_C@_1M@GGMNHJNL@?$AAz?$AAh?$AA?9?$AAS?$AAG?$AA?$AA@ 300ab288     libucrt:lcidtoname_downlevel.obj
 0002:00021294       ??_C@_1M@HOIKODND@?$AAd?$AAe?$AA?9?$AAL?$AAU?$AA?$AA@ 300ab294     libucrt:lcidtoname_downlevel.obj
 0002:000212a0       ??_C@_1M@DDOCCGFG@?$AAe?$AAn?$AA?9?$AAC?$AAA?$AA?$AA@ 300ab2a0     libucrt:lcidtoname_downlevel.obj
 0002:000212ac       ??_C@_1M@BNOEMJLF@?$AAe?$AAs?$AA?9?$AAG?$AAT?$AA?$AA@ 300ab2ac     libucrt:lcidtoname_downlevel.obj
 0002:000212b8       ??_C@_1M@EOGNKEK@?$AAf?$AAr?$AA?9?$AAC?$AAH?$AA?$AA@ 300ab2b8     libucrt:lcidtoname_downlevel.obj
 0002:000212c4       ??_C@_1M@FLIDJFHL@?$AAh?$AAr?$AA?9?$AAB?$AAA?$AA?$AA@ 300ab2c4     libucrt:lcidtoname_downlevel.obj
 0002:000212d0       ??_C@_1O@FMCELNAJ@?$AAs?$AAm?$AAj?$AA?9?$AAN?$AAO?$AA?$AA@ 300ab2d0     libucrt:lcidtoname_downlevel.obj
 0002:000212e0       ??_C@_1M@JHGLJMGJ@?$AAa?$AAr?$AA?9?$AAD?$AAZ?$AA?$AA@ 300ab2e0     libucrt:lcidtoname_downlevel.obj
 0002:000212ec       ??_C@_1M@JKKFDCNP@?$AAz?$AAh?$AA?9?$AAM?$AAO?$AA?$AA@ 300ab2ec     libucrt:lcidtoname_downlevel.obj
 0002:000212f8       ??_C@_1M@GEEFALPE@?$AAd?$AAe?$AA?9?$AAL?$AAI?$AA?$AA@ 300ab2f8     libucrt:lcidtoname_downlevel.obj
 0002:00021304       ??_C@_1M@IGEOFBG@?$AAe?$AAn?$AA?9?$AAN?$AAZ?$AA?$AA@ 300ab304     libucrt:lcidtoname_downlevel.obj
 0002:00021310       ??_C@_1M@KDBONEHP@?$AAe?$AAs?$AA?9?$AAC?$AAR?$AA?$AA@ 300ab310     libucrt:lcidtoname_downlevel.obj
 0002:0002131c       ??_C@_1M@FHMDOHNN@?$AAf?$AAr?$AA?9?$AAL?$AAU?$AA?$AA@ 300ab31c     libucrt:lcidtoname_downlevel.obj
 0002:00021328       ??_C@_1BG@NFKKMAFG@?$AAb?$AAs?$AA?9?$AAB?$AAA?$AA?9?$AAL?$AAa?$AAt?$AAn?$AA?$AA@ 300ab328     libucrt:lcidtoname_downlevel.obj
 0002:00021340       ??_C@_1O@IMNBEMCI@?$AAs?$AAm?$AAj?$AA?9?$AAS?$AAE?$AA?$AA@ 300ab340     libucrt:lcidtoname_downlevel.obj
 0002:00021350       ??_C@_1M@DHHMBNDP@?$AAa?$AAr?$AA?9?$AAM?$AAA?$AA?$AA@ 300ab350     libucrt:lcidtoname_downlevel.obj
 0002:0002135c       ??_C@_1M@BNBLJCGH@?$AAe?$AAn?$AA?9?$AAI?$AAE?$AA?$AA@ 300ab35c     libucrt:lcidtoname_downlevel.obj
 0002:00021368       ??_C@_1M@GEPAFMDL@?$AAe?$AAs?$AA?9?$AAP?$AAA?$AA?$AA@ 300ab368     libucrt:lcidtoname_downlevel.obj
 0002:00021374       ??_C@_1M@OJONDMDL@?$AAf?$AAr?$AA?9?$AAM?$AAC?$AA?$AA@ 300ab374     libucrt:lcidtoname_downlevel.obj
 0002:00021380       ??_C@_1BG@OBCNFJB@?$AAs?$AAr?$AA?9?$AAB?$AAA?$AA?9?$AAL?$AAa?$AAt?$AAn?$AA?$AA@ 300ab380     libucrt:lcidtoname_downlevel.obj
 0002:00021398       ??_C@_1O@KEMEEGPO@?$AAs?$AAm?$AAa?$AA?9?$AAN?$AAO?$AA?$AA@ 300ab398     libucrt:lcidtoname_downlevel.obj
 0002:000213a8       ??_C@_1M@ELMGFODK@?$AAa?$AAr?$AA?9?$AAT?$AAN?$AA?$AA@ 300ab3a8     libucrt:lcidtoname_downlevel.obj
 0002:000213b4       ??_C@_1M@BHDLHFAF@?$AAe?$AAn?$AA?9?$AAZ?$AAA?$AA?$AA@ 300ab3b4     libucrt:lcidtoname_downlevel.obj
 0002:000213c0       ??_C@_1M@BMGIGLIF@?$AAe?$AAs?$AA?9?$AAD?$AAO?$AA?$AA@ 300ab3c0     libucrt:lcidtoname_downlevel.obj
 0002:000213cc       ??_C@_1BG@CMBHIPBE@?$AAs?$AAr?$AA?9?$AAB?$AAA?$AA?9?$AAC?$AAy?$AAr?$AAl?$AA?$AA@ 300ab3cc     libucrt:lcidtoname_downlevel.obj
 0002:000213e4       ??_C@_1O@HEDBLHNP@?$AAs?$AAm?$AAa?$AA?9?$AAS?$AAE?$AA?$AA@ 300ab3e4     libucrt:lcidtoname_downlevel.obj
 0002:000213f4       ??_C@_1M@DAGCADIM@?$AAa?$AAr?$AA?9?$AAO?$AAM?$AA?$AA@ 300ab3f4     libucrt:lcidtoname_downlevel.obj
 0002:00021400       ??_C@_1M@FODLMICG@?$AAe?$AAn?$AA?9?$AAJ?$AAM?$AA?$AA@ 300ab400     libucrt:lcidtoname_downlevel.obj
 0002:0002140c       ??_C@_1M@DNMLCIHB@?$AAe?$AAs?$AA?9?$AAV?$AAE?$AA?$AA@ 300ab40c     libucrt:lcidtoname_downlevel.obj
 0002:00021418       ??_C@_1O@EOKHMKJK@?$AAs?$AAm?$AAs?$AA?9?$AAF?$AAI?$AA?$AA@ 300ab418     libucrt:lcidtoname_downlevel.obj
 0002:00021428       ??_C@_1M@CAFJMKOF@?$AAa?$AAr?$AA?9?$AAY?$AAE?$AA?$AA@ 300ab428     libucrt:lcidtoname_downlevel.obj
 0002:00021434       ??_C@_1M@CBFHIJLI@?$AAe?$AAn?$AA?9?$AAC?$AAB?$AA?$AA@ 300ab434     libucrt:lcidtoname_downlevel.obj
 0002:00021440       ??_C@_1M@BGNFLDN@?$AAe?$AAs?$AA?9?$AAC?$AAO?$AA?$AA@ 300ab440     libucrt:lcidtoname_downlevel.obj
 0002:0002144c       ??_C@_1O@JMPHMAMC@?$AAs?$AAm?$AAn?$AA?9?$AAF?$AAI?$AA?$AA@ 300ab44c     libucrt:lcidtoname_downlevel.obj
 0002:0002145c       ??_C@_1M@JLANABKE@?$AAa?$AAr?$AA?9?$AAS?$AAY?$AA?$AA@ 300ab45c     libucrt:lcidtoname_downlevel.obj
 0002:00021468       ??_C@_1M@HPKGCFGN@?$AAe?$AAn?$AA?9?$AAB?$AAZ?$AA?$AA@ 300ab468     libucrt:lcidtoname_downlevel.obj
 0002:00021474       ??_C@_1M@OLJCMLGM@?$AAe?$AAs?$AA?9?$AAP?$AAE?$AA?$AA@ 300ab474     libucrt:lcidtoname_downlevel.obj
 0002:00021480       ??_C@_1M@MKKGFKLE@?$AAa?$AAr?$AA?9?$AAJ?$AAO?$AA?$AA@ 300ab480     libucrt:lcidtoname_downlevel.obj
 0002:0002148c       ??_C@_1M@EKPGLDNI@?$AAe?$AAn?$AA?9?$AAT?$AAT?$AA?$AA@ 300ab48c     libucrt:lcidtoname_downlevel.obj
 0002:00021498       ??_C@_1M@OONGHFHE@?$AAe?$AAs?$AA?9?$AAA?$AAR?$AA?$AA@ 300ab498     libucrt:lcidtoname_downlevel.obj
 0002:000214a4       ??_C@_1M@OOJFGBHE@?$AAa?$AAr?$AA?9?$AAL?$AAB?$AA?$AA@ 300ab4a4     libucrt:lcidtoname_downlevel.obj
 0002:000214b0       ??_C@_1M@GCEJHNEG@?$AAe?$AAn?$AA?9?$AAZ?$AAW?$AA?$AA@ 300ab4b0     libucrt:lcidtoname_downlevel.obj
 0002:000214bc       ??_C@_1M@JNOCAHJI@?$AAe?$AAs?$AA?9?$AAE?$AAC?$AA?$AA@ 300ab4bc     libucrt:lcidtoname_downlevel.obj
 0002:000214c8       ??_C@_1M@JEFHPGGB@?$AAa?$AAr?$AA?9?$AAK?$AAW?$AA?$AA@ 300ab4c8     libucrt:lcidtoname_downlevel.obj
 0002:000214d4       ??_C@_1M@MLKIBJOJ@?$AAe?$AAn?$AA?9?$AAP?$AAH?$AA?$AA@ 300ab4d4     libucrt:lcidtoname_downlevel.obj
 0002:000214e0       ??_C@_1M@BDNIPEND@?$AAe?$AAs?$AA?9?$AAC?$AAL?$AA?$AA@ 300ab4e0     libucrt:lcidtoname_downlevel.obj
 0002:000214ec       ??_C@_1M@MPNMEKBD@?$AAa?$AAr?$AA?9?$AAA?$AAE?$AA?$AA@ 300ab4ec     libucrt:lcidtoname_downlevel.obj
 0002:000214f8       ??_C@_1M@KBJALCPI@?$AAe?$AAs?$AA?9?$AAU?$AAY?$AA?$AA@ 300ab4f8     libucrt:lcidtoname_downlevel.obj
 0002:00021504       ??_C@_1M@LLCCOAGA@?$AAa?$AAr?$AA?9?$AAB?$AAH?$AA?$AA@ 300ab504     libucrt:lcidtoname_downlevel.obj
 0002:00021510       ??_C@_1M@PBFNCDEL@?$AAe?$AAs?$AA?9?$AAP?$AAY?$AA?$AA@ 300ab510     libucrt:lcidtoname_downlevel.obj
 0002:0002151c       ??_C@_1M@EDGINPNP@?$AAa?$AAr?$AA?9?$AAQ?$AAA?$AA?$AA@ 300ab51c     libucrt:lcidtoname_downlevel.obj
 0002:00021528       ??_C@_1M@MKDBIIJI@?$AAe?$AAs?$AA?9?$AAB?$AAO?$AA?$AA@ 300ab528     libucrt:lcidtoname_downlevel.obj
 0002:00021534       ??_C@_1M@CPKKEBLD@?$AAe?$AAs?$AA?9?$AAS?$AAV?$AA?$AA@ 300ab534     libucrt:lcidtoname_downlevel.obj
 0002:00021540       ??_C@_1M@NDBGMMJL@?$AAe?$AAs?$AA?9?$AAH?$AAN?$AA?$AA@ 300ab540     libucrt:lcidtoname_downlevel.obj
 0002:0002154c       ??_C@_1M@JIJIBHDP@?$AAe?$AAs?$AA?9?$AAN?$AAI?$AA?$AA@ 300ab54c     libucrt:lcidtoname_downlevel.obj
 0002:00021558       ??_C@_1M@CGFMKEEK@?$AAe?$AAs?$AA?9?$AAP?$AAR?$AA?$AA@ 300ab558     libucrt:lcidtoname_downlevel.obj
 0002:00021564       ??_C@_1O@ICJHKIIK@?$AAz?$AAh?$AA?9?$AAC?$AAH?$AAT?$AA?$AA@ 300ab564     libucrt:lcidtoname_downlevel.obj
 0002:00021574       ??_C@_15CLNEJCE@?$AAs?$AAr?$AA?$AA@ 300ab574     libucrt:lcidtoname_downlevel.obj
 0002:00021ca0       ??_C@_1M@KAHEKEIG@?$AAa?$AAf?$AA?9?$AAz?$AAa?$AA?$AA@ 300abca0     libucrt:lcidtoname_downlevel.obj
 0002:00021cac       ??_C@_1M@GIECOABL@?$AAa?$AAr?$AA?9?$AAa?$AAe?$AA?$AA@ 300abcac     libucrt:lcidtoname_downlevel.obj
 0002:00021cb8       ??_C@_1M@BMLMEKGI@?$AAa?$AAr?$AA?9?$AAb?$AAh?$AA?$AA@ 300abcb8     libucrt:lcidtoname_downlevel.obj
 0002:00021cc4       ??_C@_1M@DAPFDGGB@?$AAa?$AAr?$AA?9?$AAd?$AAz?$AA?$AA@ 300abcc4     libucrt:lcidtoname_downlevel.obj
 0002:00021cd0       ??_C@_1M@FJNKGKIG@?$AAa?$AAr?$AA?9?$AAe?$AAg?$AA?$AA@ 300abcd0     libucrt:lcidtoname_downlevel.obj
 0002:00021cdc       ??_C@_1M@FLGKKCLO@?$AAa?$AAr?$AA?9?$AAi?$AAq?$AA?$AA@ 300abcdc     libucrt:lcidtoname_downlevel.obj
 0002:00021ce8       ??_C@_1M@GNDIPALM@?$AAa?$AAr?$AA?9?$AAj?$AAo?$AA?$AA@ 300abce8     libucrt:lcidtoname_downlevel.obj
 0002:00021cf4       ??_C@_1M@DDMJFMGJ@?$AAa?$AAr?$AA?9?$AAk?$AAw?$AA?$AA@ 300abcf4     libucrt:lcidtoname_downlevel.obj
 0002:00021d00       ??_C@_1M@EJALMLHM@?$AAa?$AAr?$AA?9?$AAl?$AAb?$AA?$AA@ 300abd00     libucrt:lcidtoname_downlevel.obj
 0002:00021d0c       ??_C@_1M@MOBDBLOC@?$AAa?$AAr?$AA?9?$AAl?$AAy?$AA?$AA@ 300abd0c     libucrt:lcidtoname_downlevel.obj
 0002:00021d18       ??_C@_1M@JAOCLHDH@?$AAa?$AAr?$AA?9?$AAm?$AAa?$AA?$AA@ 300abd18     libucrt:lcidtoname_downlevel.obj
 0002:00021d24       ??_C@_1M@JHPMKJIE@?$AAa?$AAr?$AA?9?$AAo?$AAm?$AA?$AA@ 300abd24     libucrt:lcidtoname_downlevel.obj
 0002:00021d30       ??_C@_1M@OEPGHFNH@?$AAa?$AAr?$AA?9?$AAq?$AAa?$AA?$AA@ 300abd30     libucrt:lcidtoname_downlevel.obj
 0002:00021d3c       ??_C@_1M@KJDONENM@?$AAa?$AAr?$AA?9?$AAs?$AAa?$AA?$AA@ 300abd3c     libucrt:lcidtoname_downlevel.obj
 0002:00021d48       ??_C@_1M@DMJDKLKM@?$AAa?$AAr?$AA?9?$AAs?$AAy?$AA?$AA@ 300abd48     libucrt:lcidtoname_downlevel.obj
 0002:00021d54       ??_C@_1M@OMFIPEDC@?$AAa?$AAr?$AA?9?$AAt?$AAn?$AA?$AA@ 300abd54     libucrt:lcidtoname_downlevel.obj
 0002:00021d60       ??_C@_1M@IHMHGAON@?$AAa?$AAr?$AA?9?$AAy?$AAe?$AA?$AA@ 300abd60     libucrt:lcidtoname_downlevel.obj
 0002:00021d6c       ??_C@_1BG@KDCPGJGB@?$AAa?$AAz?$AA?9?$AAa?$AAz?$AA?9?$AAc?$AAy?$AAr?$AAl?$AA?$AA@ 300abd6c     libucrt:lcidtoname_downlevel.obj
 0002:00021d84       ??_C@_1BG@IBCKDDOE@?$AAa?$AAz?$AA?9?$AAa?$AAz?$AA?9?$AAl?$AAa?$AAt?$AAn?$AA?$AA@ 300abd84     libucrt:lcidtoname_downlevel.obj
 0002:00021d9c       ??_C@_1M@EGPFDCPD@?$AAb?$AAe?$AA?9?$AAb?$AAy?$AA?$AA@ 300abd9c     libucrt:lcidtoname_downlevel.obj
 0002:00021da8       ??_C@_1M@PCMGMCGC@?$AAb?$AAg?$AA?9?$AAb?$AAg?$AA?$AA@ 300abda8     libucrt:lcidtoname_downlevel.obj
 0002:00021db4       ??_C@_1M@BJBMFGOB@?$AAb?$AAn?$AA?9?$AAi?$AAn?$AA?$AA@ 300abdb4     libucrt:lcidtoname_downlevel.obj
 0002:00021dc0       ??_C@_1BG@EAKMMACD@?$AAb?$AAs?$AA?9?$AAb?$AAa?$AA?9?$AAl?$AAa?$AAt?$AAn?$AA?$AA@ 300abdc0     libucrt:lcidtoname_downlevel.obj
 0002:00021dd8       ??_C@_1M@KGADAODK@?$AAc?$AAa?$AA?9?$AAe?$AAs?$AA?$AA@ 300abdd8     libucrt:lcidtoname_downlevel.obj
 0002:00021de4       ??_C@_1M@COAJPDHI@?$AAc?$AAs?$AA?9?$AAc?$AAz?$AA?$AA@ 300abde4     libucrt:lcidtoname_downlevel.obj
 0002:00021df0       ??_C@_1M@DHBHFONH@?$AAc?$AAy?$AA?9?$AAg?$AAb?$AA?$AA@ 300abdf0     libucrt:lcidtoname_downlevel.obj
 0002:00021dfc       ??_C@_1M@IMGKELGA@?$AAd?$AAa?$AA?9?$AAd?$AAk?$AA?$AA@ 300abdfc     libucrt:lcidtoname_downlevel.obj
 0002:00021e08       ??_C@_1M@NNDGDNGA@?$AAd?$AAe?$AA?9?$AAa?$AAt?$AA?$AA@ 300abe08     libucrt:lcidtoname_downlevel.obj
 0002:00021e14       ??_C@_1M@IKDBHEEM@?$AAd?$AAe?$AA?9?$AAc?$AAh?$AA?$AA@ 300abe14     libucrt:lcidtoname_downlevel.obj
 0002:00021e20       ??_C@_1M@GFFOJMCJ@?$AAd?$AAe?$AA?9?$AAd?$AAe?$AA?$AA@ 300abe20     libucrt:lcidtoname_downlevel.obj
 0002:00021e2c       ??_C@_1M@MDNLKBPM@?$AAd?$AAe?$AA?9?$AAl?$AAi?$AA?$AA@ 300abe2c     libucrt:lcidtoname_downlevel.obj
 0002:00021e38       ??_C@_1M@NJBEEJNL@?$AAd?$AAe?$AA?9?$AAl?$AAu?$AA?$AA@ 300abe38     libucrt:lcidtoname_downlevel.obj
 0002:00021e44       ??_C@_1O@GNNELBAP@?$AAd?$AAi?$AAv?$AA?9?$AAm?$AAv?$AA?$AA@ 300abe44     libucrt:lcidtoname_downlevel.obj
 0002:00021e54       ??_C@_1M@EJLEOGAE@?$AAe?$AAl?$AA?9?$AAg?$AAr?$AA?$AA@ 300abe54     libucrt:lcidtoname_downlevel.obj
 0002:00021e60       ??_C@_1M@GMPONJN@?$AAe?$AAn?$AA?9?$AAa?$AAu?$AA?$AA@ 300abe60     libucrt:lcidtoname_downlevel.obj
 0002:00021e6c       ??_C@_1M@NIDIIPGF@?$AAe?$AAn?$AA?9?$AAb?$AAz?$AA?$AA@ 300abe6c     libucrt:lcidtoname_downlevel.obj
 0002:00021e78       ??_C@_1M@JEHMIMFO@?$AAe?$AAn?$AA?9?$AAc?$AAa?$AA?$AA@ 300abe78     libucrt:lcidtoname_downlevel.obj
 0002:00021e84       ??_C@_1M@IGMJCDLA@?$AAe?$AAn?$AA?9?$AAc?$AAb?$AA?$AA@ 300abe84     libucrt:lcidtoname_downlevel.obj
 0002:00021e90       ??_C@_1M@BNFIGBKG@?$AAe?$AAn?$AA?9?$AAg?$AAb?$AA?$AA@ 300abe90     libucrt:lcidtoname_downlevel.obj
 0002:00021e9c       ??_C@_1M@LKIFDIGP@?$AAe?$AAn?$AA?9?$AAi?$AAe?$AA?$AA@ 300abe9c     libucrt:lcidtoname_downlevel.obj
 0002:00021ea8       ??_C@_1M@PJKFGCCO@?$AAe?$AAn?$AA?9?$AAj?$AAm?$AA?$AA@ 300abea8     libucrt:lcidtoname_downlevel.obj
 0002:00021eb4       ??_C@_1M@KPPKEPBO@?$AAe?$AAn?$AA?9?$AAn?$AAz?$AA?$AA@ 300abeb4     libucrt:lcidtoname_downlevel.obj
 0002:00021ec0       ??_C@_1M@GMDGLDOB@?$AAe?$AAn?$AA?9?$AAp?$AAh?$AA?$AA@ 300abec0     libucrt:lcidtoname_downlevel.obj
 0002:00021ecc       ??_C@_1M@ONGIBJNA@?$AAe?$AAn?$AA?9?$AAt?$AAt?$AA?$AA@ 300abecc     libucrt:lcidtoname_downlevel.obj
 0002:00021ed8       ??_C@_1M@LLODPCMM@?$AAe?$AAn?$AA?9?$AAu?$AAs?$AA?$AA@ 300abed8     libucrt:lcidtoname_downlevel.obj
 0002:00021ee4       ??_C@_1M@LAKFNPAN@?$AAe?$AAn?$AA?9?$AAz?$AAa?$AA?$AA@ 300abee4     libucrt:lcidtoname_downlevel.obj
 0002:00021ef0       ??_C@_1M@MFNHNHEO@?$AAe?$AAn?$AA?9?$AAz?$AAw?$AA?$AA@ 300abef0     libucrt:lcidtoname_downlevel.obj
 0002:00021efc       ??_C@_1M@EJEINPHM@?$AAe?$AAs?$AA?9?$AAa?$AAr?$AA?$AA@ 300abefc     libucrt:lcidtoname_downlevel.obj
 0002:00021f08       ??_C@_1M@GNKPCCJA@?$AAe?$AAs?$AA?9?$AAb?$AAo?$AA?$AA@ 300abf08     libucrt:lcidtoname_downlevel.obj
 0002:00021f14       ??_C@_1M@LEEGFONL@?$AAe?$AAs?$AA?9?$AAc?$AAl?$AA?$AA@ 300abf14     libucrt:lcidtoname_downlevel.obj
 0002:00021f20       ??_C@_1M@KGPDPBDF@?$AAe?$AAs?$AA?9?$AAc?$AAo?$AA?$AA@ 300abf20     libucrt:lcidtoname_downlevel.obj
 0002:00021f2c       ??_C@_1M@EIAHOHH@?$AAe?$AAs?$AA?9?$AAc?$AAr?$AA?$AA@ 300abf2c     libucrt:lcidtoname_downlevel.obj
 0002:00021f38       ??_C@_1M@LLPGMBIN@?$AAe?$AAs?$AA?9?$AAd?$AAo?$AA?$AA@ 300abf38     libucrt:lcidtoname_downlevel.obj
 0002:00021f44       ??_C@_1M@DKHMKNJA@?$AAe?$AAs?$AA?9?$AAe?$AAc?$AA?$AA@ 300abf44     libucrt:lcidtoname_downlevel.obj
 0002:00021f50       ??_C@_1M@GKGFPKAP@?$AAe?$AAs?$AA?9?$AAe?$AAs?$AA?$AA@ 300abf50     libucrt:lcidtoname_downlevel.obj
 0002:00021f5c       ??_C@_1M@LKHKGDLN@?$AAe?$AAs?$AA?9?$AAg?$AAt?$AA?$AA@ 300abf5c     libucrt:lcidtoname_downlevel.obj
 0002:00021f68       ??_C@_1M@HEIIGGJD@?$AAe?$AAs?$AA?9?$AAh?$AAn?$AA?$AA@ 300abf68     libucrt:lcidtoname_downlevel.obj
 0002:00021f74       ??_C@_1M@FBDHPPGD@?$AAe?$AAs?$AA?9?$AAm?$AAx?$AA?$AA@ 300abf74     libucrt:lcidtoname_downlevel.obj
 0002:00021f80       ??_C@_1M@DPAGLNDH@?$AAe?$AAs?$AA?9?$AAn?$AAi?$AA?$AA@ 300abf80     libucrt:lcidtoname_downlevel.obj
 0002:00021f8c       ??_C@_1M@MDGOPGDD@?$AAe?$AAs?$AA?9?$AAp?$AAa?$AA?$AA@ 300abf8c     libucrt:lcidtoname_downlevel.obj
 0002:00021f98       ??_C@_1M@EMAMGBGE@?$AAe?$AAs?$AA?9?$AAp?$AAe?$AA?$AA@ 300abf98     libucrt:lcidtoname_downlevel.obj
 0002:00021fa4       ??_C@_1M@IBMCAOEC@?$AAe?$AAs?$AA?9?$AAp?$AAr?$AA?$AA@ 300abfa4     libucrt:lcidtoname_downlevel.obj
 0002:00021fb0       ??_C@_1M@FGMDIJED@?$AAe?$AAs?$AA?9?$AAp?$AAy?$AA?$AA@ 300abfb0     libucrt:lcidtoname_downlevel.obj
 0002:00021fbc       ??_C@_1M@IIDEOLLL@?$AAe?$AAs?$AA?9?$AAs?$AAv?$AA?$AA@ 300abfbc     libucrt:lcidtoname_downlevel.obj
 0002:00021fc8       ??_C@_1M@GAOBIPA@?$AAe?$AAs?$AA?9?$AAu?$AAy?$AA?$AA@ 300abfc8     libucrt:lcidtoname_downlevel.obj
 0002:00021fd4       ??_C@_1M@JKFFICHJ@?$AAe?$AAs?$AA?9?$AAv?$AAe?$AA?$AA@ 300abfd4     libucrt:lcidtoname_downlevel.obj
 0002:00021fe0       ??_C@_1M@PNMLOJDF@?$AAe?$AAt?$AA?9?$AAe?$AAe?$AA?$AA@ 300abfe0     libucrt:lcidtoname_downlevel.obj
 0002:00021fec       ??_C@_1M@GHHLIKEI@?$AAe?$AAu?$AA?9?$AAe?$AAs?$AA?$AA@ 300abfec     libucrt:lcidtoname_downlevel.obj
 0002:00021ff8       ??_C@_1M@PBNONODE@?$AAf?$AAa?$AA?9?$AAi?$AAr?$AA?$AA@ 300abff8     libucrt:lcidtoname_downlevel.obj
 0002:00022004       ??_C@_1M@JEEHPMIL@?$AAf?$AAi?$AA?9?$AAf?$AAi?$AA?$AA@ 300ac004     libucrt:lcidtoname_downlevel.obj
 0002:00022010       ??_C@_1M@LMDCNDBA@?$AAf?$AAo?$AA?9?$AAf?$AAo?$AA?$AA@ 300ac010     libucrt:lcidtoname_downlevel.obj
 0002:0002201c       ??_C@_1M@JKEOHLDK@?$AAf?$AAr?$AA?9?$AAb?$AAe?$AA?$AA@ 300ac01c     libucrt:lcidtoname_downlevel.obj
 0002:00022028       ??_C@_1M@NOHADPMI@?$AAf?$AAr?$AA?9?$AAc?$AAa?$AA?$AA@ 300ac028     libucrt:lcidtoname_downlevel.obj
 0002:00022034       ??_C@_1M@KDHIHAEC@?$AAf?$AAr?$AA?9?$AAc?$AAh?$AA?$AA@ 300ac034     libucrt:lcidtoname_downlevel.obj
 0002:00022040       ??_C@_1M@MMBBFGAK@?$AAf?$AAr?$AA?9?$AAf?$AAr?$AA?$AA@ 300ac040     libucrt:lcidtoname_downlevel.obj
 0002:0002204c       ??_C@_1M@PAFNENNF@?$AAf?$AAr?$AA?9?$AAl?$AAu?$AA?$AA@ 300ac04c     libucrt:lcidtoname_downlevel.obj
 0002:00022058       ??_C@_1M@EOHDJGDD@?$AAf?$AAr?$AA?9?$AAm?$AAc?$AA?$AA@ 300ac058     libucrt:lcidtoname_downlevel.obj
 0002:00022064       ??_C@_1M@FAPLLOPF@?$AAg?$AAl?$AA?9?$AAe?$AAs?$AA?$AA@ 300ac064     libucrt:lcidtoname_downlevel.obj
 0002:00022070       ??_C@_1M@FOPBFLOO@?$AAg?$AAu?$AA?9?$AAi?$AAn?$AA?$AA@ 300ac070     libucrt:lcidtoname_downlevel.obj
 0002:0002207c       ??_C@_1M@KBMCINPM@?$AAh?$AAe?$AA?9?$AAi?$AAl?$AA?$AA@ 300ac07c     libucrt:lcidtoname_downlevel.obj
 0002:00022088       ??_C@_1M@BBPHKFPJ@?$AAh?$AAi?$AA?9?$AAi?$AAn?$AA?$AA@ 300ac088     libucrt:lcidtoname_downlevel.obj
 0002:00022094       ??_C@_1M@PMBNDPHD@?$AAh?$AAr?$AA?9?$AAb?$AAa?$AA?$AA@ 300ac094     libucrt:lcidtoname_downlevel.obj
 0002:000220a0       ??_C@_1M@BPCKOEGE@?$AAh?$AAr?$AA?9?$AAh?$AAr?$AA?$AA@ 300ac0a0     libucrt:lcidtoname_downlevel.obj
 0002:000220ac       ??_C@_1M@GACBMHKE@?$AAh?$AAu?$AA?9?$AAh?$AAu?$AA?$AA@ 300ac0ac     libucrt:lcidtoname_downlevel.obj
 0002:000220b8       ??_C@_1M@MILPAJJC@?$AAh?$AAy?$AA?9?$AAa?$AAm?$AA?$AA@ 300ac0b8     libucrt:lcidtoname_downlevel.obj
 0002:000220c4       ??_C@_1M@BABBICEC@?$AAi?$AAd?$AA?9?$AAi?$AAd?$AA?$AA@ 300ac0c4     libucrt:lcidtoname_downlevel.obj
 0002:000220d0       ??_C@_1M@BIKNHHPF@?$AAi?$AAs?$AA?9?$AAi?$AAs?$AA?$AA@ 300ac0d0     libucrt:lcidtoname_downlevel.obj
 0002:000220dc       ??_C@_1M@NMPCJPHE@?$AAi?$AAt?$AA?9?$AAc?$AAh?$AA?$AA@ 300ac0dc     libucrt:lcidtoname_downlevel.obj
 0002:000220e8       ??_C@_1M@GHKGFEDF@?$AAi?$AAt?$AA?9?$AAi?$AAt?$AA?$AA@ 300ac0e8     libucrt:lcidtoname_downlevel.obj
 0002:000220f4       ??_C@_1M@NIEJCJJA@?$AAj?$AAa?$AA?9?$AAj?$AAp?$AA?$AA@ 300ac0f4     libucrt:lcidtoname_downlevel.obj
 0002:00022100       ??_C@_1M@JILFNBIM@?$AAk?$AAa?$AA?9?$AAg?$AAe?$AA?$AA@ 300ac100     libucrt:lcidtoname_downlevel.obj
 0002:0002210c       ??_C@_1M@PACPMGPH@?$AAk?$AAk?$AA?9?$AAk?$AAz?$AA?$AA@ 300ac10c     libucrt:lcidtoname_downlevel.obj
 0002:00022118       ??_C@_1M@IELFGMHA@?$AAk?$AAn?$AA?9?$AAi?$AAn?$AA?$AA@ 300ac118     libucrt:lcidtoname_downlevel.obj
 0002:00022124       ??_C@_1O@IBBJHCH@?$AAk?$AAo?$AAk?$AA?9?$AAi?$AAn?$AA?$AA@ 300ac124     libucrt:lcidtoname_downlevel.obj
 0002:00022134       ??_C@_1M@DMHAEOGC@?$AAk?$AAo?$AA?9?$AAk?$AAr?$AA?$AA@ 300ac134     libucrt:lcidtoname_downlevel.obj
 0002:00022140       ??_C@_1M@HBAHBIGA@?$AAk?$AAy?$AA?9?$AAk?$AAg?$AA?$AA@ 300ac140     libucrt:lcidtoname_downlevel.obj
 0002:0002214c       ??_C@_1M@KPMILCJG@?$AAl?$AAt?$AA?9?$AAl?$AAt?$AA?$AA@ 300ac14c     libucrt:lcidtoname_downlevel.obj
 0002:00022158       ??_C@_1M@BDEKKCA@?$AAl?$AAv?$AA?9?$AAl?$AAv?$AA?$AA@ 300ac158     libucrt:lcidtoname_downlevel.obj
 0002:00022164       ??_C@_1M@ELCKCCJJ@?$AAm?$AAi?$AA?9?$AAn?$AAz?$AA?$AA@ 300ac164     libucrt:lcidtoname_downlevel.obj
 0002:00022170       ??_C@_1M@CBOOLAPA@?$AAm?$AAk?$AA?9?$AAm?$AAk?$AA?$AA@ 300ac170     libucrt:lcidtoname_downlevel.obj
 0002:0002217c       ??_C@_1M@GPHNBJKN@?$AAm?$AAl?$AA?9?$AAi?$AAn?$AA?$AA@ 300ac17c     libucrt:lcidtoname_downlevel.obj
 0002:00022188       ??_C@_1M@PABJILIG@?$AAm?$AAn?$AA?9?$AAm?$AAn?$AA?$AA@ 300ac188     libucrt:lcidtoname_downlevel.obj
 0002:00022194       ??_C@_1M@FGBKKIPG@?$AAm?$AAr?$AA?9?$AAi?$AAn?$AA?$AA@ 300ac194     libucrt:lcidtoname_downlevel.obj
 0002:000221a0       ??_C@_1M@NDBPDDAL@?$AAm?$AAs?$AA?9?$AAb?$AAn?$AA?$AA@ 300ac1a0     libucrt:lcidtoname_downlevel.obj
 0002:000221ac       ??_C@_1M@OPIHOOPI@?$AAm?$AAs?$AA?9?$AAm?$AAy?$AA?$AA@ 300ac1ac     libucrt:lcidtoname_downlevel.obj
 0002:000221b8       ??_C@_1M@PPDBCNFM@?$AAm?$AAt?$AA?9?$AAm?$AAt?$AA?$AA@ 300ac1b8     libucrt:lcidtoname_downlevel.obj
 0002:000221c4       ??_C@_1M@KDJDKMDD@?$AAn?$AAb?$AA?9?$AAn?$AAo?$AA?$AA@ 300ac1c4     libucrt:lcidtoname_downlevel.obj
 0002:000221d0       ??_C@_1M@KFCFLMJP@?$AAn?$AAl?$AA?9?$AAb?$AAe?$AA?$AA@ 300ac1d0     libucrt:lcidtoname_downlevel.obj
 0002:000221dc       ??_C@_1M@KPOPDDGO@?$AAn?$AAl?$AA?9?$AAn?$AAl?$AA?$AA@ 300ac1dc     libucrt:lcidtoname_downlevel.obj
 0002:000221e8       ??_C@_1M@LJKPEMLN@?$AAn?$AAn?$AA?9?$AAn?$AAo?$AA?$AA@ 300ac1e8     libucrt:lcidtoname_downlevel.obj
 0002:000221f4       ??_C@_1M@BDGHHBFL@?$AAn?$AAs?$AA?9?$AAz?$AAa?$AA?$AA@ 300ac1f4     libucrt:lcidtoname_downlevel.obj
 0002:00022200       ??_C@_1M@IDEHOAP@?$AAp?$AAa?$AA?9?$AAi?$AAn?$AA?$AA@ 300ac200     libucrt:lcidtoname_downlevel.obj
 0002:0002220c       ??_C@_1M@HDBKGOGH@?$AAp?$AAl?$AA?9?$AAp?$AAl?$AA?$AA@ 300ac20c     libucrt:lcidtoname_downlevel.obj
 0002:00022218       ??_C@_1M@LJLLCMEH@?$AAp?$AAt?$AA?9?$AAb?$AAr?$AA?$AA@ 300ac218     libucrt:lcidtoname_downlevel.obj
 0002:00022224       ??_C@_1M@NCMONAAL@?$AAp?$AAt?$AA?9?$AAp?$AAt?$AA?$AA@ 300ac224     libucrt:lcidtoname_downlevel.obj
 0002:00022230       ??_C@_1O@EAKMAJDN@?$AAq?$AAu?$AAz?$AA?9?$AAb?$AAo?$AA?$AA@ 300ac230     libucrt:lcidtoname_downlevel.obj
 0002:00022240       ??_C@_1O@BHHPIGDN@?$AAq?$AAu?$AAz?$AA?9?$AAe?$AAc?$AA?$AA@ 300ac240     libucrt:lcidtoname_downlevel.obj
 0002:00022250       ??_C@_1O@GBAPEKMJ@?$AAq?$AAu?$AAz?$AA?9?$AAp?$AAe?$AA?$AA@ 300ac250     libucrt:lcidtoname_downlevel.obj
 0002:00022260       ??_C@_1M@CLGLEFBO@?$AAr?$AAo?$AA?9?$AAr?$AAo?$AA?$AA@ 300ac260     libucrt:lcidtoname_downlevel.obj
 0002:0002226c       ??_C@_1M@CEEDODME@?$AAr?$AAu?$AA?9?$AAr?$AAu?$AA?$AA@ 300ac26c     libucrt:lcidtoname_downlevel.obj
 0002:00022278       ??_C@_1M@HPKKKMPP@?$AAs?$AAa?$AA?9?$AAi?$AAn?$AA?$AA@ 300ac278     libucrt:lcidtoname_downlevel.obj
 0002:00022284       ??_C@_1M@BKMAIGOJ@?$AAs?$AAe?$AA?9?$AAf?$AAi?$AA?$AA@ 300ac284     libucrt:lcidtoname_downlevel.obj
 0002:00022290       ??_C@_1M@NDPIFLFI@?$AAs?$AAe?$AA?9?$AAn?$AAo?$AA?$AA@ 300ac290     libucrt:lcidtoname_downlevel.obj
 0002:0002229c       ??_C@_1M@DANKKHJ@?$AAs?$AAe?$AA?9?$AAs?$AAe?$AA?$AA@ 300ac29c     libucrt:lcidtoname_downlevel.obj
 0002:000222a8       ??_C@_1M@PNBLONPJ@?$AAs?$AAk?$AA?9?$AAs?$AAk?$AA?$AA@ 300ac2a8     libucrt:lcidtoname_downlevel.obj
 0002:000222b4       ??_C@_1M@LFMODOAL@?$AAs?$AAl?$AA?9?$AAs?$AAi?$AA?$AA@ 300ac2b4     libucrt:lcidtoname_downlevel.obj
 0002:000222c0       ??_C@_1O@DFKOMPG@?$AAs?$AAm?$AAa?$AA?9?$AAn?$AAo?$AA?$AA@ 300ac2c0     libucrt:lcidtoname_downlevel.obj
 0002:000222d0       ??_C@_1O@NDKPBNNH@?$AAs?$AAm?$AAa?$AA?9?$AAs?$AAe?$AA?$AA@ 300ac2d0     libucrt:lcidtoname_downlevel.obj
 0002:000222e0       ??_C@_1O@PLLKBHAB@?$AAs?$AAm?$AAj?$AA?9?$AAn?$AAo?$AA?$AA@ 300ac2e0     libucrt:lcidtoname_downlevel.obj
 0002:000222f0       ??_C@_1O@CLEPOGCA@?$AAs?$AAm?$AAj?$AA?9?$AAs?$AAe?$AA?$AA@ 300ac2f0     libucrt:lcidtoname_downlevel.obj
 0002:00022300       ??_C@_1O@DLGJGKMK@?$AAs?$AAm?$AAn?$AA?9?$AAf?$AAi?$AA?$AA@ 300ac300     libucrt:lcidtoname_downlevel.obj
 0002:00022310       ??_C@_1O@OJDJGAJC@?$AAs?$AAm?$AAs?$AA?9?$AAf?$AAi?$AA?$AA@ 300ac310     libucrt:lcidtoname_downlevel.obj
 0002:00022320       ??_C@_1M@BOFOGHPB@?$AAs?$AAq?$AA?9?$AAa?$AAl?$AA?$AA@ 300ac320     libucrt:lcidtoname_downlevel.obj
 0002:0002232c       ??_C@_1BG@LJBBIPGB@?$AAs?$AAr?$AA?9?$AAb?$AAa?$AA?9?$AAc?$AAy?$AAr?$AAl?$AA?$AA@ 300ac32c     libucrt:lcidtoname_downlevel.obj
 0002:00022344       ??_C@_1BG@JLBENFOE@?$AAs?$AAr?$AA?9?$AAb?$AAa?$AA?9?$AAl?$AAa?$AAt?$AAn?$AA?$AA@ 300ac344     libucrt:lcidtoname_downlevel.obj
 0002:0002235c       ??_C@_1BG@KODPNHE@?$AAs?$AAr?$AA?9?$AAs?$AAp?$AA?9?$AAc?$AAy?$AAr?$AAl?$AA?$AA@ 300ac35c     libucrt:lcidtoname_downlevel.obj
 0002:00022374       ??_C@_1BG@CIOGKHPB@?$AAs?$AAr?$AA?9?$AAs?$AAp?$AA?9?$AAl?$AAa?$AAt?$AAn?$AA?$AA@ 300ac374     libucrt:lcidtoname_downlevel.obj
 0002:0002238c       ??_C@_1M@NGFJLMAC@?$AAs?$AAv?$AA?9?$AAf?$AAi?$AA?$AA@ 300ac38c     libucrt:lcidtoname_downlevel.obj
 0002:00022398       ??_C@_1M@MPJEJAJC@?$AAs?$AAv?$AA?9?$AAs?$AAe?$AA?$AA@ 300ac398     libucrt:lcidtoname_downlevel.obj
 0002:000223a4       ??_C@_1M@MPNDHLFK@?$AAs?$AAw?$AA?9?$AAk?$AAe?$AA?$AA@ 300ac3a4     libucrt:lcidtoname_downlevel.obj
 0002:000223b0       ??_C@_1O@KOHBJJI@?$AAs?$AAy?$AAr?$AA?9?$AAs?$AAy?$AA?$AA@ 300ac3b0     libucrt:lcidtoname_downlevel.obj
 0002:000223c0       ??_C@_1M@LDCEFHA@?$AAt?$AAa?$AA?9?$AAi?$AAn?$AA?$AA@ 300ac3c0     libucrt:lcidtoname_downlevel.obj
 0002:000223cc       ??_C@_1M@CNJOFAK@?$AAt?$AAe?$AA?9?$AAi?$AAn?$AA?$AA@ 300ac3cc     libucrt:lcidtoname_downlevel.obj
 0002:000223d8       ??_C@_1M@GNAECACD@?$AAt?$AAh?$AA?9?$AAt?$AAh?$AA?$AA@ 300ac3d8     libucrt:lcidtoname_downlevel.obj
 0002:000223e4       ??_C@_1M@CHBIHOJO@?$AAt?$AAn?$AA?9?$AAz?$AAa?$AA?$AA@ 300ac3e4     libucrt:lcidtoname_downlevel.obj
 0002:000223f0       ??_C@_1M@GCCMIGPJ@?$AAt?$AAr?$AA?9?$AAt?$AAr?$AA?$AA@ 300ac3f0     libucrt:lcidtoname_downlevel.obj
 0002:000223fc       ??_C@_1M@CELMCNBK@?$AAt?$AAt?$AA?9?$AAr?$AAu?$AA?$AA@ 300ac3fc     libucrt:lcidtoname_downlevel.obj
 0002:00022408       ??_C@_1M@KLMCELGA@?$AAu?$AAk?$AA?9?$AAu?$AAa?$AA?$AA@ 300ac408     libucrt:lcidtoname_downlevel.obj
 0002:00022414       ??_C@_1M@EPAJJAJF@?$AAu?$AAr?$AA?9?$AAp?$AAk?$AA?$AA@ 300ac414     libucrt:lcidtoname_downlevel.obj
 0002:00022420       ??_C@_1BG@GEGPMCDJ@?$AAu?$AAz?$AA?9?$AAu?$AAz?$AA?9?$AAc?$AAy?$AAr?$AAl?$AA?$AA@ 300ac420     libucrt:lcidtoname_downlevel.obj
 0002:00022438       ??_C@_1BG@EGGKJILM@?$AAu?$AAz?$AA?9?$AAu?$AAz?$AA?9?$AAl?$AAa?$AAt?$AAn?$AA?$AA@ 300ac438     libucrt:lcidtoname_downlevel.obj
 0002:00022450       ??_C@_1M@GFOCLFF@?$AAv?$AAi?$AA?9?$AAv?$AAn?$AA?$AA@ 300ac450     libucrt:lcidtoname_downlevel.obj
 0002:0002245c       ??_C@_1M@CPAMEDFI@?$AAx?$AAh?$AA?9?$AAz?$AAa?$AA?$AA@ 300ac45c     libucrt:lcidtoname_downlevel.obj
 0002:00022468       ??_C@_1O@EBKIFIGN@?$AAz?$AAh?$AA?9?$AAc?$AAh?$AAs?$AA?$AA@ 300ac468     libucrt:lcidtoname_downlevel.obj
 0002:00022478       ??_C@_1O@NMHPGANE@?$AAz?$AAh?$AA?9?$AAc?$AAh?$AAt?$AA?$AA@ 300ac478     libucrt:lcidtoname_downlevel.obj
 0002:00022488       ??_C@_1M@LPINJOMC@?$AAz?$AAh?$AA?9?$AAc?$AAn?$AA?$AA@ 300ac488     libucrt:lcidtoname_downlevel.obj
 0002:00022494       ??_C@_1M@OCJEJODD@?$AAz?$AAh?$AA?9?$AAh?$AAk?$AA?$AA@ 300ac494     libucrt:lcidtoname_downlevel.obj
 0002:000224a0       ??_C@_1M@DNDLJINH@?$AAz?$AAh?$AA?9?$AAm?$AAo?$AA?$AA@ 300ac4a0     libucrt:lcidtoname_downlevel.obj
 0002:000224ac       ??_C@_1M@MBFDNDND@?$AAz?$AAh?$AA?9?$AAs?$AAg?$AA?$AA@ 300ac4ac     libucrt:lcidtoname_downlevel.obj
 0002:000224b8       ??_C@_1M@IMEPLEPE@?$AAz?$AAh?$AA?9?$AAt?$AAw?$AA?$AA@ 300ac4b8     libucrt:lcidtoname_downlevel.obj
 0002:000224c4       ??_C@_1M@BBGHNHJP@?$AAz?$AAu?$AA?9?$AAz?$AAa?$AA?$AA@ 300ac4c4     libucrt:lcidtoname_downlevel.obj
 0002:000225e0       ??_C@_1BA@BALFACEM@?$AAC?$AAO?$AAN?$AAO?$AAU?$AAT?$AA$?$AA?$AA@ 300ac5e0     libucrt:initcon.obj
 0002:000225f0       ___acrt_log10_table_t      300ac5f0     libucrt:log10_tables.obj
 0002:00022a00       ___acrt_log10_table_cb     300aca00     libucrt:log10_tables.obj
 0002:00022e68       __load_config_used         300ace68     LIBCMT:loadcfg.obj
 0002:00022ed0       ___safe_se_handler_table   300aced0     <linker-defined>
 0002:00022ee0       ?_TraceLoggingMetadata@?1??_TlgWrite@__vcrt_trace_logging_provider@@YAJPBU_TlgProvider_t@2@PBXPBU_GUID@@2IPAU_EVENT_DATA_DESCRIPTOR@@@Z@4U_TraceLoggingMetadata_t@2@B 300acee0     libvcruntime:telemetry.obj
 0002:00022f93       ?_TraceLoggingMetadataEnd@?1??_TlgWrite@__vcrt_trace_logging_provider@@YAJPBU_TlgProvider_t@2@PBXPBU_GUID@@2IPAU_EVENT_DATA_DESCRIPTOR@@@Z@4EB 300acf93     libvcruntime:telemetry.obj
 0002:00023300       ___rtc_iaa                 300ad300     LIBCMT:_initsect_.obj
 0002:00023304       ___rtc_izz                 300ad304     LIBCMT:_initsect_.obj
 0002:00023308       ___rtc_taa                 300ad308     LIBCMT:_initsect_.obj
 0002:0002330c       ___rtc_tzz                 300ad30c     LIBCMT:_initsect_.obj
 0002:000236fc       __IMPORT_DESCRIPTOR_KERNEL32 300ad6fc     kernel32:KERNEL32.dll
 0002:00023710       __IMPORT_DESCRIPTOR_ADVAPI32 300ad710     advapi32:ADVAPI32.dll
 0002:00023724       __NULL_IMPORT_DESCRIPTOR   300ad724     kernel32:KERNEL32.dll
 0003:00000000       _bg_customSiegeSoundNames  300ae000     bg_misc.obj
 0003:00000078       _bgToggleableSurfaces      300ae078     bg_misc.obj
 0003:000000f4       _bg_numItems               300ae0f4     bg_misc.obj
 0003:000000f8       _forcePowerSorted          300ae0f8     bg_misc.obj
 0003:00000140       _forceMasteryLevels        300ae140     bg_misc.obj
 0003:00000160       _forceMasteryPoints        300ae160     bg_misc.obj
 0003:00000180       _bgForcePowerCost          300ae180     bg_misc.obj
 0003:000002a0       _WeaponReadyAnim           300ae2a0     bg_misc.obj
 0003:000002f0       _WeaponAttackAnim          300ae2f0     bg_misc.obj
 0003:00000340       _forcePowerDarkLight       300ae340     bg_misc.obj
 0003:00000388       _eventnames                300ae388     bg_misc.obj
 0003:00000558       _bg_itemlist               300ae558     bg_misc.obj
 0003:000010b8       _WeaponReadyLegsAnim       300af0b8     bg_misc.obj
 0003:00001108       _animEventTypeTable        300af108     bg_panimate.obj
 0003:00001a70       _footstepTypeTable         300afa70     bg_panimate.obj
 0003:00001a98       _bgNumAnimEvents           300afa98     bg_panimate.obj
 0003:00001a9c       _bgNumAllAnims             300afa9c     bg_panimate.obj
 0003:00001aa0       _animTable                 300afaa0     bg_panimate.obj
 0003:00004ae0       _forceJumpHeightMax        300b2ae0     bg_pmove.obj
 0003:00004b08       _pm_stopspeed              300b2b08     bg_pmove.obj
 0003:00004b0c       _pm_duckScale              300b2b0c     bg_pmove.obj
 0003:00004b10       _pm_swimScale              300b2b10     bg_pmove.obj
 0003:00004b14       _pm_wadeScale              300b2b14     bg_pmove.obj
 0003:00004b18       _pm_accelerate             300b2b18     bg_pmove.obj
 0003:00004b1c       _pm_airaccelerate          300b2b1c     bg_pmove.obj
 0003:00004b20       _pm_wateraccelerate        300b2b20     bg_pmove.obj
 0003:00004b24       _pm_flyaccelerate          300b2b24     bg_pmove.obj
 0003:00004b28       _pm_friction               300b2b28     bg_pmove.obj
 0003:00004b2c       _pm_waterfriction          300b2b2c     bg_pmove.obj
 0003:00004b30       _pm_flightfriction         300b2b30     bg_pmove.obj
 0003:00004b34       _pm_vehicleaccelerate      300b2b34     bg_pmove.obj
 0003:00004b38       _forcePowerNeeded          300b2b38     bg_pmove.obj
 0003:00004c58       _forceSpeedLevels          300b2c58     bg_pmove.obj
 0003:00004c68       _pm_spectatorfriction      300b2c68     bg_pmove.obj
 0003:00004c6c       _forceJumpHeight           300b2c6c     bg_pmove.obj
 0003:00004c7c       _forceJumpStrength         300b2c7c     bg_pmove.obj
 0003:00004c90       _saberMoveData             300b2c90     bg_saber.obj
 0003:000065e0       _bg_parryDebounce          300b45e0     bg_saber.obj
 0003:000065f0       _transitionMove            300b45f0     bg_saber.obj
 0003:000066f0       _saberMoveTransitionAngle  300b46f0     bg_saber.obj
 0003:000067f0       _SaberTable                300b47f0     bg_saberLoad.obj
 0003:00006858       _bgSiegeClassFlagNames     300b4858     bg_saga.obj
 0003:000068a0       _StanceTable               300b48a0     bg_saga.obj
 0003:000068e8       _WPTable                   300b48e8     bg_saga.obj
 0003:00006990       _FPTable                   300b4990     bg_saga.obj
 0003:00006a28       _HoldableTable             300b4a28     bg_saga.obj
 0003:00006a90       _PowerupTable              300b4a90     bg_saga.obj
 0003:00006b18       _classTitles               300b4b18     bg_saga.obj
 0003:00006b30       _vehWeaponFields           300b4b30     bg_vehicleLoad.obj
 0003:00006c50       _vehicleFields             300b4c50     bg_vehicleLoad.obj
 0003:00007484       _VehicleTable              300b5484     bg_vehicleLoad.obj
 0003:000074bc       _numVehicleWeapons         300b54bc     bg_vehicleLoad.obj
 0003:000074c0       _WP_MuzzlePoint            300b54c0     bg_weapons.obj
 0003:000075a8       _weaponData                300b55a8     bg_weapons.obj
 0003:000079d0       _ammoData                  300b59d0     bg_weapons.obj
 0003:000079f8       _bytedirs                  300b59f8     q_math.obj
 0003:00008190       _colorBlack                300b6190     q_math.obj
 0003:000081a0       _colorRed                  300b61a0     q_math.obj
 0003:000081b0       _colorGreen                300b61b0     q_math.obj
 0003:000081c0       _colorBlue                 300b61c0     q_math.obj
 0003:000081d0       _colorYellow               300b61d0     q_math.obj
 0003:000081e0       _colorMagenta              300b61e0     q_math.obj
 0003:000081f0       _colorCyan                 300b61f0     q_math.obj
 0003:00008200       _colorWhite                300b6200     q_math.obj
 0003:00008210       _colorLtGrey               300b6210     q_math.obj
 0003:00008220       _colorMdGrey               300b6220     q_math.obj
 0003:00008230       _colorDkGrey               300b6230     q_math.obj
 0003:00008240       _colorLtBlue               300b6240     q_math.obj
 0003:00008250       _colorDkBlue               300b6250     q_math.obj
 0003:00008260       _g_color_table             300b6260     q_math.obj
 0003:000082e0       _axisDefault               300b62e0     q_math.obj
 0003:00008308       _itemParseKeywords         300b6308     ui_shared.obj
 0003:000086f8       _itemFlags                 300b66f8     ui_shared.obj
 0003:00008708       _styles                    300b6708     ui_shared.obj
 0003:00008724       _alignment                 300b6724     ui_shared.obj
 0003:00008734       _scriptCommandCount        300b6734     ui_shared.obj
 0003:00008738       _types                     300b6738     ui_shared.obj
 0003:00008778       _commandList               300b6778     ui_shared.obj
 0003:00009168       _menuParseKeywords         300b7168     ui_shared.obj
 0003:00009418       _cg_targVeh                300b7418     cg_draw.obj
 0003:0000941c       _bluehudtint               300b741c     cg_draw.obj
 0003:0000942c       _redhudtint                300b742c     cg_draw.obj
 0003:0000943c       _armorTicName              300b743c     cg_draw.obj
 0003:0000944c       _healthTicName             300b744c     cg_draw.obj
 0003:0000945c       _forceTicName              300b745c     cg_draw.obj
 0003:0000946c       _ammoTicName               300b746c     cg_draw.obj
 0003:0000947c       _cg_radarRange             300b747c     cg_draw.obj
 0003:00009480       _showPowersName            300b7480     cg_draw.obj
 0003:000094cc       _vehDamageData             300b74cc     cg_draw.obj
 0003:000094f8       _CG_BMS_MID                300b74f8     cg_ents.obj
 0003:000094fc       _CG_BMS_END                300b74fc     cg_ents.obj
 0003:00009500       _forceHolocronModels       300b7500     cg_ents.obj
 0003:00009548       _cg_stringEdVoiceChatTable 300b7548     cg_event.obj
 0003:000095c0       _HolocronIcons             300b75c0     cg_main.obj
 0003:00009608       _forceModelModificationCount 300b7608     cg_main.obj
 0003:00009e20       _cg_spawnFields            300b7e20     cg_main.obj
 0003:00009f00       _colorTable                300b7f00     cg_main.obj
 0003:0000a3c0       _cl_numparticles           300b83c0     cg_marks.obj
 0003:0000a550       _cg_customSoundNames       300b8550     cg_players.obj
 0003:0000a5f0       _cg_customCombatSoundNames 300b85f0     cg_players.obj
 0003:0000a690       _cg_customExtraSoundNames  300b8690     cg_players.obj
 0003:0000a730       _cg_customJediSoundNames   300b8730     cg_players.obj
 0003:0000a7d0       _cg_customDuelSoundNames   300b87d0     cg_players.obj
 0003:0000a8c0       _cg_autoMapZoom            300b88c0     cg_view.obj
 0003:0000a8c4       _cg_autoMapAngle           300b88c4     cg_view.obj
 0003:0000a910       __fltused                  300b8910     LIBCMT:fltused.obj
 0003:0000a920       ___isa_enabled             300b8920     LIBCMT:_cpu_disp_.obj
 0003:0000a924       ___scrt_native_dllmain_reason 300b8924     LIBCMT:utility.obj
 0003:0000a930       ___security_cookie_complement 300b8930     LIBCMT:gs_cookie.obj
 0003:0000a934       ___security_cookie         300b8934     LIBCMT:gs_cookie.obj
 0003:0000a990       __NLG_Destination          300b8990     libvcruntime:_exsup_.obj
 0003:0000a9a0       ___abort_behavior          300b89a0     libucrt:abort.obj
 0003:0000a9b0       ___acrt_initial_locale_data 300b89b0     libucrt:nlsdata.obj
 0003:0000aa68       ___acrt_initial_locale_pointers 300b8a68     libucrt:nlsdata.obj
 0003:0000aa70       ___acrt_wide_c_locale_string 300b8a70     libucrt:nlsdata.obj
 0003:0000aa78       __iob                      300b8a78     libucrt:_file.obj
 0003:0000ac18       __mbctype                  300b8c18     libucrt:mbctype.obj
 0003:0000ad20       __mbcasemap                300b8d20     libucrt:mbctype.obj
 0003:0000ae20       ___acrt_initial_multibyte_data 300b8e20     libucrt:mbctype.obj
 0003:0000b040       ___acrt_current_multibyte_data 300b9040     libucrt:mbctype.obj
 0003:0000b044       ___globallocalestatus      300b9044     libucrt:glstatus.obj
 0003:0000b048       ___acrt_lconv_static_decimal 300b9048     libucrt:localeconv.obj
 0003:0000b04c       ___acrt_lconv_static_W_decimal 300b904c     libucrt:localeconv.obj
 0003:0000b050       ___acrt_lconv_c            300b9050     libucrt:localeconv.obj
 0003:0000b0a0       ___dcrt_lowio_console_output_handle 300b90a0     libucrt:initcon.obj
 0003:001ff0cc       _BGPAFtextLoaded           302ad0cc     bg_panimate.obj
 0003:001ff0e0       _c_pmove                   302ad0e0     bg_pmove.obj
 0003:001ff0e4       _pm_entSelf                302ad0e4     bg_pmove.obj
 0003:001ff0e8       _pm_entVeh                 302ad0e8     bg_pmove.obj
 0003:001ff0ec       _gPMDoSlowFall             302ad0ec     bg_pmove.obj
 0003:001ff0f0       _pm_cancelOutZoom          302ad0f0     bg_pmove.obj
 0003:0021f1b0       _bgNumSiegeClasses         302cd1b0     bg_saga.obj
 0003:0021f1b4       _bgNumSiegeTeams           302cd1b4     bg_saga.obj
 0003:0021f1b8       _siege_valid               302cd1b8     bg_saga.obj
 0003:0021f1bc       _team1Theme                302cd1bc     bg_saga.obj
 0003:0021f1c0       _team2Theme                302cd1c0     bg_saga.obj
 0003:0021f1c4       _numVehicles               302cd1c4     bg_vehicleLoad.obj
 0003:0021f1c8       _vec3_origin               302cd1c8     q_math.obj
 0003:00235420       _FPMessageTime             302e3420     ui_shared.obj
 0003:00235424       _ui_deferredScriptItem     302e3424     ui_shared.obj
 0003:00235428       _DC                        302e3428     ui_shared.obj
 0003:0023542c       _menuCount                 302e342c     ui_shared.obj
 0003:00235430       _openMenuCount             302e3430     ui_shared.obj
 0003:00235434       _ui_G2PtrTracker           302e3434     ui_shared.obj
 0003:00279490       _cgRageTime                30327490     cg_draw.obj
 0003:00279494       _cgRageFadeTime            30327494     cg_draw.obj
 0003:00279498       _cgRageFadeVal             30327498     cg_draw.obj
 0003:0027949c       _cgRageRecTime             3032749c     cg_draw.obj
 0003:002794a0       _cgRageRecFadeTime         303274a0     cg_draw.obj
 0003:002794a4       _cgRageRecFadeVal          303274a4     cg_draw.obj
 0003:002794a8       _cgAbsorbTime              303274a8     cg_draw.obj
 0003:002794ac       _cgAbsorbFadeTime          303274ac     cg_draw.obj
 0003:002794b0       _cgAbsorbFadeVal           303274b0     cg_draw.obj
 0003:002794b4       _cgProtectTime             303274b4     cg_draw.obj
 0003:002794b8       _cgProtectFadeTime         303274b8     cg_draw.obj
 0003:002794bc       _cgProtectFadeVal          303274bc     cg_draw.obj
 0003:002794c0       _cgYsalTime                303274c0     cg_draw.obj
 0003:002794c4       _cgYsalFadeTime            303274c4     cg_draw.obj
 0003:002794c8       _cgYsalFadeVal             303274c8     cg_draw.obj
 0003:002794cc       _gCGHasFallVector          303274cc     cg_draw.obj
 0003:002794d0       _cg_beatingSiegeTime       303274d0     cg_draw.obj
 0003:002794d4       _cgSiegeRoundBeganTime     303274d4     cg_draw.obj
 0003:002794d8       _cgSiegeRoundCountTime     303274d8     cg_draw.obj
 0003:002794dc       _cgSiegeEntityRender       303274dc     cg_draw.obj
 0003:002794e0       _cg_targVehLastTime        303274e0     cg_draw.obj
 0003:002794e4       _cg_genericTimerBar        303274e4     cg_draw.obj
 0003:002794e8       _cg_genericTimerDur        303274e8     cg_draw.obj
 0003:002794ec       _cg_crosshairPrevPosX      303274ec     cg_draw.obj
 0003:002794f0       _cg_crosshairPrevPosY      303274f0     cg_draw.obj
 0003:002794f4       _cg_vehicleAmmoWarning     303274f4     cg_draw.obj
 0003:002794f8       _cg_vehicleAmmoWarningTime 303274f8     cg_draw.obj
 0003:002794fc       _cg_crosshairPos           303274fc     cg_draw.obj
 0003:00279508       _cg_drawLink               30327508     cg_draw.obj
 0003:0027950c       _menuScoreboard            3032750c     cg_draw.obj
 0003:00279510       _cg_siegeDeathTime         30327510     cg_draw.obj
 0003:00279514       _cg_saberFlashTime         30327514     cg_draw.obj
 0003:00279518       _cg_saberFlashPos          30327518     cg_draw.obj
 0003:0027a1fc       _CG_BMS_START              303281fc     cg_ents.obj
 0003:0027e848       _cgWeatherOverride         3032c848     cg_main.obj
 0003:0027e84c       _cg_noFogOutsidePortal     3032c84c     cg_main.obj
 0003:0027f050       _cg_skyOri                 3032d050     cg_main.obj
 0003:0027f054       _cg_skyOriScale            3032d054     cg_main.obj
 0003:0027f058       _cg_numpermanents          3032d058     cg_main.obj
 0003:003683f8       _initparticles             304163f8     cg_marks.obj
 0003:0036a408       _cg_g2JetpackInstance      30418408     cg_players.obj
 0003:0036a40c       _cg_lastHyperSpaceEffectTime 3041840c     cg_players.obj
 0003:0036a410       _cgQueueLoad               30418410     cg_players.obj
 0003:0036b418       _cgAnnouncerTime           30419418     cg_playerstate.obj
 0003:0036b420       _cg_vehPmoveSet            30419420     cg_predict.obj
 0003:0036bd58       _cgSiegeRoundState         30419d58     cg_saga.obj
 0003:0036bd5c       _cgSiegeRoundTime          30419d5c     cg_saga.obj
 0003:0036bd60       _team1Timed                30419d60     cg_saga.obj
 0003:0036bd64       _team2Timed                30419d64     cg_saga.obj
 0003:0036bd68       _cgSiegeTeam1PlShader      30419d68     cg_saga.obj
 0003:0036bd6c       _cgSiegeTeam2PlShader      30419d6c     cg_saga.obj
 0003:00372170       _cg_siegeWinTeam           30420170     cg_scoreboard.obj
 0003:00372178       _cg_actionCamLastTime      30420178     cg_view.obj
 0003:0037217c       _cg_lastTurretViewAngles   3042017c     cg_view.obj
 0003:00372188       _cg_autoMapZoomMainOffset  30420188     cg_view.obj
 0003:0037218c       _cg_autoMapInputTime       3042018c     cg_view.obj
 0003:00372190       _cg_linearFogOverride      30420190     cg_view.obj
 0003:00372194       _cameraCurTarget           30420194     cg_view.obj
 0003:003721a0       _cameraCurLoc              304201a0     cg_view.obj
 0003:003721ac       _cameraOldLoc              304201ac     cg_view.obj
 0003:003721b8       _cameraNewLoc              304201b8     cg_view.obj
 0003:003721c4       _cameraLastFrame           304201c4     cg_view.obj
 0003:003721c8       _cameraLastYaw             304201c8     cg_view.obj
 0003:003721cc       _cameraStiffFactor         304201cc     cg_view.obj
 0003:00372238       ___isa_available           30420238     LIBCMT:_cpu_disp_.obj
 0003:0037223c       ___favor                   3042023c     LIBCMT:_cpu_disp_.obj
 0003:00372240       ___scrt_current_native_startup_state 30420240     LIBCMT:utility.obj
 0003:00372244       ___scrt_native_startup_lock 30420244     LIBCMT:utility.obj
 0003:00372268       ?__type_info_root_node@@3U__type_info_node@@A 30420268     LIBCMT:tncleanup.obj
 0003:00372270       ___scrt_debugger_hook_flag 30420270     LIBCMT:utility_desktop.obj
 0003:0037260c       ___pPurecall               3042060c     libvcruntime:purevirt_data.obj
 0003:00372610       ?pArgList@UnDecorator@@0PAVReplicator@@A 30420610     libvcruntime:undname.obj
 0003:00372614       ?pZNameList@UnDecorator@@0PAVReplicator@@A 30420614     libvcruntime:undname.obj
 0003:00372618       ?pTemplateArgList@UnDecorator@@0PAVReplicator@@A 30420618     libvcruntime:undname.obj
 0003:0037261c       ?gName@UnDecorator@@0PBDB  3042061c     libvcruntime:undname.obj
 0003:00372620       ?name@UnDecorator@@0PBDB   30420620     libvcruntime:undname.obj
 0003:00372624       ?outputString@UnDecorator@@0PADA 30420624     libvcruntime:undname.obj
 0003:00372628       ?maxStringLength@UnDecorator@@0HA 30420628     libvcruntime:undname.obj
 0003:0037262c       ?disableFlags@UnDecorator@@0KA 3042062c     libvcruntime:undname.obj
 0003:00372630       ?fExplicitTemplateParams@UnDecorator@@0_NA 30420630     libvcruntime:undname.obj
 0003:00372631       ?fGetTemplateArgumentList@UnDecorator@@0_NA 30420631     libvcruntime:undname.obj
 0003:00372634       ?m_pGetParameter@UnDecorator@@0P6APADJ@ZA 30420634     libvcruntime:undname.obj
 0003:00372658       __environ_table            30420658     libucrt:environment_initialization.obj
 0003:0037265c       __wenviron_table           3042065c     libucrt:environment_initialization.obj
 0003:00372660       ___dcrt_initial_wide_environment 30420660     libucrt:environment_initialization.obj
 0003:00372664       ___dcrt_initial_narrow_environment 30420664     libucrt:environment_initialization.obj
 0003:00372668       ___acrt_atexit_table       30420668     libucrt:onexit.obj
 0003:00372674       ___acrt_at_quick_exit_table 30420674     libucrt:onexit.obj
 0003:00372684       ___acrt_locale_changed_data 30420684     libucrt:wsetlocale.obj
 0003:00372688       ___acrt_current_locale_data 30420688     libucrt:nlsdata.obj
 0003:0037268c       __nstream                  3042068c     libucrt:_file.obj
 0003:00372690       ___piob                    30420690     libucrt:_file.obj
 0003:00372698       ___pioinfo                 30420698     libucrt:ioinit.obj
 0003:00372898       __nhandle                  30420898     libucrt:ioinit.obj
 0003:003728a4       ___acrt_stdout_buffer      304208a4     libucrt:_sftbuf.obj
 0003:003728a8       ___acrt_stderr_buffer      304208a8     libucrt:_sftbuf.obj
 0003:00372ac4       ___mblocalename            30420ac4     libucrt:mbctype.obj
 0003:00372ac8       ___mbcodepage              30420ac8     libucrt:mbctype.obj
 0003:00372acc       ___ismbcodepage            30420acc     libucrt:mbctype.obj
 0003:00372ad0       ___mbulinfo                30420ad0     libucrt:mbctype.obj
 0003:00372ae4       ___acrt_heap               30420ae4     libucrt:heap_handle.obj
 0003:00372ae8       ___argv                    30420ae8     libucrt:argv_data.obj
 0003:00372aec       ___wargv                   30420aec     libucrt:argv_data.obj
 0003:00372af0       __acmdln                   30420af0     libucrt:argv_data.obj
 0003:00372af4       __wcmdln                   30420af4     libucrt:argv_data.obj
 0003:00372b14       ___acrt_lconv_static_null  30420b14     libucrt:localeconv.obj
 0003:00372b18       ___acrt_lconv_static_W_null 30420b18     libucrt:localeconv.obj
 0003:00372b1c       ___fastflag                30420b1c     libucrt:fp_flags.obj
 0003:00372b30       _cameraIdealLoc            30420b30     <common>
 0003:00372b40       _cameraIdealTarget         30420b40     <common>
 0003:00372b50       _cameraFocusLoc            30420b50     <common>
 0003:00372b60       _cameraFocusAngles         30420b60     <common>
 0003:00372b70       _cameraup                  30420b70     <common>
 0003:00372b80       _camerafwd                 30420b80     <common>
 0003:00372ba0       _cgScreenEffects           30420ba0     <common>
 0003:00372bc0       _cg_autoMapInput           30420bc0     <common>
 0003:00372be0       _cg_actionCamLastPos       30420be0     <common>
 0003:00372bec       _zoomFov                   30420bec     <common>
 0003:00372c00       _cg_siegeExtendedData      30420c00     <common>
 0003:00372e80       _cg_vehPmove               30420e80     <common>
 0003:00372fc0       _cgSendPS                  30420fc0     <common>
 0003:00373fc0       _cgSendPSPool              30421fc0     <common>
 0003:004f7fc0       _cg_markPolys              305a5fc0     <common>
 0003:00509fc0       _oldtime                   305b7fc0     <common>
 0003:00509fd0       _rup                       305b7fd0     <common>
 0003:00509fe0       _rright                    305b7fe0     <common>
 0003:00509ff0       _rforward                  305b7ff0     <common>
 0003:0050a000       _pvup                      305b8000     <common>
 0003:0050a010       _pvright                   305b8010     <common>
 0003:0050a020       _pvforward                 305b8020     <common>
 0003:0050a040       _particles                 305b8040     <common>
 0003:00529040       _free_particles            305d7040     <common>
 0003:00529044       _active_particles          305d7044     <common>
 0003:00529048       _cg_freeMarkPolys          305d7048     <common>
 0003:00529060       _cg_activeMarkPolys        305d7060     <common>
 0003:00529180       _cg_drawRadar              305d7180     <common>
 0003:005292a0       _cg_drawCrosshairNames     305d72a0     <common>
 0003:005293c0       _cg_drawCrosshair          305d73c0     <common>
 0003:005294e0       _cg_drawAmmoWarning        305d74e0     <common>
 0003:00529600       _cg_drawIcons              305d7600     <common>
 0003:00529720       _cg_draw3dIcons            305d7720     <common>
 0003:00529840       _cg_drawSnapshot           305d7840     <common>
 0003:00529960       _cg_drawFPS                305d7960     <common>
 0003:00529a80       _cg_drawTimer              305d7a80     <common>
 0003:00529ba0       _cg_renderToTextureFX      305d7ba0     <common>
 0003:00529cc0       _cg_shadows                305d7cc0     <common>
 0003:00529de0       _cg_bobroll                305d7de0     <common>
 0003:00529f00       _cg_bobpitch               305d7f00     <common>
 0003:0052a020       _cg_bobup                  305d8020     <common>
 0003:0052a140       _cg_runroll                305d8140     <common>
 0003:0052a260       _cg_runpitch               305d8260     <common>
 0003:0052a380       _cg_centertime             305d8380     <common>
 0003:0052a4a0       _cg_items                  305d84a0     <common>
 0003:0052dca0       _cg_weapons                305dbca0     <common>
 0003:0052ec60       _cg_permanents             305dcc60     <common>
 0003:0052fc60       _cg_entities               305ddc60     <common>
 0003:0070cc60       _cg                        307bac60     <common>
 0003:00754e60       _cgs                       30802e60     <common>
 0003:00789780       _cg_skyOriPos              30837780     <common>
 0003:007897a0       _cg_showVehBounds          308377a0     <common>
 0003:007898c0       _cg_debugSaber             308378c0     <common>
 0003:007899e0       _cgDC                      308379e0     <common>
 0003:00789c60       _cg_debugBB                30837c60     <common>
 0003:00789d80       _cg_snapshotTimeout        30837d80     <common>
 0003:00789ea0       _ui_myteam                 30837ea0     <common>
 0003:00789fc0       _cg_recordSPDemoName       30837fc0     <common>
 0003:0078a0e0       _cg_recordSPDemo           308380e0     <common>
 0003:0078a200       _cg_singlePlayerActive     30838200     <common>
 0003:0078a320       _cg_enableBreath           30838320     <common>
 0003:0078a440       _cg_enableDust             30838440     <common>
 0003:0078a560       _cg_singlePlayer           30838560     <common>
 0003:0078a680       _cg_currentSelectedPlayerName 30838680     <common>
 0003:0078a7a0       _cg_currentSelectedPlayer  308387a0     <common>
 0003:0078a8c0       _cg_blueTeamName           308388c0     <common>
 0003:0078a9e0       _cg_redTeamName            308389e0     <common>
 0003:0078ab00       _cg_trueLightning          30838b00     <common>
 0003:0078ac20       _cg_noProjectileTrail      30838c20     <common>
 0003:0078ad40       _cg_noTaunt                30838d40     <common>
 0003:0078ae60       _cg_cameraMode             30838e60     <common>
 0003:0078af80       _cg_timescale              30838f80     <common>
 0003:0078b0a0       _cg_timescaleFadeSpeed     308390a0     <common>
 0003:0078b1c0       _cg_timescaleFadeEnd       308391c0     <common>
 0003:0078b2e0       _cg_cameraOrbitDelay       308392e0     <common>
 0003:0078b400       _cg_cameraOrbit            30839400     <common>
 0003:0078b520       _pmove_msec                30839520     <common>
 0003:0078b640       _pmove_fixed               30839640     <common>
 0003:0078b760       _cg_smoothClients          30839760     <common>
 0003:0078b880       _cg_hudFiles               30839880     <common>
 0003:0078b9a0       _cg_scorePlum              308399a0     <common>
 0003:0078bac0       _cg_teamChatsOnly          30839ac0     <common>
 0003:0078bbe0       _cg_drawFriend             30839be0     <common>
 0003:0078bd00       _cg_deferPlayers           30839d00     <common>
 0003:0078be20       _cg_predictItems           30839e20     <common>
 0003:0078bf40       _cg_blood                  30839f40     <common>
 0003:0078c060       _cg_paused                 3083a060     <common>
 0003:0078c180       _cg_buildScript            3083a180     <common>
 0003:0078c2a0       _cg_forceModel             3083a2a0     <common>
 0003:0078c3c0       _cg_stats                  3083a3c0     <common>
 0003:0078c4e0       _cg_synchronousClients     3083a4e0     <common>
 0003:0078c600       _cg_drawEnemyInfo          3083a600     <common>
 0003:0078c720       _cg_lagometer              3083a720     <common>
 0003:0078c840       _cg_stereoSeparation       3083a840     <common>
 0003:0078c960       _cg_thirdPersonHorzOffset  3083a960     <common>
 0003:0078ca80       _cg_thirdPersonAlpha       3083aa80     <common>
 0003:0078cba0       _cg_thirdPersonTargetDamp  3083aba0     <common>
 0003:0078ccc0       _cg_thirdPersonCameraDamp  3083acc0     <common>
 0003:0078cde0       _cg_thirdPersonVertOffset  3083ade0     <common>
 0003:0078cf00       _cg_thirdPersonPitchOffset 3083af00     <common>
 0003:0078d020       _cg_thirdPersonAngle       3083b020     <common>
 0003:0078d140       _cg_thirdPersonRange       3083b140     <common>
 0003:0078d260       _cg_thirdPerson            3083b260     <common>
 0003:0078d380       _cg_thirdPersonSpecialCam  3083b380     <common>
 0003:0078d4a0       _cg_dismember              3083b4a0     <common>
 0003:0078d5c0       _cg_animBlend              3083b5c0     <common>
 0003:0078d6e0       _cg_repeaterOrb            3083b6e0     <common>
 0003:0078d800       _cg_auraShell              3083b800     <common>
 0003:0078d920       _cg_speedTrail             3083b920     <common>
 0003:0078da40       _cg_duelHeadAngles         3083ba40     <common>
 0003:0078db60       _cg_saberTrail             3083bb60     <common>
 0003:0078dc80       _cg_saberContact           3083bc80     <common>
 0003:0078dda0       _cg_saberDynamicMarkTime   3083bda0     <common>
 0003:0078dec0       _cg_saberDynamicMarks      3083bec0     <common>
 0003:0078dfe0       _cg_ghoul2Marks            3083bfe0     <common>
 0003:0078e100       _cg_fpls                   3083c100     <common>
 0003:0078e220       _cg_g2TraceLod             3083c220     <common>
 0003:0078e340       _cg_saberClientVisualCompensation 3083c340     <common>
 0003:0078e460       _cg_saberModelTraceEffect  3083c460     <common>
 0003:0078e580       _cg_chatBoxHeight          3083c580     <common>
 0003:0078e6a0       _cg_chatBox                3083c6a0     <common>
 0003:0078e7c0       _bg_fighterAltControl      3083c7c0     <common>
 0003:0078e8e0       _cg_autoMapH               3083c8e0     <common>
 0003:0078ea00       _cg_autoMapW               3083ca00     <common>
 0003:0078eb20       _cg_autoMapY               3083cb20     <common>
 0003:0078ec40       _cg_autoMapX               3083cc40     <common>
 0003:0078ed60       _cg_autoMap                3083cd60     <common>
 0003:0078ee80       _cg_jumpSounds             3083ce80     <common>
 0003:0078efa0       _cg_ragDoll                3083cfa0     <common>
 0003:0078f0c0       _cg_oldPainSounds          3083d0c0     <common>
 0003:0078f1e0       _cg_swingAngles            3083d1e0     <common>
 0003:0078f300       _cg_zoomFov                3083d300     <common>
 0003:0078f420       _cg_fov                    3083d420     <common>
 0003:0078f540       _cg_simpleItems            3083d540     <common>
 0003:0078f660       _cg_ignore                 3083d660     <common>
 0003:0078f780       _cg_autoswitch             3083d780     <common>
 0003:0078f8a0       _cg_viewsize               3083d8a0     <common>
 0003:0078f9c0       _cg_drawGun                3083d9c0     <common>
 0003:0078fae0       _cg_gun_z                  3083dae0     <common>
 0003:0078fc00       _cg_gun_y                  3083dc00     <common>
 0003:0078fd20       _cg_gun_x                  3083dd20     <common>
 0003:0078fe40       _cg_gun_frame              3083de40     <common>
 0003:0078ff60       _cg_addMarks               3083df60     <common>
 0003:00790080       _cg_footsteps              3083e080     <common>
 0003:007901a0       _cg_showVehMiss            3083e1a0     <common>
 0003:007902c0       _cg_showmiss               3083e2c0     <common>
 0003:007903e0       _cg_noPlayerAnims          3083e3e0     <common>
 0003:00790500       _cg_nopredict              3083e500     <common>
 0003:00790620       _cg_errorDecay             3083e620     <common>
 0003:00790740       _cg_debugEvents            3083e740     <common>
 0003:00790860       _cg_debugPosition          3083e860     <common>
 0003:00790980       _cg_debugAnim              3083e980     <common>
 0003:00790aa0       _cg_animSpeed              3083eaa0     <common>
 0003:00790bc0       _cg_draw2D                 3083ebc0     <common>
 0003:00790ce0       _cg_drawStatus             3083ece0     <common>
 0003:00790e00       _cg_crosshairHealth        3083ee00     <common>
 0003:00790f20       _cg_crosshairSize          3083ef20     <common>
 0003:00791040       _cg_crosshairY             3083f040     <common>
 0003:00791160       _cg_crosshairX             3083f160     <common>
 0003:00791280       _cg_teamOverlayUserinfo    3083f280     <common>
 0003:007913a0       _cg_drawTeamOverlay        3083f3a0     <common>
 0003:007914c0       _cg_drawRewards            3083f4c0     <common>
 0003:007915e0       _cg_dynamicCrosshairPrecision 3083f5e0     <common>
 0003:00791700       _cg_dynamicCrosshair       3083f700     <common>
 0003:00791820       _cg_drawScores             3083f820     <common>
 0003:00791930       _cg_freeLocalEntities      3083f930     <common>
 0003:00791940       _cg_activeLocalEntities    3083f940     <common>
 0003:00791b20       _cg_localEntities          3083fb20     <common>
 0003:007cb320       _lastvalidlockdif          30879320     <common>
 0003:007cb324       _hudTintColor              30879324     <common>
 0003:007cb328       _numSortedTeamPlayers      30879328     <common>
 0003:007cb340       _sortedTeamPlayers         30879340     <common>
 0003:007cb3c0       _cg_genericTimerColor      308793c0     <common>
 0003:007cb3d0       _gCGFallVector             308793d0     <common>
 0003:007cb3e0       _lagometer                 308793e0     <common>
 0003:007cba00       _menuParseKeywordHash      30879a00     <common>
 0003:007cc200       _itemParseKeywordHash      3087a200     <common>
 0003:007cca00       _menuStack                 3087aa00     <common>
 0003:007cca40       _Menus                     3087aa40     <common>
 0003:007e1740       _ui_deferredScript         3088f740     <common>
 0003:007e1f40       ?_OptionsStorage@?1??__local_stdio_printf_options@@9@9 3088ff40     <common>
 0003:007e1f60       _g_vehWeaponInfo           3088ff60     <common>
 0003:007e2560       _VehicleParms              30890560     <common>
 0003:007f2580       _VehWeaponParms            308a0580     <common>
 0003:007f6580       _g_vehicleInfo             308a4580     <common>
 0003:007f9800       _siege_info                308a7800     <common>
 0003:007fd800       _bgSiegeTeams              308ab800     <common>
 0003:007ffc80       _bgSiegeClasses            308adc80     <common>
 0003:00830280       _pml                       308de280     <common>
 0003:00830304       _pm                        308de304     <common>
 0003:00830320       _bgAllEvents               308de320     <common>
 0003:00868b60       _bgAllAnims                30916b60     <common>
 0003:00868fa0       _bgHumanoidAnimations      30916fa0     <common>
 0003:0086b9d8       ?_OptionsStorage@?1??__local_stdio_scanf_options@@9@9 309199d8     <common>
 0003:0086b9e0       ___scrt_ucrt_dll_is_in_use 309199e0     <common>
 0003:0086b9e4       ___dyn_tls_init_callback   309199e4     <common>
 0003:0086b9e8       __pDestructExceptionObject 309199e8     <common>
 0003:0086b9ec       ___use_sse2_mathfcns       309199ec     <common>
 0003:0086b9f0       __pmatherr                 309199f0     <common>

 entry point at        0001:0007185a

 Static symbols

 0000:ff6d4000       .debug$S                   30000000     kernel32:KERNEL32.dll
 0000:ff6d4000       .debug$S                   30000000     kernel32:KERNEL32.dll
 0000:ff6d4000       .debug$S                   30000000     kernel32:KERNEL32.dll
 0000:ff6d4000       .debug$S                   30000000     cgamex86.exp
 0000:ff6d4000       .debug$S                   30000000     kernel32:KERNEL32.dll
 0000:ff6d4000       .debug$S                   30000000     kernel32:KERNEL32.dll
 0000:ff6d4000       .debug$S                   30000000     kernel32:KERNEL32.dll
 0000:ff6d4000       .debug$S                   30000000     kernel32:KERNEL32.dll
 0000:ff6d4000       .debug$S                   30000000     kernel32:KERNEL32.dll
 0000:ff6d4000       .debug$S                   30000000     kernel32:KERNEL32.dll
 0000:ff6d4000       .debug$S                   30000000     kernel32:KERNEL32.dll
 0000:ff6d4000       .debug$S                   30000000     kernel32:KERNEL32.dll
 0000:ff6d4000       .debug$S                   30000000     kernel32:KERNEL32.dll
 0000:ff6d4000       .debug$S                   30000000     kernel32:KERNEL32.dll
 0000:ff6d4000       .debug$S                   30000000     kernel32:KERNEL32.dll
 0000:ff6d4000       .debug$S                   30000000     kernel32:KERNEL32.dll
 0000:ff6d4000       .debug$S                   30000000     kernel32:KERNEL32.dll
 0000:ff6d4000       .debug$S                   30000000     kernel32:KERNEL32.dll
 0000:ff6d4000       .debug$S                   30000000     kernel32:KERNEL32.dll
 0000:ff6d4000       .debug$S                   30000000     kernel32:KERNEL32.dll
 0000:ff6d4000       .debug$S                   30000000     kernel32:KERNEL32.dll
 0000:ff6d4000       .debug$S                   30000000     kernel32:KERNEL32.dll
 0000:ff6d4000       .debug$S                   30000000     kernel32:KERNEL32.dll
 0000:ff6d4000       .debug$S                   30000000     kernel32:KERNEL32.dll
 0000:ff6d4000       .debug$S                   30000000     kernel32:KERNEL32.dll
 0000:ff6d4000       .debug$S                   30000000     kernel32:KERNEL32.dll
 0000:ff6d4000       .debug$S                   30000000     kernel32:KERNEL32.dll
 0000:ff6d4000       .debug$S                   30000000     kernel32:KERNEL32.dll
 0000:ff6d4000       .debug$S                   30000000     kernel32:KERNEL32.dll
 0000:ff6d4000       .debug$S                   30000000     kernel32:KERNEL32.dll
 0000:ff6d4000       .debug$S                   30000000     kernel32:KERNEL32.dll
 0000:ff6d4000       .debug$S                   30000000     kernel32:KERNEL32.dll
 0000:ff6d4000       .debug$S                   30000000     kernel32:KERNEL32.dll
 0000:ff6d4000       .debug$S                   30000000     kernel32:KERNEL32.dll
 0000:ff6d4000       .debug$S                   30000000     kernel32:KERNEL32.dll
 0000:ff6d4000       .debug$S                   30000000     kernel32:KERNEL32.dll
 0000:ff6d4000       .debug$S                   30000000     kernel32:KERNEL32.dll
 0000:ff6d4000       .debug$S                   30000000     kernel32:KERNEL32.dll
 0000:ff6d4000       .debug$S                   30000000     kernel32:KERNEL32.dll
 0000:ff6d4000       .debug$S                   30000000     kernel32:KERNEL32.dll
 0000:ff6d4000       .debug$S                   30000000     kernel32:KERNEL32.dll
 0000:ff6d4000       .debug$S                   30000000     kernel32:KERNEL32.dll
 0000:ff6d4000       .debug$S                   30000000     kernel32:KERNEL32.dll
 0000:ff6d4000       .debug$S                   30000000     kernel32:KERNEL32.dll
 0000:ff6d4000       .debug$S                   30000000     kernel32:KERNEL32.dll
 0000:ff6d4000       .debug$S                   30000000     kernel32:KERNEL32.dll
 0000:ff6d4000       .debug$S                   30000000     kernel32:KERNEL32.dll
 0000:ff6d4000       .debug$S                   30000000     kernel32:KERNEL32.dll
 0000:ff6d4000       .debug$S                   30000000     kernel32:KERNEL32.dll
 0000:ff6d4000       .debug$S                   30000000     kernel32:KERNEL32.dll
 0000:ff6d4000       .debug$S                   30000000     kernel32:KERNEL32.dll
 0000:ff6d4000       .debug$S                   30000000     kernel32:KERNEL32.dll
 0000:ff6d4000       .debug$S                   30000000     kernel32:KERNEL32.dll
 0000:ff6d4000       .debug$S                   30000000     kernel32:KERNEL32.dll
 0000:ff6d4000       .debug$S                   30000000     kernel32:KERNEL32.dll
 0000:ff6d4000       .debug$S                   30000000     kernel32:KERNEL32.dll
 0000:ff6d4000       .debug$S                   30000000     kernel32:KERNEL32.dll
 0000:ff6d4000       .debug$S                   30000000     kernel32:KERNEL32.dll
 0000:ff6d4000       .debug$S                   30000000     kernel32:KERNEL32.dll
 0000:ff6d4000       .debug$S                   30000000     kernel32:KERNEL32.dll
 0000:ff6d4000       .debug$S                   30000000     kernel32:KERNEL32.dll
 0000:ff6d4000       .debug$S                   30000000     kernel32:KERNEL32.dll
 0000:ff6d4000       .debug$S                   30000000     kernel32:KERNEL32.dll
 0000:ff6d4000       .debug$S                   30000000     kernel32:KERNEL32.dll
 0000:ff6d4000       .debug$S                   30000000     kernel32:KERNEL32.dll
 0000:ff6d4000       .debug$S                   30000000     kernel32:KERNEL32.dll
 0000:ff6d4000       .debug$S                   30000000     kernel32:KERNEL32.dll
 0000:ff6d4000       .debug$S                   30000000     kernel32:KERNEL32.dll
 0000:ff6d4000       .debug$S                   30000000     kernel32:KERNEL32.dll
 0000:ff6d4000       .debug$S                   30000000     kernel32:KERNEL32.dll
 0000:ff6d4000       .debug$S                   30000000     kernel32:KERNEL32.dll
 0000:ff6d4000       .debug$S                   30000000     kernel32:KERNEL32.dll
 0000:ff6d4000       .debug$S                   30000000     kernel32:KERNEL32.dll
 0000:ff6d4000       .debug$S                   30000000     kernel32:KERNEL32.dll
 0000:ff6d4000       .debug$S                   30000000     kernel32:KERNEL32.dll
 0000:ff6d4000       .debug$S                   30000000     kernel32:KERNEL32.dll
 0000:ff6d4000       .debug$S                   30000000     kernel32:KERNEL32.dll
 0000:ff6d4000       .debug$S                   30000000     kernel32:KERNEL32.dll
 0000:ff6d4000       .debug$S                   30000000     kernel32:KERNEL32.dll
 0000:ff6d4000       .debug$S                   30000000     kernel32:KERNEL32.dll
 0000:ff6d4000       .debug$S                   30000000     kernel32:KERNEL32.dll
 0000:ff6d4000       .debug$S                   30000000     advapi32:ADVAPI32.dll
 0001:00000290       _ProcessMoveCommands       30001290 f   AnimalNPC.obj
 0001:00000450       _ProcessOrientCommands     30001450 f   AnimalNPC.obj
 0001:00000ba8       $LN63                      30001ba8     bg_misc.obj
 0001:00000ca4       $LN30                      30001ca4     bg_misc.obj
 0001:00000cac       $LN28                      30001cac     bg_misc.obj
 0001:0000117c       $LN23                      3000217c     bg_misc.obj
 0001:00001394       $LN17                      30002394     bg_misc.obj
 0001:00001744       $LN23                      30002744     bg_misc.obj
 0001:00002220       $LN10                      30003220     bg_panimate.obj
 0001:00002228       $LN7                       30003228     bg_panimate.obj
 0001:00002260       $LN11                      30003260     bg_panimate.obj
 0001:00002268       $LN8                       30003268     bg_panimate.obj
 0001:00002380       $LN9                       30003380     bg_panimate.obj
 0001:00002454       $LN9                       30003454     bg_panimate.obj
 0001:0000245c       $LN7                       3000345c     bg_panimate.obj
 0001:000024f4       $LN15                      300034f4     bg_panimate.obj
 0001:000024fc       $LN12                      300034fc     bg_panimate.obj
 0001:0000255c       $LN16                      3000355c     bg_panimate.obj
 0001:00002564       $LN13                      30003564     bg_panimate.obj
 0001:0000259c       $LN8                       3000359c     bg_panimate.obj
 0001:000025a4       $LN6                       300035a4     bg_panimate.obj
 0001:0000265c       $LN38                      3000365c     bg_panimate.obj
 0001:00002664       $LN35                      30003664     bg_panimate.obj
 0001:00002694       $LN39                      30003694     bg_panimate.obj
 0001:0000269c       $LN36                      3000369c     bg_panimate.obj
 0001:0000276c       $LN9                       3000376c     bg_panimate.obj
 0001:00002774       $LN7                       30003774     bg_panimate.obj
 0001:00002e74       $LN10                      30003e74     bg_panimate.obj
 0001:00002e7c       $LN7                       30003e7c     bg_panimate.obj
 0001:00002ebc       $LN11                      30003ebc     bg_panimate.obj
 0001:00002ec4       $LN8                       30003ec4     bg_panimate.obj
 0001:00002ff8       $LN10                      30003ff8     bg_panimate.obj
 0001:00003000       $LN8                       30004000     bg_panimate.obj
 0001:000034ec       $LN12                      300044ec     bg_panimate.obj
 0001:000034f4       $LN9                       300044f4     bg_panimate.obj
 0001:000035f4       $LN13                      300045f4     bg_panimate.obj
 0001:000035fc       $LN10                      300045fc     bg_panimate.obj
 0001:000036c0       _BG_StartLegsAnim          300046c0 f   bg_panimate.obj
 0001:0000372c       $LN8                       3000472c     bg_panimate.obj
 0001:00003734       $LN6                       30004734     bg_panimate.obj
 0001:000037bc       $LN8                       300047bc     bg_panimate.obj
 0001:000037c4       $LN6                       300047c4     bg_panimate.obj
 0001:00003a34       $LN10                      30004a34     bg_panimate.obj
 0001:00003a40       $LN8                       30004a40     bg_panimate.obj
 0001:00003b3c       $LN8                       30004b3c     bg_panimate.obj
 0001:00003b44       $LN6                       30004b44     bg_panimate.obj
 0001:00003bd4       $LN13                      30004bd4     bg_panimate.obj
 0001:0000420c       $LN133                     3000520c     bg_panimate.obj
 0001:00004564       $LN58                      30005564     bg_pmove.obj
 0001:00004580       $LN59                      30005580     bg_pmove.obj
 0001:000046e8       $LN39                      300056e8     bg_pmove.obj
 0001:0000471c       $LN35                      3000571c     bg_pmove.obj
 0001:000047a0       _BG_G2ClientNeckAngles     300057a0 f   bg_pmove.obj
 0001:00004980       _BG_G2ClientSpineAngles    30005980 f   bg_pmove.obj
 0001:00005ecc       $LN9                       30006ecc     bg_pmove.obj
 0001:00005ed4       $LN7                       30006ed4     bg_pmove.obj
 0001:00005f20       $LN8                       30006f20     bg_pmove.obj
 0001:00005f28       $LN6                       30006f28     bg_pmove.obj
 0001:00005ff0       _BG_SwingAngles            30006ff0 f   bg_pmove.obj
 0001:00006910       _PM_Accelerate             30007910 f   bg_pmove.obj
 0001:00006f6c       $LN39                      30007f6c     bg_pmove.obj
 0001:00007ec4       $LN100                     30008ec4     bg_pmove.obj
 0001:00007edc       $LN88                      30008edc     bg_pmove.obj
 0001:00007f28       $LN101                     30008f28     bg_pmove.obj
 0001:00007f3c       $LN89                      30008f3c     bg_pmove.obj
 0001:00007f70       _PM_AirMove                30008f70 f   bg_pmove.obj
 0001:000082f0       _PM_Animate                300092f0 f   bg_pmove.obj
 0001:000084f0       _PM_CheckDuck              300094f0 f   bg_pmove.obj
 0001:00008b10       _PM_CheckJump              30009b10 f   bg_pmove.obj
 0001:0000a3c8       $LN217                     3000b3c8     bg_pmove.obj
 0001:0000a3dc       $LN184                     3000b3dc     bg_pmove.obj
 0001:0000a3e8       $LN218                     3000b3e8     bg_pmove.obj
 0001:0000a3f8       $LN185                     3000b3f8     bg_pmove.obj
 0001:0000a420       _PM_CheckWaterJump         3000b420 f   bg_pmove.obj
 0001:0000a660       _PM_CmdForSaberMoves       3000b660 f   bg_pmove.obj
 0001:0000a980       _PM_CorrectAllSolid        3000b980 f   bg_pmove.obj
 0001:0000ab60       _PM_CrashLand              3000bb60 f   bg_pmove.obj
 0001:0000b190       $LN96                      3000c190     bg_pmove.obj
 0001:0000b1a0       _PM_DeadMove               3000c1a0 f   bg_pmove.obj
 0001:0000b270       _PM_DoChargedWeapons       3000c270 f   bg_pmove.obj
 0001:0000b734       $LN66                      3000c734     bg_pmove.obj
 0001:0000b770       _PM_DropTimers             3000c770 f   bg_pmove.obj
 0001:0000b880       _PM_FlyMove                3000c880 f   bg_pmove.obj
 0001:0000ba70       _PM_FlyVehicleMove         3000ca70 f   bg_pmove.obj
 0001:0000bf30       _PM_Footsteps              3000cf30 f   bg_pmove.obj
 0001:0000c7e0       _PM_Friction               3000d7e0 f   bg_pmove.obj
 0001:0000cad8       $LN20                      3000dad8     bg_pmove.obj
 0001:0000cb40       _PM_GroundTrace            3000db40 f   bg_pmove.obj
 0001:0000ce60       _PM_GroundTraceMissed      3000de60 f   bg_pmove.obj
 0001:0000d520       _PM_JumpForDir             3000e520 f   bg_pmove.obj
 0001:0000d5f4       $LN10                      3000e5f4     bg_pmove.obj
 0001:0000d5fc       $LN8                       3000e5fc     bg_pmove.obj
 0001:0000d790       _PM_NoclipMove             3000e790 f   bg_pmove.obj
 0001:0000ddec       $LN8                       3000edec     bg_pmove.obj
 0001:0000ddf4       $LN6                       3000edf4     bg_pmove.obj
 0001:0000de60       _PM_SetMovementDir         3000ee60 f   bg_pmove.obj
 0001:0000e050       _PM_SetVehicleAngles       3000f050 f   bg_pmove.obj
 0001:0000e3d0       _PM_SetWaterLevel          3000f3d0 f   bg_pmove.obj
 0001:0000e550       _PM_TryRoll                3000f550 f   bg_pmove.obj
 0001:0000f4b8       $LN81                      300104b8     bg_pmove.obj
 0001:0000f4e0       $LN74                      300104e0     bg_pmove.obj
 0001:0000f500       _PM_WalkMove               30010500 f   bg_pmove.obj
 0001:0000fb3c       $LN8                       30010b3c     bg_pmove.obj
 0001:0000fb44       $LN6                       30010b44     bg_pmove.obj
 0001:0000fb70       _PM_WaterEvents            30010b70 f   bg_pmove.obj
 0001:0000fc10       _PM_WaterJumpMove          30010c10 f   bg_pmove.obj
 0001:0000fc60       _PM_WaterMove              30010c60 f   bg_pmove.obj
 0001:0000ff90       _PM_Weapon                 30010f90 f   bg_pmove.obj
 0001:00011474       $LN353                     30012474     bg_pmove.obj
 0001:000114b4       $LN354                     300124b4     bg_pmove.obj
 0001:000114cc       $LN324                     300124cc     bg_pmove.obj
 0001:000114d8       $LN355                     300124d8     bg_pmove.obj
 0001:00012e10       _VectorCompare             30013e10 f   bg_pmove.obj
 0001:00012e10       _VectorCompare             30013e10 f   cg_predict.obj
 0001:00012e10       _VectorCompare             30013e10 f   bg_slidemove.obj
 0001:00012e8c       $LN14                      30013e8c     bg_saber.obj
 0001:00012e98       $LN12                      30013e98     bg_saber.obj
 0001:0001303c       $LN13                      3001403c     bg_saber.obj
 0001:00013058       $LN11                      30014058     bg_saber.obj
 0001:000136ec       $LN29                      300146ec     bg_saber.obj
 0001:000136f4       $LN26                      300146f4     bg_saber.obj
 0001:00014ce0       $LN40                      30015ce0     bg_saber.obj
 0001:00014cf4       $LN35                      30015cf4     bg_saber.obj
 0001:00014dc4       $LN22                      30015dc4     bg_saber.obj
 0001:00014f1c       $LN32                      30015f1c     bg_saber.obj
 0001:00014f30       $LN28                      30015f30     bg_saber.obj
 0001:00017850       $LN636                     30018850     bg_saber.obj
 0001:0001786c       $LN637                     3001886c     bg_saber.obj
 0001:000178a0       $LN638                     300188a0     bg_saber.obj
 0001:000178b0       $LN639                     300188b0     bg_saber.obj
 0001:000178cc       $LN640                     300188cc     bg_saber.obj
 0001:000178d4       $LN604                     300188d4     bg_saber.obj
 0001:0001bc30       _BG_ParseVehWeaponParm     3001cc30 f   bg_vehicleLoad.obj
 0001:0001beec       $LN45                      3001ceec     bg_vehicleLoad.obj
 0001:0001bf30       _BG_ParseVehicleParm       3001cf30 f   bg_vehicleLoad.obj
 0001:0001c1c0       $LN46                      3001d1c0     bg_vehicleLoad.obj
 0001:0001c24c       $LN12                      3001d24c     bg_vehicleLoad.obj
 0001:0001c734       $LN55                      3001d734     bg_vehicleLoad.obj
 0001:0001d4a0       _FighterDamageRoutine      3001e4a0 f   FighterNPC.obj
 0001:0001d830       _FighterNoseMalfunctionCheck 3001e830 f   FighterNPC.obj
 0001:0001db40       _FighterWingMalfunctionCheck 3001eb40 f   FighterNPC.obj
 0001:0001df00       _PredictedAngularDecrement 3001ef00 f   FighterNPC.obj
 0001:0001dfa0       _ProcessMoveCommands       3001efa0 f   FighterNPC.obj
 0001:0001ea30       _ProcessOrientCommands     3001fa30 f   FighterNPC.obj
 0001:00020de0       _ProcessMoveCommands       30021de0 f   SpeederNPC.obj
 0001:00021240       _ProcessMoveCommands       30022240 f   WalkerNPC.obj
 0001:000213c0       _ProcessOrientCommands     300223c0 f   WalkerNPC.obj
 0001:00021658       $LN10                      30022658     ui_shared.obj
 0001:00021660       $LN8                       30022660     ui_shared.obj
 0001:00024a70       _Display_CloseCinematics   30025a70 f   ui_shared.obj
 0001:0002545c       $LN30                      3002645c     ui_shared.obj
 0001:00027030       $LN21                      30028030     ui_shared.obj
 0001:00027040       $LN15                      30028040     ui_shared.obj
 0001:000274c0       _Item_TextScroll_BuildLines 300284c0 f   ui_shared.obj
 0001:000283bc       $LN81                      300293bc     ui_shared.obj
 0001:000283dc       $LN70                      300293dc     ui_shared.obj
 0001:00028900       _Menu_OverActiveItem       30029900 f   ui_shared.obj
 0001:0002a090       _Scroll_ListBox_AutoFunc   3002b090 f   ui_shared.obj
 0001:0002a100       _Scroll_ListBox_ThumbFunc  3002b100 f   ui_shared.obj
 0001:0002a440       _Scroll_Slider_ThumbFunc   3002b440 f   ui_shared.obj
 0001:0002a500       _Scroll_TextScroll_AutoFunc 3002b500 f   ui_shared.obj
 0001:0002a570       _Scroll_TextScroll_ThumbFunc 3002b570 f   ui_shared.obj
 0001:0002a8f0       _hashForString             3002b8f0 f   ui_shared.obj
 0001:0002a980       _CG_SizeUp_f               3002b980 f   cg_consolecmds.obj
 0001:0002a9b0       _CG_SizeDown_f             3002b9b0 f   cg_consolecmds.obj
 0001:0002a9e0       _CG_Viewpos_f              3002b9e0 f   cg_consolecmds.obj
 0001:0002aa20       _CG_ScoresDown_f           3002ba20 f   cg_consolecmds.obj
 0001:0002aa70       _CG_ScoresUp_f             3002ba70 f   cg_consolecmds.obj
 0001:0002aa90       _CG_scrollScoresDown_f     3002ba90 f   cg_consolecmds.obj
 0001:0002aad0       _CG_scrollScoresUp_f       3002bad0 f   cg_consolecmds.obj
 0001:0002ab10       _CG_spWin_f                3002bb10 f   cg_consolecmds.obj
 0001:0002ab90       _CG_spLose_f               3002bb90 f   cg_consolecmds.obj
 0001:0002ac10       _CG_TellTarget_f           3002bc10 f   cg_consolecmds.obj
 0001:0002ac70       _CG_TellAttacker_f         3002bc70 f   cg_consolecmds.obj
 0001:0002acd0       _CG_StartOrbit_f           3002bcd0 f   cg_consolecmds.obj
 0001:0002ad80       _CG_SiegeBriefing_f        3002bd80 f   cg_consolecmds.obj
 0001:0002adb0       _CG_SiegeCvarUpdate_f      3002bdb0 f   cg_consolecmds.obj
 0001:0002ade0       _CG_SiegeCompleteCvarUpdate_f 3002bde0 f   cg_consolecmds.obj
 0001:0002b630       _CG_ChatBox_DrawStrings    3002c630 f   cg_draw.obj
 0001:0002b920       _CG_Draw2D                 3002c920 f   cg_draw.obj
 0001:0002bf80       _CG_Draw2DScreenTints      3002cf80 f   cg_draw.obj
 0001:0002cd80       _CG_DrawActivePowers       3002dd80 f   cg_draw.obj
 0001:0002ceb0       _CG_DrawAmmo               3002deb0 f   cg_draw.obj
 0001:0002d7d0       _CG_DrawCenterString       3002e7d0 f   cg_draw.obj
 0001:0002da80       _CG_DrawCrosshair          3002ea80 f   cg_draw.obj
 0001:0002e3e0       _CG_DrawCrosshairNames     3002f3e0 f   cg_draw.obj
 0001:0002e620       _CG_DrawDisconnect         3002f620 f   cg_draw.obj
 0001:0002e9b0       _CG_DrawEnemyInfo          3002f9b0 f   cg_draw.obj
 0001:0002ee00       _CG_DrawFPS                3002fe00 f   cg_draw.obj
 0001:0002f1d0       _CG_DrawFollow             300301d0 f   cg_draw.obj
 0001:00030260       _CG_DrawHolocronIcons      30031260 f   cg_draw.obj
 0001:000307f0       _CG_DrawLagometer          300317f0 f   cg_draw.obj
 0001:00030bc0       _CG_DrawMiniScoreboard     30031bc0 f   cg_draw.obj
 0001:00030d20       _CG_DrawPickupItem         30031d20 f   cg_draw.obj
 0001:00030db0       _CG_DrawPowerupIcons       30031db0 f   cg_draw.obj
 0001:00031f14       $LN143                     30032f14     cg_draw.obj
 0001:00031f28       $LN130                     30032f28     cg_draw.obj
 0001:00031f60       _CG_DrawRocketLocking      30032f60 f   cg_draw.obj
 0001:00032480       _CG_DrawSaberStyle         30033480 f   cg_draw.obj
 0001:000324fc       $LN18                      300334fc     cg_draw.obj
 0001:00032520       _CG_DrawSiegeDeathTimer    30033520 f   cg_draw.obj
 0001:00032630       _CG_DrawSiegeHUDItem       30033630 f   cg_draw.obj
 0001:00032bb0       _CG_DrawSiegeTimer         30033bb0 f   cg_draw.obj
 0001:00032cb0       _CG_DrawSnapshot           30033cb0 f   cg_draw.obj
 0001:00032d30       _CG_DrawSpectator          30033d30 f   cg_draw.obj
 0001:000331f0       _CG_DrawStats              300341f0 f   cg_draw.obj
 0001:000332d0       _CG_DrawTeamOverlay        300342d0 f   cg_draw.obj
 0001:00033710       _CG_DrawTeamVote           30034710 f   cg_draw.obj
 0001:00033860       _CG_DrawTimer              30034860 f   cg_draw.obj
 0001:00033920       _CG_DrawUpperRight         30034920 f   cg_draw.obj
 0001:000340e0       $LN28                      300350e0     cg_draw.obj
 0001:00034a10       _CG_DrawVote               30035a10 f   cg_draw.obj
 0001:00034dd0       _CG_DrawWarmup             30035dd0 f   cg_draw.obj
 0001:000351b0       _CG_DrawZoomMask           300361b0 f   cg_draw.obj
 0001:00035ca0       _CG_ScanForCrosshairEntity 30036ca0 f   cg_draw.obj
 0001:0003639c       $LN13                      3003739c     cg_draw.obj
 0001:00036434       $LN23                      30037434     cg_draw.obj
 0001:00036444       $LN24                      30037444     cg_draw.obj
 0001:000364a0       $LN13                      300374a0     cg_draw.obj
 0001:00036ad8       $LN65                      30037ad8     cg_drawtools.obj
 0001:0003782c       $LN13                      3003882c     cg_effects.obj
 0001:00037850       _CG_CalcBiLerp             30038850 f   cg_effects.obj
 0001:00037d30       _CG_CalcHeightWidth        30038d30 f   cg_effects.obj
 0001:00038604       $LN66                      30039604     cg_effects.obj
 0001:00038628       $LN59                      30039628     cg_effects.obj
 0001:0003863c       $LN67                      3003963c     cg_effects.obj
 0001:00038a30       _CG_DoGlassQuad            30039a30 f   cg_effects.obj
 0001:00039010       $LN38                      3003a010     cg_effects.obj
 0001:00039030       $LN35                      3003a030     cg_effects.obj
 0001:000394c0       _CG_AddCEntity             3003a4c0 f   cg_ents.obj
 0001:00039608       $LN28                      3003a608     cg_ents.obj
 0001:0003a140       _CG_EntityEffects          3003b140 f   cg_ents.obj
 0001:0003a2c0       _CG_FX                     3003b2c0 f   cg_ents.obj
 0001:0003a410       _CG_General                3003b410 f   cg_ents.obj
 0001:0003c300       _CG_InterpolateEntityPosition 3003d300 f   cg_ents.obj
 0001:0003c470       _CG_Item                   3003d470 f   cg_ents.obj
 0001:0003cf9c       $LN97                      3003df9c     cg_ents.obj
 0001:0003cfe0       _CG_Missile                3003dfe0 f   cg_ents.obj
 0001:0003d810       _CG_Mover                  3003e810 f   cg_ents.obj
 0001:0003dc20       _CG_Portal                 3003ec20 f   cg_ents.obj
 0001:0003e4b0       _CG_RenderTimeEntBolt      3003f4b0 f   cg_ents.obj
 0001:0003e940       _CG_Speaker                3003f940 f   cg_ents.obj
 0001:0003ea30       _CG_TeamBase               3003fa30 f   cg_ents.obj
 0001:0004258c       $LN735                     3004358c     cg_event.obj
 0001:000427a4       $LN690                     300437a4     cg_event.obj
 0001:00042864       $LN736                     30043864     cg_event.obj
 0001:00042890       $LN691                     30043890     cg_event.obj
 0001:000428ac       $LN737                     300438ac     cg_event.obj
 0001:000428bc       $LN738                     300438bc     cg_event.obj
 0001:000428d4       $LN739                     300438d4     cg_event.obj
 0001:000428e4       $LN740                     300438e4     cg_event.obj
 0001:00042930       $LN741                     30043930     cg_event.obj
 0001:00042ba0       $LN27                      30043ba0     cg_event.obj
 0001:00042bac       $LN22                      30043bac     cg_event.obj
 0001:00042d20       _CG_ItemPickup             30043d20 f   cg_event.obj
 0001:00042ec0       _CG_Obituary               30043ec0 f   cg_event.obj
 0001:00043410       $LN113                     30044410     cg_event.obj
 0001:0004341c       $LN102                     3004441c     cg_event.obj
 0001:00043428       $LN114                     30044428     cg_event.obj
 0001:0004343c       $LN103                     3004443c     cg_event.obj
 0001:00043460       $LN115                     30044460     cg_event.obj
 0001:000434c4       $LN105                     300444c4     cg_event.obj
 0001:00043884       $LN31                      30044884     cg_event.obj
 0001:00043990       _CG_UseItem                30044990 f   cg_event.obj
 0001:00043a74       $LN24                      30044a74     cg_event.obj
 0001:000445d8       $LN68                      300455d8     cg_info.obj
 0001:00044600       $LN69                      30045600     cg_info.obj
 0001:00044a50       _CG_AddExplosion           30045a50 f   cg_localents.obj
 0001:00044b80       _CG_AddFadeScaleModel      30045b80 f   cg_localents.obj
 0001:00044cf0       _CG_AddFallScaleFade       30045cf0 f   cg_localents.obj
 0001:0004515c       $LN34                      3004615c     cg_localents.obj
 0001:000451a0       _CG_AddMoveScaleFade       300461a0 f   cg_localents.obj
 0001:00045400       _CG_AddPuff                30046400 f   cg_localents.obj
 0001:000455b0       _CG_AddScaleFade           300465b0 f   cg_localents.obj
 0001:00045a20       _CG_AddSpriteExplosion     30046a20 f   cg_localents.obj
 0001:00045fb0       _CG_AS_Register            30046fb0 f   cg_main.obj
 0001:00046980       _CG_Cvar_Get               30047980 f   cg_main.obj
 0001:000469d0       _CG_DebugBoxLines          300479d0 f   cg_main.obj
 0001:00046cd0       _CG_DrawCinematic          30047cd0 f   cg_main.obj
 0001:00046e80       _CG_FeederCount            30047e80 f   cg_main.obj
 0001:00047140       _CG_FeederItemText         30048140 f   cg_main.obj
 0001:0004733c       $LN37                      3004833c     cg_main.obj
 0001:00047360       _CG_FeederSelection        30048360 f   cg_main.obj
 0001:00047460       _CG_InfoFromScoreIndex     30048460 f   cg_main.obj
 0001:00048270       _CG_FeederItemImage        30049270 f   cg_main.obj
 0001:00048270       _CG_OwnerDrawHandleKey     30049270 f   cg_main.obj
 0001:00048280       _CG_OwnerDrawWidth         30049280 f   cg_main.obj
 0001:00048334       $LN12                      30049334     cg_main.obj
 0001:0004834c       $LN10                      3004934c     cg_main.obj
 0001:00048620       _CG_PlayCinematic          30049620 f   cg_main.obj
 0001:000487f0       _CG_RagCallback            300497f0 f   cg_main.obj
 0001:000488d8       $LN13                      300498d8     cg_main.obj
 0001:000488f0       _CG_RegisterClients        300498f0 f   cg_main.obj
 0001:00048c60       _CG_RegisterEffects        30049c60 f   cg_main.obj
 0001:00048d20       _CG_RegisterGraphics       30049d20 f   cg_main.obj
 0001:00049bf0       _CG_RegisterItemSounds     3004abf0 f   cg_main.obj
 0001:00049d50       _CG_RegisterSounds         3004ad50 f   cg_main.obj
 0001:0004aa80       _CG_RunCinematicFrame      3004ba80 f   cg_main.obj
 0001:0004afd0       _CG_StopCinematic          3004bfd0 f   cg_main.obj
 0001:0004b1d0       _C_G2Mark                  3004c1d0 f   cg_main.obj
 0001:0004b2d0       _C_G2Trace                 3004c2d0 f   cg_main.obj
 0001:0004b300       _C_GetLerpData             3004c300 f   cg_main.obj
 0001:0004b3e0       _C_ImpactMark              3004c3e0 f   cg_main.obj
 0001:0004b430       _C_Trace                   3004c430 f   cg_main.obj
 0001:0004b7b8       $LN48                      3004c7b8     cg_main.obj
 0001:0004e328       $LN18                      3004f328     cg_newDraw.obj
 0001:0004e350       $LN16                      3004f350     cg_newDraw.obj
 0001:0004e6a0       __TlgDefineProvider_annotation__Tlg_Microsoft_CRTProviderProv 3004f6a0 f   libvcruntime:telemetry.obj
 0001:0004e6f4       $LN14                      3004f6f4     cg_newDraw.obj
 0001:0004f898       $LN104                     30050898     cg_players.obj
 0001:0004fd40       _CG_ColorFromInt           30050d40 f   cg_players.obj
 0001:0004fda0       _CG_ColorFromString        30050da0 f   cg_players.obj
 0001:0004fe10       _CG_CopyClientInfoModel    30050e10 f   cg_players.obj
 0001:00050770       _CG_CreateSurfaceDebris    30051770 f   cg_players.obj
 0001:000509b0       _CG_CreateSurfaceSmoke     300519b0 f   cg_players.obj
 0001:00051224       $LN20                      30052224     cg_players.obj
 0001:00051240       _CG_DoSaberLight           30052240 f   cg_players.obj
 0001:00051af0       _CG_ForceElectrocution     30052af0 f   cg_players.obj
 0001:000521a0       $LN82                      300531a0     cg_players.obj
 0001:000521c0       _CG_ForceGripEffect        300531c0 f   cg_players.obj
 0001:000523a0       _CG_ForcePushBlur          300533a0 f   cg_players.obj
 0001:000527f0       _CG_ForcePushBodyBlur      300537f0 f   cg_players.obj
 0001:00052f24       $LN97                      30053f24     cg_players.obj
 0001:00053180       _CG_G2PlayerAngles         30054180 f   cg_players.obj
 0001:00053bf0       _CG_G2SetHeadAnim          30054bf0 f   cg_players.obj
 0001:00053cd0       _CG_G2SetHeadBlink         30054cd0 f   cg_players.obj
 0001:00054040       _CG_InitG2SaberData        30055040 f   cg_players.obj
 0001:00059cfc       $LN35                      3005acfc     cg_players.obj
 0001:00059fec       $LN77                      3005afec     cg_players.obj
 0001:0005a000       _CG_PlayerAnimation        3005b000 f   cg_players.obj
 0001:0005a170       _CG_PlayerFlag             3005b170 f   cg_players.obj
 0001:0005a410       _CG_PlayerFloatSprite      3005b410 f   cg_players.obj
 0001:0005a4d0       _CG_PlayerFootsteps        3005b4d0 f   cg_players.obj
 0001:0005a690       _CG_PlayerPowerups         3005b690 f   cg_players.obj
 0001:0005a7e0       _CG_PlayerShadow           3005b7e0 f   cg_players.obj
 0001:0005aae0       _CG_PlayerSplash           3005bae0 f   cg_players.obj
 0001:0005acb0       _CG_PlayerSprites          3005bcb0 f   cg_players.obj
 0001:0005ad50       _CG_RGBForSaberColor       3005bd50 f   cg_players.obj
 0001:0005adfc       $LN13                      3005bdfc     cg_players.obj
 0001:0005aea0       _CG_RagAnimForPositioning  3005bea0 f   cg_players.obj
 0001:0005c020       _CG_RegisterClientModelname 3005d020 f   cg_players.obj
 0001:0005ca70       _CG_RunLerpFrame           3005da70 f   cg_players.obj
 0001:0005cee0       _CG_ScanForExistingClientInfo 3005dee0 f   cg_players.obj
 0001:0005d1a0       _CG_SetDeferredClientInfo  3005e1a0 f   cg_players.obj
 0001:0005d320       _CG_SetLerpFrameAnimation  3005e320 f   cg_players.obj
 0001:0005db50       _CG_VehicleEffects         3005eb50 f   cg_players.obj
 0001:0005e400       __PlayerFootStep           3005f400 f   cg_players.obj
 0001:0005e744       $LN69                      3005f744     cg_players.obj
 0001:0005e770       $LN66                      3005f770     cg_players.obj
 0001:0005f070       _CG_ClipMoveToEntities     30060070 f   cg_predict.obj
 0001:0005f520       _CG_InterpolatePlayerState 30060520 f   cg_predict.obj
 0001:0005f6b0       _CG_InterpolateVehiclePlayerState 300606b0 f   cg_predict.obj
 0001:0005f840       _CG_Piloting               30060840 f   cg_predict.obj
 0001:00060b60       _CG_TouchItem              30061b60 f   cg_predict.obj
 0001:00060cb0       _CG_TouchTriggerPrediction 30061cb0 f   cg_predict.obj
 0001:00060e70       _CG_VehicleClipCheck       30061e70 f   cg_predict.obj
 0001:000617c0       $LN46                      300627c0     cg_saga.obj
 0001:00062370       _CG_SiegeObjectiveBuffer   30063370 f   cg_saga.obj
 0001:000626f0       _CG_DrawClientScore        300636f0 f   cg_scoreboard.obj
 0001:00063690       _CG_TeamScoreboard         30064690 f   cg_scoreboard.obj
 0001:00063720       _CG_BodyQueueCopy          30064720 f   cg_servercmds.obj
 0001:00063b30       _CG_ConfigStringModified   30064b30 f   cg_servercmds.obj
 0001:000648a0       _CG_MapRestart             300658a0 f   cg_servercmds.obj
 0001:00064970       _CG_ParseScores            30065970 f   cg_servercmds.obj
 0001:00064f40       _CG_ParseTeamInfo          30065f40 f   cg_servercmds.obj
 0001:000650ec       $LN41                      300660ec     cg_servercmds.obj
 0001:00065110       _CG_RegisterCustomSounds   30066110 f   cg_servercmds.obj
 0001:00065210       $LN33                      30066210     cg_servercmds.obj
 0001:00065230       _CG_RemoveChatEscapeChar   30066230 f   cg_servercmds.obj
 0001:00065260       _CG_ServerCommand          30066260 f   cg_servercmds.obj
 0001:00065f60       _GetCustomSoundForType     30066f60 f   cg_servercmds.obj
 0001:00065fc0       $LN13                      30066fc0     cg_servercmds.obj
 0001:00066060       $LN13                      30067060     cg_servercmds.obj
 0001:00066270       _CG_ReadNextSnapshot       30067270 f   cg_snapshot.obj
 0001:00066300       _CG_ResetEntity            30067300 f   cg_snapshot.obj
 0001:00066520       _CG_SetNextSnap            30067520 f   cg_snapshot.obj
 0001:00066630       _CG_TransitionSnapshot     30067630 f   cg_snapshot.obj
 0001:00068820       _CG_AddRefentForAutoMap    30069820 f   cg_view.obj
 0001:00068950       _CG_AddTestModel           30069950 f   cg_view.obj
 0001:00068ac0       _CG_CalcFov                30069ac0 f   cg_view.obj
 0001:00068e60       _CG_CalcIdealThirdPersonViewLocation 30069e60 f   cg_view.obj
 0001:00068f80       _CG_CalcIdealThirdPersonViewTarget 30069f80 f   cg_view.obj
 0001:00069140       _CG_CalcViewValues         3006a140 f   cg_view.obj
 0001:00069570       _CG_CalcVrect              3006a570 f   cg_view.obj
 0001:00069900       _CG_DamageBlendBlob        3006a900 f   cg_view.obj
 0001:0006ac50       _CG_OffsetFighterView      3006bc50 f   cg_view.obj
 0001:0006af30       _CG_OffsetFirstPersonView  3006bf30 f   cg_view.obj
 0001:0006b2f0       _CG_OffsetThirdPersonView  3006c2f0 f   cg_view.obj
 0001:0006b770       _CG_PlayBufferedSounds     3006c770 f   cg_view.obj
 0001:0006b7e0       _CG_ResetThirdPersonViewDamp 3006c7e0 f   cg_view.obj
 0001:0006be30       _CG_ThirdPersonActionCam   3006ce30 f   cg_view.obj
 0001:0006c280       _CG_UpdateThirdPersonCameraDamp 3006d280 f   cg_view.obj
 0001:0006c5f0       _CG_UpdateThirdPersonTargetDamp 3006d5f0 f   cg_view.obj
 0001:0006d9bc       $LN76                      3006e9bc     cg_weaponinit.obj
 0001:0006e5d0       _CG_AddWeaponWithPowerups  3006f5d0 f   cg_weapons.obj
 0001:0006e980       _CG_CalculateWeaponPosition 3006f980 f   cg_weapons.obj
 0001:0006f9c0       _CG_MapTorsoToWeaponFrame  300709c0 f   cg_weapons.obj
 0001:0006fc50       $LN31                      30070c50     cg_weapons.obj
 0001:0006fdfc       $LN29                      30070dfc     cg_weapons.obj
 0001:00070430       _CG_WeaponSelectable       30071430 f   cg_weapons.obj
 0001:000707a4       $LN10                      300717a4     fx_bryarpistol.obj
 0001:000710b0       _CG_DistortionOrb          300720b0 f   fx_heavyrepeater.obj
 0001:00071460       $$000000                   30072460     LIBCMT:chkstk.obj
 0001:00071490       $$000000                   30072490     LIBCMT:_ftol2_.obj
 0001:00071545       ?dllmain_crt_dispatch@@YGHQAUHINSTANCE__@@KQAX@Z 30072545 f   LIBCMT:dll_dllmain.obj
 0001:00071598       ?dllmain_crt_process_attach@@YAHQAUHINSTANCE__@@QAX@Z 30072598 f   LIBCMT:dll_dllmain.obj
 0001:000716aa       ?dllmain_crt_process_detach@@YAH_N@Z 300726aa f   LIBCMT:dll_dllmain.obj
 0001:00071727       ?dllmain_dispatch@@YAHQAUHINSTANCE__@@KQAX@Z 30072727 f   LIBCMT:dll_dllmain.obj
 0001:00071830       ?dllmain_raw@@YGHQAUHINSTANCE__@@KQAX@Z 30072830 f   LIBCMT:dll_dllmain.obj
 0001:00071a1e       ?find_pe_section@@YAPAU_IMAGE_SECTION_HEADER@@QAEI@Z 30072a1e f   LIBCMT:utility.obj
 0001:00071fa0       $$000000                   30072fa0     LIBCMT:_sehprolg4_.obj
 0001:00072140       $$000000                   30073140     libvcruntime:memset.obj
 0001:000722a0       $$000000                   300732a0     libvcruntime:strchr.obj
 0001:000723d0       $$000000                   300733d0     libvcruntime:strstr.obj
 0001:00072640       $$000000                   30073640     libvcruntime:memmove.obj
 0001:000728a4       TrailingUpVec              300738a4     libvcruntime:memmove.obj
 0001:00072950       TrailingDownVec            30073950     libvcruntime:memmove.obj
 0001:00072bc0       $$000000                   30073bc0     libvcruntime:memcpy.obj
 0001:00072e24       TrailingUpVec              30073e24     libvcruntime:memcpy.obj
 0001:00072ed0       TrailingDownVec            30073ed0     libvcruntime:memcpy.obj
 0001:00073134       ?__telemetry_getfilename@@YAXPAUHINSTANCE__@@PA_WK@Z 30074134 f   libvcruntime:telemetry.obj
 0001:000732d0       _ValidateLocalCookies      300742d0 f   libvcruntime:_chandler4_.obj
 0001:0007351a       ?try_get_function@@YAPAXW4function_id@?A0x1821e63c@@QBDQBW4module_id@2@2@Z 3007451a f   libvcruntime:winapi_downlevel.obj
 0001:000735ba       ?try_get_module@@YAPAUHINSTANCE__@@W4module_id@?A0x1821e63c@@@Z 300745ba f   libvcruntime:winapi_downlevel.obj
 0001:000738d0       $$000000                   300748d0     libvcruntime:_exsup4_.obj
 0001:00073960       __unwind_handler4          30074960 f   libvcruntime:_exsup4_.obj
 0001:00073bd0       $$000000                   30074bd0     libvcruntime:_exsup_.obj
 0001:00073bf0       __unwind_handler           30074bf0 f   libvcruntime:_exsup_.obj
 0001:00073ec6       ??$common_atof_l@D@@YANQBDQAU__crt_locale_pointers@@@Z 30074ec6 f   libucrt:atof.obj
 0001:00074768       $LN38                      30075768     libucrt:atof.obj
 0001:0007486c       $LN21                      3007586c     libucrt:atof.obj
 0001:00074917       ??R<lambda_3a2f1c4b88a94fdfdc7bccff06592946>@@QBE_NXZ 30075917 f   libucrt:atof.obj
 0001:00074917       ??R<lambda_952f81e62542d0a726c252b8c2136a43>@@QBE_NXZ 30075917 f   libucrt:atof.obj
 0001:00074917       ??R<lambda_af0d5e41dc07595f2c52435db9a0efad>@@QBE_NXZ 30075917 f   libucrt:atof.obj
 0001:000772bd       ??$common_vsscanf@D@@YAH_KQBDI1QAU__crt_locale_pointers@@QAD@Z 300782bd f   libucrt:input.obj
 0001:00078336       ??R<lambda_24bca0711811e6233a81aece93ea4a83>@@QBE_NXZ 30079336 f   libucrt:input.obj
 0001:00078336       ??R<lambda_4794eb6df3f6f7d20e048423b4e04b2b>@@QBE_NXZ 30079336 f   libucrt:input.obj
 0001:00078336       ??R<lambda_79c077965043167fb4fbb9f601780f11>@@QBE_NXZ 30079336 f   libucrt:input.obj
 0001:00078660       $LN22                      30079660     libucrt:input.obj
 0001:00078dd9       $LN18                      30079dd9     libucrt:input.obj
 0001:00079500       $$000000                   3007a500     libucrt:87ctriga.obj
 0001:00079520       $$000000                   3007a520     libucrt:cos_sse2_precise.obj
 0001:000796e0       $$000000                   3007a6e0     libucrt:sin_sse2_precise.obj
 0001:000798b0       $$000000                   3007a8b0     libucrt:ceil_pentium4.obj
 0001:000799d0       $$000000                   3007a9d0     libucrt:floor_pentium4.obj
 0001:00079ad0       $$000000                   3007aad0     libucrt:sqrt_sse2_precise.obj
 0001:00079bd0       $$000000                   3007abd0     libucrt:87fmod.obj
 0001:00079c00       $$000000                   3007ac00     libucrt:acos_sse2_precise.obj
 0001:0007a120       ??$common_vsprintf@Vstandard_base@__crt_stdio_output@@D@@YAH_KQADIQBDQAU__crt_locale_pointers@@1@Z 3007b120 f   libucrt:output.obj
 0001:0007a7f4       $LN54                      3007b7f4     libucrt:output.obj
 0001:0007ad12       $LN19                      3007bd12     libucrt:output.obj
 0001:0007b3c0       $$000000                   3007c3c0     libucrt:strncpy.obj
 0001:0007b505       ??$common_tox_l@$1?internal_islower_l@@YA_NHQAU__crt_locale_pointers@@@Z$1?internal_map_upper@@YAHH0@Z@@YAHHKQAU__crt_locale_pointers@@@Z 3007c505 f   libucrt:tolower_toupper.obj
 0001:0007b64f       ??$common_tox_l@$1?internal_isupper_l@@YA_NHQAU__crt_locale_pointers@@@Z$1?internal_map_lower@@YAHH0@Z@@YAHHKQAU__crt_locale_pointers@@@Z 3007c64f f   libucrt:tolower_toupper.obj
 0001:0007b799       ?internal_islower_l@@YA_NHQAU__crt_locale_pointers@@@Z 3007c799 f   libucrt:tolower_toupper.obj
 0001:0007b7b6       ?internal_isupper_l@@YA_NHQAU__crt_locale_pointers@@@Z 3007c7b6 f   libucrt:tolower_toupper.obj
 0001:0007b870       $$000000                   3007c870     libucrt:tan_sse2_precise.obj
 0001:0007bae0       $$000000                   3007cae0     libucrt:strncmp.obj
 0001:0007bb60       $$000000                   3007cb60     libucrt:pow_sse2_precise.obj
 0001:0007c8e4       ?atexit_exception_filter@@YAHK@Z 3007d8e4 f   libucrt:exit.obj
 0001:0007c8f7       ?common_exit@@YAXHW4_crt_exit_cleanup_mode@@W4_crt_exit_return_mode@@@Z 3007d8f7 f   libucrt:exit.obj
 0001:0007ca10       ?exit_or_terminate_process@@YAXI@Z 3007da10 f   libucrt:exit.obj
 0001:0007ca51       ?is_managed_app@@YA_NXZ    3007da51 f   libucrt:exit.obj
 0001:0007ca95       ?try_cor_exit_process@@YAXI@Z 3007da95 f   libucrt:exit.obj
 0001:0007cb39       ??$common_initialize_environment_nolock@D@@YAHXZ 3007db39 f   libucrt:environment_initialization.obj
 0001:0007cb92       ??$create_environment@D@@YAQAPADQAD@Z 3007db92 f   libucrt:environment_initialization.obj
 0001:0007cc63       ??$free_environment@D@@YAXQAPAD@Z 3007dc63 f   libucrt:environment_initialization.obj
 0001:0007cc63       ??$free_environment@_W@@YAXQAPA_W@Z 3007dc63 f   libucrt:environment_initialization.obj
 0001:0007ccd2       ??$uninitialize_environment_internal@D@@YAXAAPAPAD@Z 3007dcd2 f   libucrt:environment_initialization.obj
 0001:0007cced       ??$uninitialize_environment_internal@_W@@YAXAAPAPA_W@Z 3007dced f   libucrt:environment_initialization.obj
 0001:0007ce55       ??R<lambda_275893d493268fdec8709772e3fcec0e>@@QBEHXZ 3007de55 f   libucrt:onexit.obj
 0001:0007cf75       ??R<lambda_4e60a939b0d047cfe11ddc22648dfba9>@@QBEHXZ 3007df75 f   libucrt:onexit.obj
 0001:0007d14a       _initialize_global_variables 3007e14a f   libucrt:initialization.obj
 0001:0007d15c       _initialize_c              3007e15c f   libucrt:initialization.obj
 0001:0007d176       _uninitialize_environment  3007e176 f   libucrt:initialization.obj
 0001:0007d17e       _uninitialize_global_state_isolation 3007e17e f   libucrt:initialization.obj
 0001:0007d17e       _report_memory_leaks       3007e17e f   libucrt:initialization.obj
 0001:0007d17e       _initialize_global_state_isolation 3007e17e f   libucrt:initialization.obj
 0001:0007d17e       _initialize_environment    3007e17e f   libucrt:initialization.obj
 0001:0007d17e       _uninitialize_c            3007e17e f   libucrt:initialization.obj
 0001:0007d181       _initialize_pointers       3007e181 f   libucrt:initialization.obj
 0001:0007d1be       _uninitialize_vcruntime    3007e1be f   libucrt:initialization.obj
 0001:0007d1c7       _uninitialize_allocated_memory 3007e1c7 f   libucrt:initialization.obj
 0001:0007db08       ?construct_ptd@@YAXQAU__acrt_ptd@@QAPAU__crt_locale_data@@@Z 3007eb08 f   libucrt:per_thread_data.obj
 0001:0007db81       ?destroy_fls@@YGXPAX@Z     3007eb81 f   libucrt:per_thread_data.obj
 0001:0007dba2       ?destroy_ptd@@YAXQAU__acrt_ptd@@@Z 3007eba2 f   libucrt:per_thread_data.obj
 0001:0007dc4b       ?replace_current_thread_locale_nolock@@YAXQAU__acrt_ptd@@QAU__crt_locale_data@@@Z 3007ec4b f   libucrt:per_thread_data.obj
 0001:0007e3a9       ?initialize_inherited_file_handles_nolock@@YAXXZ 3007f3a9 f   libucrt:ioinit.obj
 0001:0007e45f       ?initialize_stdio_handles_nolock@@YAXXZ 3007f45f f   libucrt:ioinit.obj
 0001:0007e5a0       $$000000                   3007f5a0     libucrt:87triga.obj
 0001:0007e650       $$000000                   3007f650     libucrt:87cdisp.obj
 0001:0007e8e0       $$000000                   3007f8e0     libucrt:cos.obj
 0001:0007ea10       $$000000                   3007fa10     libucrt:sin.obj
 0001:0007eed0       $$000000                   3007fed0     libucrt:sqrt.obj
 0001:0007ef90       $$000000                   3007ff90     libucrt:87disp.obj
 0001:0007f190       $$000000                   30080190     libucrt:acos.obj
 0001:0007f63e       ?fp_format_a@@YAHQBNPADIQADIH_NIQAU__crt_locale_pointers@@@Z 3008063e f   libucrt:cvt.obj
 0001:0007f941       ?fp_format_e@@YAHQBNQADI1IH_NIQAU__crt_locale_pointers@@@Z 30080941 f   libucrt:cvt.obj
 0001:0007f9dc       ?fp_format_e_internal@@YAHQADIH_NIQAU_strflt@@1QAU__crt_locale_pointers@@@Z 300809dc f   libucrt:cvt.obj
 0001:0007fb27       ?fp_format_f@@YAHQBNQADI1IHQAU__crt_locale_pointers@@@Z 30080b27 f   libucrt:cvt.obj
 0001:0007fbb4       ?fp_format_f_internal@@YAHQADIHQAU_strflt@@_NQAU__crt_locale_pointers@@@Z 30080bb4 f   libucrt:cvt.obj
 0001:0007fc8b       ?fp_format_g@@YAHQBNQADI1IH_NIQAU__crt_locale_pointers@@@Z 30080c8b f   libucrt:cvt.obj
 0001:0007fd53       ?fp_format_nan_or_infinity@@YAHW4__acrt_fp_class@@_NPADI1@Z 30080d53 f   libucrt:cvt.obj
 0001:0007fe4b       ?shift_bytes@@YAXQADI0H@Z  30080e4b f   libucrt:cvt.obj
 0001:00080017       ?__acrt_LCMapStringA_stat@@YAHPAU__crt_locale_pointers@@PB_WKPBDHPADHHH@Z 30081017 f   libucrt:lcmapstringa.obj
 0001:000802a0       $$000000                   300812a0     libucrt:tan.obj
 0001:000803d0       $$000000                   300813d0     libucrt:pow.obj
 0001:000806f9       ?try_get_function@@YAPAXW4function_id@?A0x352e5c4b@@QBDQBW4module_id@2@2@Z 300816f9 f   libucrt:winapi_thunks.obj
 0001:00080795       ?try_get_module@@YAPAUHINSTANCE__@@W4module_id@?A0x352e5c4b@@@Z 30081795 f   libucrt:winapi_thunks.obj
 0001:00080bff       ??R<lambda_ad1ced32f4ac17aa236e5ef05d6b3b7c>@@QBEXXZ 30081bff f   libucrt:mbctype.obj
 0001:00080cc3       ?CPtoLocaleName@@YAPB_WH@Z 30081cc3 f   libucrt:mbctype.obj
 0001:00080d01       ?getSystemCP@@YAHH@Z       30081d01 f   libucrt:mbctype.obj
 0001:00080d74       ?setSBCS@@YAXPAU__crt_multibyte_data@@@Z 30081d74 f   libucrt:mbctype.obj
 0001:00080dd9       ?setSBUpLow@@YAXPAU__crt_multibyte_data@@@Z 30081dd9 f   libucrt:mbctype.obj
 0001:00080f6d       ?setmbcp_internal@@YAHH_N@Z 30081f6d f   libucrt:mbctype.obj
 0001:0008131f       _memcpy_s                  3008231f f   libucrt:atof.obj
 0001:0008131f       _memcpy_s                  3008231f f   libucrt:cfout.obj
 0001:0008131f       _memcpy_s                  3008231f f   libucrt:mbctype.obj
 0001:000813a0       ?find_end_of_double_null_terminated_sequence@@YAPB_WQB_W@Z 300823a0 f   libucrt:get_environment_from_os.obj
 0001:00081702       ?get_global_action_nolock@@YAPAP6AXH@ZH@Z 30082702 f   libucrt:signal.obj
 0001:00081744       ?siglookup@@YAPAU__crt_signal_action_t@@HQAU1@@Z 30082744 f   libucrt:signal.obj
 0001:00081ef9       ___get_abstract_control_sse2 30082ef9 f   libucrt:_fenvutils.obj
 0001:00081f76       ___get_abstract_control_x87 30082f76 f   libucrt:_fenvutils.obj
 0001:00081fe9       ___get_machine_control     30082fe9 f   libucrt:_fenvutils.obj
 0001:0008205a       ___get_machine_control_sse2 3008305a f   libucrt:_fenvutils.obj
 0001:000820da       ___get_machine_status_sse2 300830da f   libucrt:_fenvutils.obj
 0001:0008213b       ___get_machine_status_x87  3008313b f   libucrt:_fenvutils.obj
 0001:000824ee       ?free_crt_array_internal@@YAXQAPBXI@Z 300834ee f   libucrt:inittime.obj
 0001:00082764       _common_flush_all          30083764 f   libucrt:fflush.obj
 0001:00082c10       $$000000                   30083c10     libucrt:cos_pentium4.obj
 0001:00082dc0       $$000000                   30083dc0     libucrt:common.obj
 0001:00082f50       $$000000                   30083f50     libucrt:genexcep.obj
 0001:00082fb0       $$000000                   30083fb0     libucrt:sin_pentium4.obj
 0001:00083a70       $$000000                   30084a70     libucrt:acos_pentium4.obj
 0001:000854c0       $$000000                   300864c0     libucrt:tan_pentium4.obj
 0001:00085720       $$000000                   30086720     libucrt:pow_pentium4.obj
 0001:00086240       $$000000                   30087240     libucrt:87tran.obj
 0001:000865cc       ?GetTableIndexFromLocaleName@@YAHPB_W@Z 300875cc f   libucrt:lcidtoname_downlevel.obj
 0001:000866b4       ?initialize_multibyte@@YAHXZ 300876b4 f   libucrt:multibyte_initializer.obj
 0001:00086984       ?write_double_translated_ansi_nolock@@YA?AUwrite_result@?A0x47fa6670@@HQBDI@Z 30087984 f   libucrt:write.obj
 0001:00086b37       ?write_double_translated_unicode_nolock@@YA?AUwrite_result@?A0x47fa6670@@QBDI@Z 30087b37 f   libucrt:write.obj
 0001:00086ba4       ?write_requires_double_translation_nolock@@YA_NH@Z 30087ba4 f   libucrt:write.obj
 0001:00086c1a       ?write_text_ansi_nolock@@YA?AUwrite_result@?A0x47fa6670@@HQBDI@Z 30087c1a f   libucrt:write.obj
 0001:00086cf9       ?write_text_utf16le_nolock@@YA?AUwrite_result@?A0x47fa6670@@HQBDI@Z 30087cf9 f   libucrt:write.obj
 0001:00086de7       ?write_text_utf8_nolock@@YA?AUwrite_result@?A0x47fa6670@@HQBDI@Z 30087de7 f   libucrt:write.obj
 0001:000872d0       $$000000                   300882d0     libucrt:log10.obj
 0001:00087420       ??$common_lseek_nolock@_J@@YA_JH_JH@Z 30088420 f   libucrt:lseek.obj
 0001:00087880       $$000000                   30088880     libucrt:log10_pentium4.obj
 0001:00087b10       $$000000                   30088b10     libucrt:_strnicm.obj
 0001:00087d10       $$000000                   30088d10     LIBCMT:ulldvrm.obj
 0001:00087db0       $$000000                   30088db0     LIBCMT:llmul.obj
 0001:00087df0       $$000000                   30088df0     LIBCMT:llshl.obj
 0001:00087e10       $$000000                   30088e10     LIBCMT:ullshr.obj
 0001:00087e30       $$000000                   30088e30     LIBCMT:_sehprolg4gs_.obj
 0001:00087e90       $$000000                   30088e90     LIBCMT:lldvrm.obj
 0001:00087f70       $$000000                   30088f70     LIBCMT:alloca16.obj
 0001:00087fa0       $$000000                   30088fa0     libvcruntime:strrchr.obj
 0002:000161c4       _GS_ExceptionPointers      300a01c4     LIBCMT:gs_report.obj
 0002:000161f4       ?module_names@?A0x1821e63c@@3QBQB_WB 300a01f4     libvcruntime:winapi_downlevel.obj
 0002:000162a4       ?candidate_modules@?1??try_get_EventRegister@@YAP6GKPBU_GUID@@P6GX0KE_K1PAU_EVENT_FILTER_DESCRIPTOR@@PAX@Z3PA_K@ZXZ@4QBW4module_id@?A0x1821e63c@@B 300a02a4     libvcruntime:winapi_downlevel.obj
 0002:000162b8       ?candidate_modules@?1??try_get_EventSetInformation@@YAP6GK_KW4_EVENT_INFO_CLASS@@PAXK@ZXZ@4QBW4module_id@?A0x1821e63c@@B 300a02b8     libvcruntime:winapi_downlevel.obj
 0002:000162d0       ?candidate_modules@?1??try_get_EventUnregister@@YAP6GK_K@ZXZ@4QBW4module_id@?A0x1821e63c@@B 300a02d0     libvcruntime:winapi_downlevel.obj
 0002:000162e4       ?candidate_modules@?1??try_get_EventWriteTransfer@@YAP6GK_KPBU_EVENT_DESCRIPTOR@@PBU_GUID@@2KPAU_EVENT_DATA_DESCRIPTOR@@@ZXZ@4QBW4module_id@?A0x1821e63c@@B 300a02e4     libvcruntime:winapi_downlevel.obj
 0002:000162fc       ?candidate_modules@?1??try_get_FlsAlloc@@YAP6GKP6GXPAX@Z@ZXZ@4QBW4module_id@?A0x1821e63c@@B 300a02fc     libvcruntime:winapi_downlevel.obj
 0002:00016310       ?candidate_modules@?1??try_get_FlsFree@@YAP6GHK@ZXZ@4QBW4module_id@?A0x1821e63c@@B 300a0310     libvcruntime:winapi_downlevel.obj
 0002:00016320       ?candidate_modules@?1??try_get_FlsGetValue@@YAP6GPAXK@ZXZ@4QBW4module_id@?A0x1821e63c@@B 300a0320     libvcruntime:winapi_downlevel.obj
 0002:00016334       ?candidate_modules@?1??try_get_FlsSetValue@@YAP6GHKPAX@ZXZ@4QBW4module_id@?A0x1821e63c@@B 300a0334     libvcruntime:winapi_downlevel.obj
 0002:00016348       ?candidate_modules@?1??try_get_InitializeCriticalSectionEx@@YAP6GHPAU_RTL_CRITICAL_SECTION@@KK@ZXZ@4QBW4module_id@?A0x1821e63c@@B 300a0348     libvcruntime:winapi_downlevel.obj
 0002:00016370       ?tokenTable@@3QBQBDB       300a0370     libvcruntime:undname.obj
 0002:000163a8       ?nameTable@@3QBQBDB        300a03a8     libvcruntime:undname.obj
 0002:000164ec       ?rttiTable@@3QBQBDB        300a04ec     libvcruntime:undname.obj
 0002:000176d0       SC_1                       300a16d0     libucrt:cos_sse2_precise.obj
 0002:000176e0       SC_2                       300a16e0     libucrt:cos_sse2_precise.obj
 0002:000176f0       SC_3                       300a16f0     libucrt:cos_sse2_precise.obj
 0002:00017700       SC_4                       300a1700     libucrt:cos_sse2_precise.obj
 0002:00017710       PI32INV                    300a1710     libucrt:cos_sse2_precise.obj
 0002:00017718       SHIFTER                    300a1718     libucrt:cos_sse2_precise.obj
 0002:00017720       P_2                        300a1720     libucrt:cos_sse2_precise.obj
 0002:00017730       P_1                        300a1730     libucrt:cos_sse2_precise.obj
 0002:00017738       P_3                        300a1738     libucrt:cos_sse2_precise.obj
 0002:00017740       TWO_POW_55                 300a1740     libucrt:cos_sse2_precise.obj
 0002:00017748       TWO_POW_M55                300a1748     libucrt:cos_sse2_precise.obj
 0002:00017750       ALL_ONES                   300a1750     libucrt:cos_sse2_precise.obj
 0002:00017758       NEG_ZERO                   300a1758     libucrt:cos_sse2_precise.obj
 0002:00017760       ONE                        300a1760     libucrt:cos_sse2_precise.obj
 0002:00017770       SIGN_MASK                  300a1770     libucrt:cos_sse2_precise.obj
 0002:00017780       SC_1                       300a1780     libucrt:sin_sse2_precise.obj
 0002:00017790       SC_2                       300a1790     libucrt:sin_sse2_precise.obj
 0002:000177a0       SC_3                       300a17a0     libucrt:sin_sse2_precise.obj
 0002:000177b0       SC_4                       300a17b0     libucrt:sin_sse2_precise.obj
 0002:000177c0       PI32INV                    300a17c0     libucrt:sin_sse2_precise.obj
 0002:000177c8       SHIFTER                    300a17c8     libucrt:sin_sse2_precise.obj
 0002:000177d0       P_2                        300a17d0     libucrt:sin_sse2_precise.obj
 0002:000177e0       P_1                        300a17e0     libucrt:sin_sse2_precise.obj
 0002:000177e8       P_3                        300a17e8     libucrt:sin_sse2_precise.obj
 0002:000177f0       TWO_POW_55                 300a17f0     libucrt:sin_sse2_precise.obj
 0002:000177f8       TWO_POW_M55                300a17f8     libucrt:sin_sse2_precise.obj
 0002:00017800       ALL_ONES                   300a1800     libucrt:sin_sse2_precise.obj
 0002:00017808       NEG_ZERO                   300a1808     libucrt:sin_sse2_precise.obj
 0002:00017810       ONE                        300a1810     libucrt:sin_sse2_precise.obj
 0002:00017820       _One                       300a1820     libucrt:ceil_pentium4.obj
 0002:00017830       _Bns                       300a1830     libucrt:ceil_pentium4.obj
 0002:00017840       _Zero                      300a1840     libucrt:ceil_pentium4.obj
 0002:00017850       _S                         300a1850     libucrt:ceil_pentium4.obj
 0002:00017860       _NegZero                   300a1860     libucrt:ceil_pentium4.obj
 0002:00017870       _One                       300a1870     libucrt:floor_pentium4.obj
 0002:00017880       _Bns                       300a1880     libucrt:floor_pentium4.obj
 0002:00017890       _NegOne                    300a1890     libucrt:floor_pentium4.obj
 0002:000178a0       _NegZero                   300a18a0     libucrt:floor_pentium4.obj
 0002:000178b0       _S                         300a18b0     libucrt:floor_pentium4.obj
 0002:00017910       Shifter                    300a1910     libucrt:acos_sse2_precise.obj
 0002:00017920       PI_BY_2                    300a1920     libucrt:acos_sse2_precise.obj
 0002:00017930       NEG_PI                     300a1930     libucrt:acos_sse2_precise.obj
 0002:00017940       PI                         300a1940     libucrt:acos_sse2_precise.obj
 0002:00017950       SIGNMASK                   300a1950     libucrt:acos_sse2_precise.obj
 0002:00017960       HALFMASK                   300a1960     libucrt:acos_sse2_precise.obj
 0002:00017970       HALFMASK2                  300a1970     libucrt:acos_sse2_precise.obj
 0002:00017980       cv                         300a1980     libucrt:acos_sse2_precise.obj
 0002:000179a0       cv2                        300a19a0     libucrt:acos_sse2_precise.obj
 0002:000179e0       ABSVALMASK                 300a19e0     libucrt:acos_sse2_precise.obj
 0002:000179e8       TMASK                      300a19e8     libucrt:acos_sse2_precise.obj
 0002:000179f0       ONEMASK                    300a19f0     libucrt:acos_sse2_precise.obj
 0002:000179f8       ONE_BY_2                   300a19f8     libucrt:acos_sse2_precise.obj
 0002:00017a00       EMIN                       300a1a00     libucrt:acos_sse2_precise.obj
 0002:00017a08       MAX_ARG                    300a1a08     libucrt:acos_sse2_precise.obj
 0002:00017a10       MIN_ARG                    300a1a10     libucrt:acos_sse2_precise.obj
 0002:00017a18       INF                        300a1a18     libucrt:acos_sse2_precise.obj
 0002:00017a20       ZERO                       300a1a20     libucrt:acos_sse2_precise.obj
 0002:00017a28       ALPHA                      300a1a28     libucrt:acos_sse2_precise.obj
 0002:00017ab0       PI32INV                    300a1ab0     libucrt:tan_sse2_precise.obj
 0002:00017ac0       SHIFTER                    300a1ac0     libucrt:tan_sse2_precise.obj
 0002:00017ad0       P_1                        300a1ad0     libucrt:tan_sse2_precise.obj
 0002:00017ae0       P_2                        300a1ae0     libucrt:tan_sse2_precise.obj
 0002:00017af0       P_3                        300a1af0     libucrt:tan_sse2_precise.obj
 0002:00017b00       QQ_2                       300a1b00     libucrt:tan_sse2_precise.obj
 0002:00017b08       ONE                        300a1b08     libucrt:tan_sse2_precise.obj
 0002:00017b10       MASK_35                    300a1b10     libucrt:tan_sse2_precise.obj
 0002:00017b20       sign_mask                  300a1b20     libucrt:tan_sse2_precise.obj
 0002:00017b28       TWO_POW_55                 300a1b28     libucrt:tan_sse2_precise.obj
 0002:00017b30       TWO_POW_M55                300a1b30     libucrt:tan_sse2_precise.obj
 0002:00017b38       TWO_POW_M53                300a1b38     libucrt:tan_sse2_precise.obj
 0002:00017b40       INF                        300a1b40     libucrt:tan_sse2_precise.obj
 0002:00017b50       Shifter                    300a1b50     libucrt:pow_sse2_precise.obj
 0002:00017b60       SIGMASK                    300a1b60     libucrt:pow_sse2_precise.obj
 0002:00017b70       ONEMASK                    300a1b70     libucrt:pow_sse2_precise.obj
 0002:00017b80       ABSVALMASK                 300a1b80     libucrt:pow_sse2_precise.obj
 0002:00017b90       cev                        300a1b90     libucrt:pow_sse2_precise.obj
 0002:00017bb8       HALFSIG                    300a1bb8     libucrt:pow_sse2_precise.obj
 0002:00017bc0       LHN                        300a1bc0     libucrt:pow_sse2_precise.obj
 0002:00017bc8       sNaN                       300a1bc8     libucrt:pow_sse2_precise.obj
 0002:00017bd0       INF                        300a1bd0     libucrt:pow_sse2_precise.obj
 0002:00017bd8       NEG_INF                    300a1bd8     libucrt:pow_sse2_precise.obj
 0002:00017be0       NEG_ZERO                   300a1be0     libucrt:pow_sse2_precise.obj
 0002:00017be8       NEG_BIG                    300a1be8     libucrt:pow_sse2_precise.obj
 0002:00017bf0       POS_BIG                    300a1bf0     libucrt:pow_sse2_precise.obj
 0002:00017bf8       EMIN                       300a1bf8     libucrt:pow_sse2_precise.obj
 0002:00017c00       QIND                       300a1c00     libucrt:pow_sse2_precise.obj
 0002:00017cd8       ___acrt_initializers       300a1cd8     libucrt:initialization.obj
 0002:00017d50       _errtable                  300a1d50     libucrt:errno.obj
 0002:000189d0       DblMax                     300a29d0     libucrt:87cdisp.obj
 0002:000189d8       DblMin                     300a29d8     libucrt:87cdisp.obj
 0002:000189e0       IeeeAdjO                   300a29e0     libucrt:87cdisp.obj
 0002:000189e8       IeeeAdjU                   300a29e8     libucrt:87cdisp.obj
 0002:000189f0       _infinity                  300a29f0     libucrt:87cdisp.obj
 0002:000189f8       _zero                      300a29f8     libucrt:87cdisp.obj
 0002:00018a00       _NAME_                     300a2a00     libucrt:cos.obj
 0002:00019210       _NAME_                     300a3210     libucrt:sin.obj
 0002:00019250       _NAME_                     300a3250     libucrt:sqrt.obj
 0002:0001927e       One                        300a327e     libucrt:87disp.obj
 0002:00019286       Three                      300a3286     libucrt:87disp.obj
 0002:0001928e       XAMtoTagTab                300a328e     libucrt:87disp.obj
 0002:000192a0       _NAME_                     300a32a0     libucrt:acos.obj
 0002:0001aa00       _NAME_                     300a4a00     libucrt:tan.obj
 0002:0001c010       POW_name                   300a6010     libucrt:pow.obj
 0002:0001f8a0       _module_names              300a98a0     libucrt:winapi_thunks.obj
 0002:0001fd40       ?candidate_modules@?1??try_get_FlsAlloc@@YAP6GKP6GXPAX@Z@ZXZ@4QBW4module_id@?A0x352e5c4b@@B 300a9d40     libucrt:winapi_thunks.obj
 0002:0001fd48       ?candidate_modules@?1??try_get_FlsFree@@YAP6GHK@ZXZ@4QBW4module_id@?A0x352e5c4b@@B 300a9d48     libucrt:winapi_thunks.obj
 0002:0001fd50       ?candidate_modules@?1??try_get_FlsGetValue@@YAP6GPAXK@ZXZ@4QBW4module_id@?A0x352e5c4b@@B 300a9d50     libucrt:winapi_thunks.obj
 0002:0001fd58       ?candidate_modules@?1??try_get_FlsSetValue@@YAP6GHKPAX@ZXZ@4QBW4module_id@?A0x352e5c4b@@B 300a9d58     libucrt:winapi_thunks.obj
 0002:0001fd60       ?candidate_modules@?1??try_get_GetCurrentPackageId@@YAP6GJPAIPAE@ZXZ@4QBW4module_id@?A0x352e5c4b@@B 300a9d60     libucrt:winapi_thunks.obj
 0002:0001fd7c       ?candidate_modules@?1??try_get_InitializeCriticalSectionEx@@YAP6GHPAU_RTL_CRITICAL_SECTION@@KK@ZXZ@4QBW4module_id@?A0x352e5c4b@@B 300a9d7c     libucrt:winapi_thunks.obj
 0002:0001fd84       ?candidate_modules@?1??try_get_LCMapStringEx@@YAP6GHPB_WK0HPA_WHPAU_nlsversioninfo@@PAXJ@ZXZ@4QBW4module_id@?A0x352e5c4b@@B 300a9d84     libucrt:winapi_thunks.obj
 0002:0001fd9c       ?candidate_modules@?1??try_get_LocaleNameToLCID@@YAP6GKPB_WK@ZXZ@4QBW4module_id@?A0x352e5c4b@@B 300a9d9c     libucrt:winapi_thunks.obj
 0002:0001fdb8       __mb_locale_names          300a9db8     libucrt:mbctype.obj
 0002:0001fe00       SC_1                       300a9e00     libucrt:cos_pentium4.obj
 0002:0001fe10       SC_2                       300a9e10     libucrt:cos_pentium4.obj
 0002:0001fe20       SC_3                       300a9e20     libucrt:cos_pentium4.obj
 0002:0001fe30       SC_4                       300a9e30     libucrt:cos_pentium4.obj
 0002:0001fe40       PI32INV                    300a9e40     libucrt:cos_pentium4.obj
 0002:0001fe48       SHIFTER                    300a9e48     libucrt:cos_pentium4.obj
 0002:0001fe50       P_2                        300a9e50     libucrt:cos_pentium4.obj
 0002:0001fe60       P_1                        300a9e60     libucrt:cos_pentium4.obj
 0002:0001fe68       P_3                        300a9e68     libucrt:cos_pentium4.obj
 0002:0001fe70       TWO_POW_55                 300a9e70     libucrt:cos_pentium4.obj
 0002:0001fe78       TWO_POW_M55                300a9e78     libucrt:cos_pentium4.obj
 0002:0001fe80       ALL_ONES                   300a9e80     libucrt:cos_pentium4.obj
 0002:0001fe88       NEG_ZERO                   300a9e88     libucrt:cos_pentium4.obj
 0002:0001fe90       ONE                        300a9e90     libucrt:cos_pentium4.obj
 0002:0001fea0       SIGN_MASK                  300a9ea0     libucrt:cos_pentium4.obj
 0002:0001feb0       One                        300a9eb0     libucrt:common.obj
 0002:0001fec4       DblMax                     300a9ec4     libucrt:common.obj
 0002:0001fecc       DblMin                     300a9ecc     libucrt:common.obj
 0002:0001fed4       IeeeAdjO                   300a9ed4     libucrt:common.obj
 0002:0001fedc       IeeeAdjU                   300a9edc     libucrt:common.obj
 0002:0001fee4       _infinity                  300a9ee4     libucrt:common.obj
 0002:0001feec       _zero                      300a9eec     libucrt:common.obj
 0002:0001ff00       SC_1                       300a9f00     libucrt:sin_pentium4.obj
 0002:0001ff10       SC_2                       300a9f10     libucrt:sin_pentium4.obj
 0002:0001ff20       SC_3                       300a9f20     libucrt:sin_pentium4.obj
 0002:0001ff30       SC_4                       300a9f30     libucrt:sin_pentium4.obj
 0002:0001ff40       PI32INV                    300a9f40     libucrt:sin_pentium4.obj
 0002:0001ff48       SHIFTER                    300a9f48     libucrt:sin_pentium4.obj
 0002:0001ff50       P_2                        300a9f50     libucrt:sin_pentium4.obj
 0002:0001ff60       P_1                        300a9f60     libucrt:sin_pentium4.obj
 0002:0001ff68       P_3                        300a9f68     libucrt:sin_pentium4.obj
 0002:0001ff70       TWO_POW_55                 300a9f70     libucrt:sin_pentium4.obj
 0002:0001ff78       TWO_POW_M55                300a9f78     libucrt:sin_pentium4.obj
 0002:0001ff80       ALL_ONES                   300a9f80     libucrt:sin_pentium4.obj
 0002:0001ff88       NEG_ZERO                   300a9f88     libucrt:sin_pentium4.obj
 0002:0001ff90       ONE                        300a9f90     libucrt:sin_pentium4.obj
 0002:00020030       ?_names@?1??_get_fname@@9@9 300aa030     libucrt:fpexcept.obj
 0002:00020140       _over                      300aa140     libucrt:fpctrl.obj
 0002:0002014c       _under                     300aa14c     libucrt:fpctrl.obj
 0002:00020160       Shifter                    300aa160     libucrt:acos_pentium4.obj
 0002:00020170       PI_BY_2                    300aa170     libucrt:acos_pentium4.obj
 0002:00020180       NEG_PI                     300aa180     libucrt:acos_pentium4.obj
 0002:00020190       PI                         300aa190     libucrt:acos_pentium4.obj
 0002:000201a0       SIGNMASK                   300aa1a0     libucrt:acos_pentium4.obj
 0002:000201b0       HALFMASK                   300aa1b0     libucrt:acos_pentium4.obj
 0002:000201c0       HALFMASK2                  300aa1c0     libucrt:acos_pentium4.obj
 0002:000201d0       cv                         300aa1d0     libucrt:acos_pentium4.obj
 0002:000201f0       cv2                        300aa1f0     libucrt:acos_pentium4.obj
 0002:00020230       ABSVALMASK                 300aa230     libucrt:acos_pentium4.obj
 0002:00020238       TMASK                      300aa238     libucrt:acos_pentium4.obj
 0002:00020240       ONEMASK                    300aa240     libucrt:acos_pentium4.obj
 0002:00020248       ONE_BY_2                   300aa248     libucrt:acos_pentium4.obj
 0002:00020250       EMIN                       300aa250     libucrt:acos_pentium4.obj
 0002:00020258       MAX_ARG                    300aa258     libucrt:acos_pentium4.obj
 0002:00020260       MIN_ARG                    300aa260     libucrt:acos_pentium4.obj
 0002:00020268       INF                        300aa268     libucrt:acos_pentium4.obj
 0002:00020270       ZERO                       300aa270     libucrt:acos_pentium4.obj
 0002:00020278       ALPHA                      300aa278     libucrt:acos_pentium4.obj
 0002:000202a0       PI32INV                    300aa2a0     libucrt:tan_pentium4.obj
 0002:000202b0       SHIFTER                    300aa2b0     libucrt:tan_pentium4.obj
 0002:000202c0       P_1                        300aa2c0     libucrt:tan_pentium4.obj
 0002:000202d0       P_2                        300aa2d0     libucrt:tan_pentium4.obj
 0002:000202e0       P_3                        300aa2e0     libucrt:tan_pentium4.obj
 0002:000202f0       QQ_2                       300aa2f0     libucrt:tan_pentium4.obj
 0002:000202f8       ONE                        300aa2f8     libucrt:tan_pentium4.obj
 0002:00020300       MASK_35                    300aa300     libucrt:tan_pentium4.obj
 0002:00020310       sign_mask                  300aa310     libucrt:tan_pentium4.obj
 0002:00020318       TWO_POW_55                 300aa318     libucrt:tan_pentium4.obj
 0002:00020320       TWO_POW_M55                300aa320     libucrt:tan_pentium4.obj
 0002:00020328       TWO_POW_M53                300aa328     libucrt:tan_pentium4.obj
 0002:00020330       INF                        300aa330     libucrt:tan_pentium4.obj
 0002:00020340       Shifter                    300aa340     libucrt:pow_pentium4.obj
 0002:00020350       SIGMASK                    300aa350     libucrt:pow_pentium4.obj
 0002:00020360       ONEMASK                    300aa360     libucrt:pow_pentium4.obj
 0002:00020370       ABSVALMASK                 300aa370     libucrt:pow_pentium4.obj
 0002:00020380       cev                        300aa380     libucrt:pow_pentium4.obj
 0002:000203a8       HALFSIG                    300aa3a8     libucrt:pow_pentium4.obj
 0002:000203b0       LHN                        300aa3b0     libucrt:pow_pentium4.obj
 0002:000203b8       sNaN                       300aa3b8     libucrt:pow_pentium4.obj
 0002:000203c0       INF                        300aa3c0     libucrt:pow_pentium4.obj
 0002:000203c8       NEG_INF                    300aa3c8     libucrt:pow_pentium4.obj
 0002:000203d0       NEG_ZERO                   300aa3d0     libucrt:pow_pentium4.obj
 0002:000203d8       NEG_BIG                    300aa3d8     libucrt:pow_pentium4.obj
 0002:000203e0       POS_BIG                    300aa3e0     libucrt:pow_pentium4.obj
 0002:000203e8       EMIN                       300aa3e8     libucrt:pow_pentium4.obj
 0002:000203f0       QIND                       300aa3f0     libucrt:pow_pentium4.obj
 0002:0002041e       _log2max                   300aa41e     libucrt:87tran.obj
 0002:00020428       _smallarg                  300aa428     libucrt:87tran.obj
 0002:00020432       _half                      300aa432     libucrt:87tran.obj
 0002:00020460       _LcidToLocaleNameTable     300aa460     libucrt:lcidtoname_downlevel.obj
 0002:00021580       _LocaleNameToIndexTable    300ab580     libucrt:lcidtoname_downlevel.obj
 0002:000224d0       LOG_name                   300ac4d0     libucrt:log10.obj
 0002:000224e0       emask                      300ac4e0     libucrt:log10_pentium4.obj
 0002:000224f0       CC                         300ac4f0     libucrt:log10_pentium4.obj
 0002:00022500       Magic                      300ac500     libucrt:log10_pentium4.obj
 0002:00022510       hi_mask                    300ac510     libucrt:log10_pentium4.obj
 0002:00022520       LOG10_2                    300ac520     libucrt:log10_pentium4.obj
 0002:00022530       place_L                    300ac530     libucrt:log10_pentium4.obj
 0002:00022550       One                        300ac550     libucrt:log10_pentium4.obj
 0002:00022560       Zero                       300ac560     libucrt:log10_pentium4.obj
 0002:00022570       Two52                      300ac570     libucrt:log10_pentium4.obj
 0002:00022580       Infs                       300ac580     libucrt:log10_pentium4.obj
 0002:00022590       NaN                        300ac590     libucrt:log10_pentium4.obj
 0002:000225a0       coeff                      300ac5a0     libucrt:log10_pentium4.obj
 0002:00022ef0       ?_TlgEvent@?3??__telemetry_main_invoke_trigger@@9@4U<unnamed-type-_TlgEvent>@?3??1@YAXQAUHINSTANCE__@@@Z@B 300acef0     libvcruntime:telemetry.obj
 0002:00022f2c       ?_TlgEvent@?3??__telemetry_main_return_trigger@@9@4U<unnamed-type-_TlgEvent>@?3??1@YAXQAUHINSTANCE__@@@Z@B 300acf2c     libvcruntime:telemetry.obj
 0002:00022f67       ?_Tlg_Microsoft_CRTProviderProv_Meta@@3U<unnamed-type-_Tlg_Microsoft_CRTProviderProv_Meta>@@B 300acf67     libvcruntime:telemetry.obj
 0002:00023310       __sehtable$?dllmain_crt_process_attach@@YAHQAUHINSTANCE__@@QAX@Z 300ad310     LIBCMT:dll_dllmain.obj
 0002:00023330       __sehtable$?dllmain_crt_process_detach@@YAH_N@Z 300ad330     LIBCMT:dll_dllmain.obj
 0002:00023350       __sehtable$?dllmain_dispatch@@YAHQAUHINSTANCE__@@KQAX@Z 300ad350     LIBCMT:dll_dllmain.obj
 0002:00023370       __sehtable$___scrt_is_nonwritable_in_current_image 300ad370     LIBCMT:utility.obj
 0002:00023390       __sehtable$?common_exit@@YAXHW4_crt_exit_cleanup_mode@@W4_crt_exit_return_mode@@@Z 300ad390     libucrt:exit.obj
 0002:000233b8       __sehtable$??$?RV<lambda_800076c951b434888f4765a74a194fcc>@@AAV<lambda_4e60a939b0d047cfe11ddc22648dfba9>@@V<lambda_6dbb1268764f43b569ce7b67e331d33a>@@@?$__crt_seh_guarded_call@H@@QAEH$$QAV<lambda_800076c951b434888f4765a74a194fcc>@@AAV<lambda_4e60a939b0d047cfe11ddc22648dfba9>@@$$QAV<lambda_6dbb1268764f43b569ce7b67e331d33a>@@@Z 300ad3b8     libucrt:onexit.obj
 0002:000233d8       __sehtable$??$?RV<lambda_995298e7d72eb4c2aab26c0585b3abe5>@@AAV<lambda_275893d493268fdec8709772e3fcec0e>@@V<lambda_293819299cbf9a7022e18b56a874bb5c>@@@?$__crt_seh_guarded_call@H@@QAEH$$QAV<lambda_995298e7d72eb4c2aab26c0585b3abe5>@@AAV<lambda_275893d493268fdec8709772e3fcec0e>@@$$QAV<lambda_293819299cbf9a7022e18b56a874bb5c>@@@Z 300ad3d8     libucrt:onexit.obj
 0002:000233f8       __sehtable$_terminate      300ad3f8     libucrt:terminate.obj
 0002:00023418       __sehtable$??$?RV<lambda_9df27f884b057bc3edfc946cb5b7cf47>@@AAV<lambda_e69574bed617af4e071282c136b37893>@@V<lambda_cc0d902bcbbeb830f749456577db4721>@@@?$__crt_seh_guarded_call@X@@QAEX$$QAV<lambda_9df27f884b057bc3edfc946cb5b7cf47>@@AAV<lambda_e69574bed617af4e071282c136b37893>@@$$QAV<lambda_cc0d902bcbbeb830f749456577db4721>@@@Z 300ad418     libucrt:per_thread_data.obj
 0002:00023438       __sehtable$??$?RV<lambda_3518db117f0e7cdb002338c5d3c47b6c>@@AAV<lambda_b2ea41f6bbb362cd97d94c6828d90b61>@@V<lambda_abdedf541bb04549bc734292b4a045d4>@@@?$__crt_seh_guarded_call@X@@QAEX$$QAV<lambda_3518db117f0e7cdb002338c5d3c47b6c>@@AAV<lambda_b2ea41f6bbb362cd97d94c6828d90b61>@@$$QAV<lambda_abdedf541bb04549bc734292b4a045d4>@@@Z 300ad438     libucrt:per_thread_data.obj
 0002:00023458       __sehtable$??$?RV<lambda_51b6e8b1eb166f2a3faf91f424b38130>@@AAV<lambda_6250bd4b2a391816dd638c3bf72b0bcb>@@V<lambda_0b5a4a3e68152e1d9b943535f5f47bed>@@@?$__crt_seh_guarded_call@X@@QAEX$$QAV<lambda_51b6e8b1eb166f2a3faf91f424b38130>@@AAV<lambda_6250bd4b2a391816dd638c3bf72b0bcb>@@$$QAV<lambda_0b5a4a3e68152e1d9b943535f5f47bed>@@@Z 300ad458     libucrt:per_thread_data.obj
 0002:00023478       __sehtable$??$?RV<lambda_5b71d36f03204c0beab531769a5b5694>@@AAV<lambda_be2b3da3f62db62e9dad5dc70221a656>@@V<lambda_8f9ce462984622f9bf76b59e2aaaf805>@@@?$__crt_seh_guarded_call@X@@QAEX$$QAV<lambda_5b71d36f03204c0beab531769a5b5694>@@AAV<lambda_be2b3da3f62db62e9dad5dc70221a656>@@$$QAV<lambda_8f9ce462984622f9bf76b59e2aaaf805>@@@Z 300ad478     libucrt:per_thread_data.obj
 0002:00023498       __sehtable$___acrt_uninitialize_locale 300ad498     libucrt:wsetlocale.obj
 0002:000234b8       __sehtable$___acrt_initialize_lowio 300ad4b8     libucrt:ioinit.obj
 0002:000234d8       __sehtable$___acrt_update_thread_multibyte_data 300ad4d8     libucrt:mbctype.obj
 0002:000234f8       __sehtable$??$?RV<lambda_978dc153c237d78434369da87b74ff60>@@AAV<lambda_ad1ced32f4ac17aa236e5ef05d6b3b7c>@@V<lambda_4a8533e2866a575feecb8298ce776b0d>@@@?$__crt_seh_guarded_call@X@@QAEX$$QAV<lambda_978dc153c237d78434369da87b74ff60>@@AAV<lambda_ad1ced32f4ac17aa236e5ef05d6b3b7c>@@$$QAV<lambda_4a8533e2866a575feecb8298ce776b0d>@@@Z 300ad4f8     libucrt:mbctype.obj
 0002:00023518       __sehtable$__query_new_handler 300ad518     libucrt:new_handler.obj
 0002:00023538       __sehtable$_raise          300ad538     libucrt:signal.obj
 0002:00023558       __sehtable$??$?RV<lambda_a048d3beccc847880fc8490e18b82769>@@AAV<lambda_ec61778202f4f5fc7e7711acc23c3bca>@@V<lambda_f7496a158712204296dd6628a163878e>@@@?$__crt_seh_guarded_call@P6AXH@Z@@QAEP6AXH@Z$$QAV<lambda_a048d3beccc847880fc8490e18b82769>@@AAV<lambda_ec61778202f4f5fc7e7711acc23c3bca>@@$$QAV<lambda_f7496a158712204296dd6628a163878e>@@@Z 300ad558     libucrt:signal.obj
 0002:00023578       __sehtable$___acrt_update_thread_locale_data 300ad578     libucrt:locale_refcounting.obj
 0002:00023598       __sehtable$__fcloseall     300ad598     libucrt:closeall.obj
 0002:000235b8       __sehtable$_common_flush_all 300ad5b8     libucrt:fflush.obj
 0002:000235e0       __sehtable$___acrt_lowio_ensure_fh_exists 300ad5e0     libucrt:osfinfo.obj
 0002:00023600       __sehtable$_fclose         300ad600     libucrt:fclose.obj
 0002:00023620       __sehtable$??$?RV<lambda_61cee617f5178ae960314fd4d05640a0>@@AAV<lambda_6978c1fb23f02e42e1d9e99668cc68aa>@@V<lambda_9cd88cf8ad10232537feb2133f08c833>@@@?$__crt_seh_guarded_call@H@@QAEH$$QAV<lambda_61cee617f5178ae960314fd4d05640a0>@@AAV<lambda_6978c1fb23f02e42e1d9e99668cc68aa>@@$$QAV<lambda_9cd88cf8ad10232537feb2133f08c833>@@@Z 300ad620     libucrt:commit.obj
 0002:00023640       __sehtable$__write         300ad640     libucrt:write.obj
 0002:00023660       __sehtable$??$?RV<lambda_123407a5e2ac06da108355a851863b7a>@@AAV<lambda_2fe9b910cf3cbf4a0ab98a02ba45b3ec>@@V<lambda_ae55bdf541ad94d75914d381c370e64d>@@@?$__crt_seh_guarded_call@H@@QAEH$$QAV<lambda_123407a5e2ac06da108355a851863b7a>@@AAV<lambda_2fe9b910cf3cbf4a0ab98a02ba45b3ec>@@$$QAV<lambda_ae55bdf541ad94d75914d381c370e64d>@@@Z 300ad660     libucrt:close.obj
 0002:00023680       __sehtable$__IsNonwritableInCurrentImage 300ad680     LIBCMT:pesect.obj
 0002:000236a0       .edata                     300ad6a0     cgamex86.exp
 0002:000236c8       rgpv                       300ad6c8     cgamex86.exp
 0002:000236d0       rgszName                   300ad6d0     cgamex86.exp
 0002:000236d8       rgwOrd                     300ad6d8     cgamex86.exp
 0002:000236dc       szName                     300ad6dc     cgamex86.exp
 0002:000236e9       $N00001                    300ad6e9     cgamex86.exp
 0002:000236f2       $N00002                    300ad6f2     cgamex86.exp
 0002:00023ca8       .idata$6                   300adca8     kernel32:KERNEL32.dll
 0002:00023cca       .idata$6                   300adcca     advapi32:ADVAPI32.dll
 0003:00001104       _bg_poolTail               300af104     bg_misc.obj
 0003:00004af0       ?headClampMinAngles@?1??BG_G2PlayerAngles@@9@9 300b2af0     bg_pmove.obj
 0003:00004afc       ?headClampMaxAngles@?1??BG_G2PlayerAngles@@9@9 300b2afc     bg_pmove.obj
 0003:00008304       _holdrand                  300b6304     q_math.obj
 0003:00008868       _g_bindings                300b6868     ui_shared.obj
 0003:00009318       ?staticNULL@?1??String_Alloc@@9@9 300b7318     ui_shared.obj
 0003:0000931c       ?squiggy@?1??PC_String_Parse@@9@9 300b731c     ui_shared.obj
 0003:00009320       _commands                  300b7320     cg_consolecmds.obj
 0003:000094ec       ?flip@?1??CG_DrawZoomMask@@9@9 300b74ec     cg_draw.obj
 0003:000094f0       ?seed@?1??CG_SmokePuff@@9@9 300b74f0     cg_effects.obj
 0003:00009610       _cvarTable                 300b7610     cg_main.obj
 0003:0000a330       _cvarTableSize             300b8330     cg_main.obj
 0003:0000a334       ?drawTeamOverlayModificationCount@?1??CG_UpdateCvars@@9@9 300b8334     cg_main.obj
 0003:0000a338       ?sb_nums@?1??CG_RegisterGraphics@@9@9 300b8338     cg_main.obj
 0003:0000a364       ?sb_t_nums@?1??CG_RegisterGraphics@@9@9 300b8364     cg_main.obj
 0003:0000a390       ?sb_c_nums@?1??CG_RegisterGraphics@@9@9 300b8390     cg_main.obj
 0003:0000a3c8       _shaderAnimNames           300b83c8     cg_marks.obj
 0003:0000a448       _shaderAnimCounts          300b8448     cg_marks.obj
 0003:0000a4c8       _shaderAnimSTRatio         300b84c8     cg_marks.obj
 0003:0000a548       ?s@?1??CG_GetKillerText@@9@9 300b8548     cg_newDraw.obj
 0003:0000a54c       ?s@?1??CG_GetGameStatusText@@9@9 300b854c     cg_newDraw.obj
 0003:0000a870       _cg_effectorStringTable    300b8870     cg_players.obj
 0003:0000a894       _cg_pushBoneNames          300b8894     cg_players.obj
 0003:0000a8b8       _cg_vehThirdPersonAlpha    300b88b8     cg_players.obj
 0003:0000a8bc       _syscall                   300b88bc     cg_syscalls.obj
 0003:0000a8d0       _cameramins                300b88d0     cg_view.obj
 0003:0000a8dc       _cameramaxs                300b88dc     cg_view.obj
 0003:0000a8e8       _cg_siegeClassIndex        300b88e8     cg_view.obj
 0003:0000a8ec       _WHITE                     300b88ec     fx_bryarpistol.obj
 0003:0000a8f8       _BRIGHT                    300b88f8     fx_bryarpistol.obj
 0003:0000a904       _WHITE                     300b8904     fx_disruptor.obj
 0003:0000a940       ?_Tlg_Microsoft_CRTProviderProv@@3U_TlgProvider_t@__vcrt_trace_logging_provider@@A 300b8940     libvcruntime:telemetry.obj
 0003:0000a980       ?__vcrt_flsindex@@3KA      300b8980     libvcruntime:per_thread_data.obj
 0003:0000a9a4       _errno_no_memory           300b89a4     libucrt:errno.obj
 0003:0000a9a8       _doserrno_no_memory        300b89a8     libucrt:errno.obj
 0003:0000a9ac       ___acrt_flsindex           300b89ac     libucrt:per_thread_data.obj
 0003:0000ab20       ___rgctypeflag             300b8b20     libucrt:mbctype.obj
 0003:0000ab28       ___rgcode_page_info        300b8b28     libucrt:mbctype.obj
 0003:0000b0c0       ?i@?1??SnapVector@@9@9     300b90c0     bg_misc.obj
 0003:0000b0c4       ?f@?1??SnapVector@@9@9     300b90c4     bg_misc.obj
 0003:0000b0c8       _bg_pool                   300b90c8     bg_misc.obj
 0003:001ff0c8       _bg_poolSize               302ad0c8     bg_misc.obj
 0003:001ff0d0       _bg_animParseIncluding     302ad0d0     bg_panimate.obj
 0003:001ff0d4       ?thoracicAngles@?1??BG_G2PlayerAngles@@9@9 302ad0d4     bg_pmove.obj
 0003:001ff0f4       _pm_flying                 302ad0f4     bg_pmove.obj
 0003:001ff0f8       ?oldLookAngles@?1??BG_UpdateLookAngles@@9@9 302ad0f8     bg_pmove.obj
 0003:001ff104       ?lookAnglesDiff@?1??BG_UpdateLookAngles@@9@9 302ad104     bg_pmove.obj
 0003:001ff110       ?ang@?1??BG_UpdateLookAngles@@9@9 302ad110     bg_pmove.obj
 0003:001ff114       ?dir@?1??BG_G2PlayerAngles@@9@9 302ad114     bg_pmove.obj
 0003:001ff118       ?i@?1??BG_G2PlayerAngles@@9@9 302ad118     bg_pmove.obj
 0003:001ff11c       ?dif@?1??BG_G2PlayerAngles@@9@9 302ad11c     bg_pmove.obj
 0003:001ff120       ?dest@?1??BG_G2PlayerAngles@@9@9 302ad120     bg_pmove.obj
 0003:001ff124       ?speed@?1??BG_G2PlayerAngles@@9@9 302ad124     bg_pmove.obj
 0003:001ff128       ?eyeAngles@?1??BG_G2PlayerAngles@@9@9 302ad128     bg_pmove.obj
 0003:001ff134       ?neckAngles@?1??BG_G2PlayerAngles@@9@9 302ad134     bg_pmove.obj
 0003:001ff140       ?velocity@?1??BG_G2PlayerAngles@@9@9 302ad140     bg_pmove.obj
 0003:001ff14c       ?torsoAngles@?1??BG_G2PlayerAngles@@9@9 302ad14c     bg_pmove.obj
 0003:001ff158       ?headAngles@?1??BG_G2PlayerAngles@@9@9 302ad158     bg_pmove.obj
 0003:001ff164       ?velPos@?1??BG_G2PlayerAngles@@9@9 302ad164     bg_pmove.obj
 0003:001ff170       ?velAng@?1??BG_G2PlayerAngles@@9@9 302ad170     bg_pmove.obj
 0003:001ff17c       ?ulAngles@?1??BG_G2PlayerAngles@@9@9 302ad17c     bg_pmove.obj
 0003:001ff188       ?llAngles@?1??BG_G2PlayerAngles@@9@9 302ad188     bg_pmove.obj
 0003:001ff194       ?viewAngles@?1??BG_G2PlayerAngles@@9@9 302ad194     bg_pmove.obj
 0003:001ff1a0       ?angles@?1??BG_G2PlayerAngles@@9@9 302ad1a0     bg_pmove.obj
 0003:001ff1b0       _SaberParms                302ad1b0     bg_saberLoad.obj
 0003:0020f1b0       _bgSaberParseTBuffer       302bd1b0     bg_saberLoad.obj
 0003:0021f1d4       ?bops_initialized@?1??BoxOnPlaneSide@@9@9 302cd1d4     q_math.obj
 0003:0021f1d8       ?Ljmptab@?1??BoxOnPlaneSide@@9@9 302cd1d8     q_math.obj
 0003:0021f1f8       ?sr@?1??AngleVectors@@9@9  302cd1f8     q_math.obj
 0003:0021f1fc       ?sp@?1??AngleVectors@@9@9  302cd1fc     q_math.obj
 0003:0021f200       ?sy@?1??AngleVectors@@9@9  302cd200     q_math.obj
 0003:0021f204       ?cr@?1??AngleVectors@@9@9  302cd204     q_math.obj
 0003:0021f208       ?cp@?1??AngleVectors@@9@9  302cd208     q_math.obj
 0003:0021f20c       ?cy@?1??AngleVectors@@9@9  302cd20c     q_math.obj
 0003:0021f210       _com_token                 302cd210     q_shared.obj
 0003:0021f610       _com_parsename             302cd610     q_shared.obj
 0003:0021fa10       _com_lines                 302cda10     q_shared.obj
 0003:0021fa14       ?index@?1??va@@9@9         302cda14     q_shared.obj
 0003:0021fa18       ?string@?1??COM_ParseError@@9@9 302cda18     q_shared.obj
 0003:00220a18       ?string@?1??COM_ParseWarning@@9@9 302cea18     q_shared.obj
 0003:00221a18       ?string@?1??va@@9@9        302cfa18     q_shared.obj
 0003:00231418       ?value@?1??Info_ValueForKey@@9@9 302df418     q_shared.obj
 0003:00235418       ?valueindex@?1??Info_ValueForKey@@9@9 302e3418     q_shared.obj
 0003:00235438       _scrollInfo                302e3438     ui_shared.obj
 0003:00235458       _captureFunc               302e3458     ui_shared.obj
 0003:0023545c       _captureData               302e345c     ui_shared.obj
 0003:00235460       _itemCapture               302e3460     ui_shared.obj
 0003:00235464       _g_waitingForKey           302e3464     ui_shared.obj
 0003:00235468       _g_editingField            302e3468     ui_shared.obj
 0003:0023546c       _g_bindItem                302e346c     ui_shared.obj
 0003:00235470       _g_editItem                302e3470     ui_shared.obj
 0003:00235474       _debugMode                 302e3474     ui_shared.obj
 0003:00235478       _lastListBoxClickTime      302e3478     ui_shared.obj
 0003:0023547c       _allocPoint                302e347c     ui_shared.obj
 0003:00235480       _memoryPool                302e3480     ui_shared.obj
 0003:00255480       _outOfMemory               30303480     ui_shared.obj
 0003:00255484       _strPoolIndex              30303484     ui_shared.obj
 0003:00255488       _strPool                   30303488     ui_shared.obj
 0003:00275488       _strHandleCount            30323488     ui_shared.obj
 0003:0027548c       ?inHandleKey@?9??Menu_HandleKey@@9@9 3032348c     ui_shared.obj
 0003:00275490       _strHandle                 30323490     ui_shared.obj
 0003:00277490       ?string@?1??PC_SourceWarning@@9@9 30325490     ui_shared.obj
 0003:00278490       ?string@?1??PC_SourceError@@9@9 30326490     ui_shared.obj
 0003:00279524       ?previousTimes@?1??CG_DrawFPS@@9@9 30327524     cg_draw.obj
 0003:00279544       ?index@?1??CG_DrawFPS@@9@9 30327544     cg_draw.obj
 0003:00279548       ?previous@?1??CG_DrawFPS@@9@9 30327548     cg_draw.obj
 0003:0027954c       ?lastupdate@?1??CG_DrawFPS@@9@9 3032754c     cg_draw.obj
 0003:00279550       _radarLockSoundDebounceTime 30327550     cg_draw.obj
 0003:00279554       _impactSoundDebounceTime   30327554     cg_draw.obj
 0003:00279558       ?oldDif@?1??CG_DrawRocketLocking@@9@9 30327558     cg_draw.obj
 0003:0027955c       ?color@?1??CG_FadeColor@@9@9 3032755c     cg_drawtools.obj
 0003:00279570       _offX                      30327570     cg_effects.obj
 0003:00279bb0       _offZ                      30327bb0     cg_effects.obj
 0003:0027a1f0       ?lastPos@?1??CG_ScorePlum@@9@9 303281f0     cg_effects.obj
 0003:0027a200       ?str@?1??CG_PlaceString@@9@9 30328200     cg_event.obj
 0003:0027a240       _cl_lightstyle             30328240     cg_light.obj
 0003:0027e440       _lastofs                   3032c440     cg_light.obj
 0003:0027e448       ?text@?1??CG_GetLocationString@@9@9 3032c448     cg_main.obj
 0003:0027e850       ?text@?1??CG_GetStringEdString@@9@9 3032c850     cg_main.obj
 0003:0027f05c       _NumMiscEnts               3032d05c     cg_main.obj
 0003:0027f060       _MiscEnts                  3032d060     cg_main.obj
 0003:0034e0e0       _Radius                    303fc0e0     cg_main.obj
 0003:00351f60       _zOffset                   303fff60     cg_main.obj
 0003:00355de0       ?buffer@?1??CG_Argv@@9@9   30403de0     cg_main.obj
 0003:003561e0       ?index@?1??CG_GetStringEdString@@9@9 304041e0     cg_main.obj
 0003:003561e4       _cg_strPoolSize            304041e4     cg_main.obj
 0003:003561e8       ?buf@?1??CG_GetMenuBuffer@@9@9 304041e8     cg_main.obj
 0003:0035e1e8       ?buf@?1??CG_LoadMenus@@9@9 3040c1e8     cg_main.obj
 0003:0035f1e8       _cg_strPool                3040d1e8     cg_main.obj
 0003:003671e8       _cg_numSpawnVars           304151e8     cg_main.obj
 0003:003671ec       _cg_numSpawnVarChars       304151ec     cg_main.obj
 0003:003671f0       _cg_spawnVars              304151f0     cg_main.obj
 0003:003673f0       _cg_spawnVarChars          304153f0     cg_main.obj
 0003:003683f0       ?item@?1??CG_Init@@9@9     304163f0     cg_main.obj
 0003:003683fc       _markTotal                 304163fc     cg_marks.obj
 0003:00368400       _shaderAnims               30416400     cg_marks.obj
 0003:0036a400       _numShaderAnims            30418400     cg_marks.obj
 0003:0036a404       _roll                      30418404     cg_marks.obj
 0003:0036a418       _lastFlyBySound            30418418     cg_players.obj
 0003:0036b424       _cg_numSolidEntities       30419424     cg_predict.obj
 0003:0036b428       _cg_pmove                  30419428     cg_predict.obj
 0003:0036b554       _cg_numTriggerEntities     30419554     cg_predict.obj
 0003:0036b558       _cg_solidEntities          30419558     cg_predict.obj
 0003:0036b958       _cg_triggerEntities        30419958     cg_predict.obj
 0003:0036bd70       _team1                     30419d70     cg_saga.obj
 0003:0036bf70       _team2                     30419f70     cg_saga.obj
 0003:0036c170       _cgParseObjectives         3041a170     cg_saga.obj
 0003:00370170       ?buf@?1??CG_SiegeObjectiveBuffer@@9@9 3041e170     cg_saga.obj
 0003:00372174       _localClient               30420174     cg_scoreboard.obj
 0003:003721d0       ?zoomSoundTime@?BE@??CG_CalcFov@@9@9 304201d0     cg_view.obj
 0003:003721d4       ?lastfov@?1??CG_DrawSkyBoxPortal@@9@9 304201d4     cg_view.obj
 0003:003721d8       _cg_rangedFogging          304201d8     cg_view.obj
 0003:003721dc       ?veh@?1??CG_DrawActiveFrame@@9@9 304201dc     cg_view.obj
 0003:003721e0       _cgWeapFrame               304201e0     cg_weapons.obj
 0003:003721e4       _cgWeapFrameTime           304201e4     cg_weapons.obj
 0003:003721e8       _g2WeaponInstances         304201e8     cg_weapons.obj
 0003:00372234       ?__proc_attached@@3HA      30420234     LIBCMT:dll_dllmain.obj
 0003:00372248       ?module_local_atexit_table@@3U_onexit_table_t@@A 30420248     LIBCMT:utility.obj
 0003:00372254       ?module_local_at_quick_exit_table@@3U_onexit_table_t@@A 30420254     LIBCMT:utility.obj
 0003:00372260       ?is_initialized_as_dll@@3_NA 30420260     LIBCMT:utility.obj
 0003:00372278       _GS_ExceptionRecord        30420278     LIBCMT:gs_report.obj
 0003:003722c8       _GS_ContextRecord          304202c8     LIBCMT:gs_report.obj
 0003:00372594       ?module_handles@@3PAPAUHINSTANCE__@@A 30420594     libvcruntime:winapi_downlevel.obj
 0003:003725a4       ?encoded_function_pointers@@3PAPAXA 304205a4     libvcruntime:winapi_downlevel.obj
 0003:003725c8       ?__vcrt_startup_thread_ptd@@3U__vcrt_ptd@@A 304205c8     libvcruntime:per_thread_data.obj
 0003:003725f0       ___vcrt_lock_table         304205f0     libvcruntime:locks.obj
 0003:00372608       ___vcrt_locks_initialized  30420608     libvcruntime:locks.obj
 0003:00372638       ?heap@@3V_HeapManager@@A   30420638     libvcruntime:undname.obj
 0003:0037264c       _c_termination_complete    3042064c     libucrt:exit.obj
 0003:00372650       _thread_local_exit_callback_func 30420650     libucrt:exit.obj
 0003:00372654       ?c_exit_complete@?5??common_exit@@YAXHW4_crt_exit_cleanup_mode@@W4_crt_exit_return_mode@@@Z@4_NA 30420654     libucrt:exit.obj
 0003:00372680       ___acrt_invalid_parameter_handler 30420680     libucrt:invalid_parameter.obj
 0003:0037289c       __pmatherr_set             3042089c     libucrt:libm_error.obj
 0003:003728a0       _enable_percent_n          304208a0     libucrt:printf_count_output.obj
 0003:003728b0       ___acrt_lock_table         304208b0     libucrt:locks.obj
 0003:003729e8       ___acrt_locks_initialized  304209e8     libucrt:locks.obj
 0003:003729f0       _module_handles            304209f0     libucrt:winapi_thunks.obj
 0003:00372a40       _encoded_function_pointers 30420a40     libucrt:winapi_thunks.obj
 0003:00372ac0       ?state_cache@?1??__acrt_is_packaged_app@@9@4JA 30420ac0     libucrt:winapi_thunks.obj
 0003:00372adc       _fSystemSet                30420adc     libucrt:mbctype.obj
 0003:00372ae0       ?initialized@?1??__acrt_initialize_multibyte@@9@4_NA 30420ae0     libucrt:mbctype.obj
 0003:00372af8       ___acrt_new_handler        30420af8     libucrt:new_handler.obj
 0003:00372afc       _ctrlc_action              30420afc     libucrt:signal.obj
 0003:00372b00       _ctrlbreak_action          30420b00     libucrt:signal.obj
 0003:00372b04       _abort_action              30420b04     libucrt:signal.obj
 0003:00372b08       _term_action               30420b08     libucrt:signal.obj
 0003:00372b0c       _user_matherr              30420b0c     libucrt:matherr.obj
 0003:00372b10       ___acrt_global_new_mode    30420b10     libucrt:new_mode.obj
 0003:00372b20       ___acrt_app_type           30420b20     libucrt:report_runtime_error.obj
 0004:00000000       __guard_fids____dcrt_uninitialize_environments_nolock 3091a000     libucrt:environment_initialization.obj
 0004:00000008       __guard_fids__             3091a008     libucrt:initialization.obj
 0004:00000068       __guard_fids____acrt_initialize_ptd 3091a068     libucrt:per_thread_data.obj
 0004:0000006c       __guard_fids____libm_error_support 3091a06c     libucrt:libm_error.obj
 0004:00000070       __guard_fids__             3091a070     libucrt:locale_initializer.obj
 0004:00000074       __guard_fids__             3091a074     libucrt:stdio_initializer.obj
 0004:00000078       __guard_fids__             3091a078     libucrt:stdio_initializer.obj
 0004:0000007c       __guard_fids__             3091a07c     libucrt:sse2_initializer.obj
 0004:00000080       __guard_fids__             3091a080     libucrt:multibyte_initializer.obj
 0004:00000084       __guard_fids__             3091a084     libucrt:console_output_initializer.obj
 0004:00000088       __guard_fids_?dllmain_crt_process_attach@@YAHQAUHINSTANCE__@@QAX@Z 3091a088     LIBCMT:dll_dllmain.obj
 0004:00000090       __guard_fids_?dllmain_dispatch@@YAHQAUHINSTANCE__@@KQAX@Z 3091a090     LIBCMT:dll_dllmain.obj
 0004:00000094       __guard_fids__             3091a094     LIBCMT:guard_support.obj
 0004:00000098       __guard_fids__             3091a098     libvcruntime:telemetry.obj
 0004:0000009c       __guard_fids_?TraceLoggingRegister@__vcrt_trace_logging_provider@@YAJPBU_TlgProvider_t@1@PBU_GUID@@P6GX1KE_K2PAU_EVENT_FILTER_DESCRIPTOR@@PAX@Z4@Z 3091a09c     libvcruntime:telemetry.obj
 0004:000000a0       __guard_fids____vcrt_initialize_ptd 3091a0a0     libvcruntime:per_thread_data.obj
 0005:000000a0       $R000000                   3091b0a0     JK2cgame.res
 0005:000003d8       $R000338                   3091b3d8     JK2cgame.res
