 jampgamex86

 Timestamp is 57a86f5b (Mon Aug  8 21:39:07 2016)

 Preferred load address is 20000000

 Start         Length     Name                   Class
 0001:00000000 0000025fH .text                   CODE
 0001:00000260 000ee6a7H .text$mn                CODE
 0002:00000000 00000100H .idata$5                DATA
 0002:00000100 00000004H .00cfg                  DATA
 0002:00000104 00000004H .CRT$XCA                DATA
 0002:00000108 00000004H .CRT$XCZ                DATA
 0002:0000010c 00000004H .CRT$XIA                DATA
 0002:00000110 0000000cH .CRT$XIC                DATA
 0002:0000011c 00000004H .CRT$XIZ                DATA
 0002:00000120 00000004H .CRT$XPA                DATA
 0002:00000124 00000008H .CRT$XPX                DATA
 0002:0000012c 00000004H .CRT$XPXA               DATA
 0002:00000130 00000004H .CRT$XPZ                DATA
 0002:00000134 00000004H .CRT$XTA                DATA
 0002:00000138 00000004H .CRT$XTZ                DATA
 0002:00000140 00022144H .rdata                  DATA
 0002:00022284 00000000H .rdata$r                DATA
 0002:00022290 0000000cH .rdata$sxdata           DATA
 0002:000222a0 00000010H .rdata$zETW0            DATA
 0002:000222b0 00000077H .rdata$zETW1            DATA
 0002:00022327 0000002cH .rdata$zETW2            DATA
 0002:00022353 00000001H .rdata$zETW9            DATA
 0002:00022354 00000380H .rdata$zzzdbg           DATA
 0002:000226d4 00000004H .rtc$IAA                DATA
 0002:000226d8 00000004H .rtc$IZZ                DATA
 0002:000226dc 00000004H .rtc$TAA                DATA
 0002:000226e0 00000004H .rtc$TZZ                DATA
 0002:000226e8 0000038cH .xdata$x                DATA
 0002:00022a80 0000005cH .edata                  DATA
 0002:00022adc 00000028H .idata$2                DATA
 0002:00022b04 00000014H .idata$3                DATA
 0002:00022b18 00000100H .idata$4                DATA
 0002:00022c18 000004a0H .idata$6                DATA
 0003:00000000 0000ab50H .data                   DATA
 0003:0000ab50 00000000H .data$r                 DATA
 0003:0000ab60 007562e4H .bss                    DATA
 0004:00000000 00000088H .gfids$x                DATA
 0004:00000088 0000001cH .gfids$y                DATA
 0005:00000000 00000030H _RDATA                  DATA
 0006:00000000 000000a0H .rsrc$01                DATA
 0006:000000a0 000004a8H .rsrc$02                DATA

  Address         Publics by Value              Rva+Base       Lib:Object

 0000:00000000       __except_list              00000000     <absolute>
 0000:00000000       ___guard_longjmp_table     00000000     <absolute>
 0000:00000000       ___guard_fids_count        00000000     <absolute>
 0000:00000000       ___guard_iat_table         00000000     <absolute>
 0000:00000000       ___guard_iat_count         00000000     <absolute>
 0000:00000000       ___guard_fids_table        00000000     <absolute>
 0000:00000000       ___guard_longjmp_count     00000000     <absolute>
 0000:00000003       ___safe_se_handler_count   00000003     <absolute>
 0000:00000100       ___guard_flags             00000100     <absolute>
 0000:00000000       ___ImageBase               20000000     <linker-defined>
 0001:00000000       ?TraceLoggingRegister@__vcrt_trace_logging_provider@@YAJPBU_TlgProvider_t@1@PBU_GUID@@P6GX1KE_K2PAU_EVENT_FILTER_DESCRIPTOR@@PAX@Z4@Z 20001000 f i libvcruntime:telemetry.obj
 0001:0000005d       ?TraceLoggingSetInformation@__vcrt_trace_logging_provider@@YAJPBU_TlgProvider_t@1@W4_EVENT_INFO_CLASS@@PAXK@Z 2000105d f i libvcruntime:telemetry.obj
 0001:00000088       ?TraceLoggingUnregister@__vcrt_trace_logging_provider@@YAXPBU_TlgProvider_t@1@@Z 20001088 f i libvcruntime:telemetry.obj
 0001:000000a7       ?_TlgCreateSz@__vcrt_trace_logging_provider@@YAXPAU_EVENT_DATA_DESCRIPTOR@@PBD@Z 200010a7 f i libvcruntime:telemetry.obj
 0001:000000df       ?_TlgCreateWsz@__vcrt_trace_logging_provider@@YAXPAU_EVENT_DATA_DESCRIPTOR@@PB_W@Z 200010df f i libvcruntime:telemetry.obj
 0001:00000123       ?_TlgEnableCallback@__vcrt_trace_logging_provider@@YGXPBU_GUID@@KE_K1PAU_EVENT_FILTER_DESCRIPTOR@@PAX@Z 20001123 f i libvcruntime:telemetry.obj
 0001:0000019b       ?_TlgKeywordOn@__vcrt_trace_logging_provider@@YAEPBU_TlgProvider_t@1@_K@Z 2000119b f i libvcruntime:telemetry.obj
 0001:000001d7       ?_TlgWrite@__vcrt_trace_logging_provider@@YAJPBU_TlgProvider_t@1@PBXPBU_GUID@@2IPAU_EVENT_DATA_DESCRIPTOR@@@Z 200011d7 f i libvcruntime:telemetry.obj
 0001:00000260       _AltFiring                 20001260 f   ai_main.obj
 0001:000002a0       _BotAI                     200012a0 f   ai_main.obj
 0001:000004f0       _BotAILoadMap              200014f0 f   ai_main.obj
 0001:00000670       _BotAISetup                20001670 f   ai_main.obj
 0001:000007d0       _BotAISetupClient          200017d0 f   ai_main.obj
 0001:00000970       _BotAIShutdown             20001970 f   ai_main.obj
 0001:000009c0       _BotAIShutdownClient       200019c0 f   ai_main.obj
 0001:00000a30       _BotAIStartFrame           20001a30 f   ai_main.obj
 0001:00000c20       _BotAimLeading             20001c20 f   ai_main.obj
 0001:00000df0       _BotAimOffsetGoalAngles    20001df0 f   ai_main.obj
 0001:00001130       _BotCTFGuardDuty           20002130 f   ai_main.obj
 0001:00001160       _BotCanHear                20002160 f   ai_main.obj
 0001:00001290       _BotChangeViewAngles       20002290 f   ai_main.obj
 0001:000014e0       _BotCheckDetPacks          200024e0 f   ai_main.obj
 0001:00001670       _BotDamageNotification     20002670 f   ai_main.obj
 0001:000017b0       _BotDeathNotify            200027b0 f   ai_main.obj
 0001:000019f0       _BotDoTeamplayAI           200029f0 f   ai_main.obj
 0001:00001a30       _BotFallbackNavigation     20002a30 f   ai_main.obj
 0001:00001ba0       _BotGetEnemyFlag           20002ba0 f   ai_main.obj
 0001:00001c50       _BotGetFlagBack            20002c50 f   ai_main.obj
 0001:00001db0       _BotDefendFlag             20002db0 f   ai_main.obj
 0001:00001db0       _BotGetFlagHome            20002db0 f   ai_main.obj
 0001:00001e60       _BotGetWeaponRange         20002e60 f   ai_main.obj
 0001:00001ed0       _BotGuardFlagCarrier       20002ed0 f   ai_main.obj
 0001:00002030       _BotHasAssociated          20003030 f   ai_main.obj
 0001:000020e0       _BotInputToUserCommand     200030e0 f   ai_main.obj
 0001:00002360       _BotIsAChickenWuss         20003360 f   ai_main.obj
 0001:000024f0       _BotMindTricked            200034f0 f   ai_main.obj
 0001:00002580       _BotPVSCheck               20003580 f   ai_main.obj
 0001:00002600       _BotReplyGreetings         20003600 f   ai_main.obj
 0001:00002680       _BotScanForLeader          20003680 f   ai_main.obj
 0001:00002720       _BotScheduleBotThink       20003720 f   ai_main.obj
 0001:000027a0       _BotSelectChoiceWeapon     200037a0 f   ai_main.obj
 0001:00002830       _BotSelectIdealWeapon      20003830 f   ai_main.obj
 0001:00002a10       _BotSurfaceNear            20003a10 f   ai_main.obj
 0001:00002ac0       _BotTrace_Duck             20003ac0 f   ai_main.obj
 0001:00002c80       _BotTrace_Jump             20003c80 f   ai_main.obj
 0001:00002ea0       _BotTrace_Strafe           20003ea0 f   ai_main.obj
 0001:00003270       _BotTryAnotherWeapon       20004270 f   ai_main.obj
 0001:000032f0       _BotUpdateInput            200042f0 f   ai_main.obj
 0001:00003420       _BotUseInventoryItem       20004420 f   ai_main.obj
 0001:00003500       _BotWeaponBlockable        20004500 f   ai_main.obj
 0001:00003540       _BotWeaponCanLead          20004540 f   ai_main.obj
 0001:000035a0       _BotWeaponSelectable       200045a0 f   ai_main.obj
 0001:000035f0       _Bot_SetForcedMovement     200045f0 f   ai_main.obj
 0001:00003650       _CTFFlagMovement           20004650 f   ai_main.obj
 0001:00003970       _CTFTakesPriority          20004970 f   ai_main.obj
 0001:00003ce0       _CheckForFriendInLOF       20004ce0 f   ai_main.obj
 0001:00003e40       _CheckForFunc              20004e40 f   ai_main.obj
 0001:00003ef0       _CheckForShorterRoutes     20004ef0 f   ai_main.obj
 0001:00004070       _CombatBotAI               20005070 f   ai_main.obj
 0001:00004300       _CommanderBotAI            20005300 f   ai_main.obj
 0001:00004330       _CommanderBotCTFAI         20005330 f   ai_main.obj
 0001:000045d0       _CommanderBotSiegeAI       200055d0 f   ai_main.obj
 0001:00004700       _CommanderBotTeamplayAI    20005700 f   ai_main.obj
 0001:00004910       _EntityVisibleBox          20005910 f   ai_main.obj
 0001:00004980       _GetBestIdleGoal           20005980 f   ai_main.obj
 0001:00004ad0       _GetIdealDestination       20005ad0 f   ai_main.obj
 0001:00005240       _GetLoveLevel              20006240 f   ai_main.obj
 0001:00005320       _GetNearestBadThing        20006320 f   ai_main.obj
 0001:00005730       _GetNearestVisibleWP       20006730 f   ai_main.obj
 0001:000058c0       _GetNewFlagPoint           200068c0 f   ai_main.obj
 0001:00005aa0       _InFieldOfVision           20006aa0 f   ai_main.obj
 0001:00005b90       _JMTakesPriority           20006b90 f   ai_main.obj
 0001:00005c90       _KeepAltFromFiring         20006c90 f   ai_main.obj
 0001:00005cd0       _KeepPrimFromFiring        20006cd0 f   ai_main.obj
 0001:00005d10       _MeleeCombatHandling       20006d10 f   ai_main.obj
 0001:00005fc0       _MoveTowardIdealAngles     20006fc0 f   ai_main.obj
 0001:00005ff0       _OrgVisible                20006ff0 f   ai_main.obj
 0001:00006040       _OrgVisibleBox             20007040 f   ai_main.obj
 0001:000060b0       _PassLovedOneCheck         200070b0 f   ai_main.obj
 0001:000061e0       _PassStandardEnemyChecks   200071e0 f   ai_main.obj
 0001:000063e0       _PassWayCheck              200073e0 f   ai_main.obj
 0001:00006480       _PlayersInGame             20007480 f   ai_main.obj
 0001:000064c0       _PrimFiring                200074c0 f   ai_main.obj
 0001:00006500       _RemoveColorEscapeSequences 20007500 f   ai_main.obj
 0001:00006560       _SaberCombatHandling       20007560 f   ai_main.obj
 0001:00006cc0       _ScanForEnemies            20007cc0 f   ai_main.obj
 0001:00007000       _ShouldSecondaryFire       20008000 f   ai_main.obj
 0001:00007160       _SiegeTakesPriority        20008160 f   ai_main.obj
 0001:000073d0       _Siege_CountDefenders      200083d0 f   ai_main.obj
 0001:00007440       _Siege_CountTeammates      20008440 f   ai_main.obj
 0001:000074a0       _Siege_DefendFromAttackers 200084a0 f   ai_main.obj
 0001:000075f0       _Siege_TargetClosestObjective 200085f0 f   ai_main.obj
 0001:00007910       _StandardBotAI             20008910 f   ai_main.obj
 0001:0000aab0       _StrafeTracing             2000bab0 f   ai_main.obj
 0001:0000ac80       _TotalTrailDistance        2000bc80 f   ai_main.obj
 0001:0000ad10       _WPConstantRoutine         2000bd10 f   ai_main.obj
 0001:0000aec0       _WPOrgVisible              2000bec0 f   ai_main.obj
 0001:0000af90       _WPTouchRoutine            2000bf90 f   ai_main.obj
 0001:0000b1d0       _WaitingForNow             2000c1d0 f   ai_main.obj
 0001:0000b2f0       _B_Alloc                   2000c2f0 f   ai_util.obj
 0001:0000b300       _B_InitAlloc               2000c300 f   ai_util.obj
 0001:0000b320       _B_TempAlloc               2000c320 f   ai_util.obj
 0001:0000b330       _B_TempFree                2000c330 f   ai_util.obj
 0001:0000b340       _BotDoChat                 2000c340 f   ai_util.obj
 0001:0000b610       _BotUtilizePersonality     2000c610 f   ai_util.obj
 0001:0000bc40       _GetPairedValue            2000cc40 f   ai_util.obj
 0001:0000bd70       _GetValueGroup             2000cd70 f   ai_util.obj
 0001:0000be50       _ParseEmotionalAttachments 2000ce50 f   ai_util.obj
 0001:0000bfa0       _ReadChatGroups            2000cfa0 f   ai_util.obj
 0001:0000c040       _AcceptBotCommand          2000d040 f   ai_wpnav.obj
 0001:0000c5a0       _BeginAutoPathRoutine      2000d5a0 f   ai_wpnav.obj
 0001:0000c750       _BotWaypointRender         2000d750 f   ai_wpnav.obj
 0001:0000ca50       _CalculateJumpRoutes       2000da50 f   ai_wpnav.obj
 0001:0000cb60       _CalculatePaths            2000db60 f   ai_wpnav.obj
 0001:0000cde0       _CalculateSiegeGoals       2000dde0 f   ai_wpnav.obj
 0001:0000cfa0       _CalculateWeightGoals      2000dfa0 f   ai_wpnav.obj
 0001:0000d300       _CanForceJumpTo            2000e300 f   ai_wpnav.obj
 0001:0000d460       _CanGetToVectorTravel      2000e460 f   ai_wpnav.obj
 0001:0000d930       _ConnectTrail              2000e930 f   ai_wpnav.obj
 0001:0000e7b0       _CreateNewWP               2000f7b0 f   ai_wpnav.obj
 0001:0000e8f0       _CreateNewWP_FromObject    2000f8f0 f   ai_wpnav.obj
 0001:0000eab0       _CreateNewWP_InTrail       2000fab0 f   ai_wpnav.obj
 0001:0000ec50       _CreateNewWP_InsertUnder   2000fc50 f   ai_wpnav.obj
 0001:0000ee00       _DoorBlockingSection       2000fe00 f   ai_wpnav.obj
 0001:0000eef0       _FlagObjects               2000fef0 f   ai_wpnav.obj
 0001:0000f2b0       _G_BackwardAttachment      200102b0 f   ai_wpnav.obj
 0001:0000f470       _G_NearestNodeToPoint      20010470 f   ai_wpnav.obj
 0001:0000f550       _G_NodeClearFlags          20010550 f   ai_wpnav.obj
 0001:0000f570       _G_NodeClearForNext        20010570 f   ai_wpnav.obj
 0001:0000f5a0       _G_NodeMatchingXY_BA       200105a0 f   ai_wpnav.obj
 0001:0000f610       _G_RMGPathing              20010610 f   ai_wpnav.obj
 0001:0000f9d0       _G_RecursiveConnection     200109d0 f   ai_wpnav.obj
 0001:0000fc10       _G_TestLine                20010c10 f   ai_wpnav.obj
 0001:0000fc70       _GetClosestSpawn           20010c70 f   ai_wpnav.obj
 0001:0000fd80       _GetFlagStr                20010d80 f   ai_wpnav.obj
 0001:0000fef0       _GetNearestVisibleWPToItem 20010ef0 f   ai_wpnav.obj
 0001:00010060       _GetNextSpawnInIndex       20011060 f   ai_wpnav.obj
 0001:00010140       _LoadPathData              20011140 f   ai_wpnav.obj
 0001:000104e0       _LoadPath_ThisLevel        200114e0 f   ai_wpnav.obj
 0001:00010690       _NodeHere                  20011690 f   ai_wpnav.obj
 0001:00010720       _OpposingEnds              20011720 f   ai_wpnav.obj
 0001:00010770       _OrgVisibleCurve           20011770 f   ai_wpnav.obj
 0001:00010830       _RemoveWP                  20011830 f   ai_wpnav.obj
 0001:00010870       _RemoveWP_InTrail          20011870 f   ai_wpnav.obj
 0001:00010940       _RepairPaths               20011940 f   ai_wpnav.obj
 0001:00010b10       _SavePathData              20011b10 f   ai_wpnav.obj
 0001:00010ed0       _TeleportToWP              20011ed0 f   ai_wpnav.obj
 0001:00010f90       _TransferWPData            20011f90 f   ai_wpnav.obj
 0001:00011090       _WPFlagsModify             20012090 f   ai_wpnav.obj
 0001:000115b0       _G_SetAnimalVehicleFunctions 200125b0 f   AnimalNPC.obj
 0001:000118c0       _BG_AttachToRancor         200128c0 f   bg_g2_utils.obj
 0001:00011b20       _BG_GetRootSurfNameWithVariant 20012b20 f   bg_g2_utils.obj
 0001:00011bb0       _BG_AddPredictableEventToPlayerstate 20012bb0 f   bg_misc.obj
 0001:00011bf0       _BG_Alloc                  20012bf0 f   bg_misc.obj
 0001:00011c40       _BG_CanItemBeGrabbed       20012c40 f   bg_misc.obj
 0001:00011f50       _BG_CanUseFPNow            20012f50 f   bg_misc.obj
 0001:00012040       _BG_CycleInven             20013040 f   bg_misc.obj
 0001:00012110       _BG_EmplacedView           20013110 f   bg_misc.obj
 0001:000121d0       _BG_EvaluateTrajectory     200131d0 f   bg_misc.obj
 0001:00012440       _BG_EvaluateTrajectoryDelta 20013440 f   bg_misc.obj
 0001:00012650       _BG_FileExists             20013650 f   bg_misc.obj
 0001:00012690       _BG_FindItem               20013690 f   bg_misc.obj
 0001:000126d0       _BG_FindItemForAmmo        200136d0 f   bg_misc.obj
 0001:00012710       _BG_FindItemForHoldable    20013710 f   bg_misc.obj
 0001:00012770       _BG_FindItemForPowerup     20013770 f   bg_misc.obj
 0001:000127d0       _BG_FindItemForWeapon      200137d0 f   bg_misc.obj
 0001:00012810       _BG_GetItemIndexByTag      20013810 f   bg_misc.obj
 0001:00012850       _BG_HasYsalamiri           20013850 f   bg_misc.obj
 0001:00012890       _BG_IsItemSelectable       20013890 f   bg_misc.obj
 0001:000128b0       _BG_IsValidCharacterModel  200138b0 f   bg_misc.obj
 0001:00012910       _BG_LegalizedForcePowers   20013910 f   bg_misc.obj
 0001:00012db0       _BG_ModelCache             20013db0 f   bg_misc.obj
 0001:00012e10       _BG_ParseField             20013e10 f   bg_misc.obj
 0001:00012fa0       _BG_PlayerStateToEntityState 20013fa0 f   bg_misc.obj
 0001:00013460       _BG_PlayerStateToEntityStateExtraPolate 20014460 f   bg_misc.obj
 0001:00013930       _BG_PlayerTouchesItem      20014930 f   bg_misc.obj
 0001:000139c0       _BG_TempAlloc              200149c0 f   bg_misc.obj
 0001:00013a00       _BG_TempFree               20014a00 f   bg_misc.obj
 0001:00013a50       _BG_TouchJumpPad           20014a50 f   bg_misc.obj
 0001:00013ad0       _BG_ValidateSkinForTeam    20014ad0 f   bg_misc.obj
 0001:00013d30       ___local_stdio_scanf_options 20014d30 f i bg_misc.obj
 0001:00013d40       _sscanf                    20014d40 f i bg_misc.obj
 0001:00013d70       _vectoyaw                  20014d70 f   bg_misc.obj
 0001:00013e20       _BG_AnimLength             20014e20 f   bg_panimate.obj
 0001:00013e80       _BG_AnimsetAlloc           20014e80 f   bg_panimate.obj
 0001:00013eb0       _BG_BrokenParryForAttack   20014eb0 f   bg_panimate.obj
 0001:00013f30       _BG_BrokenParryForParry    20014f30 f   bg_panimate.obj
 0001:00014050       _BG_CrouchAnim             20015050 f   bg_panimate.obj
 0001:00014180       _BG_FlippingAnim           20015180 f   bg_panimate.obj
 0001:00014260       _BG_FullBodyTauntAnim      20015260 f   bg_panimate.obj
 0001:000142a0       _BG_HasAnimation           200152a0 f   bg_panimate.obj
 0001:000142f0       _BG_InBackFlip             200152f0 f   bg_panimate.obj
 0001:00014310       _BG_InDeathAnim            20015310 f   bg_panimate.obj
 0001:00014350       _BG_InExtraDefenseSaberMove 20015350 f   bg_panimate.obj
 0001:000143b0       _BG_InGrappleMove          200153b0 f   bg_panimate.obj
 0001:00014400       _BG_InKataAnim             20015400 f   bg_panimate.obj
 0001:00014420       _BG_InKnockDownOnGround    20015420 f   bg_panimate.obj
 0001:000144b0       _BG_InKnockDownOnly        200154b0 f   bg_panimate.obj
 0001:000144d0       _BG_InReboundHold          200154d0 f   bg_panimate.obj
 0001:000144f0       _BG_InReboundJump          200154f0 f   bg_panimate.obj
 0001:00014510       _BG_InRoll                 20015510 f   bg_panimate.obj
 0001:000145a0       _BG_InSaberLock            200155a0 f   bg_panimate.obj
 0001:00014660       _BG_InSaberLockOld         20015660 f   bg_panimate.obj
 0001:000146a0       _BG_InSaberStandAnim       200156a0 f   bg_panimate.obj
 0001:000146d0       _BG_InSpecialJump          200156d0 f   bg_panimate.obj
 0001:000147d0       _BG_InitAnimsets           200157d0 f   bg_panimate.obj
 0001:000147f0       _BG_KickMove               200157f0 f   bg_panimate.obj
 0001:00014810       _BG_KickingAnim            20015810 f   bg_panimate.obj
 0001:00014870       _BG_KnockawayForParry      20015870 f   bg_panimate.obj
 0001:000148c0       _BG_ParseAnimationFile     200158c0 f   bg_panimate.obj
 0001:00014bf0       _BG_PickAnim               20015bf0 f   bg_panimate.obj
 0001:00014c60       _BG_SaberInAttack          20015c60 f   bg_panimate.obj
 0001:00014c90       _BG_SaberInIdle            20015c90 f   bg_panimate.obj
 0001:00014ca0       _BG_SaberInKata            20015ca0 f   bg_panimate.obj
 0001:00014cc0       _BG_SaberInSpecial         20015cc0 f   bg_panimate.obj
 0001:00014ce0       _BG_SaberInSpecialAttack   20015ce0 f   bg_panimate.obj
 0001:00014e40       _BG_SaberInTransitionAny   20015e40 f   bg_panimate.obj
 0001:00014e70       _BG_SaberLockBreakAnim     20015e70 f   bg_panimate.obj
 0001:00014f30       _BG_SaberStartTransAnim    20015f30 f   bg_panimate.obj
 0001:00015000       _BG_SetAnim                20016000 f   bg_panimate.obj
 0001:000150b0       _BG_SetAnimFinal           200160b0 f   bg_panimate.obj
 0001:00015330       _BG_SetLegsAnimTimer       20016330 f   bg_panimate.obj
 0001:00015350       _BG_SetTorsoAnimTimer      20016350 f   bg_panimate.obj
 0001:00015370       _BG_SpinningSaberAnim      20016370 f   bg_panimate.obj
 0001:000155d0       _BG_StabDownAnim           200165d0 f   bg_panimate.obj
 0001:00015640       _BG_StartTorsoAnim         20016640 f   bg_panimate.obj
 0001:00015680       _BG_SuperBreakLoseAnim     20016680 f   bg_panimate.obj
 0001:00015710       _BG_SuperBreakWinAnim      20016710 f   bg_panimate.obj
 0001:000157a0       _PM_AnimLength             200167a0 f   bg_panimate.obj
 0001:00015820       _PM_CanRollFromSoulCal     20016820 f   bg_panimate.obj
 0001:00015850       _PM_ContinueLegsAnim       20016850 f   bg_panimate.obj
 0001:00015880       _PM_ForceLegsAnim          20016880 f   bg_panimate.obj
 0001:00015930       _PM_InCartwheel            20016930 f   bg_panimate.obj
 0001:00015960       _PM_InKnockDown            20016960 f   bg_panimate.obj
 0001:000159c0       _PM_InOnGroundAnim         200169c0 f   bg_panimate.obj
 0001:00015a00       _PM_InRollComplete         20016a00 f   bg_panimate.obj
 0001:00015a30       _PM_InSaberAnim            20016a30 f   bg_panimate.obj
 0001:00015a50       _PM_JumpingAnim            20016a50 f   bg_panimate.obj
 0001:00015a70       _PM_LandingAnim            20016a70 f   bg_panimate.obj
 0001:00015ac0       _PM_PainAnim               20016ac0 f   bg_panimate.obj
 0001:00015ae0       _PM_SaberBounceForAttack   20016ae0 f   bg_panimate.obj
 0001:00015b60       _PM_SaberDeflectionForQuad 20016b60 f   bg_panimate.obj
 0001:00015bd0       _PM_SaberInDeflect         20016bd0 f   bg_panimate.obj
 0001:00015bf0       _PM_SaberInKnockaway       20016bf0 f   bg_panimate.obj
 0001:00015c10       _PM_SaberInParry           20016c10 f   bg_panimate.obj
 0001:00015c30       _PM_SaberInReflect         20016c30 f   bg_panimate.obj
 0001:00015c50       _BG_SaberInReturn          20016c50 f   bg_panimate.obj
 0001:00015c50       _PM_SaberInReturn          20016c50 f   bg_panimate.obj
 0001:00015c70       _PM_SaberInStart           20016c70 f   bg_panimate.obj
 0001:00015c90       _PM_SaberInTransition      20016c90 f   bg_panimate.obj
 0001:00015cb0       _PM_SetAnim                20016cb0 f   bg_panimate.obj
 0001:00015ce0       _PM_SpinningAnim           20016ce0 f   bg_panimate.obj
 0001:00015cf0       _PM_StartTorsoAnim         20016cf0 f   bg_panimate.obj
 0001:00015d30       _BG_AdjustClientSpeed      20016d30 f   bg_pmove.obj
 0001:000160a0       _BG_CmdForRoll             200170a0 f   bg_pmove.obj
 0001:00016270       _BG_G2ATSTAngles           20017270 f   bg_pmove.obj
 0001:00016880       _BG_G2PlayerAngles         20017880 f   bg_pmove.obj
 0001:000174e0       _BG_IK_MoveArm             200184e0 f   bg_pmove.obj
 0001:000179a0       _BG_InKnockDown            200189a0 f   bg_pmove.obj
 0001:000179f0       _BG_InRoll2                200189f0 f   bg_pmove.obj
 0001:00017a80       _BG_InSlopeAnim            20018a80 f   bg_pmove.obj
 0001:00017aa0       _BG_KnockDownable          20018aa0 f   bg_pmove.obj
 0001:00017ac0       _BG_SabersOff              20018ac0 f   bg_pmove.obj
 0001:00017cb0       _BG_UnrestrainedPitchRoll  20018cb0 f   bg_pmove.obj
 0001:00017d00       _BG_UpdateLookAngles       20018d00 f   bg_pmove.obj
 0001:00017ed0       _BG_VehicleAdjustBBoxForOrientation 20018ed0 f   bg_pmove.obj
 0001:00018350       _BG_VehicleTurnRateForSpeed 20019350 f   bg_pmove.obj
 0001:000185c0       _PM_AddEvent               200195c0 f   bg_pmove.obj
 0001:000185e0       _PM_AddTouchEnt            200195e0 f   bg_pmove.obj
 0001:00018630       _PM_AdjustAngleForWallJump 20019630 f   bg_pmove.obj
 0001:00018a90       _PM_AdjustAngleForWallRun  20019a90 f   bg_pmove.obj
 0001:00018eb0       _PM_AdjustAngleForWallRunUp 20019eb0 f   bg_pmove.obj
 0001:000192e0       _PM_AdjustAttackStates     2001a2e0 f   bg_pmove.obj
 0001:00019600       _PM_AdjustStandAnimForSlope 2001a600 f   bg_pmove.obj
 0001:00019e90       _PM_BGEntForNum            2001ae90 f   bg_pmove.obj
 0001:00019ec0       _PM_BeginWeaponChange      2001aec0 f   bg_pmove.obj
 0001:00019f60       _PM_CheckDualForwardJumpDuck 2001af60 f   bg_pmove.obj
 0001:0001a420       _PM_CheckFixMins           2001b420 f   bg_pmove.obj
 0001:0001c0b0       _PM_ClipVelocity           2001d0b0 f   bg_pmove.obj
 0001:0001d420       _PM_FinishWeaponChange     2001e420 f   bg_pmove.obj
 0001:0001d920       _PM_FootSlopeTrace         2001e920 f   bg_pmove.obj
 0001:0001e320       _PM_ForceJumpingUp         2001f320 f   bg_pmove.obj
 0001:0001e650       _PM_GetOkWeaponForVehicle  2001f650 f   bg_pmove.obj
 0001:0001e690       _PM_GetSaberStance         2001f690 f   bg_pmove.obj
 0001:0001e720       _PM_GrabWallForJump        2001f720 f   bg_pmove.obj
 0001:0001ee10       _PM_HoverTrace             2001fe10 f   bg_pmove.obj
 0001:0001f320       _PM_LegsSlopeBackTransition 20020320 f   bg_pmove.obj
 0001:0001f3c0       _PM_MoveForKata            200203c0 f   bg_pmove.obj
 0001:0001f7f0       _PM_RocketLock             200207f0 f   bg_pmove.obj
 0001:0001fb50       _PM_RollingAnim            20020b50 f   bg_pmove.obj
 0001:0001fb70       _PM_RunningAnim            20020b70 f   bg_pmove.obj
 0001:0001fbc0       _PM_SetForceJumpZStart     20020bc0 f   bg_pmove.obj
 0001:0001fcf0       _PM_SetPMViewAngle         20020cf0 f   bg_pmove.obj
 0001:0001fd70       _PM_SetSpecialMoveValues   20020d70 f   bg_pmove.obj
 0001:000202e0       _PM_SwimmingAnim           200212e0 f   bg_pmove.obj
 0001:00020620       _PM_UpdateViewAngles       20021620 f   bg_pmove.obj
 0001:00020830       _PM_Use                    20021830 f   bg_pmove.obj
 0001:00020890       _PM_VehFaceHyperspacePoint 20021890 f   bg_pmove.obj
 0001:00020b90       _PM_VehForcedTurning       20021b90 f   bg_pmove.obj
 0001:00020df0       _PM_VehicleViewAngles      20021df0 f   bg_pmove.obj
 0001:00020fa0       _PM_VehicleWeaponAnimate   20021fa0 f   bg_pmove.obj
 0001:000218c0       _PM_WalkingAnim            200228c0 f   bg_pmove.obj
 0001:00023410       _PM_WeaponOkOnVehicle      20024410 f   bg_pmove.obj
 0001:00023430       _PM_pitch_roll_for_slope   20024430 f   bg_pmove.obj
 0001:00023780       _Pmove                     20024780 f   bg_pmove.obj
 0001:00023830       _PmoveSingle               20024830 f   bg_pmove.obj
 0001:00024c50       _BG_CheckIncrementLockAnim 20025c50 f   bg_saber.obj
 0001:00024d00       _BG_EnoughForcePowerForMove 20025d00 f   bg_saber.obj
 0001:00024d30       _BG_ForcePowerDrain        20025d30 f   bg_saber.obj
 0001:00024df0       _PM_BrokenParryForParry    20025df0 f   bg_saber.obj
 0001:00024f00       _PM_CanBackstab            20025f00 f   bg_saber.obj
 0001:00025050       _PM_CanDoKata              20026050 f   bg_saber.obj
 0001:00025130       _PM_CheckAltKickAttack     20026130 f   bg_saber.obj
 0001:00025180       _PM_CheckStabDown          20026180 f   bg_saber.obj
 0001:00025300       _PM_GroundDistance         20026300 f   bg_saber.obj
 0001:000253e0       _PM_KickMoveForConditions  200263e0 f   bg_saber.obj
 0001:00025420       _PM_SaberAnimTransitionAnim 20026420 f   bg_saber.obj
 0001:000255a0       _PM_SaberAttackChainAngle  200265a0 f   bg_saber.obj
 0001:000255e0       _PM_SaberAttackForMovement 200265e0 f   bg_saber.obj
 0001:00026350       _PM_SaberBackflipAttackMove 20027350 f   bg_saber.obj
 0001:00026370       _PM_SaberFlipOverAttackMove 20027370 f   bg_saber.obj
 0001:00026430       _PM_SaberInBounce          20027430 f   bg_saber.obj
 0001:00026460       _PM_SaberInBrokenParry     20027460 f   bg_saber.obj
 0001:00026490       _PM_SaberJumpAttackMove    20027490 f   bg_saber.obj
 0001:00026550       _PM_SaberKataDone          20027550 f   bg_saber.obj
 0001:00026680       _PM_SaberLockBreak         20027680 f   bg_saber.obj
 0001:00026a40       _PM_SaberLockLoseAnim      20027a40 f   bg_saber.obj
 0001:00026b30       _PM_SaberLockResultAnim    20027b30 f   bg_saber.obj
 0001:00026c10       _PM_SaberLockWinAnim       20027c10 f   bg_saber.obj
 0001:00026d70       _PM_SaberLocked            20027d70 f   bg_saber.obj
 0001:00027160       _PM_SaberLungeAttackMove   20028160 f   bg_saber.obj
 0001:00027200       _PM_SaberMoveQuadrantForMovement 20028200 f   bg_saber.obj
 0001:00027260       _PM_SaberPowerCheck        20028260 f   bg_saber.obj
 0001:000272c0       _PM_SetSaberMove           200282c0 f   bg_saber.obj
 0001:000278f0       _PM_WalkableGroundDistance 200288f0 f   bg_saber.obj
 0001:000279f0       _PM_WeaponLightsaber       200289f0 f   bg_saber.obj
 0001:00029730       _PM_irand_timesync         2002a730 f   bg_saber.obj
 0001:00029790       _BG_ParseLiteral           2002a790 f   bg_saberLoad.obj
 0001:000297f0       _TranslateSaberColor       2002a7f0 f   bg_saberLoad.obj
 0001:000298b0       _TranslateSaberStyle       2002a8b0 f   bg_saberLoad.obj
 0001:00029970       _WP_RemoveSaber            2002a970 f   bg_saberLoad.obj
 0001:00029a10       _WP_SaberLoadParms         2002aa10 f   bg_saberLoad.obj
 0001:00029b30       _WP_SaberParseParm         2002ab30 f   bg_saberLoad.obj
 0001:00029c70       _WP_SaberParseParms        2002ac70 f   bg_saberLoad.obj
 0001:0002a730       _WP_SaberSetDefaults       2002b730 f   bg_saberLoad.obj
 0001:0002a960       _WP_SaberValidForPlayerInMP 2002b960 f   bg_saberLoad.obj
 0001:0002a9c0       _WP_SetSaber               2002b9c0 f   bg_saberLoad.obj
 0001:0002aa70       _BG_PrecacheSabersForSiegeTeam 2002ba70 f   bg_saga.obj
 0001:0002ab50       _BG_SiegeCheckClassLegality 2002bb50 f   bg_saga.obj
 0001:0002abf0       _BG_SiegeFindClassIndexByName 2002bbf0 f   bg_saga.obj
 0001:0002ac40       _BG_SiegeFindTeamForTheme  2002bc40 f   bg_saga.obj
 0001:0002aca0       _BG_SiegeFindThemeForTeam  2002bca0 f   bg_saga.obj
 0001:0002acc0       _BG_SiegeGetPairedValue    2002bcc0 f   bg_saga.obj
 0001:0002af20       _BG_SiegeGetValueGroup     2002bf20 f   bg_saga.obj
 0001:0002b230       _BG_SiegeLoadClasses       2002c230 f   bg_saga.obj
 0001:0002b300       _BG_SiegeLoadTeams         2002c300 f   bg_saga.obj
 0001:0002b5e0       _BG_SiegeParseClassFile    2002c5e0 f   bg_saga.obj
 0001:0002be90       _BG_SiegeSetTeamTheme      2002ce90 f   bg_saga.obj
 0001:0002bec0       _BG_SiegeStripTabs         2002cec0 f   bg_saga.obj
 0001:0002bf00       _BG_SiegeTranslateForcePowers 2002cf00 f   bg_saga.obj
 0001:0002c0d0       _BG_SiegeTranslateGenericTable 2002d0d0 f   bg_saga.obj
 0001:0002c1b0       _PM_ClientImpact           2002d1b0 f   bg_slidemove.obj
 0001:0002c280       _PM_GroundSlideOkay        2002d280 f   bg_slidemove.obj
 0001:0002c300       _PM_SlideMove              2002d300 f   bg_slidemove.obj
 0001:0002cb80       _PM_StepSlideMove          2002db80 f   bg_slidemove.obj
 0001:0002d180       _PM_VehicleImpact          2002e180 f   bg_slidemove.obj
 0001:0002df90       _AttachRidersGeneric       2002ef90 f   bg_vehicleLoad.obj
 0001:0002e040       _BG_GetVehicleModelName    2002f040 f   bg_vehicleLoad.obj
 0001:0002e630       _BG_SetSharedVehicleFunctions 2002f630 f   bg_vehicleLoad.obj
 0001:0002e690       _BG_VehWeaponLoadParms     2002f690 f   bg_vehicleLoad.obj
 0001:0002e810       _BG_VehicleClampData       2002f810 f   bg_vehicleLoad.obj
 0001:0002e8b0       _BG_VehicleGetIndex        2002f8b0 f   bg_vehicleLoad.obj
 0001:0002e8c0       _BG_VehicleLoadParms       2002f8c0 f   bg_vehicleLoad.obj
 0001:0002eb80       _VEH_LoadVehWeapon         2002fb80 f   bg_vehicleLoad.obj
 0001:0002ed30       _VEH_LoadVehicle           2002fd30 f   bg_vehicleLoad.obj
 0001:0002f5f0       _VEH_VehWeaponIndexForName 200305f0 f   bg_vehicleLoad.obj
 0001:0002f690       _VEH_VehicleIndexForName   20030690 f   bg_vehicleLoad.obj
 0001:0002f910       _BG_FighterUpdate          20030910 f   FighterNPC.obj
 0001:0002fdd0       _FighterIsInSpace          20030dd0 f   FighterNPC.obj
 0001:0002fe00       _FighterIsLanded           20030e00 f   FighterNPC.obj
 0001:0002fe50       _FighterIsLanding          20030e50 f   FighterNPC.obj
 0001:0002fec0       _FighterIsLaunching        20030ec0 f   FighterNPC.obj
 0001:00030010       _FighterOverValidLandingSurface 20031010 f   FighterNPC.obj
 0001:00030050       _FighterPitchAdjust        20031050 f   FighterNPC.obj
 0001:000301d0       _FighterPitchClamp         200311d0 f   FighterNPC.obj
 0001:00030240       _FighterSuspended          20031240 f   FighterNPC.obj
 0001:00030440       _FighterYawAdjust          20031440 f   FighterNPC.obj
 0001:000305d0       _G_SetFighterVehicleFunctions 200315d0 f   FighterNPC.obj
 0001:00031bb0       _ClientEndFrame            20032bb0 f   g_active.obj
 0001:00031d10       _ClientEvents              20032d10 f   g_active.obj
 0001:00031f80       _ClientImpacts             20032f80 f   g_active.obj
 0001:00032040       _ClientInactivityTimer     20033040 f   g_active.obj
 0001:00032150       _ClientThink               20033150 f   g_active.obj
 0001:000321e0       _ClientThink_real          200331e0 f   g_active.obj
 0001:00034ef0       _ClientTimerActions        20035ef0 f   g_active.obj
 0001:00034f70       _Client_CheckImpactBBrush  20035f70 f   g_active.obj
 0001:00035010       _DoImpact                  20036010 f   g_active.obj
 0001:00035470       _G_ActionButtonPressed     20036470 f   g_active.obj
 0001:000354b0       _G_AddPushVecToUcmd        200364b0 f   g_active.obj
 0001:00035700       _G_CheapWeaponFire         20036700 f   g_active.obj
 0001:000357e0       _G_CheckClientIdle         200367e0 f   g_active.obj
 0001:00035cb0       _G_CheckClientTimeouts     20036cb0 f   g_active.obj
 0001:00035d00       _G_CheckMovingLoopingSounds 20036d00 f   g_active.obj
 0001:00035ea0       _G_HeldByMonster           20036ea0 f   g_active.obj
 0001:00035fd0       _G_MoverTouchPushTriggers  20036fd0 f   g_active.obj
 0001:000362f0       _G_RunClient               200372f0 f   g_active.obj
 0001:00036330       _G_SetClientSound          20037330 f   g_active.obj
 0001:000363f0       _G_SetTauntAnim            200373f0 f   g_active.obj
 0001:000367f0       _G_StandingAnim            200377f0 f   g_active.obj
 0001:00036830       _G_TouchTriggers           20037830 f   g_active.obj
 0001:00036a70       _G_UpdateClientBroadcasts  20037a70 f   g_active.obj
 0001:00036dc0       _P_DamageFeedback          20037dc0 f   g_active.obj
 0001:00036fa0       _P_WorldEffects            20037fa0 f   g_active.obj
 0001:00037150       _SendPendingPredictableEvents 20038150 f   g_active.obj
 0001:000371f0       _SpectatorClientEndFrame   200381f0 f   g_active.obj
 0001:000372f0       _SpectatorThink            200382f0 f   g_active.obj
 0001:00037a10       _G_AddRandomBot            20038a10 f   g_bot.obj
 0001:00037cc0       _G_BotConnect              20038cc0 f   g_bot.obj
 0001:00037d90       _G_CheckBotSpawn           20038d90 f   g_bot.obj
 0001:00037dd0       _G_CheckMinimumPlayers     20038dd0 f   g_bot.obj
 0001:00037e80       _G_CountBotPlayers         20038e80 f   g_bot.obj
 0001:00037fe0       _G_CountHumanPlayers       20038fe0 f   g_bot.obj
 0001:00038040       _G_DoesMapSupportGametype  20039040 f   g_bot.obj
 0001:000380e0       _G_GetArenaInfoByMap       200390e0 f   g_bot.obj
 0001:00038130       _G_GetBotInfoByName        20039130 f   g_bot.obj
 0001:00038180       _G_GetMapTypeBits          20039180 f   g_bot.obj
 0001:00038260       _G_InitBots                20039260 f   g_bot.obj
 0001:00038660       _G_ParseInfos              20039660 f   g_bot.obj
 0001:00038850       _G_RefreshNextMap          20039850 f   g_bot.obj
 0001:00038990       _G_RemoveQueuedBotBegin    20039990 f   g_bot.obj
 0001:000389c0       _G_RemoveRandomBot         200399c0 f   g_bot.obj
 0001:00038a80       _Svcmd_AddBot_f            20039a80 f   g_bot.obj
 0001:00038be0       _Svcmd_BotList_f           20039be0 f   g_bot.obj
 0001:00038da0       _BodySink                  20039da0 f   g_client.obj
 0001:00038e00       _ClientBegin               20039e00 f   g_client.obj
 0001:000393f0       _ClientConnect             2003a3f0 f   g_client.obj
 0001:00039690       _ClientDisconnect          2003a690 f   g_client.obj
 0001:00039a00       _ClientSpawn               2003aa00 f   g_client.obj
 0001:0003ad20       _ClientUserinfoChanged     2003bd20 f   g_client.obj
 0001:0003ba90       _G_BreakArm                2003ca90 f   g_client.obj
 0001:0003bba0       _G_SaberModelSetup         2003cba0 f   g_client.obj
 0001:0003bd20       _G_UpdateClientAnims       2003cd20 f   g_client.obj
 0001:0003c140       _InitBodyQue               2003d140 f   g_client.obj
 0001:0003c180       _JMSaberThink              2003d180 f   g_client.obj
 0001:0003c330       _JMSaberTouch              2003d330 f   g_client.obj
 0001:0003c600       _MaintainBodyQueue         2003d600 f   g_client.obj
 0001:0003c690       _PickTeam                  2003d690 f   g_client.obj
 0001:0003c6e0       _SP_info_jedimaster_start  2003d6e0 f   g_client.obj
 0001:0003c810       _SP_info_player_duel       2003d810 f   g_client.obj
 0001:0003c810       _SP_info_player_duel1      2003d810 f   g_client.obj
 0001:0003c810       _SP_info_player_duel2      2003d810 f   g_client.obj
 0001:0003c810       _SP_info_player_deathmatch 2003d810 f   g_client.obj
 0001:0003c870       _SP_info_player_siegeteam1 2003d870 f   g_client.obj
 0001:0003c870       _SP_info_player_siegeteam2 2003d870 f   g_client.obj
 0001:0003c8e0       _SP_info_player_start      2003d8e0 f   g_client.obj
 0001:0003c940       _SelectDuelSpawnPoint      2003d940 f   g_client.obj
 0001:0003cc60       _SelectInitialSpawnPoint   2003dc60 f   g_client.obj
 0001:0003cd10       _SelectRandomFurthestSpawnPoint 2003dd10 f   g_client.obj
 0001:0003cff0       _SelectSpawnPoint          2003dff0 f   g_client.obj
 0001:0003d000       _SetClientViewAngle        2003e000 f   g_client.obj
 0001:0003d0c0       _SetupGameGhoul2Model      2003e0c0 f   g_client.obj
 0001:0003d9c0       _SiegePointUse             2003e9c0 f   g_client.obj
 0001:0003d9e0       _SpotWouldTelefrag         2003e9e0 f   g_client.obj
 0001:0003dab0       _SpotWouldTelefrag2        2003eab0 f   g_client.obj
 0001:0003dba0       _TeamCount                 2003eba0 f   g_client.obj
 0001:0003dc00       _TeamLeader                2003ec00 f   g_client.obj
 0001:0003dc50       _ThrowSaberToAttacker      2003ec50 f   g_client.obj
 0001:0003df20       _respawn                   2003ef20 f   g_client.obj
 0001:0003e0f0       _BroadcastTeamChange       2003f0f0 f   g_cmds.obj
 0001:0003e1c0       _CheatsOk                  2003f1c0 f   g_cmds.obj
 0001:0003e280       _ClientCommand             2003f280 f   g_cmds.obj
 0001:0003f9d0       _ClientNumberFromString    200409d0 f   g_cmds.obj
 0001:0003fb60       _Cmd_CallTeamVote_f        20040b60 f   g_cmds.obj
 0001:00040040       _Cmd_CallVote_f            20041040 f   g_cmds.obj
 0001:000407e0       _Cmd_DebugSetBodyAnim_f    200417e0 f   g_cmds.obj
 0001:00040890       _Cmd_DebugSetSaberMove_f   20041890 f   g_cmds.obj
 0001:00040940       _Cmd_DuelTeam_f            20041940 f   g_cmds.obj
 0001:00040b80       _Cmd_EngageDuel_f          20041b80 f   g_cmds.obj
 0001:00041030       _Cmd_FollowCycle_f         20042030 f   g_cmds.obj
 0001:00041120       _Cmd_Follow_f              20042120 f   g_cmds.obj
 0001:00041210       _Cmd_ForceChanged_f        20042210 f   g_cmds.obj
 0001:000412f0       _Cmd_GameCommand_f         200422f0 f   g_cmds.obj
 0001:00041390       _Cmd_Give_f                20042390 f   g_cmds.obj
 0001:00041880       _Cmd_God_f                 20042880 f   g_cmds.obj
 0001:000418e0       _Cmd_Kill_f                200428e0 f   g_cmds.obj
 0001:000419a0       _Cmd_LevelShot_f           200429a0 f   g_cmds.obj
 0001:00041a00       _Cmd_Noclip_f              20042a00 f   g_cmds.obj
 0001:00041a70       _Cmd_Notarget_f            20042a70 f   g_cmds.obj
 0001:00041ad0       _Cmd_SaberAttackCycle_f    20042ad0 f   g_cmds.obj
 0001:00041d40       _Cmd_Score_f               20042d40 f   g_cmds.obj
 0001:00041d50       _Cmd_SetViewpos_f          20042d50 f   g_cmds.obj
 0001:00041e70       _Cmd_SiegeClass_f          20042e70 f   g_cmds.obj
 0001:000420a0       _Cmd_TeamTask_f            200430a0 f   g_cmds.obj
 0001:00042150       _Cmd_TeamVote_f            20043150 f   g_cmds.obj
 0001:000422b0       _Cmd_Team_f                200432b0 f   g_cmds.obj
 0001:000424d0       _Cmd_ToggleSaber_f         200434d0 f   g_cmds.obj
 0001:00042760       _Cmd_Vote_f                20043760 f   g_cmds.obj
 0001:000428e0       _Cmd_Where_f               200438e0 f   g_cmds.obj
 0001:00042920       _ConcatArgs                20043920 f   g_cmds.obj
 0001:000429c0       _DeathmatchScoreboardMessage 200439c0 f   g_cmds.obj
 0001:00042be0       _G_ClientNumberFromName    20043be0 f   g_cmds.obj
 0001:00042cd0       _G_ClientNumberFromStrippedName 20043cd0 f   g_cmds.obj
 0001:00042db0       _G_ItemUsable              20043db0 f   g_cmds.obj
 0001:00043130       _G_OtherPlayersDueling     20044130 f   g_cmds.obj
 0001:00043170       _G_PowerDuelCheckFail      20044170 f   g_cmds.obj
 0001:000431e0       _G_Say                     200441e0 f   g_cmds.obj
 0001:00043530       _G_SetSaber                20044530 f   g_cmds.obj
 0001:000436b0       _G_TeamForSiegeClass       200446b0 f   g_cmds.obj
 0001:00043730       _SanitizeString            20044730 f   g_cmds.obj
 0001:00043780       _SanitizeString2           20044780 f   g_cmds.obj
 0001:000437e0       _SetTeam                   200447e0 f   g_cmds.obj
 0001:00043c50       _StopFollowing             20044c50 f   g_cmds.obj
 0001:00043d40       _TryGrapple                20044d40 f   g_cmds.obj
 0001:00043e10       _AddScore                  20044e10 f   g_combat.obj
 0001:00043e60       _BodyRid                   20044e60 f   g_combat.obj
 0001:00043e90       _CanDamage                 20044e90 f   g_combat.obj
 0001:00044120       _CheckArmor                20045120 f   g_combat.obj
 0001:00044210       _DeathFX                   20045210 f   g_combat.obj
 0001:00044760       _DismembermentByNum        20045760 f   g_combat.obj
 0001:00044800       _G_AddPowerDuelLoserScore  20045800 f   g_combat.obj
 0001:00044870       _G_AddPowerDuelScore       20045870 f   g_combat.obj
 0001:000448e0       _G_AlertTeam               200458e0 f   g_combat.obj
 0001:00044af0       _G_CheckForDismemberment   20045af0 f   g_combat.obj
 0001:00045240       _G_CheckVictoryScript      20046240 f   g_combat.obj
 0001:00045370       _G_Damage                  20046370 f   g_combat.obj
 0001:00046ba0       _G_Dismember               20047ba0 f   g_combat.obj
 0001:00047300       _G_GetDismemberBolt        20048300 f   g_combat.obj
 0001:000475f0       _G_GetDismemberLoc         200485f0 f   g_combat.obj
 0001:00047890       _G_GetHitLocFromSurfName   20048890 f   g_combat.obj
 0001:00048570       _G_GetHitLocation          20049570 f   g_combat.obj
 0001:00048960       _G_GetHitQuad              20049960 f   g_combat.obj
 0001:00048ad0       _G_GetJediMaster           20049ad0 f   g_combat.obj
 0001:00048b10       _G_HeavyMelee              20049b10 f   g_combat.obj
 0001:00048b60       _G_InKnockDown             20049b60 f   g_combat.obj
 0001:00048bb0       _G_Knockdown               20049bb0 f   g_combat.obj
 0001:00048c20       _G_LocationBasedDamageModifier 20049c20 f   g_combat.obj
 0001:00048dd0       _G_RadiusDamage            20049dd0 f   g_combat.obj
 0001:000490a0       _G_ThereIsAMaster          2004a0a0 f   g_combat.obj
 0001:000490e0       _LimbThink                 2004a0e0 f   g_combat.obj
 0001:000491a0       _ObjectDie                 2004a1a0 f   g_combat.obj
 0001:000491d0       _TossClientItems           2004a1d0 f   g_combat.obj
 0001:00049360       _TossClientWeapon          2004a360 f   g_combat.obj
 0001:00049590       _body_die                  2004a590 f   g_combat.obj
 0001:000496f0       _player_die                2004a6f0 f   g_combat.obj
 0001:0004ac80       _G_RunExPhys               2004bc80 f   g_exphysics.obj
 0001:0004b3a0       _Blocked_Mover             2004c3a0 f   g_ICARUScb.obj
 0001:0004b410       _G_DebugPrint              2004c410 f   g_ICARUScb.obj
 0001:0004b500       _MoveOwner                 2004c500 f   g_ICARUScb.obj
 0001:0004b690       _Q3_GetFloat               2004c690 f   g_ICARUScb.obj
 0001:0004bb20       _Q3_GetString              2004cb20 f   g_ICARUScb.obj
 0001:0004bf90       _Q3_GetTag                 2004cf90 f   g_ICARUScb.obj
 0001:0004c000       _Q3_GetVector              2004d000 f   g_ICARUScb.obj
 0001:0004c150       _Q3_Kill                   2004d150 f   g_ICARUScb.obj
 0001:0004c200       _Q3_Lerp2Angles            2004d200 f   g_ICARUScb.obj
 0001:0004c370       _Q3_Lerp2End               2004d370 f   g_ICARUScb.obj
 0001:0004c460       _Q3_Lerp2Origin            2004d460 f   g_ICARUScb.obj
 0001:0004c5f0       _Q3_Lerp2Pos               2004d5f0 f   g_ICARUScb.obj
 0001:0004c860       _Q3_Lerp2Start             2004d860 f   g_ICARUScb.obj
 0001:0004c950       _Q3_Play                   2004d950 f   g_ICARUScb.obj
 0001:0004ca10       _Q3_PlaySound              2004da10 f   g_ICARUScb.obj
 0001:0004cb80       _Q3_Remove                 2004db80 f   g_ICARUScb.obj
 0001:0004cc90       _Q3_RemoveEnt              2004dc90 f   g_ICARUScb.obj
 0001:0004cd00       _Q3_Set                    2004dd00 f   g_ICARUScb.obj
 0001:0004f080       _Q3_SetICARUSFreeze        20050080 f   g_ICARUScb.obj
 0001:0004f1c0       _Q3_SetLoopSound           200501c0 f   g_ICARUScb.obj
 0001:0004f450       _Q3_SetParm                20050450 f   g_ICARUScb.obj
 0001:0004f960       _Q3_Use                    20050960 f   g_ICARUScb.obj
 0001:0004fa80       _SolidifyOwner             20050a80 f   g_ICARUScb.obj
 0001:0004fb10       ___local_stdio_printf_options 20050b10 f i g_ICARUScb.obj
 0001:0004fb20       _anglerCallback            20050b20 f   g_ICARUScb.obj
 0001:0004fc10       _moveAndRotateCallback     20050c10 f   g_ICARUScb.obj
 0001:0004fc30       _moverCallback             20050c30 f   g_ICARUScb.obj
 0001:0004fcb0       _Add_Ammo                  20050cb0 f   g_items.obj
 0001:0004fd00       _CheckItemCanBePickedUpByNPC 20050d00 f   g_items.obj
 0001:0004fd80       _ClearRegisteredItems      20050d80 f   g_items.obj
 0001:0004feb0       _CreateShield              20050eb0 f   g_items.obj
 0001:00050270       _Drop_Item                 20051270 f   g_items.obj
 0001:00050350       _EWebDie                   20051350 f   g_items.obj
 0001:00050450       _EWebDisattach             20051450 f   g_items.obj
 0001:000504e0       _EWebFire                  200514e0 f   g_items.obj
 0001:00050650       _EWebPain                  20051650 f   g_items.obj
 0001:00050690       _EWebPositionUser          20051690 f   g_items.obj
 0001:00050990       _EWebPrecache              20051990 f   g_items.obj
 0001:000509f0       _EWebThink                 200519f0 f   g_items.obj
 0001:00050bc0       _EWebUpdateBoneAngles      20051bc0 f   g_items.obj
 0001:00050cf0       _EWeb_Create               20051cf0 f   g_items.obj
 0001:00051180       _EWeb_SetBoneAngles        20052180 f   g_items.obj
 0001:000512a0       _FinishSpawningItem        200522a0 f   g_items.obj
 0001:000515b0       _G_BounceItem              200525b0 f   g_items.obj
 0001:000517b0       _G_CheckTeamItems          200527b0 f   g_items.obj
 0001:00051850       _G_PrecacheDispensers      20052850 f   g_items.obj
 0001:000518c0       _G_RunItem                 200528c0 f   g_items.obj
 0001:000519f0       _G_SpawnItem               200529f0 f   g_items.obj
 0001:00051b20       _G_SpecialSpawnItem        20052b20 f   g_items.obj
 0001:00051c60       _ItemUse_Binoculars        20052c60 f   g_items.obj
 0001:00051ce0       _ItemUse_Jetpack           20052ce0 f   g_items.obj
 0001:00051d60       _ItemUse_MedPack           20052d60 f   g_items.obj
 0001:00051dc0       _ItemUse_MedPack_Big       20052dc0 f   g_items.obj
 0001:00051e20       _ItemUse_Seeker            20052e20 f   g_items.obj
 0001:00051f00       _ItemUse_Sentry            20052f00 f   g_items.obj
 0001:000521a0       _ItemUse_Shield            200531a0 f   g_items.obj
 0001:000521b0       _ItemUse_UseCloak          200531b0 f   g_items.obj
 0001:00052230       _ItemUse_UseDisp           20053230 f   g_items.obj
 0001:000523b0       _ItemUse_UseEWeb           200533b0 f   g_items.obj
 0001:00052460       _Jetpack_Off               20053460 f   g_items.obj
 0001:00052490       _Jetpack_On                20053490 f   g_items.obj
 0001:000524f0       _LaunchItem                200534f0 f   g_items.obj
 0001:00052730       _Pickup_Ammo               20053730 f   g_items.obj
 0001:00052a60       _Pickup_Armor              20053a60 f   g_items.obj
 0001:00052ad0       _Pickup_Health             20053ad0 f   g_items.obj
 0001:00052b70       _Pickup_Holdable           20053b70 f   g_items.obj
 0001:00052c00       _Pickup_Powerup            20053c00 f   g_items.obj
 0001:00052e40       _Pickup_Weapon             20053e40 f   g_items.obj
 0001:00052f90       _PlaceShield               20053f90 f   g_items.obj
 0001:00053270       _RegisterItem              20054270 f   g_items.obj
 0001:000532b0       _RespawnItem               200542b0 f   g_items.obj
 0001:000533a0       _SP_PAS                    200543a0 f   g_items.obj
 0001:00053480       _SaveRegisteredItems       20054480 f   g_items.obj
 0001:000534e0       _ShieldDie                 200544e0 f   g_items.obj
 0001:00053540       _ShieldGoNotSolid          20054540 f   g_items.obj
 0001:000535b0       _ShieldGoSolid             200545b0 f   g_items.obj
 0001:000536d0       _ShieldPain                200546d0 f   g_items.obj
 0001:00053710       _ShieldThink               20054710 f   g_items.obj
 0001:000537a0       _ShieldTouch               200547a0 f   g_items.obj
 0001:000538a0       _SpecialItemThink          200548a0 f   g_items.obj
 0001:00053930       _Touch_Item                20054930 f   g_items.obj
 0001:00053ed0       _Use_Item                  20054ed0 f   g_items.obj
 0001:00053ee0       _adjustRespawnTime         20054ee0 f   g_items.obj
 0001:00053f80       _pas_adjust_enemy          20054f80 f   g_items.obj
 0001:000543f0       _pas_fire                  200553f0 f   g_items.obj
 0001:000544f0       _pas_think                 200554f0 f   g_items.obj
 0001:00054a20       _sentryExpire              20055a20 f   g_items.obj
 0001:00054a40       _turret_die                20055a40 f   g_items.obj
 0001:00054b40       _G_ClearClientLog          20055b40 f   g_log.obj
 0001:00054cb0       _G_LogWeaponDamage         20055cb0 f   g_log.obj
 0001:00054ce0       _G_LogWeaponDeath          20055ce0 f   g_log.obj
 0001:00054d10       _G_LogWeaponFire           20055d10 f   g_log.obj
 0001:00054d70       _G_LogWeaponFrag           20055d70 f   g_log.obj
 0001:00054da0       _G_LogWeaponInit           20055da0 f   g_log.obj
 0001:00054e60       _G_LogWeaponItem           20055e60 f   g_log.obj
 0001:00054e90       _G_LogWeaponKill           20055e90 f   g_log.obj
 0001:00054ee0       _G_LogWeaponOutput         20055ee0 f   g_log.obj
 0001:00056a80       _G_LogWeaponPickup         20057a80 f   g_log.obj
 0001:00056aa0       _G_LogWeaponPowerup        20057aa0 f   g_log.obj
 0001:00056ad0       _AddPowerDuelPlayers       20057ad0 f   g_main.obj
 0001:00056c70       _AddTournamentPlayer       20057c70 f   g_main.obj
 0001:00056d40       _AdjustTournamentScores    20057d40 f   g_main.obj
 0001:00056eb0       _BG_GetTime                20057eb0 f   g_main.obj
 0001:00056ec0       _BeginIntermission         20057ec0 f   g_main.obj
 0001:00056f90       _CalculateRanks            20057f90 f   g_main.obj
 0001:00057340       _CheckCvars                20058340 f   g_main.obj
 0001:00057400       _CheckExitRules            20058400 f   g_main.obj
 0001:00057840       _CheckIntermissionExit     20058840 f   g_main.obj
 0001:00057db0       _CheckTeamLeader           20058db0 f   g_main.obj
 0001:00057e70       _CheckTeamVote             20058e70 f   g_main.obj
 0001:00057f90       _CheckTournament           20058f90 f   g_main.obj
 0001:00058500       _CheckVote                 20059500 f   g_main.obj
 0001:00058700       _Com_Error                 20059700 f   g_main.obj
 0001:00058750       _Com_Printf                20059750 f   g_main.obj
 0001:000587a0       _DuelLimitHit              200597a0 f   g_main.obj
 0001:000587f0       _DuelResetWinsLosses       200597f0 f   g_main.obj
 0001:00058840       _ExitLevel                 20059840 f   g_main.obj
 0001:00058990       _FindIntermissionPoint     20059990 f   g_main.obj
 0001:00058a80       _G_CanResetDuelists        20059a80 f   g_main.obj
 0001:00058ae0       _G_Error                   20059ae0 f   g_main.obj
 0001:00058b30       _G_FindTeams               20059b30 f   g_main.obj
 0001:00058c90       _G_GetStringEdString       20059c90 f   g_main.obj
 0001:00058cc0       _G_InitGame                20059cc0 f   g_main.obj
 0001:000591c0       _G_KickAllBots             2005a1c0 f   g_main.obj
 0001:00059260       _G_LogPrintf               2005a260 f   g_main.obj
 0001:00059350       _G_PowerDuelCount          2005a350 f   g_main.obj
 0001:000593b0       _G_Printf                  2005a3b0 f   g_main.obj
 0001:00059400       _G_RegisterCvars           2005a400 f   g_main.obj
 0001:000594b0       _G_RemoveDuelist           2005a4b0 f   g_main.obj
 0001:00059510       _G_ResetDuelists           2005a510 f   g_main.obj
 0001:00059590       _G_RunFrame                2005a590 f   g_main.obj
 0001:00059f90       _G_RunThink                2005af90 f   g_main.obj
 0001:00059ff0       _G_ShutdownGame            2005aff0 f   g_main.obj
 0001:0005a140       _G_UpdateCvars             2005b140 f   g_main.obj
 0001:0005a1a0       _LogExit                   2005b1a0 f   g_main.obj
 0001:0005a270       _MoveClientToIntermission  2005b270 f   g_main.obj
 0001:0005a3b0       _NAV_CheckCalcPaths        2005b3b0 f   g_main.obj
 0001:0005a490       _RemoveDuelDrawLoser       2005b490 f   g_main.obj
 0001:0005a520       _RemovePowerDuelLosers     2005b520 f   g_main.obj
 0001:0005a5d0       _RemoveTournamentLoser     2005b5d0 f   g_main.obj
 0001:0005a610       _ScoreIsTied               2005b610 f   g_main.obj
 0001:0005a670       _SendScoreboardMessageToAllClients 2005b670 f   g_main.obj
 0001:0005a6d0       _SortRanks                 2005b6d0 f   g_main.obj
 0001:0005a7d0       _vmMain                    2005b7d0 f   g_main.obj
 0001:0005ac80       _G_Alloc                   2005bc80 f   g_mem.obj
 0001:0005acf0       _G_InitMemory              2005bcf0 f   g_mem.obj
 0001:0005ad00       _Svcmd_GameMem_f           2005bd00 f   g_mem.obj
 0001:0005ad20       _FirstFreeRefTag           2005bd20 f   g_misc.obj
 0001:0005ad70       _FirstFreeTagOwner         2005bd70 f   g_misc.obj
 0001:0005adb0       _G_ClientForShooter        2005bdb0 f   g_misc.obj
 0001:0005ae20       _G_PortalifyEntities       2005be20 f   g_misc.obj
 0001:0005af10       _HolocronPopOut            2005bf10 f   g_misc.obj
 0001:0005afc0       _HolocronThink             2005bfc0 f   g_misc.obj
 0001:0005b340       _HolocronTouch             2005c340 f   g_misc.obj
 0001:0005b4e0       _InitShooter               2005c4e0 f   g_misc.obj
 0001:0005b5e0       _SP_CreateRain             2005c5e0 f   g_misc.obj
 0001:0005b610       _SP_CreateSnow             2005c610 f   g_misc.obj
 0001:0005b640       _SP_CreateSpaceDust        2005c640 f   g_misc.obj
 0001:0005b670       _SP_fx_runner              2005c670 f   g_misc.obj
 0001:0005b820       _SP_target_position        2005c820 f   g_target.obj
 0001:0005b820       _SP_info_notnull           2005c820 f   g_misc.obj
 0001:0005b820       _SP_info_camp              2005c820 f   g_misc.obj
 0001:0005b840       _SP_light                  2005c840 f   g_misc.obj
 0001:0005b8f0       _SP_misc_ammo_floor_unit   2005c8f0 f   g_misc.obj
 0001:0005bb60       _SP_misc_bsp               2005cb60 f   g_misc.obj
 0001:0005bd60       _SP_misc_faller            2005cd60 f   g_misc.obj
 0001:0005be20       _SP_misc_holocron          2005ce20 f   g_misc.obj
 0001:0005c050       _SP_misc_maglock           2005d050 f   g_misc.obj
 0001:0005c0b0       _SP_misc_model_ammo_power_converter 2005d0b0 f   g_misc.obj
 0001:0005c200       _SP_misc_model_health_power_converter 2005d200 f   g_misc.obj
 0001:0005c360       _SP_misc_model_shield_power_converter 2005d360 f   g_misc.obj
 0001:0005c4c0       _SP_misc_portal_camera     2005d4c0 f   g_misc.obj
 0001:0005c550       _SP_misc_portal_surface    2005d550 f   g_misc.obj
 0001:0005c5f0       _SP_misc_shield_floor_unit 2005d5f0 f   g_misc.obj
 0001:0005c8a0       _SP_misc_skyportal         2005d8a0 f   g_misc.obj
 0001:0005c9b0       _SP_misc_weather_zone      2005d9b0 f   g_misc.obj
 0001:0005c9b0       _SP_misc_G2model           2005d9b0 f   g_misc.obj
 0001:0005c9b0       _SP_misc_model             2005d9b0 f   g_misc.obj
 0001:0005c9b0       _SP_misc_model_static      2005d9b0 f   g_misc.obj
 0001:0005c9b0       _SP_info_null              2005d9b0 f   g_misc.obj
 0001:0005c9b0       _SP_misc_skyportal_orient  2005d9b0 f   g_misc.obj
 0001:0005c9c0       _SP_misc_weapon_shooter    2005d9c0 f   g_misc.obj
 0001:0005cb10       _SP_reference_tag          2005db10 f   g_misc.obj
 0001:0005cb50       _SP_shooter_blaster        2005db50 f   g_misc.obj
 0001:0005cb70       _SP_target_escapetrig      2005db70 f   g_misc.obj
 0001:0005cbd0       _SP_target_screenshake     2005dbd0 f   g_misc.obj
 0001:0005cc40       _SP_terrain                2005dc40 f   g_misc.obj
 0001:0005d0b0       _TAG_Add                   2005e0b0 f   g_misc.obj
 0001:0005d1c0       _TAG_Find                  2005e1c0 f   g_misc.obj
 0001:0005d2a0       _TAG_FindOwner             2005e2a0 f   g_misc.obj
 0001:0005d2f0       _TAG_GetAngles             2005e2f0 f   g_misc.obj
 0001:0005d330       _TAG_GetOrigin             2005e330 f   g_misc.obj
 0001:0005d380       _TAG_Init                  2005e380 f   g_misc.obj
 0001:0005d3f0       _TeleportPlayer            2005e3f0 f   g_misc.obj
 0001:0005d590       _Use_Shooter               2005e590 f   g_misc.obj
 0001:0005d7a0       _Use_Target_Escapetrig     2005e7a0 f   g_misc.obj
 0001:0005d880       _Use_Target_Screenshake    2005e880 f   g_misc.obj
 0001:0005d8c0       _ammo_generic_power_converter_use 2005e8c0 f   g_misc.obj
 0001:0005db30       _ammo_power_converter_use  2005eb30 f   g_misc.obj
 0001:0005dc50       _check_recharge            2005ec50 f   g_misc.obj
 0001:0005dd20       _faller_think              2005ed20 f   g_misc.obj
 0001:0005de10       _faller_touch              2005ee10 f   g_misc.obj
 0001:0005deb0       _fx_runner_link            2005eeb0 f   g_misc.obj
 0001:0005e010       _fx_runner_think           2005f010 f   g_misc.obj
 0001:0005e170       _fx_runner_use             2005f170 f   g_misc.obj
 0001:0005e2d0       _health_power_converter_use 2005f2d0 f   g_misc.obj
 0001:0005e390       _locateCamera              2005f390 f   g_misc.obj
 0001:0005e4a0       _maglock_die               2005f4a0 f   g_misc.obj
 0001:0005e4e0       _maglock_link              2005f4e0 f   g_misc.obj
 0001:0005e710       _misc_dlight_use           2005f710 f   g_misc.obj
 0001:0005e740       _misc_faller_create        2005f740 f   g_misc.obj
 0001:0005e8c0       _misc_faller_think         2005f8c0 f   g_misc.obj
 0001:0005eac0       _misc_weapon_shooter_aim   2005fac0 f   g_misc.obj
 0001:0005ebb0       _misc_weapon_shooter_fire  2005fbb0 f   g_misc.obj
 0001:0005ec00       _misc_weapon_shooter_use   2005fc00 f   g_misc.obj
 0001:0005ec70       _ref_link                  2005fc70 f   g_misc.obj
 0001:0005ed30       _shield_power_converter_use 2005fd30 f   g_misc.obj
 0001:0005ef40       _CreateMissile             2005ff40 f   g_missile.obj
 0001:0005f110       _G_BounceMissile           20060110 f   g_missile.obj
 0001:0005f3e0       _G_DeflectMissile          200603e0 f   g_missile.obj
 0001:0005f570       _G_ExplodeMissile          20060570 f   g_missile.obj
 0001:0005f6e0       _G_MissileBounceEffect     200606e0 f   g_missile.obj
 0001:0005f790       _G_MissileImpact           20060790 f   g_missile.obj
 0001:000602a0       _G_ReflectMissile          200612a0 f   g_missile.obj
 0001:00060540       _G_RunMissile              20061540 f   g_missile.obj
 0001:00060a20       _G_RunStuckMissile         20061a20 f   g_missile.obj
 0001:00060ae0       _Blocked_Door              20061ae0 f   g_mover.obj
 0001:00060be0       _CalcTeamDoorCenter        20061be0 f   g_mover.obj
 0001:00060d20       _G_Chunks                  20061d20 f   g_mover.obj
 0001:00060dd0       _G_EntIsBreakable          20061dd0 f   g_mover.obj
 0001:00060e50       _G_EntIsDoor               20061e50 f   g_mover.obj
 0001:00060e90       _G_EntIsRemovableUsable    20061e90 f   g_mover.obj
 0001:00060ef0       _G_EntIsUnlockedDoor       20061ef0 f   g_mover.obj
 0001:00061090       _G_FindDoorTrigger         20062090 f   g_mover.obj
 0001:000611a0       _G_MoverPush               200621a0 f   g_mover.obj
 0001:000616c0       _G_MoverTeam               200626c0 f   g_mover.obj
 0001:000618b0       _G_PlayDoorLoopSound       200628b0 f   g_mover.obj
 0001:000618f0       _G_PlayDoorSound           200628f0 f   g_mover.obj
 0001:00061930       _G_RunMover                20062930 f   g_mover.obj
 0001:00061970       _G_TestEntityPosition      20062970 f   g_mover.obj
 0001:00061a20       _G_TryPushingEntity        20062a20 f   g_mover.obj
 0001:00061e90       _GlassDie                  20062e90 f   g_mover.obj
 0001:00061f90       _GlassUse                  20062f90 f   g_mover.obj
 0001:00062220       _InitMover                 20063220 f   g_mover.obj
 0001:000623a0       _InitMoverTrData           200633a0 f   g_mover.obj
 0001:000624c0       _LockDoors                 200634c0 f   g_mover.obj
 0001:000624f0       _MatchTeam                 200634f0 f   g_mover.obj
 0001:000626a0       _Reached_BinaryMover       200636a0 f   g_mover.obj
 0001:000628c0       _Reached_Train             200638c0 f   g_mover.obj
 0001:00062b60       _ReturnToPos1              20063b60 f   g_mover.obj
 0001:00062ce0       _SP_func_bobbing           20063ce0 f   g_mover.obj
 0001:00062df0       _SP_func_breakable         20063df0 f   g_mover.obj
 0001:00062ff0       _SP_func_button            20063ff0 f   g_mover.obj
 0001:00063190       _SP_func_door              20064190 f   g_mover.obj
 0001:00063450       _SP_func_glass             20064450 f   g_mover.obj
 0001:00063530       _SP_func_pendulum          20064530 f   g_mover.obj
 0001:00063680       _SP_func_plat              20064680 f   g_mover.obj
 0001:000637d0       _SP_func_rotating          200647d0 f   g_mover.obj
 0001:00063a10       _SP_func_static            20064a10 f   g_mover.obj
 0001:00063b40       _SP_func_train             20064b40 f   g_mover.obj
 0001:00063c10       _SP_func_usable            20064c10 f   g_mover.obj
 0001:00063d80       _SP_func_wall              20064d80 f   g_mover.obj
 0001:00063e50       _SP_path_corner            20064e50 f   g_mover.obj
 0001:00063e80       _SpawnPlatTrigger          20064e80 f   g_mover.obj
 0001:00064000       _Think_BeginMoving         20065000 f   g_mover.obj
 0001:00064080       _Think_MatchTeam           20065080 f   g_mover.obj
 0001:000640a0       _Think_SetupTrainTargets   200650a0 f   g_mover.obj
 0001:00064460       _Think_SpawnNewDoorTrigger 20065460 f   g_mover.obj
 0001:00064640       _Touch_Button              20065640 f   g_mover.obj
 0001:00064670       _Touch_DoorTrigger         20065670 f   g_mover.obj
 0001:00064930       _Touch_Plat                20065930 f   g_mover.obj
 0001:00064970       _Touch_PlatCenterTrigger   20065970 f   g_mover.obj
 0001:000649b0       _UnLockDoors               200659b0 f   g_mover.obj
 0001:00064a00       _Use_BinaryMover           20065a00 f   g_mover.obj
 0001:00064aa0       _Use_BinaryMover_Go        20065aa0 f   g_mover.obj
 0001:00065160       _funcBBrushDie             20066160 f   g_mover.obj
 0001:000651f0       _funcBBrushDieGo           200661f0 f   g_mover.obj
 0001:000655f0       _funcBBrushPain            200665f0 f   g_mover.obj
 0001:00065880       _funcBBrushUse             20066880 f   g_mover.obj
 0001:000658e0       _func_static_use           200668e0 f   g_mover.obj
 0001:00065920       _func_usable_die           20066920 f   g_mover.obj
 0001:00065950       _func_usable_pain          20066950 f   g_mover.obj
 0001:00065970       _func_usable_think         20066970 f   g_mover.obj
 0001:000659a0       _func_usable_use           200669a0 f   g_mover.obj
 0001:00065b10       _func_wait_return_solid    20066b10 f   g_mover.obj
 0001:00065bf0       _use_wall                  20066bf0 f   g_mover.obj
 0001:00065c70       _FlyingCreature            20066c70 f   g_nav.obj
 0001:00065ca0       _funcBBrushTouch           20066ca0 f   g_mover.obj
 0001:00065ca0       _NPC_CheckAllClear         20066ca0 f   NPC_reactions.obj
 0001:00065ca0       @_guard_check_icall_nop@4  20066ca0 f   LIBCMT:guard_support.obj
 0001:00065ca0       _SP_team_CTF_blueplayer    20066ca0 f   g_team.obj
 0001:00065ca0       _SaberGotHit               20066ca0 f   w_saber.obj
 0001:00065ca0       _SP_item_botroam           20066ca0 f   g_spawn.obj
 0001:00065ca0       _NPC_PrecacheAnimationCFG  20066ca0 f   NPC_stats.obj
 0001:00065ca0       _SP_info_player_intermission 20066ca0 f   g_client.obj
 0001:00065ca0       _LimbTouch                 20066ca0 f   g_combat.obj
 0001:00065ca0       _SentryTouch               20066ca0 f   g_items.obj
 0001:00065ca0       _SP_team_CTF_redplayer     20066ca0 f   g_team.obj
 0001:00065ca0       ___except_validate_jump_buffer 20066ca0 f   libvcruntime:jbcxrval.obj
 0001:00065ca0       _SP_team_CTF_redspawn      20066ca0 f   g_team.obj
 0001:00065ca0       _SP_team_CTF_bluespawn     20066ca0 f   g_team.obj
 0001:00065ca0       _NPC_Howler_Precache       20066ca0 f   NPC_AI_Howler.obj
 0001:00065ca0       _AnimateVehicle            20066ca0 f   SpeederNPC.obj
 0001:00065ca0       _touch_NULL                20066ca0 f   g_weapon.obj
 0001:00065ca0       _G_DrawEdge                20066ca0 f   g_nav.obj
 0001:00065ca0       _G_CleanAllFakeClients     20066ca0 f   g_utils.obj
 0001:00065ca0       ___except_validate_context_record 20066ca0 f   libvcruntime:jbcxrval.obj
 0001:00065ca0       _BG_ClearAnimsets          20066ca0 f   bg_panimate.obj
 0001:00065ca0       _GlassPain                 20066ca0 f   g_mover.obj
 0001:00065ca0       _G_Cube                    20066ca0 f   g_nav.obj
 0001:00065ca0       _NPC_CheckPlayerAim        20066ca0 f   NPC_reactions.obj
 0001:00065ca0       _NPC_ChangeWeapon          20066ca0 f   NPC_combat.obj
 0001:00065ca0       _RegisterAssets            20066ca0 f   g_vehicles.obj
 0001:00065ca0       _G_DrawNode                20066ca0 f   g_nav.obj
 0001:00065ca0       _SP_misc_teleporter_dest   20066ca0 f   g_misc.obj
 0001:00065ca0       _B_CleanupAlloc            20066ca0 f   ai_util.obj
 0001:00065cb0       _NAV_AvoidCollision        20066cb0 f   g_nav.obj
 0001:00065e10       _NAV_Bypass                20066e10 f   g_nav.obj
 0001:00066180       _NAV_CalculatePaths        20067180 f   g_nav.obj
 0001:000662b0       _NAV_CheckAhead            200672b0 f   g_nav.obj
 0001:000664b0       _NAV_ClearPathToPoint      200674b0 f   g_nav.obj
 0001:00066730       _NAV_FindClosestWaypointForEnt 20067730 f   g_nav.obj
 0001:00066750       _NAV_FindClosestWaypointForPoint2 20067750 f   g_nav.obj
 0001:000667e0       _NAV_FindPlayerWaypoint    200677e0 f   g_nav.obj
 0001:00066810       _NAV_GetNearestNode        20067810 f   g_nav.obj
 0001:00066830       _NAV_GetStoredWaypoint     20067830 f   g_nav.obj
 0001:00066890       _NAV_HitNavGoal            20067890 f   g_nav.obj
 0001:00066a20       _NAV_MoveToGoal            20067a20 f   g_nav.obj
 0001:00066c80       _NAV_ResolveEntityCollision 20067c80 f   g_nav.obj
 0001:00066db0       _NAV_StackedCanyon         20067db0 f   g_nav.obj
 0001:00067040       _NAV_StoreWaypoint         20068040 f   g_nav.obj
 0001:00067140       _NAV_TestBestNode          20068140 f   g_nav.obj
 0001:00067500       _NAV_TestForBlocked        20068500 f   g_nav.obj
 0001:00067650       _NPC_Blocked               20068650 f   g_nav.obj
 0001:00067720       _NPC_SetMoveGoal           20068720 f   g_nav.obj
 0001:00067920       _SP_waypoint               20068920 f   g_nav.obj
 0001:00067a40       _SP_waypoint_navgoal       20068a40 f   g_nav.obj
 0001:00067b30       _SP_waypoint_navgoal_1     20068b30 f   g_nav.obj
 0001:00067c00       _SP_waypoint_navgoal_2     20068c00 f   g_nav.obj
 0001:00067cd0       _SP_waypoint_navgoal_4     20068cd0 f   g_nav.obj
 0001:00067da0       _SP_waypoint_navgoal_8     20068da0 f   g_nav.obj
 0001:00067e70       _SP_waypoint_small         20068e70 f   g_nav.obj
 0001:00067f80       _waypoint_getRadius        20068f80 f   g_nav.obj
 0001:000680a0       _NAVNEW_AvoidCollision     200690a0 f   g_navnew.obj
 0001:00068250       _NAVNEW_Bypass             20069250 f   g_navnew.obj
 0001:00068300       _NAVNEW_ClearPathBetweenPoints 20069300 f   g_navnew.obj
 0001:00068350       _NAVNEW_DanceWithBlocker   20069350 f   g_navnew.obj
 0001:00068450       _NAVNEW_MoveToGoal         20069450 f   g_navnew.obj
 0001:00068a30       _NAVNEW_PushBlocker        20069a30 f   g_navnew.obj
 0001:00068d20       _NAVNEW_ResolveEntityCollision 20069d20 f   g_navnew.obj
 0001:00068e50       _NAVNEW_SidestepBlocker    20069e50 f   g_navnew.obj
 0001:000692e0       _NAV_CheckNodeFailedForEnt 2006a2e0 f   g_navnew.obj
 0001:00069310       _NPC_SetBlocked            2006a310 f   g_navnew.obj
 0001:00069380       _G_BounceObject            2006a380 f   g_object.obj
 0001:000695a0       _G_RunObject               2006a5a0 f   g_object.obj
 0001:000699e0       _G_StopObjectMoving        2006a9e0 f   g_object.obj
 0001:00069a40       _AddSiegeWinningTeamPoints 2006aa40 f   g_saga.obj
 0001:00069aa0       _BroadcastObjectiveCompletion 2006aaa0 f   g_saga.obj
 0001:00069b30       _G_SiegeClientExData       2006ab30 f   g_saga.obj
 0001:00069ca0       _G_SiegeGetCompletionStatus 2006aca0 f   g_saga.obj
 0001:00069d00       _G_SiegeRegisterWeaponsAndHoldables 2006ad00 f   g_saga.obj
 0001:00069dc0       _G_SiegeSetObjectiveComplete 2006adc0 f   g_saga.obj
 0001:00069e30       _G_ValidateSiegeClassForTeam 2006ae30 f   g_saga.obj
 0001:00069f30       _InitSiegeMode             2006af30 f   g_saga.obj
 0001:0006a630       _SP_info_siege_decomplete  2006b630 f   g_saga.obj
 0001:0006a6c0       _SP_info_siege_objective   2006b6c0 f   g_saga.obj
 0001:0006a7c0       _SP_info_siege_radaricon   2006b7c0 f   g_saga.obj
 0001:0006a880       _SP_misc_siege_item        2006b880 f   g_saga.obj
 0001:0006ace0       _SP_target_siege_end       2006bce0 f   g_saga.obj
 0001:0006ad10       _SetTeamQuick              2006bd10 f   g_saga.obj
 0001:0006ae00       _SiegeBeginRound           2006be00 f   g_saga.obj
 0001:0006af50       _SiegeCheckTimers          2006bf50 f   g_saga.obj
 0001:0006b140       _SiegeClearSwitchData      2006c140 f   g_saga.obj
 0001:0006b170       _SiegeDoTeamAssign         2006c170 f   g_saga.obj
 0001:0006b2d0       _SiegeIconUse              2006c2d0 f   g_saga.obj
 0001:0006b300       _SiegeItemDie              2006c300 f   g_saga.obj
 0001:0006b390       _SiegeItemPain             2006c390 f   g_saga.obj
 0001:0006b3a0       _SiegeItemRemoveOwner      2006c3a0 f   g_saga.obj
 0001:0006b4b0       _SiegeItemThink            2006c4b0 f   g_saga.obj
 0001:0006b770       _SiegeItemTouch            2006c770 f   g_saga.obj
 0001:0006b8e0       _SiegeItemUse              2006c8e0 f   g_saga.obj
 0001:0006b9c0       _SiegeObjectiveCompleted   2006c9c0 f   g_saga.obj
 0001:0006ba60       _SiegeRespawn              2006ca60 f   g_saga.obj
 0001:0006bac0       _SiegeRoundComplete        2006cac0 f   g_saga.obj
 0001:0006bc90       _SiegeTeamSwitch           2006cc90 f   g_saga.obj
 0001:0006bd10       _UseSiegeTarget            2006cd10 f   g_saga.obj
 0001:0006bdb0       _decompTriggerUse          2006cdb0 f   g_saga.obj
 0001:0006bed0       _siegeEndUse               2006ced0 f   g_saga.obj
 0001:0006bee0       _siegeTriggerUse           2006cee0 f   g_saga.obj
 0001:0006c060       _G_InitSessionData         2006d060 f   g_session.obj
 0001:0006c220       _G_InitWorldSession        2006d220 f   g_session.obj
 0001:0006c280       _G_ReadSessionData         2006d280 f   g_session.obj
 0001:0006c3c0       _G_WriteClientSessionData  2006d3c0 f   g_session.obj
 0001:0006c530       _G_WriteSessionData        2006d530 f   g_session.obj
 0001:0006c710       _SP_gametype_item          2006d710 f   g_spawn.obj
 0001:0006c820       _AddSpawnField             2006d820 f   g_spawn.obj
 0001:0006c990       _G_CallSpawn               2006d990 f   g_spawn.obj
 0001:0006caa0       _G_NewString               2006daa0 f   g_spawn.obj
 0001:0006cb10       _G_ParseSpawnVars          2006db10 f   g_spawn.obj
 0001:0006cd00       _G_PrecacheSoundsets       2006dd00 f   g_spawn.obj
 0001:0006cd60       _G_SpawnEntitiesFromString 2006dd60 f   g_spawn.obj
 0001:0006ce40       _G_SpawnFloat              2006de40 f   g_spawn.obj
 0001:0006ce70       _G_SpawnGEntityFromSpawnVars 2006de70 f   g_spawn.obj
 0001:0006d020       _G_SpawnInt                2006e020 f   g_spawn.obj
 0001:0006d050       _G_SpawnString             2006e050 f   g_spawn.obj
 0001:0006d0c0       _G_SpawnVector             2006e0c0 f   g_spawn.obj
 0001:0006d6b0       _SP_worldspawn             2006e6b0 f   g_spawn.obj
 0001:0006db40       _strap_G2API_AnimateG2Models 2006eb40 f   g_strap.obj
 0001:0006db50       _strap_G2API_GetBoltMatrix 2006eb50 f   g_strap.obj
 0001:0006db60       _strap_G2API_GetBoltMatrix_NoRecNoRot 2006eb60 f   g_strap.obj
 0001:0006db70       _strap_G2API_GetBoneAnim   2006eb70 f   g_strap.obj
 0001:0006db80       _strap_G2API_IKMove        2006eb80 f   g_strap.obj
 0001:0006db90       _strap_G2API_SetBoneAngles 2006eb90 f   g_strap.obj
 0001:0006dba0       _strap_G2API_SetBoneAnim   2006eba0 f   g_strap.obj
 0001:0006dbe0       _strap_G2API_SetBoneIKState 2006ebe0 f   g_strap.obj
 0001:0006dc60       _ClientForString           2006ec60 f   g_svcmds.obj
 0001:0006dd40       _ConsoleCommand            2006ed40 f   g_svcmds.obj
 0001:0006def0       _G_FilterPacket            2006eef0 f   g_svcmds.obj
 0001:0006df90       _G_ProcessIPBans           2006ef90 f   g_svcmds.obj
 0001:0006e120       _Svcmd_AddIP_f             2006f120 f   g_svcmds.obj
 0001:0006e170       _Svcmd_EntityList_f        2006f170 f   g_svcmds.obj
 0001:0006e300       _Svcmd_ForceTeam_f         2006f300 f   g_svcmds.obj
 0001:0006e380       _Svcmd_RemoveIP_f          2006f380 f   g_svcmds.obj
 0001:0006e4e0       _dllEntry                  2006f4e0 f   g_syscalls.obj
 0001:0006e4f0       _trap_AdjustAreaPortalState 2006f4f0 f   g_syscalls.obj
 0001:0006e510       _trap_Argc                 2006f510 f   g_syscalls.obj
 0001:0006e520       _trap_Argv                 2006f520 f   g_syscalls.obj
 0001:0006e540       _trap_BotAllocGoalState    2006f540 f   g_syscalls.obj
 0001:0006e560       _trap_BotAllocMoveState    2006f560 f   g_syscalls.obj
 0001:0006e570       _trap_BotAllocWeaponState  2006f570 f   g_syscalls.obj
 0001:0006e580       _trap_BotAllocateClient    2006f580 f   g_syscalls.obj
 0001:0006e590       _trap_BotFreeGoalState     2006f590 f   g_syscalls.obj
 0001:0006e5b0       _trap_BotFreeMoveState     2006f5b0 f   g_syscalls.obj
 0001:0006e5d0       _trap_BotFreeWeaponState   2006f5d0 f   g_syscalls.obj
 0001:0006e5f0       _trap_BotGetServerCommand  2006f5f0 f   g_syscalls.obj
 0001:0006e610       _trap_BotLibSetup          2006f610 f   g_syscalls.obj
 0001:0006e620       _trap_BotLibShutdown       2006f620 f   g_syscalls.obj
 0001:0006e630       _trap_BotResetAvoidGoals   2006f630 f   g_syscalls.obj
 0001:0006e650       _trap_BotResetAvoidReach   2006f650 f   g_syscalls.obj
 0001:0006e670       _trap_BotResetGoalState    2006f670 f   g_syscalls.obj
 0001:0006e690       _trap_BotResetMoveState    2006f690 f   g_syscalls.obj
 0001:0006e6b0       _trap_BotResetWeaponState  2006f6b0 f   g_syscalls.obj
 0001:0006e6d0       _trap_BotUserCommand       2006f6d0 f   g_syscalls.obj
 0001:0006e6f0       _trap_Bot_CalculatePaths   2006f6f0 f   g_syscalls.obj
 0001:0006e710       _trap_Bot_UpdateWaypoints  2006f710 f   g_syscalls.obj
 0001:0006e730       _trap_CM_RegisterTerrain   2006f730 f   g_syscalls.obj
 0001:0006e750       _trap_Cvar_Register        2006f750 f   g_syscalls.obj
 0001:0006e770       _trap_Cvar_Set             2006f770 f   g_syscalls.obj
 0001:0006e790       _trap_Cvar_Update          2006f790 f   g_syscalls.obj
 0001:0006e7b0       _trap_Cvar_VariableIntegerValue 2006f7b0 f   g_syscalls.obj
 0001:0006e7d0       _trap_Cvar_VariableStringBuffer 2006f7d0 f   g_syscalls.obj
 0001:0006e7f0       _trap_DropClient           2006f7f0 f   g_syscalls.obj
 0001:0006e810       _trap_EA_Alt_Attack        2006f810 f   g_syscalls.obj
 0001:0006e830       _trap_EA_Attack            2006f830 f   g_syscalls.obj
 0001:0006e850       _trap_EA_Crouch            2006f850 f   g_syscalls.obj
 0001:0006e870       _trap_EA_ForcePower        2006f870 f   g_syscalls.obj
 0001:0006e890       _trap_EA_GetInput          2006f890 f   g_syscalls.obj
 0001:0006e8c0       _trap_EA_Jump              2006f8c0 f   g_syscalls.obj
 0001:0006e8e0       _trap_EA_Move              2006f8e0 f   g_syscalls.obj
 0001:0006e910       _trap_EA_MoveBack          2006f910 f   g_syscalls.obj
 0001:0006e930       _trap_EA_MoveForward       2006f930 f   g_syscalls.obj
 0001:0006e950       _trap_EA_MoveLeft          2006f950 f   g_syscalls.obj
 0001:0006e970       _trap_EA_MoveRight         2006f970 f   g_syscalls.obj
 0001:0006e990       _trap_EA_ResetInput        2006f990 f   g_syscalls.obj
 0001:0006e9b0       _trap_EA_Say               2006f9b0 f   g_syscalls.obj
 0001:0006e9d0       _trap_EA_SayTeam           2006f9d0 f   g_syscalls.obj
 0001:0006e9f0       _trap_EA_SelectWeapon      2006f9f0 f   g_syscalls.obj
 0001:0006ea10       _trap_EA_Use               2006fa10 f   g_syscalls.obj
 0001:0006ea30       _trap_EA_View              2006fa30 f   g_syscalls.obj
 0001:0006ea50       _trap_EntitiesInBox        2006fa50 f   g_syscalls.obj
 0001:0006ea70       _trap_EntityContact        2006fa70 f   g_syscalls.obj
 0001:0006ea90       _trap_Error                2006fa90 f   g_syscalls.obj
 0001:0006eab0       _trap_FS_FCloseFile        2006fab0 f   g_syscalls.obj
 0001:0006ead0       _trap_FS_FOpenFile         2006fad0 f   g_syscalls.obj
 0001:0006eaf0       _trap_FS_GetFileList       2006faf0 f   g_syscalls.obj
 0001:0006eb10       _trap_FS_Read              2006fb10 f   g_syscalls.obj
 0001:0006eb30       _trap_FS_Write             2006fb30 f   g_syscalls.obj
 0001:0006eb50       _trap_G2API_AddBolt        2006fb50 f   g_syscalls.obj
 0001:0006eb70       _trap_G2API_AnimateG2Models 2006fb70 f   g_syscalls.obj
 0001:0006eb90       _trap_G2API_AttachInstanceToEntNum 2006fb90 f   g_syscalls.obj
 0001:0006ebb0       _trap_G2API_CleanEntAttachments 2006fbb0 f   g_syscalls.obj
 0001:0006ebc0       _trap_G2API_CleanGhoul2Models 2006fbc0 f   g_syscalls.obj
 0001:0006ebe0       _trap_G2API_CollisionDetect 2006fbe0 f   g_syscalls.obj
 0001:0006ec30       _trap_G2API_CopySpecificGhoul2Model 2006fc30 f   g_syscalls.obj
 0001:0006ec50       _trap_G2API_DuplicateGhoul2Instance 2006fc50 f   g_syscalls.obj
 0001:0006ec70       _trap_G2API_GetBoltMatrix  2006fc70 f   g_syscalls.obj
 0001:0006eca0       _trap_G2API_GetBoltMatrix_NoRecNoRot 2006fca0 f   g_syscalls.obj
 0001:0006ecd0       _trap_G2API_GetBoneAnim    2006fcd0 f   g_syscalls.obj
 0001:0006ed10       _trap_G2API_GetGLAName     2006fd10 f   g_syscalls.obj
 0001:0006ed30       _trap_G2API_GetSurfaceName 2006fd30 f   g_syscalls.obj
 0001:0006ed50       _trap_G2API_GetSurfaceRenderStatus 2006fd50 f   g_syscalls.obj
 0001:0006ed70       _trap_G2API_IKMove         2006fd70 f   g_syscalls.obj
 0001:0006ed90       _trap_G2API_InitGhoul2Model 2006fd90 f   g_syscalls.obj
 0001:0006edc0       _trap_G2API_OverrideServer 2006fdc0 f   g_syscalls.obj
 0001:0006ede0       _trap_G2API_RemoveGhoul2Model 2006fde0 f   g_syscalls.obj
 0001:0006ee00       _trap_G2API_RemoveGhoul2Models 2006fe00 f   g_syscalls.obj
 0001:0006ee20       _trap_G2API_SetBoltInfo    2006fe20 f   g_syscalls.obj
 0001:0006ee40       _trap_G2API_SetBoneAngles  2006fe40 f   g_syscalls.obj
 0001:0006ee80       _trap_G2API_SetBoneAnim    2006fe80 f   g_syscalls.obj
 0001:0006eed0       _trap_G2API_SetBoneIKState 2006fed0 f   g_syscalls.obj
 0001:0006ef00       _trap_G2API_SetSkin        2006ff00 f   g_syscalls.obj
 0001:0006ef20       _trap_G2API_SetSurfaceOnOff 2006ff20 f   g_syscalls.obj
 0001:0006ef40       _trap_G2Trace              2006ff40 f   g_syscalls.obj
 0001:0006ef70       _trap_G2_HaveWeGhoul2Models 2006ff70 f   g_syscalls.obj
 0001:0006ef90       _trap_GetConfigstring      2006ff90 f   g_syscalls.obj
 0001:0006efb0       _trap_GetEntityToken       2006ffb0 f   g_syscalls.obj
 0001:0006efd0       _trap_GetServerinfo        2006ffd0 f   g_syscalls.obj
 0001:0006f000       _trap_GetUsercmd           20070000 f   g_syscalls.obj
 0001:0006f020       _trap_GetUserinfo          20070020 f   g_syscalls.obj
 0001:0006f040       _trap_ICARUS_FreeEnt       20070040 f   g_syscalls.obj
 0001:0006f060       _trap_ICARUS_GetFloatVariable 20070060 f   g_syscalls.obj
 0001:0006f080       _trap_ICARUS_GetStringVariable 20070080 f   g_syscalls.obj
 0001:0006f0a0       _trap_ICARUS_GetVectorVariable 200700a0 f   g_syscalls.obj
 0001:0006f0c0       _trap_ICARUS_Init          200700c0 f   g_syscalls.obj
 0001:0006f0d0       _trap_ICARUS_InitEnt       200700d0 f   g_syscalls.obj
 0001:0006f0f0       _trap_ICARUS_IsInitialized 200700f0 f   g_syscalls.obj
 0001:0006f110       _trap_ICARUS_IsRunning     20070110 f   g_syscalls.obj
 0001:0006f130       _trap_ICARUS_MaintainTaskManager 20070130 f   g_syscalls.obj
 0001:0006f150       _trap_ICARUS_RunScript     20070150 f   g_syscalls.obj
 0001:0006f170       _trap_ICARUS_SetVar        20070170 f   g_syscalls.obj
 0001:0006f190       _trap_ICARUS_Shutdown      20070190 f   g_syscalls.obj
 0001:0006f1a0       _trap_ICARUS_TaskIDComplete 200701a0 f   g_syscalls.obj
 0001:0006f1c0       _trap_ICARUS_TaskIDPending 200701c0 f   g_syscalls.obj
 0001:0006f1e0       _trap_ICARUS_TaskIDSet     200701e0 f   g_syscalls.obj
 0001:0006f200       _trap_ICARUS_ValidEnt      20070200 f   g_syscalls.obj
 0001:0006f220       _trap_ICARUS_VariableDeclared 20070220 f   g_syscalls.obj
 0001:0006f240       _trap_InPVS                20070240 f   g_syscalls.obj
 0001:0006f260       _trap_LinkEntity           20070260 f   g_syscalls.obj
 0001:0006f280       _trap_LocateGameData       20070280 f   g_syscalls.obj
 0001:0006f2a0       _trap_Nav_AddFailedEdge    200702a0 f   g_syscalls.obj
 0001:0006f2c0       _trap_Nav_AddFailedNode    200702c0 f   g_syscalls.obj
 0001:0006f2e0       _trap_Nav_AddRawPoint      200702e0 f   g_syscalls.obj
 0001:0006f300       _trap_Nav_CalculatePaths   20070300 f   g_syscalls.obj
 0001:0006f320       _trap_Nav_CheckAllFailedEdges 20070320 f   g_syscalls.obj
 0001:0006f330       _trap_Nav_CheckBlockedEdges 20070330 f   g_syscalls.obj
 0001:0006f340       _trap_Nav_CheckFailedNodes 20070340 f   g_syscalls.obj
 0001:0006f360       _trap_Nav_ClearAllFailedEdges 20070360 f   g_syscalls.obj
 0001:0006f370       _trap_Nav_ClearCheckedNodes 20070370 f   g_syscalls.obj
 0001:0006f380       _trap_Nav_GetBestNode      20070380 f   g_syscalls.obj
 0001:0006f3a0       _trap_Nav_GetBestNodeAltRoute2 200703a0 f   g_syscalls.obj
 0001:0006f3c0       _trap_Nav_GetBestPathBetweenEnts 200703c0 f   g_syscalls.obj
 0001:0006f3e0       _trap_Nav_GetNearestNode   200703e0 f   g_syscalls.obj
 0001:0006f400       _trap_Nav_GetNodeEdge      20070400 f   g_syscalls.obj
 0001:0006f420       _trap_Nav_GetNodeNumEdges  20070420 f   g_syscalls.obj
 0001:0006f440       _trap_Nav_GetNodePosition  20070440 f   g_syscalls.obj
 0001:0006f460       _trap_Nav_GetPathCost      20070460 f   g_syscalls.obj
 0001:0006f480       _trap_Nav_HardConnect      20070480 f   g_syscalls.obj
 0001:0006f4a0       _trap_Nav_Load             200704a0 f   g_syscalls.obj
 0001:0006f4c0       _trap_Nav_NodesAreNeighbors 200704c0 f   g_syscalls.obj
 0001:0006f4e0       _trap_Nav_Save             200704e0 f   g_syscalls.obj
 0001:0006f500       _trap_Nav_SetPathsCalculated 20070500 f   g_syscalls.obj
 0001:0006f520       _trap_Nav_ShowPath         20070520 f   g_syscalls.obj
 0001:0006f540       _trap_PointContents        20070540 f   g_syscalls.obj
 0001:0006f560       _trap_Printf               20070560 f   g_syscalls.obj
 0001:0006f580       _trap_RMG_Init             20070580 f   g_syscalls.obj
 0001:0006f5a0       _trap_ROFF_Cache           200705a0 f   g_syscalls.obj
 0001:0006f5c0       _trap_ROFF_Clean           200705c0 f   g_syscalls.obj
 0001:0006f5d0       _trap_ROFF_Play            200705d0 f   g_syscalls.obj
 0001:0006f5f0       _trap_ROFF_UpdateEntities  200705f0 f   g_syscalls.obj
 0001:0006f600       _trap_R_RegisterSkin       20070600 f   g_syscalls.obj
 0001:0006f620       _trap_SV_RegisterSharedMemory 20070620 f   g_syscalls.obj
 0001:0006f640       _trap_SendConsoleCommand   20070640 f   g_syscalls.obj
 0001:0006f660       _trap_SendServerCommand    20070660 f   g_syscalls.obj
 0001:0006f680       _trap_SetActiveSubBSP      20070680 f   g_syscalls.obj
 0001:0006f6a0       _trap_SetBrushModel        200706a0 f   g_syscalls.obj
 0001:0006f6c0       _trap_SetConfigstring      200706c0 f   g_syscalls.obj
 0001:0006f6e0       _trap_SetServerCull        200706e0 f   g_syscalls.obj
 0001:0006f700       _trap_SetUserinfo          20070700 f   g_syscalls.obj
 0001:0006f720       _trap_SiegePersGet         20070720 f   g_syscalls.obj
 0001:0006f740       _trap_SiegePersSet         20070740 f   g_syscalls.obj
 0001:0006f760       _trap_SnapVector           20070760 f   g_syscalls.obj
 0001:0006f780       _trap_Trace                20070780 f   g_syscalls.obj
 0001:0006f7b0       _trap_UnlinkEntity         200707b0 f   g_syscalls.obj
 0001:0006f7d0       _G_SetActiveState          200707d0 f   g_target.obj
 0001:0006f830       _SP_target_activate        20070830 f   g_target.obj
 0001:0006f860       _SP_target_counter         20070860 f   g_target.obj
 0001:0006f8a0       _SP_target_deactivate      200708a0 f   g_target.obj
 0001:0006f8d0       _SP_target_delay           200708d0 f   g_target.obj
 0001:0006f930       _SP_target_give            20070930 f   g_target.obj
 0001:0006f950       _SP_target_kill            20070950 f   g_target.obj
 0001:0006f970       _SP_target_laser           20070970 f   g_target.obj
 0001:0006f990       _SP_target_level_change    20070990 f   g_target.obj
 0001:0006fa00       _SP_target_location        20070a00 f   g_target.obj
 0001:0006fa30       _SP_target_play_music      20070a30 f   g_target.obj
 0001:0006fa90       _SP_target_print           20070a90 f   g_target.obj
 0001:0006fab0       _SP_target_random          20070ab0 f   g_target.obj
 0001:0006fad0       _SP_target_relay           20070ad0 f   g_target.obj
 0001:0006fb00       _SP_target_remove_powerups 20070b00 f   g_target.obj
 0001:0006fb20       _SP_target_score           20070b20 f   g_target.obj
 0001:0006fb50       _SP_target_scriptrunner    20070b50 f   g_target.obj
 0001:0006fbe0       _SP_target_speaker         20070be0 f   g_target.obj
 0001:0006fd60       _SP_target_teleporter      20070d60 f   g_target.obj
 0001:0006fda0       _Think_Target_Delay        20070da0 f   g_target.obj
 0001:0006fdc0       _Use_Target_Delay          20070dc0 f   g_target.obj
 0001:0006fe70       _Use_Target_Give           20070e70 f   g_target.obj
 0001:0006ff00       _Use_Target_Print          20070f00 f   g_target.obj
 0001:00070170       _Use_Target_Score          20071170 f   g_target.obj
 0001:00070190       _Use_Target_Speaker        20071190 f   g_target.obj
 0001:00070230       _Use_target_remove_powerups 20071230 f   g_target.obj
 0001:00070290       _scriptrunner_run          20071290 f   g_target.obj
 0001:00070440       _target_activate_use       20071440 f   g_target.obj
 0001:00070470       _target_counter_use        20071470 f   g_target.obj
 0001:00070540       _target_deactivate_use     20071540 f   g_target.obj
 0001:00070590       _target_kill_use           20071590 f   g_target.obj
 0001:000705c0       _target_laser_start        200715c0 f   g_target.obj
 0001:000706a0       _target_laser_think        200716a0 f   g_target.obj
 0001:00070880       _target_laser_use          20071880 f   g_target.obj
 0001:000708d0       _target_level_change_use   200718d0 f   g_target.obj
 0001:000709b0       _target_play_music_use     200719b0 f   g_target.obj
 0001:000709e0       _target_random_use         200719e0 f   g_target.obj
 0001:00070ae0       _target_relay_use          20071ae0 f   g_target.obj
 0001:00070bd0       _target_scriptrunner_use   20071bd0 f   g_target.obj
 0001:00070c30       _target_teleporter_use     20071c30 f   g_target.obj
 0001:00070c90       _AddTeamScore              20071c90 f   g_team.obj
 0001:00070d60       _CheckTeamStatus           20071d60 f   g_team.obj
 0001:00070e50       _OnSameTeam                20071e50 f   g_team.obj
 0001:00070f80       _Pickup_Team               20071f80 f   g_team.obj
 0001:00071070       _PrintCTFMessage           20072070 f   g_team.obj
 0001:000710d0       _SelectCTFSpawnPoint       200720d0 f   g_team.obj
 0001:00071140       _SelectRandomTeamSpawnPoint 20072140 f   g_team.obj
 0001:000712e0       _SelectSiegeSpawnPoint     200722e0 f   g_team.obj
 0001:00071360       _TeamName                  20072360 f   g_team.obj
 0001:00071390       _Team_CheckDroppedItem     20072390 f   g_team.obj
 0001:00071450       _Team_CheckHurtCarrier     20072450 f   g_team.obj
 0001:000714e0       _Team_DroppedFlagThink     200724e0 f   g_team.obj
 0001:00071560       _Team_FragBonuses          20072560 f   g_team.obj
 0001:00071a70       _Team_FreeEntity           20072a70 f   g_team.obj
 0001:00071bb0       _Team_GetLocation          20072bb0 f   g_team.obj
 0001:00071c80       _Team_GetLocationMsg       20072c80 f   g_team.obj
 0001:00071d10       _Team_InitGame             20072d10 f   g_team.obj
 0001:00071de0       _Team_ResetFlag            20072de0 f   g_team.obj
 0001:00071e80       _Team_ReturnFlag           20072e80 f   g_team.obj
 0001:00071f10       _Team_SetFlagStatus        20072f10 f   g_team.obj
 0001:00071fa0       _Team_TakeFlagSound        20072fa0 f   g_team.obj
 0001:00072040       _Team_TouchEnemyFlag       20073040 f   g_team.obj
 0001:00072100       _Team_TouchOurFlag         20073100 f   g_team.obj
 0001:00072450       _TeamplayInfoMessage       20073450 f   g_team.obj
 0001:00072640       _TIMER_Clear               20073640 f   g_timer.obj
 0001:00072680       _TIMER_Clear2              20073680 f   g_timer.obj
 0001:000726e0       _TIMER_Done                200736e0 f   g_timer.obj
 0001:00072730       _TIMER_Done2               20073730 f   g_timer.obj
 0001:000727a0       _TIMER_Exists              200737a0 f   g_timer.obj
 0001:000727e0       _TIMER_Get                 200737e0 f   g_timer.obj
 0001:00072820       _TIMER_GetNew              20073820 f   g_timer.obj
 0001:00072890       _TIMER_Remove              20073890 f   g_timer.obj
 0001:000728e0       _TIMER_RemoveHelper        200738e0 f   g_timer.obj
 0001:00072940       _TIMER_Set                 20073940 f   g_timer.obj
 0001:00072970       _TIMER_Start               20073970 f   g_timer.obj
 0001:000729c0       _AimAtTarget               200739c0 f   g_trigger.obj
 0001:00072c40       _Do_Strike                 20073c40 f   g_trigger.obj
 0001:00072de0       _G_NameInTriggerClassList  20073de0 f   g_trigger.obj
 0001:00072e60       _InitTrigger               20073e60 f   g_trigger.obj
 0001:00072ef0       _SP_func_timer             20073ef0 f   g_trigger.obj
 0001:00072fa0       _SP_target_push            20073fa0 f   g_trigger.obj
 0001:000730b0       _SP_trigger_always         200740b0 f   g_trigger.obj
 0001:000730e0       _SP_trigger_hurt           200740e0 f   g_trigger.obj
 0001:00073170       _SP_trigger_hyperspace     20074170 f   g_trigger.obj
 0001:00073250       _SP_trigger_lightningstrike 20074250 f   g_trigger.obj
 0001:00073330       _SP_trigger_multiple       20074330 f   g_trigger.obj
 0001:000734b0       _SP_trigger_once           200744b0 f   g_trigger.obj
 0001:000735b0       _SP_trigger_push           200745b0 f   g_trigger.obj
 0001:00073620       _SP_trigger_shipboundary   20074620 f   g_trigger.obj
 0001:000736c0       _SP_trigger_space          200746c0 f   g_trigger.obj
 0001:000736f0       _SP_trigger_teleport       200746f0 f   g_trigger.obj
 0001:00073740       _Think_Strike              20074740 f   g_trigger.obj
 0001:000737a0       _Touch_Multi               200747a0 f   g_trigger.obj
 0001:00073ba0       _Use_Multi                 20074ba0 f   g_trigger.obj
 0001:00073bc0       _Use_Strike                20074bc0 f   g_trigger.obj
 0001:00073bf0       _Use_target_push           20074bf0 f   g_trigger.obj
 0001:00073c80       _func_timer_think          20074c80 f   g_trigger.obj
 0001:00073d10       _func_timer_use            20074d10 f   g_trigger.obj
 0001:00073dc0       _hurt_touch                20074dc0 f   g_trigger.obj
 0001:00074030       _hurt_use                  20075030 f   g_trigger.obj
 0001:00074090       _hyperspace_touch          20075090 f   g_trigger.obj
 0001:00074480       _multi_trigger             20075480 f   g_trigger.obj
 0001:00074830       _multi_trigger_run         20075830 f   g_trigger.obj
 0001:00074a10       _shipboundary_think        20075a10 f   g_trigger.obj
 0001:00074ae0       _shipboundary_touch        20075ae0 f   g_trigger.obj
 0001:00074c10       _space_touch               20075c10 f   g_trigger.obj
 0001:00074d00       _trigger_always_think      20075d00 f   g_trigger.obj
 0001:00074d20       _trigger_cleared_fire      20075d20 f   g_trigger.obj
 0001:00074de0       _trigger_push_touch        20075de0 f   g_trigger.obj
 0001:00075040       _trigger_teleporter_touch  20076040 f   g_trigger.obj
 0001:000750b0       _SP_misc_turret            200760b0 f   g_turret.obj
 0001:00075180       _TurretBasePain            20076180 f   g_turret.obj
 0001:000751d0       _TurretPain                200761d0 f   g_turret.obj
 0001:00075280       _auto_turret_die           20076280 f   g_turret.obj
 0001:00075450       _bottom_die                20076450 f   g_turret.obj
 0001:000758c0       _turret_base_spawn_top     200768c0 f   g_turret.obj
 0001:00075cb0       _turret_base_think         20076cb0 f   g_turret.obj
 0001:00075f50       _turret_base_use           20076f50 f   g_turret.obj
 0001:000764a0       _turret_head_think         200774a0 f   g_turret.obj
 0001:00076670       _G2Tur_SetBoneAngles       20077670 f   g_turret_G2.obj
 0001:00076790       _SP_misc_turretG2          20077790 f   g_turret_G2.obj
 0001:000768e0       _TurboLaser_SetBoneAnim    200778e0 f   g_turret_G2.obj
 0001:000768e0       _EWeb_SetBoneAnim          200778e0 f   g_items.obj
 0001:00076960       _TurretG2Pain              20077960 f   g_turret_G2.obj
 0001:00076a20       _finish_spawning_turretG2  20077a20 f   g_turret_G2.obj
 0001:00077310       _turretG2_base_think       20078310 f   g_turret_G2.obj
 0001:00077610       _turretG2_base_use         20078610 f   g_turret_G2.obj
 0001:00077650       _turretG2_die              20078650 f   g_turret_G2.obj
 0001:00077f30       _turretG2_head_think       20078f30 f   g_turret_G2.obj
 0001:00078070       _turretG2_respawn          20079070 f   g_turret_G2.obj
 0001:00078100       _turretG2_set_models       20079100 f   g_turret_G2.obj
 0001:000782e0       _AddRemap                  200792e0 f   g_utils.obj
 0001:000783b0       _BuildShaderStateConfig    200793b0 f   g_utils.obj
 0001:00078440       _G_AddEvent                20079440 f   g_utils.obj
 0001:000784f0       _G_AddPredictableEvent     200794f0 f   g_utils.obj
 0001:00078520       _G_AllocateVehicleObject   20079520 f   g_utils.obj
 0001:000785b0       _G_BSPIndex                200795b0 f   g_utils.obj
 0001:000785d0       _G_BoneIndex               200795d0 f   g_utils.obj
 0001:000785f0       _G_BoxInBounds             200795f0 f   g_utils.obj
 0001:00078680       _G_CanUseDispOn            20079680 f   g_utils.obj
 0001:00078700       _G_CheckInSolid            20079700 f   g_utils.obj
 0001:00078800       _G_CreateFakeClient        20079800 f   g_utils.obj
 0001:00078840       _G_EffectIndex             20079840 f   g_utils.obj
 0001:00078860       _G_EntitySound             20079860 f   g_utils.obj
 0001:000788a0       _G_ExpandPointToBBox       200798a0 f   g_utils.obj
 0001:00078a50       _G_Find                    20079a50 f   g_utils.obj
 0001:00078bb0       _G_FreeEntity              20079bb0 f   g_utils.obj
 0001:00078de0       _G_FreeVehicleObject       20079de0 f   g_utils.obj
 0001:00078e20       _G_IconIndex               20079e20 f   g_utils.obj
 0001:00078e40       _G_InitGentity             20079e40 f   g_utils.obj
 0001:00078ea0       _G_KillBox                 20079ea0 f   g_utils.obj
 0001:00078fa0       _G_KillG2Queue             20079fa0 f   g_utils.obj
 0001:00078fe0       _G_ModelIndex              20079fe0 f   g_utils.obj
 0001:00079000       _G_MuteSound               2007a000 f   g_utils.obj
 0001:00079060       _G_PickTarget              2007a060 f   g_utils.obj
 0001:00079130       _G_PlayEffect              2007a130 f   g_utils.obj
 0001:00079180       _G_PlayEffectID            2007a180 f   g_utils.obj
 0001:00079210       _G_PointInBounds           2007a210 f   g_utils.obj
 0001:00079250       _G_ROFF_NotetrackCallback  2007a250 f   g_utils.obj
 0001:00079390       _G_RadiusList              2007a390 f   g_utils.obj
 0001:00079550       _G_ScaleNetHealth          2007a550 f   g_utils.obj
 0001:000795e0       _G_ScreenShake             2007a5e0 f   g_utils.obj
 0001:00079650       _G_SendG2KillQueue         2007a650 f   g_utils.obj
 0001:000796f0       _G_SetAngles               2007a6f0 f   g_utils.obj
 0001:00079740       _G_SetAnim                 2007a740 f   g_utils.obj
 0001:00079780       _G_SetMovedir              2007a780 f   g_utils.obj
 0001:00079870       _G_SetOrigin               2007a870 f   g_utils.obj
 0001:000798d0       _G_Sound                   2007a8d0 f   g_utils.obj
 0001:000799b0       _G_SoundAtLoc              2007a9b0 f   g_utils.obj
 0001:000799e0       _G_SoundIndex              2007a9e0 f   g_utils.obj
 0001:00079a00       _G_SoundOnEnt              2007aa00 f   g_utils.obj
 0001:00079a50       _G_SoundSetIndex           2007aa50 f   g_utils.obj
 0001:00079a70       _G_SoundTempEntity         2007aa70 f   g_utils.obj
 0001:00079b80       _G_Spawn                   2007ab80 f   g_utils.obj
 0001:00079ce0       _G_SpeechEvent             2007ace0 f   g_utils.obj
 0001:00079ec0       _G_TeamCommand             2007aec0 f   g_utils.obj
 0001:00079f30       _G_TempEntity              2007af30 f   g_utils.obj
 0001:0007a040       _G_Throw                   2007b040 f   g_utils.obj
 0001:0007a040       _G_ApplyKnockback          2007b040 f   g_combat.obj
 0001:0007a1d0       _G_UseDispenserOn          2007b1d0 f   g_utils.obj
 0001:0007a310       _G_UseTargets              2007b310 f   g_utils.obj
 0001:0007a330       _G_UseTargets2             2007b330 f   g_utils.obj
 0001:0007a420       _GetAnglesForDirection     2007b420 f   g_utils.obj
 0001:0007a470       _GlobalUse                 2007b470 f   g_utils.obj
 0001:0007a4a0       _ShortestLineSegBewteen2LineSegs 2007b4a0 f   g_utils.obj
 0001:0007ac30       _TryHeal                   2007bc30 f   g_utils.obj
 0001:0007add0       _TryUse                    2007bdd0 f   g_utils.obj
 0001:0007b3c0       _ValidUseTarget            2007c3c0 f   g_utils.obj
 0001:0007b3f0       _vtos                      2007c3f0 f   g_utils.obj
 0001:0007b440       _AddPassenger              2007c440 f i g_vehicles.obj
 0001:0007b440       _G_PlayerHasCustomSkeleton 2007c440 f i g_utils.obj
 0001:0007b450       _Animate                   2007c450 f   g_vehicles.obj
 0001:0007b750       _Board                     2007c750 f   g_vehicles.obj
 0001:0007bd50       _Eject                     2007cd50 f   g_vehicles.obj
 0001:0007c220       _EjectAll                  2007d220 f   g_vehicles.obj
 0001:0007c3b0       _FighterStorePilotViewAngles 2007d3b0 f   g_vehicles.obj
 0001:0007c420       _G_EjectDroidUnit          2007d420 f   g_vehicles.obj
 0001:0007c4b0       _G_FlyVehicleDestroySurface 2007d4b0 f   g_vehicles.obj
 0001:0007c610       _G_FlyVehicleImpactDir     2007d610 f   g_vehicles.obj
 0001:0007c990       _G_FlyVehicleSurfaceDestruction 2007d990 f   g_vehicles.obj
 0001:0007cae0       _G_SetSharedVehicleFunctions 2007dae0 f   g_vehicles.obj
 0001:0007cba0       _G_SetVehDamageFlags       2007dba0 f   g_vehicles.obj
 0001:0007cd40       _G_ShipSurfaceForSurfName  2007dd40 f   g_vehicles.obj
 0001:0007ce50       _G_VehUpdateShields        2007de50 f   g_vehicles.obj
 0001:0007ced0       _G_VehicleDamageBoxSizing  2007ded0 f   g_vehicles.obj
 0001:0007d0d0       _G_VehicleSetDamageLocFlags 2007e0d0 f   g_vehicles.obj
 0001:0007d2e0       _G_VehicleSpawn            2007e2e0 f   g_vehicles.obj
 0001:0007d3c0       _G_VehicleTrace            2007e3c0 f   g_vehicles.obj
 0001:0007d410       _Inhabited                 2007e410 f i g_vehicles.obj
 0001:0007d430       _Initialize                2007e430 f   g_vehicles.obj
 0001:0007d7b0       _SetParent                 2007e7b0 f i g_vehicles.obj
 0001:0007d7c0       _SetPilot                  2007e7c0 f i g_vehicles.obj
 0001:0007e800       _VEH_TryEject              2007f800 f   g_vehicles.obj
 0001:0007ea90       _ValidateBoard             2007fa90 f   g_vehicles.obj
 0001:0007ec20       _Vehicle_SetAnim           2007fc20 f   g_vehicles.obj
 0001:0007ec70       _VEH_TurretAim             2007fc70 f   g_vehicleTurret.obj
 0001:0007ef10       _VEH_TurretAnglesToEnemy   2007ff10 f   g_vehicleTurret.obj
 0001:0007f040       _VEH_TurretCheckFire       20080040 f   g_vehicleTurret.obj
 0001:0007f430       _VEH_TurretObeyPassengerControl 20080430 f   g_vehicleTurret.obj
 0001:0007f510       _VEH_TurretThink           20080510 f   g_vehicleTurret.obj
 0001:0007f800       _BlowDetpacks              20080800 f   g_weapon.obj
 0001:0007f900       _CalcMuzzlePoint           20080900 f   g_weapon.obj
 0001:0007fa60       _CreateLaserTrap           20080a60 f   g_weapon.obj
 0001:0007fd80       _DEMP2_AltDetonate         20080d80 f   g_weapon.obj
 0001:0007fe40       _DEMP2_AltRadiusDamage     20080e40 f   g_weapon.obj
 0001:00080290       _DetPackBlow               20081290 f   g_weapon.obj
 0001:000803a0       _DetPackDie                200813a0 f   g_weapon.obj
 0001:000803a0       _DetPackPain               200813a0 f   g_weapon.obj
 0001:000803e0       _FireVehicleWeapon         200813e0 f   g_weapon.obj
 0001:00080b30       _FireWeapon                20081b30 f   g_weapon.obj
 0001:00080f00       _G_CanDisruptify           20081f00 f   g_weapon.obj
 0001:00080f50       _G_EstimateCamPos          20081f50 f   g_weapon.obj
 0001:00081250       _G_VehMuzzleFireFX         20082250 f   g_weapon.obj
 0001:000812c0       _LogAccuracyHit            200822c0 f   g_weapon.obj
 0001:00081310       _RocketDie                 20082310 f   g_weapon.obj
 0001:00081350       _SP_emplaced_gun           20082350 f   g_weapon.obj
 0001:00081640       _SnapVectorTowards         20082640 f   g_weapon.obj
 0001:00081680       _TrapThink                 20082680 f   g_weapon.obj
 0001:000819b0       _WP_CalcVehMuzzle          200829b0 f   g_weapon.obj
 0001:00081ef0       _WP_DisruptorAltFire       20082ef0 f   g_weapon.obj
 0001:00082a30       _WP_DropDetPack            20083a30 f   g_weapon.obj
 0001:00082d20       _WP_FireBlasterMissile     20083d20 f   g_weapon.obj
 0001:000837e0       _WP_FireEmplacedMissile    200847e0 f   g_weapon.obj
 0001:00083870       _WP_FireGenericBlasterMissile 20084870 f   g_weapon.obj
 0001:000838e0       _WP_FireMelee              200848e0 f   g_weapon.obj
 0001:00083e80       _WP_FireStunBaton          20084e80 f   g_weapon.obj
 0001:00084130       _WP_FireThermalDetonator   20085130 f   g_weapon.obj
 0001:00084440       _WP_FireTurboLaserMissile  20085440 f   g_weapon.obj
 0001:00084520       _WP_FireTurretMissile      20085520 f   g_weapon.obj
 0001:000845b0       _WP_FireVehicleWeapon      200855b0 f   g_weapon.obj
 0001:00084cf0       _WP_GetVehicleCamPos       20085cf0 f   g_weapon.obj
 0001:00084e60       _WP_LobFire                20085e60 f   g_weapon.obj
 0001:000852a0       _WP_PlaceLaserTrap         200862a0 f   g_weapon.obj
 0001:000855d0       _WP_SpeedOfMissileForWeapon 200865d0 f   g_weapon.obj
 0001:000855e0       _WP_TouchVehMissile        200865e0 f   g_weapon.obj
 0001:00085740       _WP_VehCheckTraceFromCamPos 20086740 f   g_weapon.obj
 0001:00085bc0       _WP_VehWeapSetSolidToOwner 20086bc0 f   g_weapon.obj
 0001:00085c10       _WP_flechette_alt_blow     20086c10 f   g_weapon.obj
 0001:00085c40       _W_TraceSetStart           20086c40 f   g_weapon.obj
 0001:00085d90       _charge_stick              20086d90 f   g_weapon.obj
 0001:000861e0       _drop_charge               200871e0 f   g_weapon.obj
 0001:00086460       _emplaced_gun_die          20087460 f   g_weapon.obj
 0001:000864a0       _emplaced_gun_pain         200874a0 f   g_weapon.obj
 0001:000864d0       _emplaced_gun_realuse      200874d0 f   g_weapon.obj
 0001:000864e0       _emplaced_gun_update       200874e0 f   g_weapon.obj
 0001:000868d0       _emplaced_gun_use          200878d0 f   g_weapon.obj
 0001:00086b80       _laserTrapDelayedExplode   20087b80 f   g_weapon.obj
 0001:00086bf0       _laserTrapExplode          20087bf0 f   g_weapon.obj
 0001:00086ce0       _laserTrapStick            20087ce0 f   g_weapon.obj
 0001:00086f40       _laserTrapThink            20087f40 f   g_weapon.obj
 0001:00087050       _proxMineThink             20088050 f   g_weapon.obj
 0001:000871e0       _rocketThink               200881e0 f   g_weapon.obj
 0001:00087720       _thermalDetonatorExplode   20088720 f   g_weapon.obj
 0001:000878e0       _thermalThinkStandard      200888e0 f   g_weapon.obj
 0001:00087930       _touchLaserTrap            20088930 f   g_weapon.obj
 0001:000879d0       _BodyRemovalPadTime        200889d0 f   NPC.obj
 0001:00087a40       _ClearNPCGlobals           20088a40 f   NPC.obj
 0001:00087a60       _CorpsePhysics             20088a60 f   NPC.obj
 0001:00087f80       _G_DroidSounds             20088f80 f   NPC.obj
 0001:000880a0       _NPC_ApplyScriptFlags      200890a0 f   NPC.obj
 0001:00088170       _NPC_BehaviorSet_ATST      20089170 f   NPC.obj
 0001:000881b0       _NPC_BehaviorSet_Charmed   200891b0 f   NPC.obj
 0001:00088220       _NPC_BehaviorSet_Default   20089220 f   NPC.obj
 0001:000882c0       _NPC_BehaviorSet_Droid     200892c0 f   NPC.obj
 0001:000882f0       _NPC_BehaviorSet_Grenadier 200892f0 f   NPC.obj
 0001:00088330       _NPC_BehaviorSet_Howler    20089330 f   NPC.obj
 0001:00088370       _NPC_BehaviorSet_ImperialProbe 20089370 f   NPC.obj
 0001:000883b0       _NPC_BehaviorSet_Interrogator 200893b0 f   NPC.obj
 0001:000883f0       _NPC_BehaviorSet_Jedi      200893f0 f   NPC.obj
 0001:00088440       _NPC_BehaviorSet_Mark1     20089440 f   NPC.obj
 0001:00088470       _NPC_BehaviorSet_Mark2     20089470 f   NPC.obj
 0001:000884b0       _NPC_BehaviorSet_MineMonster 200894b0 f   NPC.obj
 0001:000884f0       _NPC_BehaviorSet_Rancor    200894f0 f   NPC.obj
 0001:00088530       _NPC_BehaviorSet_Seeker    20089530 f   NPC.obj
 0001:00088570       _NPC_BehaviorSet_Sentry    20089570 f   NPC.obj
 0001:000885b0       _NPC_BehaviorSet_Sniper    200895b0 f   NPC.obj
 0001:000885f0       _NPC_BehaviorSet_Stormtrooper 200895f0 f   NPC.obj
 0001:00088650       _NPC_CheckAttackHold       20089650 f   NPC.obj
 0001:00088720       _NPC_ExecuteBState         20089720 f   NPC.obj
 0001:00088a60       _NPC_HandleAIFlags         20089a60 f   NPC.obj
 0001:00088b50       _NPC_InitGame              20089b50 f   NPC.obj
 0001:00088b60       _NPC_RemoveBody            20089b60 f   NPC.obj
 0001:00088d50       _NPC_RunBehavior           20089d50 f   NPC.obj
 0001:00089060       _NPC_SetAnim               2008a060 f   NPC.obj
 0001:00089080       _NPC_Think                 2008a080 f   NPC.obj
 0001:00089400       _RestoreNPCGlobals         2008a400 f   NPC.obj
 0001:00089450       _SaveNPCGlobals            2008a450 f   NPC.obj
 0001:000894a0       _SetNPCGlobals             2008a4a0 f   NPC.obj
 0001:000894e0       _pitch_roll_for_slope      2008a4e0 f   NPC.obj
 0001:00089800       _ATST_Attack               2008a800 f   NPC_AI_Atst.obj
 0001:00089970       _ATST_Hunt                 2008a970 f   NPC_AI_Atst.obj
 0001:000899b0       _ATST_Patrol               2008a9b0 f   NPC_AI_Atst.obj
 0001:00089a00       _ATST_Ranged               2008aa00 f   NPC_AI_Atst.obj
 0001:00089ab0       _NPC_ATST_Pain             2008aab0 f   NPC_AI_Atst.obj
 0001:00089af0       _NPC_ATST_Precache         2008aaf0 f   NPC_AI_Atst.obj
 0001:00089b40       _NPC_BSATST_Default        2008ab40 f   NPC_AI_Atst.obj
 0001:00089ba0       _NPC_BSDefault             2008aba0 f   NPC_AI_Default.obj
 0001:00089f10       _NPC_BSIdle                2008af10 f   NPC_AI_Default.obj
 0001:00089f40       _NPC_BSPatrol              2008af40 f   NPC_AI_Default.obj
 0001:00089fe0       _NPC_BSRunAndShoot         2008afe0 f   NPC_AI_Default.obj
 0001:0008a1a0       _NPC_BSStandGuard          2008b1a0 f   NPC_AI_Default.obj
 0001:0008a270       _NPC_LostEnemyDecideChase  2008b270 f   NPC_AI_Default.obj
 0001:0008a2c0       _Droid_Patrol              2008b2c0 f   NPC_AI_Droid.obj
 0001:0008a4d0       _Droid_Run                 2008b4d0 f   NPC_AI_Droid.obj
 0001:0008a580       _Droid_Spin                2008b580 f   NPC_AI_Droid.obj
 0001:0008a790       _NPC_BSDroid_Default       2008b790 f   NPC_AI_Droid.obj
 0001:0008a840       _NPC_Droid_Pain            2008b840 f   NPC_AI_Droid.obj
 0001:0008ad10       _NPC_Gonk_Precache         2008bd10 f   NPC_AI_Droid.obj
 0001:0008ad50       _NPC_Mouse_Precache        2008bd50 f   NPC_AI_Droid.obj
 0001:0008ada0       _NPC_Protocol_Precache     2008bda0 f   NPC_AI_Droid.obj
 0001:0008adc0       _NPC_R2D2_Precache         2008bdc0 f   NPC_AI_Droid.obj
 0001:0008ae40       _NPC_R5D2_Precache         2008be40 f   NPC_AI_Droid.obj
 0001:0008aec0       _R2D2_PartsMove            2008bec0 f   NPC_AI_Droid.obj
 0001:0008afa0       _R2D2_TurnAnims            2008bfa0 f   NPC_AI_Droid.obj
 0001:0008b4f0       _GM_Dying                  2008c4f0 f   NPC_AI_GalakMech.obj
 0001:0008b8e0       _NPC_BSGM_Attack           2008c8e0 f   NPC_AI_GalakMech.obj
 0001:0008cb50       _NPC_BSGM_Default          2008db50 f   NPC_AI_GalakMech.obj
 0001:0008cd10       _NPC_GM_Pain               2008dd10 f   NPC_AI_GalakMech.obj
 0001:0008cf10       _NPC_GM_StartLaser         2008df10 f   NPC_AI_GalakMech.obj
 0001:0008cfa0       _NPC_GalakMech_Init        2008dfa0 f   NPC_AI_GalakMech.obj
 0001:0008d160       _NPC_GalakMech_Precache    2008e160 f   NPC_AI_GalakMech.obj
 0001:0008d5c0       _NPC_BSGrenadier_Attack    2008e5c0 f   NPC_AI_Grenadier.obj
 0001:0008dbb0       _NPC_BSGrenadier_Default   2008ebb0 f   NPC_AI_Grenadier.obj
 0001:0008dbf0       _NPC_BSGrenadier_Patrol    2008ebf0 f   NPC_AI_Grenadier.obj
 0001:0008de80       _Howler_Attack             2008ee80 f   NPC_AI_Howler.obj
 0001:0008df50       _Howler_Combat             2008ef50 f   NPC_AI_Howler.obj
 0001:0008e070       _MineMonster_Move          2008f070 f   NPC_AI_MineMonster.obj
 0001:0008e070       _Howler_Move               2008f070 f   NPC_AI_Howler.obj
 0001:0008e0b0       _Howler_Patrol             2008f0b0 f   NPC_AI_Howler.obj
 0001:0008e1c0       _Howler_TryDamage          2008f1c0 f   NPC_AI_Howler.obj
 0001:0008e2a0       _NPC_BSHowler_Default      2008f2a0 f   NPC_AI_Howler.obj
 0001:0008e2f0       _NPC_Howler_Pain           2008f2f0 f   NPC_AI_Howler.obj
 0001:0008e370       _ImperialProbe_AttackDecision 2008f370 f   NPC_AI_ImperialProbe.obj
 0001:0008e4b0       _ImperialProbe_FireBlaster 2008f4b0 f   NPC_AI_ImperialProbe.obj
 0001:0008e6a0       _ImperialProbe_Hunt        2008f6a0 f   NPC_AI_ImperialProbe.obj
 0001:0008e7f0       _ImperialProbe_MaintainHeight 2008f7f0 f   NPC_AI_ImperialProbe.obj
 0001:0008e9b0       _ImperialProbe_Patrol      2008f9b0 f   NPC_AI_ImperialProbe.obj
 0001:0008eac0       _ImperialProbe_Ranged      2008fac0 f   NPC_AI_ImperialProbe.obj
 0001:0008eb20       _ImperialProbe_Strafe      2008fb20 f   NPC_AI_ImperialProbe.obj
 0001:0008eb20       _Sentry_Strafe             2008fb20 f   NPC_AI_Sentry.obj
 0001:0008ec80       _ImperialProbe_Wait        2008fc80 f   NPC_AI_ImperialProbe.obj
 0001:0008ed60       _NPC_BSImperialProbe_Default 2008fd60 f   NPC_AI_ImperialProbe.obj
 0001:0008edb0       _NPC_Probe_Pain            2008fdb0 f   NPC_AI_ImperialProbe.obj
 0001:0008eff0       _NPC_Probe_Precache        2008fff0 f   NPC_AI_ImperialProbe.obj
 0001:0008f080       _Interrogator_Attack       20090080 f   NPC_AI_Interrogator.obj
 0001:0008f1e0       _Interrogator_Hunt         200901e0 f   NPC_AI_Interrogator.obj
 0001:0008f340       _Interrogator_MaintainHeight 20090340 f   NPC_AI_Interrogator.obj
 0001:0008f510       _Interrogator_Melee        20090510 f   NPC_AI_Interrogator.obj
 0001:0008f5f0       _Interrogator_PartsMove    200905f0 f   NPC_AI_Interrogator.obj
 0001:0008f840       _Interrogator_Strafe       20090840 f   NPC_AI_Interrogator.obj
 0001:0008f9f0       _NPC_BSInterrogator_Default 200909f0 f   NPC_AI_Interrogator.obj
 0001:0008fa40       _NPC_Interrogator_Precache 20090a40 f   NPC_AI_Interrogator.obj
 0001:0008fa80       _Boba_ChangeWeapon         20090a80 f   NPC_AI_Jedi.obj
 0001:0008fac0       _Boba_DoFlameThrower       20090ac0 f   NPC_AI_Jedi.obj
 0001:0008fb10       _Boba_FireDecide           20090b10 f   NPC_AI_Jedi.obj
 0001:00090460       _Boba_FireFlameThrower     20091460 f   NPC_AI_Jedi.obj
 0001:000905d0       _Boba_FlyStart             200915d0 f   NPC_AI_Jedi.obj
 0001:00090670       _Boba_Flying               20091670 f   NPC_AI_Jedi.obj
 0001:00090690       _Boba_Precache             20091690 f   NPC_AI_Jedi.obj
 0001:000906d0       _Boba_StartFlameThrower    200916d0 f   NPC_AI_Jedi.obj
 0001:00090a90       _Jedi_Ambush               20091a90 f   NPC_AI_Jedi.obj
 0001:00091a40       _Jedi_CanPullBackSaber     20092a40 f   NPC_AI_Jedi.obj
 0001:00091ac0       _Jedi_CheckAmbushPlayer    20092ac0 f   NPC_AI_Jedi.obj
 0001:00091c50       _Jedi_CheckCloak           20092c50 f   NPC_AI_Jedi.obj
 0001:00091cb0       _Jedi_CheckDanger          20092cb0 f   NPC_AI_Jedi.obj
 0001:000923c0       _Jedi_CheckFlipEvasions    200933c0 f   NPC_AI_Jedi.obj
 0001:000932f0       _Jedi_ClearTimers          200942f0 f   NPC_AI_Jedi.obj
 0001:00093440       _Jedi_Cloak                20094440 f   NPC_AI_Jedi.obj
 0001:000954f0       _Jedi_Decloak              200964f0 f   NPC_AI_Jedi.obj
 0001:00096d20       _Jedi_QuickReactions       20097d20 f   NPC_AI_Jedi.obj
 0001:00096e50       _Jedi_ReCalcParryTime      20097e50 f   NPC_AI_Jedi.obj
 0001:00097830       _Jedi_SaberBlockGo         20098830 f   NPC_AI_Jedi.obj
 0001:00098800       _Jedi_SaberBusy            20099800 f   NPC_AI_Jedi.obj
 0001:00099270       _Jedi_WaitingAmbush        2009a270 f   NPC_AI_Jedi.obj
 0001:000992a0       _NPC_BSJedi_Default        2009a2a0 f   NPC_AI_Jedi.obj
 0001:00099480       _NPC_BSJedi_FollowLeader   2009a480 f   NPC_AI_Jedi.obj
 0001:000996f0       _NPC_Jedi_Pain             2009a6f0 f   NPC_AI_Jedi.obj
 0001:000999b0       _NPC_Jedi_PlayConfusionSound 2009a9b0 f   NPC_AI_Jedi.obj
 0001:00099a30       _NPC_Jedi_RateNewEnemy     2009aa30 f   NPC_AI_Jedi.obj
 0001:00099bb0       _NPC_MoveDirClear          2009abb0 f   NPC_AI_Jedi.obj
 0001:00099f30       _NPC_ShadowTrooper_Precache 2009af30 f   NPC_AI_Jedi.obj
 0001:00099f60       _Mark1Dead_FireBlaster     2009af60 f   NPC_AI_Mark1.obj
 0001:0009a0b0       _Mark1Dead_FireRocket      2009b0b0 f   NPC_AI_Mark1.obj
 0001:0009a250       _Mark1_AttackDecision      2009b250 f   NPC_AI_Mark1.obj
 0001:0009a430       _Mark1_BlasterAttack       2009b430 f   NPC_AI_Mark1.obj
 0001:0009a550       _Mark1_FireBlaster         2009b550 f   NPC_AI_Mark1.obj
 0001:0009a760       _Mark1_FireRocket          2009b760 f   NPC_AI_Mark1.obj
 0001:0009a920       _Mark1_Patrol              2009b920 f   NPC_AI_Mark1.obj
 0001:0009a980       _Mark1_RocketAttack        2009b980 f   NPC_AI_Mark1.obj
 0001:0009a9f0       _Mark1_dying               2009b9f0 f   NPC_AI_Mark1.obj
 0001:0009ab50       _NPC_BSMark1_Default       2009bb50 f   NPC_AI_Mark1.obj
 0001:0009aba0       _NPC_Mark1_Pain            2009bba0 f   NPC_AI_Mark1.obj
 0001:0009ad80       _NPC_Mark1_Part_Explode    2009bd80 f   NPC_AI_Mark1.obj
 0001:0009ae60       _NPC_Mark1_Precache        2009be60 f   NPC_AI_Mark1.obj
 0001:0009af40       _Mark2_AttackDecision      2009bf40 f   NPC_AI_Mark2.obj
 0001:0009b210       _Mark2_BlasterAttack       2009c210 f   NPC_AI_Mark2.obj
 0001:0009b280       _Mark2_FireBlaster         2009c280 f   NPC_AI_Mark2.obj
 0001:0009b430       _Mark2_Hunt                2009c430 f   NPC_AI_Mark2.obj
 0001:0009b430       _Mark1_Hunt                2009c430 f   NPC_AI_Mark1.obj
 0001:0009b480       _Mark2_Patrol              2009c480 f   NPC_AI_Mark2.obj
 0001:0009b510       _NPC_BSMark2_Default       2009c510 f   NPC_AI_Mark2.obj
 0001:0009b550       _NPC_Mark2_Pain            2009c550 f   NPC_AI_Mark2.obj
 0001:0009b620       _NPC_Mark2_Part_Explode    2009c620 f   NPC_AI_Mark2.obj
 0001:0009b710       _NPC_Mark2_Precache        2009c710 f   NPC_AI_Mark2.obj
 0001:0009b7a0       _MineMonster_Attack        2009c7a0 f   NPC_AI_MineMonster.obj
 0001:0009b9e0       _MineMonster_Combat        2009c9e0 f   NPC_AI_MineMonster.obj
 0001:0009bb00       _MineMonster_Patrol        2009cb00 f   NPC_AI_MineMonster.obj
 0001:0009bc30       _MineMonster_TryDamage     2009cc30 f   NPC_AI_MineMonster.obj
 0001:0009bd70       _NPC_BSMineMonster_Default 2009cd70 f   NPC_AI_MineMonster.obj
 0001:0009bde0       _NPC_MineMonster_Pain      2009cde0 f   NPC_AI_MineMonster.obj
 0001:0009bed0       _NPC_MineMonster_Precache  2009ced0 f   NPC_AI_MineMonster.obj
 0001:0009bf10       _NPC_BSRancor_Default      2009cf10 f   NPC_AI_Rancor.obj
 0001:0009c370       _NPC_Rancor_Pain           2009d370 f   NPC_AI_Rancor.obj
 0001:0009c650       _Rancor_Attack             2009d650 f   NPC_AI_Rancor.obj
 0001:0009ce10       _Rancor_Bite               2009de10 f   NPC_AI_Rancor.obj
 0001:0009cfc0       _Rancor_CheckDropVictim    2009dfc0 f   NPC_AI_Rancor.obj
 0001:0009d110       _Rancor_CheckRoar          2009e110 f   NPC_AI_Rancor.obj
 0001:0009d180       _Rancor_Combat             2009e180 f   NPC_AI_Rancor.obj
 0001:0009d400       _Rancor_Crush              2009e400 f   NPC_AI_Rancor.obj
 0001:0009d470       _Rancor_DropVictim         2009e470 f   NPC_AI_Rancor.obj
 0001:0009d5d0       _Rancor_Move               2009e5d0 f   NPC_AI_Rancor.obj
 0001:0009d640       _Rancor_Patrol             2009e640 f   NPC_AI_Rancor.obj
 0001:0009d740       _Rancor_SetBolts           2009e740 f   NPC_AI_Rancor.obj
 0001:0009d7c0       _Rancor_Smash              2009e7c0 f   NPC_AI_Rancor.obj
 0001:0009d970       _Rancor_Swing              2009e970 f   NPC_AI_Rancor.obj
 0001:0009dd10       _NPC_BSRemote_Default      2009ed10 f   NPC_AI_Remote.obj
 0001:0009dd80       _NPC_Remote_Pain           2009ed80 f   NPC_AI_Remote.obj
 0001:0009ddb0       _NPC_Remote_Precache       2009edb0 f   NPC_AI_Remote.obj
 0001:0009dde0       _Remote_Attack             2009ede0 f   NPC_AI_Remote.obj
 0001:0009df60       _Remote_Fire               2009ef60 f   NPC_AI_Remote.obj
 0001:0009e080       _Remote_Hunt               2009f080 f   NPC_AI_Remote.obj
 0001:0009e1d0       _Remote_MaintainHeight     2009f1d0 f   NPC_AI_Remote.obj
 0001:0009e430       _Remote_Ranged             2009f430 f   NPC_AI_Remote.obj
 0001:0009e490       _Remote_Strafe             2009f490 f   NPC_AI_Remote.obj
 0001:0009e620       _NPC_BSSeeker_Default      2009f620 f   NPC_AI_Seeker.obj
 0001:0009e730       _NPC_Seeker_Pain           2009f730 f   NPC_AI_Seeker.obj
 0001:0009e790       _NPC_Seeker_Precache       2009f790 f   NPC_AI_Seeker.obj
 0001:0009e7c0       _Seeker_Attack             2009f7c0 f   NPC_AI_Seeker.obj
 0001:0009e870       _Seeker_FindEnemy          2009f870 f   NPC_AI_Seeker.obj
 0001:0009e9d0       _Seeker_Fire               2009f9d0 f   NPC_AI_Seeker.obj
 0001:0009eb30       _Seeker_FollowOwner        2009fb30 f   NPC_AI_Seeker.obj
 0001:0009ee80       _Seeker_Hunt               2009fe80 f   NPC_AI_Seeker.obj
 0001:0009efc0       _Seeker_MaintainHeight     2009ffc0 f   NPC_AI_Seeker.obj
 0001:0009f2c0       _Seeker_Ranged             200a02c0 f   NPC_AI_Seeker.obj
 0001:0009f360       _Seeker_Strafe             200a0360 f   NPC_AI_Seeker.obj
 0001:0009f870       _NPC_BSSentry_Default      200a0870 f   NPC_AI_Sentry.obj
 0001:0009f8c0       _NPC_Sentry_Pain           200a08c0 f   NPC_AI_Sentry.obj
 0001:0009f960       _NPC_Sentry_Patrol         200a0960 f   NPC_AI_Sentry.obj
 0001:0009fa00       _NPC_Sentry_Precache       200a0a00 f   NPC_AI_Sentry.obj
 0001:0009fa90       _Sentry_AttackDecision     200a0a90 f   NPC_AI_Sentry.obj
 0001:0009fbf0       _Sentry_Fire               200a0bf0 f   NPC_AI_Sentry.obj
 0001:0009fe60       _Sentry_Hunt               200a0e60 f   NPC_AI_Sentry.obj
 0001:0009ffa0       _Sentry_Idle               200a0fa0 f   NPC_AI_Sentry.obj
 0001:000a0010       _Sentry_MaintainHeight     200a1010 f   NPC_AI_Sentry.obj
 0001:000a01f0       _Sentry_RangedAttack       200a11f0 f   NPC_AI_Sentry.obj
 0001:000a0320       _sentry_use                200a1320 f   NPC_AI_Sentry.obj
 0001:000a0360       _NPC_BSSniper_Attack       200a1360 f   NPC_AI_Sniper.obj
 0001:000a0900       _NPC_BSSniper_Default      200a1900 f   NPC_AI_Sniper.obj
 0001:000a0920       _NPC_BSSniper_Patrol       200a1920 f   NPC_AI_Sniper.obj
 0001:000a0fd0       _Sniper_EvaluateShot       200a1fd0 f   NPC_AI_Sniper.obj
 0001:000a1060       _Sniper_FaceEnemy          200a2060 f   NPC_AI_Sniper.obj
 0001:000a18e0       _Sniper_StartHide          200a28e0 f   NPC_AI_Sniper.obj
 0001:000a1940       _Sniper_UpdateEnemyPos     200a2940 f   NPC_AI_Sniper.obj
 0001:000a1a00       _NPC_BSST_Attack           200a2a00 f   NPC_AI_Stormtrooper.obj
 0001:000a22c0       _NPC_BSST_Default          200a32c0 f   NPC_AI_Stormtrooper.obj
 0001:000a2300       _NPC_BSST_Investigate      200a3300 f   NPC_AI_Stormtrooper.obj
 0001:000a2650       _NPC_BSST_Patrol           200a3650 f   NPC_AI_Stormtrooper.obj
 0001:000a28a0       _NPC_BSST_Sleep            200a38a0 f   NPC_AI_Stormtrooper.obj
 0001:000a2900       _NPC_CheckEnemyStealth     200a3900 f   NPC_AI_Stormtrooper.obj
 0001:000a31b0       _NPC_CheckPlayerTeamStealth 200a41b0 f   NPC_AI_Stormtrooper.obj
 0001:000a3ca0       _NPC_ST_Pain               200a4ca0 f   NPC_AI_Stormtrooper.obj
 0001:000a3d20       _NPC_ST_SayMovementSpeech  200a4d20 f   NPC_AI_Stormtrooper.obj
 0001:000a3e60       _ST_AggressionAdjust       200a4e60 f   NPC_AI_Stormtrooper.obj
 0001:000a3ec0       _ST_ApproachEnemy          200a4ec0 f   NPC_AI_Stormtrooper.obj
 0001:000a45d0       _ST_ClearTimers            200a55d0 f   NPC_AI_Stormtrooper.obj
 0001:000a46a0       _ST_Commander              200a56a0 f   NPC_AI_Stormtrooper.obj
 0001:000a5930       _ST_GetCPFlags             200a6930 f   NPC_AI_Stormtrooper.obj
 0001:000a5c70       _ST_HuntEnemy              200a6c70 f   NPC_AI_Stormtrooper.obj
 0001:000a5e00       _ST_MarkToCover            200a6e00 f   NPC_AI_Stormtrooper.obj
 0001:000a6040       _ST_ResolveBlockedShot     200a7040 f   NPC_AI_Stormtrooper.obj
 0001:000a6410       _ST_StartFlee              200a7410 f   NPC_AI_Stormtrooper.obj
 0001:000a6470       _ST_TrackEnemy             200a7470 f   NPC_AI_Stormtrooper.obj
 0001:000a6520       _ST_TransferMoveGoal       200a7520 f   NPC_AI_Stormtrooper.obj
 0001:000a6630       _ST_TransferTimers         200a7630 f   NPC_AI_Stormtrooper.obj
 0001:000a6790       _AI_DeleteGroupMember      200a7790 f   NPC_AI_Utils.obj
 0001:000a6890       _AI_DeleteSelfFromGroup    200a7890 f   NPC_AI_Utils.obj
 0001:000a6950       _AI_FindSelfInPreviousGroup 200a7950 f   NPC_AI_Utils.obj
 0001:000a69c0       _AI_GetGroup               200a79c0 f   NPC_AI_Utils.obj
 0001:000a6c00       _AI_GetNextEmptyGroup      200a7c00 f   NPC_AI_Utils.obj
 0001:000a6c70       _AI_GroupContainsEntNum    200a7c70 f   NPC_AI_Utils.obj
 0001:000a6cb0       _AI_GroupMemberKilled      200a7cb0 f   NPC_AI_Utils.obj
 0001:000a6f40       _AI_GroupUpdateClearShotTime 200a7f40 f   NPC_AI_Utils.obj
 0001:000a6f60       _AI_GroupUpdateEnemyLastSeen 200a7f60 f   NPC_AI_Utils.obj
 0001:000a6f90       _AI_GroupUpdateSquadstates 200a7f90 f   NPC_AI_Utils.obj
 0001:000a7010       _AI_InsertGroupMember      200a8010 f   NPC_AI_Utils.obj
 0001:000a70a0       _AI_SetClosestBuddy        200a80a0 f   NPC_AI_Utils.obj
 0001:000a7180       _AI_SetNewGroupCommander   200a8180 f   NPC_AI_Utils.obj
 0001:000a71f0       _AI_SortGroupByPathCostToEnemy 200a81f0 f   NPC_AI_Utils.obj
 0001:000a7360       _AI_TryJoinPreviousGroup   200a8360 f   NPC_AI_Utils.obj
 0001:000a73d0       _AI_UpdateGroups           200a83d0 f   NPC_AI_Utils.obj
 0001:000a7720       _AI_ValidateGroupMember    200a8720 f   NPC_AI_Utils.obj
 0001:000a7860       _AI_ValidateNoEnemyGroupMember 200a8860 f   NPC_AI_Utils.obj
 0001:000a7940       _NPC_BSWampa_Default       200a8940 f   NPC_AI_Wampa.obj
 0001:000a7df0       _NPC_Wampa_Pain            200a8df0 f   NPC_AI_Wampa.obj
 0001:000a80e0       _NPC_Wampa_Precache        200a90e0 f   NPC_AI_Wampa.obj
 0001:000a80f0       _Wampa_Attack              200a90f0 f   NPC_AI_Wampa.obj
 0001:000a83b0       _Wampa_CheckRoar           200a93b0 f   NPC_AI_Wampa.obj
 0001:000a8440       _Wampa_Combat              200a9440 f   NPC_AI_Wampa.obj
 0001:000a86f0       _Wampa_Idle                200a96f0 f   NPC_AI_Wampa.obj
 0001:000a8720       _Wampa_Move                200a9720 f   NPC_AI_Wampa.obj
 0001:000a88c0       _Wampa_Patrol              200a98c0 f   NPC_AI_Wampa.obj
 0001:000a89c0       _Wampa_SetBolts            200a99c0 f   NPC_AI_Wampa.obj
 0001:000a8a90       _Wampa_Slash               200a9a90 f   NPC_AI_Wampa.obj
 0001:000a8e50       _G_StartFlee               200a9e50 f   NPC_behavior.obj
 0001:000a8e90       _NPC_BSAdvanceFight        200a9e90 f   NPC_behavior.obj
 0001:000a9440       _NPC_BSCinematic           200aa440 f   NPC_behavior.obj
 0001:000a9540       _NPC_BSEmplaced            200aa540 f   NPC_behavior.obj
 0001:000a9720       _NPC_BSFlee                200aa720 f   NPC_behavior.obj
 0001:000a9a80       _NPC_BSFollowLeader        200aaa80 f   NPC_behavior.obj
 0001:000aa2a0       _NPC_BSJump                200ab2a0 f   NPC_behavior.obj
 0001:000aa8e0       _NPC_BSNoClip              200ab8e0 f   NPC_behavior.obj
 0001:000aaac0       _NPC_BSRemove              200abac0 f   NPC_behavior.obj
 0001:000aab70       _NPC_BSSearch              200abb70 f   NPC_behavior.obj
 0001:000aaf60       _NPC_BSSearchStart         200abf60 f   NPC_behavior.obj
 0001:000ab000       _NPC_BSSleep               200ac000 f   NPC_behavior.obj
 0001:000ab030       _NPC_BSWait                200ac030 f   NPC_behavior.obj
 0001:000ab040       _NPC_BSWander              200ac040 f   NPC_behavior.obj
 0001:000ab320       _NPC_CheckSurrender        200ac320 f   NPC_behavior.obj
 0001:000ab4d0       _NPC_StartFlee             200ac4d0 f   NPC_behavior.obj
 0001:000ab750       _NPC_Surrender             200ac750 f   NPC_behavior.obj
 0001:000ab7d0       _CP_FindCombatPointWaypoints 200ac7d0 f   NPC_combat.obj
 0001:000ab820       _CanShoot                  200ac820 f   NPC_combat.obj
 0001:000ab9d0       _ChangeWeapon              200ac9d0 f   NPC_combat.obj
 0001:000abdf0       _EntIsGlass                200acdf0 f   NPC_combat.obj
 0001:000abe40       _G_AimSet                  200ace40 f   NPC_combat.obj
 0001:000abe90       _G_AngerAlert              200ace90 f   NPC_combat.obj
 0001:000abef0       _G_AttackDelay             200acef0 f   NPC_combat.obj
 0001:000ac200       _G_ClearEnemy              200ad200 f   NPC_combat.obj
 0001:000ac270       _G_ForceSaberOn            200ad270 f   NPC_combat.obj
 0001:000ac2e0       _G_SetEnemy                200ad2e0 f   NPC_combat.obj
 0001:000ac570       _G_TeamEnemy               200ad570 f   NPC_combat.obj
 0001:000ac620       _NPC_AimAdjust             200ad620 f   NPC_combat.obj
 0001:000ac6c0       _NPC_ApplyWeaponFireDelay  200ad6c0 f   NPC_combat.obj
 0001:000ac710       _NPC_CheckAttack           200ad710 f   NPC_combat.obj
 0001:000ac790       _NPC_CheckCanAttack        200ad790 f   NPC_combat.obj
 0001:000acdb0       _NPC_CheckDefend           200addb0 f   NPC_combat.obj
 0001:000ace20       _NPC_CheckEnemy            200ade20 f   NPC_combat.obj
 0001:000ad0f0       _NPC_CheckGetNewWeapon     200ae0f0 f   NPC_combat.obj
 0001:000ad2d0       _NPC_EnemyTooFar           200ae2d0 f   NPC_combat.obj
 0001:000ad370       _NPC_FindCombatPoint       200ae370 f   NPC_combat.obj
 0001:000ad9a0       _NPC_FreeCombatPoint       200ae9a0 f   NPC_combat.obj
 0001:000ad9f0       _NPC_MaxDistSquaredForWeapon 200ae9f0 f   NPC_combat.obj
 0001:000adac0       _NPC_PickEnemy             200aeac0 f   NPC_combat.obj
 0001:000ae1d0       _NPC_SearchForWeapons      200af1d0 f   NPC_combat.obj
 0001:000ae370       _NPC_SetCombatPoint        200af370 f   NPC_combat.obj
 0001:000ae3f0       _NPC_SetPickUpGoal         200af3f0 f   NPC_combat.obj
 0001:000ae4b0       _NPC_ShotEntity            200af4b0 f   NPC_combat.obj
 0001:000ae670       _SP_point_combat           200af670 f   NPC_combat.obj
 0001:000ae790       _ShootThink                200af790 f   NPC_combat.obj
 0001:000ae930       _ShotThroughGlass          200af930 f   NPC_combat.obj
 0001:000ae9d0       _ValidEnemy                200af9d0 f   NPC_combat.obj
 0001:000aea70       _WeaponThink               200afa70 f   NPC_combat.obj
 0001:000aeaf0       _G_BoundsOverlap           200afaf0 f   NPC_goal.obj
 0001:000aeb50       _NPC_ClearGoal             200afb50 f   NPC_goal.obj
 0001:000aebc0       _NPC_ReachedGoal           200afbc0 f   NPC_goal.obj
 0001:000aec00       _ReachedGoal               200afc00 f   NPC_goal.obj
 0001:000aec70       _UpdateGoal                200afc70 f   NPC_goal.obj
 0001:000aecb0       _Debug_Printf              200afcb0 f   NPC_misc.obj
 0001:000aed40       _G_UcmdMoveForDir          200afd40 f   NPC_move.obj
 0001:000aee70       _NAV_GetLastMove           200afe70 f   NPC_move.obj
 0001:000aeec0       _NPC_ApplyRoff             200afec0 f   NPC_move.obj
 0001:000aeef0       _NPC_CheckCombatMove       200afef0 f i NPC_move.obj
 0001:000aef40       _NPC_ClearPathToGoal       200aff40 f   NPC_move.obj
 0001:000af0c0       _NPC_GetMoveDirection      200b00c0 f   NPC_move.obj
 0001:000af2c0       _NPC_GetMoveDirectionAltRoute 200b02c0 f   NPC_move.obj
 0001:000af580       _NPC_GetMoveInformation    200b0580 f i NPC_move.obj
 0001:000af640       _NPC_MoveToGoal            200b0640 f   NPC_move.obj
 0001:000af7e0       _NPC_SlideMoveToGoal       200b07e0 f   NPC_move.obj
 0001:000af930       _NPC_ChoosePainAnimation   200b0930 f   NPC_reactions.obj
 0001:000afcf0       _NPC_GetPainChance         200b0cf0 f   NPC_reactions.obj
 0001:000afd90       _NPC_Pain                  200b0d90 f   NPC_reactions.obj
 0001:000b0070       _NPC_Respond               200b1070 f   NPC_reactions.obj
 0001:000b04c0       _NPC_SetPainEvent          200b14c0 f   NPC_reactions.obj
 0001:000b0550       _NPC_TempLookTarget        200b1550 f   NPC_reactions.obj
 0001:000b05b0       _NPC_Touch                 200b15b0 f   NPC_reactions.obj
 0001:000b0680       _NPC_Use                   200b1680 f   NPC_reactions.obj
 0001:000b0820       _NPC_UseResponse           200b1820 f   NPC_reactions.obj
 0001:000b08a0       _AddSightEvent             200b18a0 f   NPC_senses.obj
 0001:000b0990       _AddSoundEvent             200b1990 f   NPC_senses.obj
 0001:000b0a90       _CanSee                    200b1a90 f   NPC_senses.obj
 0001:000b0bc0       _ClearPlayerAlertEvents    200b1bc0 f   NPC_senses.obj
 0001:000b0c50       _G_CheckAlertEvents        200b1c50 f   NPC_senses.obj
 0001:000b0d30       _G_CheckForDanger          200b1d30 f   NPC_senses.obj
 0001:000b0ff0       _G_ClearLOS                200b1ff0 f   NPC_senses.obj
 0001:000b10b0       _G_ClearLOS2               200b20b0 f   NPC_senses.obj
 0001:000b10e0       _G_ClearLOS3               200b20e0 f   NPC_senses.obj
 0001:000b1140       _G_ClearLOS4               200b2140 f   NPC_senses.obj
 0001:000b11b0       _G_ClearLOS5               200b21b0 f   NPC_senses.obj
 0001:000b11e0       _InFOV                     200b21e0 f   NPC_senses.obj
 0001:000b14f0       _InFOV2                    200b24f0 f   NPC_senses.obj
 0001:000b1610       _InFOV3                    200b2610 f   NPC_senses.obj
 0001:000b16e0       _InFront                   200b26e0 f   NPC_senses.obj
 0001:000b1780       _InVisrange                200b2780 f   NPC_senses.obj
 0001:000b1800       _NPC_CheckAlertEvents      200b2800 f   NPC_senses.obj
 0001:000b1850       _NPC_CheckForDanger        200b2850 f   NPC_senses.obj
 0001:000b1870       _NPC_CheckVisibility       200b2870 f   NPC_senses.obj
 0001:000b1950       _NPC_GetHFOVPercentage     200b2950 f   NPC_senses.obj
 0001:000b19f0       _NPC_GetVFOVPercentage     200b29f0 f   NPC_senses.obj
 0001:000b1a90       _RemoveOldestAlert         200b2a90 f   NPC_senses.obj
 0001:000b1b40       _SP_target_interest        200b2b40 f   NPC_senses.obj
 0001:000b1be0       _G_AddVoiceEvent           200b2be0 f   NPC_sounds.obj
 0001:000b1ca0       _NPC_PlayConfusionSound    200b2ca0 f   NPC_sounds.obj
 0001:000b1de0       _Cmd_NPC_f                 200b2de0 f   NPC_spawn.obj
 0001:000b1f90       _NPC_Begin                 200b2f90 f   NPC_spawn.obj
 0001:000b2970       _NPC_Kill_f                200b3970 f   NPC_spawn.obj
 0001:000b2ce0       _NPC_PainFunc              200b3ce0 f   NPC_spawn.obj
 0001:000b2e00       _NPC_PrecacheType          200b3e00 f   NPC_spawn.obj
 0001:000b2e30       _NPC_PrintScore            200b3e30 f   NPC_spawn.obj
 0001:000b2e60       _NPC_SetMiscDefaultData    200b3e60 f   NPC_spawn.obj
 0001:000b3370       _NPC_SetWeapons            200b4370 f   NPC_spawn.obj
 0001:000b3440       _NPC_ShySpawn              200b4440 f   NPC_spawn.obj
 0001:000b3500       _NPC_Spawn                 200b4500 f   NPC_spawn.obj
 0001:000b3560       _NPC_SpawnType             200b4560 f   NPC_spawn.obj
 0001:000b3a80       _NPC_Spawn_Do              200b4a80 f   NPC_spawn.obj
 0001:000b4350       _NPC_Spawn_Go              200b5350 f   NPC_spawn.obj
 0001:000b4360       _NPC_Spawn_f               200b5360 f   NPC_spawn.obj
 0001:000b4400       _NPC_SpotWouldTelefrag     200b5400 f   NPC_spawn.obj
 0001:000b4520       _NPC_VehiclePrecache       200b5520 f   NPC_spawn.obj
 0001:000b4710       _NPC_VehicleSpawnUse       200b5710 f   NPC_spawn.obj
 0001:000b4750       _NPC_WeaponsForTeam        200b5750 f   NPC_spawn.obj
 0001:000b4bc0       _SP_NPC_Alora              200b5bc0 f   NPC_spawn.obj
 0001:000b4bf0       _SP_NPC_Bartender          200b5bf0 f   NPC_spawn.obj
 0001:000b4c10       _SP_NPC_BespinCop          200b5c10 f   NPC_spawn.obj
 0001:000b4c50       _SP_NPC_Cultist            200b5c50 f   NPC_spawn.obj
 0001:000b4d30       _SP_NPC_Cultist_Commando   200b5d30 f   NPC_spawn.obj
 0001:000b4d60       _SP_NPC_Cultist_Destroyer  200b5d60 f   NPC_spawn.obj
 0001:000b4d80       _SP_NPC_Cultist_Saber      200b5d80 f   NPC_spawn.obj
 0001:000b4e00       _SP_NPC_Cultist_Saber_Powers 200b5e00 f   NPC_spawn.obj
 0001:000b4e80       _SP_NPC_Desann             200b5e80 f   NPC_spawn.obj
 0001:000b4ea0       _SP_NPC_Droid_ATST         200b5ea0 f   NPC_spawn.obj
 0001:000b4ed0       _SP_NPC_Droid_Gonk         200b5ed0 f   NPC_spawn.obj
 0001:000b4ef0       _SP_NPC_Droid_Interrogator 200b5ef0 f   NPC_spawn.obj
 0001:000b4f20       _SP_NPC_Droid_Mark1        200b5f20 f   NPC_spawn.obj
 0001:000b4f40       _SP_NPC_Droid_Mark2        200b5f40 f   NPC_spawn.obj
 0001:000b4f60       _SP_NPC_Droid_Mouse        200b5f60 f   NPC_spawn.obj
 0001:000b4f80       _SP_NPC_Droid_Probe        200b5f80 f   NPC_spawn.obj
 0001:000b4fa0       _SP_NPC_Droid_Protocol     200b5fa0 f   NPC_spawn.obj
 0001:000b4fd0       _SP_NPC_Droid_R2D2         200b5fd0 f   NPC_spawn.obj
 0001:000b5000       _SP_NPC_Droid_R5D2         200b6000 f   NPC_spawn.obj
 0001:000b5030       _SP_NPC_Droid_Remote       200b6030 f   NPC_spawn.obj
 0001:000b5050       _SP_NPC_Droid_Seeker       200b6050 f   NPC_spawn.obj
 0001:000b5070       _SP_NPC_Droid_Sentry       200b6070 f   NPC_spawn.obj
 0001:000b5090       _SP_NPC_Galak              200b6090 f   NPC_spawn.obj
 0001:000b50e0       _SP_NPC_Gran               200b60e0 f   NPC_spawn.obj
 0001:000b5160       _SP_NPC_ImpWorker          200b6160 f   NPC_spawn.obj
 0001:000b51d0       _SP_NPC_Imperial           200b61d0 f   NPC_spawn.obj
 0001:000b5220       _SP_NPC_Jan                200b6220 f   NPC_spawn.obj
 0001:000b5240       _SP_NPC_Jawa               200b6240 f   NPC_spawn.obj
 0001:000b5280       _SP_NPC_Jedi               200b6280 f   NPC_spawn.obj
 0001:000b52e0       _SP_NPC_Kyle               200b62e0 f   NPC_spawn.obj
 0001:000b5300       _SP_NPC_Lando              200b6300 f   NPC_spawn.obj
 0001:000b5320       _SP_NPC_Luke               200b6320 f   NPC_spawn.obj
 0001:000b5340       _SP_NPC_MineMonster        200b6340 f   NPC_spawn.obj
 0001:000b5360       _SP_NPC_MonMothma          200b6360 f   NPC_spawn.obj
 0001:000b5380       _SP_NPC_Monster_Claw       200b6380 f   NPC_spawn.obj
 0001:000b53a0       _SP_NPC_Monster_Fish       200b63a0 f   NPC_spawn.obj
 0001:000b53c0       _SP_NPC_Monster_Flier2     200b63c0 f   NPC_spawn.obj
 0001:000b53e0       _SP_NPC_Monster_Glider     200b63e0 f   NPC_spawn.obj
 0001:000b5400       _SP_NPC_Monster_Howler     200b6400 f   NPC_spawn.obj
 0001:000b5420       _SP_NPC_Monster_Lizard     200b6420 f   NPC_spawn.obj
 0001:000b5440       _SP_NPC_Monster_Murjj      200b6440 f   NPC_spawn.obj
 0001:000b5460       _SP_NPC_Monster_Rancor     200b6460 f   NPC_spawn.obj
 0001:000b5480       _SP_NPC_Monster_Swamp      200b6480 f   NPC_spawn.obj
 0001:000b54a0       _SP_NPC_Monster_Wampa      200b64a0 f   NPC_spawn.obj
 0001:000b54d0       _SP_NPC_MorganKatarn       200b64d0 f   NPC_spawn.obj
 0001:000b54f0       _SP_NPC_Noghri             200b64f0 f   NPC_spawn.obj
 0001:000b5520       _SP_NPC_Prisoner           200b6520 f   NPC_spawn.obj
 0001:000b5560       _SP_NPC_Rebel              200b6560 f   NPC_spawn.obj
 0001:000b55a0       _SP_NPC_Reborn             200b65a0 f   NPC_spawn.obj
 0001:000b5620       _SP_NPC_Reborn_New         200b6620 f   NPC_spawn.obj
 0001:000b56b0       _SP_NPC_Reelo              200b66b0 f   NPC_spawn.obj
 0001:000b56d0       _SP_NPC_Rodian             200b66d0 f   NPC_spawn.obj
 0001:000b5710       _SP_NPC_ShadowTrooper      200b6710 f   NPC_spawn.obj
 0001:000b5760       _SP_NPC_Snowtrooper        200b6760 f   NPC_spawn.obj
 0001:000b5780       _SP_NPC_Stormtrooper       200b6780 f   NPC_spawn.obj
 0001:000b5830       _SP_NPC_StormtrooperOfficer 200b6830 f   NPC_spawn.obj
 0001:000b5850       _SP_NPC_SwampTrooper       200b6850 f   NPC_spawn.obj
 0001:000b5890       _SP_NPC_Tavion             200b6890 f   NPC_spawn.obj
 0001:000b58b0       _SP_NPC_Tavion_New         200b68b0 f   NPC_spawn.obj
 0001:000b5900       _SP_NPC_Tie_Pilot          200b6900 f   NPC_spawn.obj
 0001:000b5920       _SP_NPC_Trandoshan         200b6920 f   NPC_spawn.obj
 0001:000b5950       _SP_NPC_Tusken             200b6950 f   NPC_spawn.obj
 0001:000b5990       _SP_NPC_Ugnaught           200b6990 f   NPC_spawn.obj
 0001:000b59d0       _SP_NPC_Vehicle            200b69d0 f   NPC_spawn.obj
 0001:000b5b50       _SP_NPC_Weequay            200b6b50 f   NPC_spawn.obj
 0001:000b5be0       _SP_NPC_spawner            200b6be0 f   NPC_spawn.obj
 0001:000b5cf0       _NPC_LoadParms             200b6cf0 f   NPC_stats.obj
 0001:000b5e40       _NPC_ParseParms            200b6e40 f   NPC_stats.obj
 0001:000b8990       _NPC_Precache              200b9990 f   NPC_stats.obj
 0001:000b8f00       _NPC_PrecacheWeapons       200b9f00 f   NPC_stats.obj
 0001:000b9030       _CalcEntitySpot            200ba030 f   NPC_utils.obj
 0001:000b9540       _G_ActivateBehavior        200ba540 f   NPC_utils.obj
 0001:000b95d0       _G_GetBoltPosition         200ba5d0 f   NPC_utils.obj
 0001:000b9680       _NPC_AimWiggle             200ba680 f   NPC_utils.obj
 0001:000b97c0       _NPC_CheckCharmed          200ba7c0 f   NPC_utils.obj
 0001:000b98a0       _NPC_CheckEnemyExt         200ba8a0 f   NPC_utils.obj
 0001:000b98b0       _NPC_CheckLookTarget       200ba8b0 f   NPC_utils.obj
 0001:000b9930       _NPC_ClearLOS              200ba930 f   NPC_utils.obj
 0001:000b9950       _NPC_ClearLOS2             200ba950 f   NPC_utils.obj
 0001:000b9970       _NPC_ClearLOS3             200ba970 f   NPC_utils.obj
 0001:000b9990       _NPC_ClearLOS4             200ba990 f   NPC_utils.obj
 0001:000b99b0       _NPC_ClearLookTarget       200ba9b0 f   NPC_utils.obj
 0001:000b99f0       _NPC_FaceEnemy             200ba9f0 f   NPC_utils.obj
 0001:000b9a20       _NPC_FaceEntity            200baa20 f   NPC_utils.obj
 0001:000b9b40       _NPC_FacePosition          200bab40 f   NPC_utils.obj
 0001:000b9f00       _NPC_FindEnemy             200baf00 f   NPC_utils.obj
 0001:000b9f70       _NPC_FindNearestEnemy      200baf70 f   NPC_utils.obj
 0001:000ba190       _NPC_GetEntsNearBolt       200bb190 f   NPC_utils.obj
 0001:000ba230       _NPC_PickEnemyExt          200bb230 f   NPC_utils.obj
 0001:000ba2c0       _NPC_SetBoneAngles         200bb2c0 f   NPC_utils.obj
 0001:000ba3e0       _NPC_SetLookTarget         200bb3e0 f   NPC_utils.obj
 0001:000ba420       _NPC_SetSurfaceOnOff       200bb420 f   NPC_utils.obj
 0001:000ba4c0       _NPC_SomeoneLookingAtMe    200bb4c0 f   NPC_utils.obj
 0001:000ba550       _NPC_UpdateAngles          200bb550 f   NPC_utils.obj
 0001:000ba880       _NPC_UpdateFiringAngles    200bb880 f   NPC_utils.obj
 0001:000bab90       _NPC_UpdateShootAngles     200bbb90 f   NPC_utils.obj
 0001:000bacf0       _NPC_ValidEnemy            200bbcf0 f   NPC_utils.obj
 0001:000bae40       _AddPointToBounds          200bbe40 f   q_math.obj
 0001:000baec0       _AngleDelta                200bbec0 f   q_math.obj
 0001:000baf20       _AngleNormalize180         200bbf20 f   q_math.obj
 0001:000baf80       _AngleNormalize360         200bbf80 f   q_math.obj
 0001:000baf80       _AngleMod                  200bbf80 f   q_math.obj
 0001:000bafc0       _AngleSubtract             200bbfc0 f   q_math.obj
 0001:000bb040       _AngleVectors              200bc040 f   q_math.obj
 0001:000bb200       _AnglesSubtract            200bc200 f   q_math.obj
 0001:000bb350       _AnglesToAxis              200bc350 f   q_math.obj
 0001:000bb3b0       _DirToByte                 200bc3b0 f   q_math.obj
 0001:000bb420       _DistanceHorizontalSquared 200bc420 f   q_math.obj
 0001:000bb460       _G_FindClosestPointOnLineSegment 200bc460 f   q_math.obj
 0001:000bb940       _LerpAngle                 200bc940 f   q_math.obj
 0001:000bb9a0       _PerpendicularVector       200bc9a0 f   q_math.obj
 0001:000bbb50       _Q_fabs                    200bcb50 f   q_math.obj
 0001:000bbb60       _Q_random                  200bcb60 f   q_math.obj
 0001:000bbb90       _RadiusFromBounds          200bcb90 f   q_math.obj
 0001:000bbc50       _VectorNormalize           200bcc50 f   q_math.obj
 0001:000bbd00       _VectorNormalize2          200bcd00 f   q_math.obj
 0001:000bbdb0       _flrand                    200bcdb0 f   q_math.obj
 0001:000bbe10       _vectoangles               200bce10 f   q_math.obj
 0001:000bbf90       _COM_BeginParseSession     200bcf90 f   q_shared.obj
 0001:000bbfc0       _COM_Parse                 200bcfc0 f   q_shared.obj
 0001:000bbff0       _COM_ParseExt              200bcff0 f   q_shared.obj
 0001:000bc160       _COM_ParseFloat            200bd160 f   q_shared.obj
 0001:000bc1a0       _COM_ParseInt              200bd1a0 f   q_shared.obj
 0001:000bc1e0       _COM_ParseString           200bd1e0 f   q_shared.obj
 0001:000bc220       _COM_StripExtension        200bd220 f   q_shared.obj
 0001:000bc250       _Com_sprintf               200bd250 f   q_shared.obj
 0001:000bc310       _GetIDForString            200bd310 f   q_shared.obj
 0001:000bc360       _Info_RemoveKey            200bd360 f   q_shared.obj
 0001:000bc450       _Info_SetValueForKey       200bd450 f   q_shared.obj
 0001:000bc600       _Info_Validate             200bd600 f   q_shared.obj
 0001:000bc630       _Info_ValueForKey          200bd630 f   q_shared.obj
 0001:000bc720       _Q_CleanStr                200bd720 f   q_shared.obj
 0001:000bc770       _Q_irand                   200bd770 f   q_shared.obj
 0001:000bc790       _Q_strcat                  200bd790 f   q_shared.obj
 0001:000bc820       _Q_stricmp                 200bd820 f   q_shared.obj
 0001:000bc850       _Q_stricmpn                200bd850 f   q_shared.obj
 0001:000bc8d0       _Q_strlwr                  200bd8d0 f   q_shared.obj
 0001:000bc900       _Q_strncmp                 200bd900 f   q_shared.obj
 0001:000bc950       _Q_strncpyz                200bd950 f   q_shared.obj
 0001:000bc9b0       _Q_strrchr                 200bd9b0 f   q_shared.obj
 0001:000bc9e0       _Q_strupr                  200bd9e0 f   q_shared.obj
 0001:000bca10       _SkipBracedSection         200bda10 f   q_shared.obj
 0001:000bcb70       _SkipRestOfLine            200bdb70 f   q_shared.obj
 0001:000bcba0       _va                        200bdba0 f   q_shared.obj
 0001:000bcbf0       _AnimateRiders             200bdbf0 f   SpeederNPC.obj
 0001:000bccb0       _G_CreateSpeederNPC        200bdcb0 f   SpeederNPC.obj
 0001:000bccb0       _G_CreateWalkerNPC         200bdcb0 f   WalkerNPC.obj
 0001:000bccb0       _G_CreateAnimalNPC         200bdcb0 f   AnimalNPC.obj
 0001:000bccb0       _G_CreateFighterNPC        200bdcb0 f   FighterNPC.obj
 0001:000bccf0       _G_SetSpeederVehicleFunctions 200bdcf0 f   SpeederNPC.obj
 0001:000bd0e0       _ProcessOrientCommands     200be0e0 f   SpeederNPC.obj
 0001:000bd220       _Update                    200be220 f   SpeederNPC.obj
 0001:000bd260       _coplanar_tri_tri          200be260 f   tri_coll_test.obj
 0001:000bdb80       _tri_tri_intersect         200beb80 f   tri_coll_test.obj
 0001:000be3c0       _G_SetWalkerVehicleFunctions 200bf3c0 f   WalkerNPC.obj
 0001:000be6a0       _WalkerYawAdjust           200bf6a0 f   WalkerNPC.obj
 0001:000be770       _CanCounterThrow           200bf770 f   w_force.obj
 0001:000be8c0       _DoGripAction              200bf8c0 f   w_force.obj
 0001:000bef60       _FindGenericEnemyIndex     200bff60 f   w_force.obj
 0001:000bf0e0       _ForceAbsorb               200c00e0 f   w_force.obj
 0001:000bf440       _ForceDrain                200c0440 f   w_force.obj
 0001:000bf5b0       _ForceDrainDamage          200c05b0 f   w_force.obj
 0001:000bf7e0       _ForceGrip                 200c07e0 f   w_force.obj
 0001:000bfa90       _ForceHeal                 200c0a90 f   w_force.obj
 0001:000bfc20       _ForceJump                 200c0c20 f   w_force.obj
 0001:000bfe40       _ForceJumpCharge           200c0e40 f   w_force.obj
 0001:000c0020       _ForceLightning            200c1020 f   w_force.obj
 0001:000c01b0       _ForceLightningDamage      200c11b0 f   w_force.obj
 0001:000c03e0       _ForcePowerUsableOn        200c13e0 f   w_force.obj
 0001:000c0570       _ForceProtect              200c1570 f   w_force.obj
 0001:000c08d0       _ForceRage                 200c18d0 f   w_force.obj
 0001:000c0c70       _ForceSeeing               200c1c70 f   w_force.obj
 0001:000c0f50       _ForceShootDrain           200c1f50 f   w_force.obj
 0001:000c14e0       _ForceShootLightning       200c24e0 f   w_force.obj
 0001:000c19e0       _ForceSpeed                200c29e0 f   w_force.obj
 0001:000c1bc0       _ForceTeamForceReplenish   200c2bc0 f   w_force.obj
 0001:000c1f50       _ForceTeamHeal             200c2f50 f   w_force.obj
 0001:000c2320       _ForceTelepathy            200c3320 f   w_force.obj
 0001:000c29d0       _ForceTelepathyCheckDirectNPCTarget 200c39d0 f   w_force.obj
 0001:000c3180       _ForceThrow                200c4180 f   w_force.obj
 0001:000c4a80       _G_InGetUpAnim             200c5a80 f   w_force.obj
 0001:000c4b10       _G_IsMindTricked           200c5b10 f   w_force.obj
 0001:000c4bb0       _G_LetGoOfWall             200c5bb0 f   w_force.obj
 0001:000c4c40       _G_PreDefSound             200c5c40 f   w_force.obj
 0001:000c4c70       _G_SpecialRollGetup        200c5c70 f   w_force.obj
 0001:000c4d80       _HolocronUpdate            200c5d80 f   w_force.obj
 0001:000c4f00       _JediMasterUpdate          200c5f00 f   w_force.obj
 0001:000c5010       _Jedi_DodgeEvasion         200c6010 f   w_force.obj
 0001:000c5220       _SeekerDroneUpdate         200c6220 f   w_force.obj
 0001:000c5830       _WP_AbsorbConversion       200c6830 f   w_force.obj
 0001:000c5940       _WP_AddAsMindtricked       200c6940 f   w_force.obj
 0001:000c59b0       _WP_AddToClientBitflags    200c69b0 f   w_force.obj
 0001:000c5a20       _WP_DoSpecificPower        200c6a20 f   w_force.obj
 0001:000c5da0       _WP_ForcePowerAvailable    200c6da0 f   w_force.obj
 0001:000c5e20       _WP_ForcePowerRegenerate   200c6e20 f   w_force.obj
 0001:000c63f0       _WP_ForcePowerStart        200c73f0 f   w_force.obj
 0001:000c68c0       _WP_ForcePowerStop         200c78c0 f   w_force.obj
 0001:000c6c10       _WP_ForcePowerUsable       200c7c10 f   w_force.obj
 0001:000c6db0       _WP_ForcePowersUpdate      200c7db0 f   w_force.obj
 0001:000c7dc0       _WP_GetVelocityForForceJump 200c8dc0 f   w_force.obj
 0001:000c8040       _WP_HasForcePowers         200c9040 f   w_force.obj
 0001:000c8080       _WP_InitForcePowers        200c9080 f   w_force.obj
 0001:000c8870       _WP_SpawnInitForcePowers   200c9870 f   w_force.obj
 0001:000cbcf0       _DeadSaberThink            200cccf0 f   w_saber.obj
 0001:000cbd30       _DownedSaberThink          200ccd30 f   w_saber.obj
 0001:000ccac0       _G_CanBeEnemy              200cdac0 f   w_saber.obj
 0001:000cce00       _G_DebugBoxLines           200cde00 f   w_saber.obj
 0001:000cea50       _G_KnockawayForParry       200cfa50 f   w_saber.obj
 0001:000cf240       _G_SPSaberDamageTraceLerped 200d0240 f   w_saber.obj
 0001:000d0ac0       _HasSetSaberOnly           200d1ac0 f   w_saber.obj
 0001:000d0b10       _MakeDeadSaber             200d1b10 f   w_saber.obj
 0001:000d0dc0       _RandFloat                 200d1dc0 f   w_saber.obj
 0001:000d0ee0       _SaberBounceSound          200d1ee0 f   w_saber.obj
 0001:000d0f10       _SaberUpdateSelf           200d1f10 f   w_saber.obj
 0001:000d1500       _UpdateClientRenderBolts   200d2500 f   w_saber.obj
 0001:000d18c0       _UpdateClientRenderinfo    200d28c0 f   w_saber.obj
 0001:000d1fb0       _WP_ActivateSaber          200d2fb0 f   w_saber.obj
 0001:000d2070       _WP_DeactivateSaber        200d3070 f   w_saber.obj
 0001:000d2460       _WP_MissileBlockForBlock   200d3460 f   w_saber.obj
 0001:000d24b0       _WP_SaberAddG2Model        200d34b0 f   w_saber.obj
 0001:000d2510       _WP_SaberApplyDamage       200d3510 f   w_saber.obj
 0001:000d2760       _WP_SaberBlockNonRandom    200d3760 f   w_saber.obj
 0001:000d28f0       _WP_SaberCanBlock          200d38f0 f   w_saber.obj
 0001:000d2b10       _WP_SaberClearDamage       200d3b10 f   w_saber.obj
 0001:000d2b80       _WP_SaberDamageAdd         200d3b80 f   w_saber.obj
 0001:000d2cd0       _WP_SaberDoClash           200d3cd0 f   w_saber.obj
 0001:000d2d50       _WP_SaberInitBladeData     200d3d50 f   w_saber.obj
 0001:000d2ed0       _WP_SaberPositionUpdate    200d3ed0 f   w_saber.obj
 0001:000d4e60       _WP_SaberRemoveG2Model     200d5e60 f   w_saber.obj
 0001:000d4e80       _WP_SaberStartMissileBlockCheck 200d5e80 f   w_saber.obj
 0001:000d59e0       _WP_SabersCheckLock        200d69e0 f   w_saber.obj
 0001:000d73c0       _WP_SabersIntersect        200d83c0 f   w_saber.obj
 0001:000d7bf0       _saberBackToOwner          200d8bf0 f   w_saber.obj
 0001:000d8040       _saberCheckKnockdown_BrokenParry 200d9040 f   w_saber.obj
 0001:000d82c0       _saberCheckKnockdown_DuelLoss 200d92c0 f   w_saber.obj
 0001:000d8580       _saberCheckKnockdown_Smashed 200d9580 f   w_saber.obj
 0001:000d8630       _saberCheckKnockdown_Thrown 200d9630 f   w_saber.obj
 0001:000d8770       _saberFirstThrown          200d9770 f   w_saber.obj
 0001:000d8ba0       _saberKnockDown            200d9ba0 f   w_saber.obj
 0001:000d8ed0       _saberKnockOutOfHand       200d9ed0 f   w_saber.obj
 0001:000d9320       _saberReactivate           200da320 f   w_saber.obj
 0001:000d93b0       _thrownSaberTouch          200da3b0 f   w_saber.obj
 0001:000d94a0       __alloca_probe             200da4a0 f   LIBCMT:chkstk.obj
 0001:000d94a0       __chkstk                   200da4a0 f   LIBCMT:chkstk.obj
 0001:000d94d0       __ftol2_sse                200da4d0 f   LIBCMT:_ftol2_.obj
 0001:000d94d9       __ftol2_pentium4           200da4d9 f   LIBCMT:_ftol2_.obj
 0001:000d94ec       __ftol2_sse_excpt          200da4ec f   LIBCMT:_ftol2_.obj
 0001:000d9510       __ftol2                    200da510 f   LIBCMT:_ftol2_.obj
 0001:000d9585       ___isa_available_init      200da585 f   LIBCMT:_cpu_disp_.obj
 0001:000d9730       __ftoui3                   200da730 f   LIBCMT:_ftol3_.obj
 0001:000d973f       __ftoul3                   200da73f f   LIBCMT:_ftol3_.obj
 0001:000d974e       __ftol3                    200da74e f   LIBCMT:_ftol3_.obj
 0001:000d975b       __ftol3_NaN                200da75b f   LIBCMT:_ftol3_.obj
 0001:000d9773       __ftol3_work               200da773 f   LIBCMT:_ftol3_.obj
 0001:000d97f9       __ftol3_common             200da7f9 f   LIBCMT:_ftol3_.obj
 0001:000d98bb       __ftol3_arg_error          200da8bb f   LIBCMT:_ftol3_.obj
 0001:000d98cd       __ftol3_except             200da8cd f   LIBCMT:_ftol3_.obj
 0001:000d9911       __dtoui3                   200da911 f   LIBCMT:_ftol3_.obj
 0001:000d9920       __dtoul3                   200da920 f   LIBCMT:_ftol3_.obj
 0001:000d992f       __dtol3                    200da92f f   LIBCMT:_ftol3_.obj
 0001:000d993c       __dtol3_NaN                200da93c f   LIBCMT:_ftol3_.obj
 0001:000d9959       __dtol3_work               200da959 f   LIBCMT:_ftol3_.obj
 0001:000d9a40       __ultod3                   200daa40 f   LIBCMT:_ftol3_.obj
 0001:000d9a80       __ltod3                    200daa80 f   LIBCMT:_ftol3_.obj
 0001:000d9ab0       ___vdecl_floor2            200daab0 f   LIBCMT:_svml_dfloor2_dispatch_.obj
 0001:000d9dd7       __DllMainCRTStartup@12     200dadd7 f   LIBCMT:dll_dllmain.obj
 0001:000d9e00       ___sse2_floor2             200dae00 f   LIBCMT:_svml_dfloor2_sse2_.obj
 0001:000d9e50       ___sse4_floor2             200dae50 f   LIBCMT:_svml_dfloor2_sse4_.obj
 0001:000d9ea4       ___scrt_acquire_startup_lock 200daea4 f   LIBCMT:utility.obj
 0001:000d9ed9       ___scrt_dllmain_after_initialize_c 200daed9 f   LIBCMT:utility.obj
 0001:000d9ef1       ___scrt_dllmain_before_initialize_c 200daef1 f   LIBCMT:utility.obj
 0001:000d9eff       ___scrt_dllmain_crt_thread_attach 200daeff f   LIBCMT:utility.obj
 0001:000d9f1e       ___scrt_dllmain_crt_thread_detach 200daf1e f   LIBCMT:utility.obj
 0001:000d9f2b       ___scrt_dllmain_exception_filter 200daf2b f   LIBCMT:utility.obj
 0001:000d9f5e       ___scrt_dllmain_uninitialize_c 200daf5e f   LIBCMT:utility.obj
 0001:000d9f81       ___scrt_dllmain_uninitialize_critical 200daf81 f   LIBCMT:utility.obj
 0001:000d9f8e       ___scrt_initialize_crt     200daf8e f   LIBCMT:utility.obj
 0001:000d9fc7       ___scrt_initialize_onexit_tables 200dafc7 f   LIBCMT:utility.obj
 0001:000da05e       ___scrt_is_nonwritable_in_current_image 200db05e f   LIBCMT:utility.obj
 0001:000da0eb       ___scrt_release_startup_lock 200db0eb f   LIBCMT:utility.obj
 0001:000da108       ___scrt_uninitialize_crt   200db108 f   LIBCMT:utility.obj
 0001:000da130       __onexit                   200db130 f   LIBCMT:utility.obj
 0001:000da16b       _atexit                    200db16b f   LIBCMT:utility.obj
 0001:000da180       ___security_init_cookie    200db180 f   LIBCMT:gs_support.obj
 0001:000da21c       _DllMain@12                200db21c f   LIBCMT:dll_dllmain_stub.obj
 0001:000da222       ?__scrt_initialize_type_info@@YAXXZ 200db222 f   LIBCMT:tncleanup.obj
 0001:000da22e       ?__scrt_uninitialize_type_info@@YAXXZ 200db22e f   LIBCMT:tncleanup.obj
 0001:000da23a       ___scrt_initialize_default_local_stdio_options 200db23a f   LIBCMT:default_local_stdio_options.obj
 0001:000da257       ___scrt_get_dyn_tls_init_callback 200db257 f   LIBCMT:dyn_tls_init.obj
 0001:000da25d       ___scrt_fastfail           200db25d f   LIBCMT:utility_desktop.obj
 0001:000da378       __crt_debugger_hook        200db378 f   LIBCMT:utility_desktop.obj
 0001:000da380       __RTC_Initialize           200db380 f   LIBCMT:_initsect_.obj
 0001:000da3ab       __RTC_Terminate            200db3ab f   LIBCMT:_initsect_.obj
 0001:000da3d6       @_guard_check_icall@4      200db3d6 f i LIBCMT:checkcfg.obj
 0001:000da3e0       __SEH_prolog4              200db3e0 f   LIBCMT:_sehprolg4_.obj
 0001:000da426       __SEH_epilog4              200db426 f   LIBCMT:_sehprolg4_.obj
 0001:000da43b       ___scrt_is_ucrt_dll_in_use 200db43b f   LIBCMT:ucrt_detection.obj
 0001:000da447       @__security_check_cookie@4 200db447 f   LIBCMT:_secchk_.obj
 0001:000da458       ___raise_securityfailure   200db458 f   LIBCMT:gs_report.obj
 0001:000da480       ___report_gsfailure        200db480 f   LIBCMT:gs_report.obj
 0001:000da580       _strchr                    200db580 f   libvcruntime:strchr.obj
 0001:000da5ee       ___from_strstr_to_strchr   200db5ee     libvcruntime:strchr.obj
 0001:000da6b0       _strstr                    200db6b0 f   libvcruntime:strstr.obj
 0001:000da920       _memset                    200db920 f   libvcruntime:memset.obj
 0001:000daa80       _memcpy                    200dba80 f   libvcruntime:memcpy.obj
 0001:000db000       _memmove                   200dc000 f   libvcruntime:memmove.obj
 0001:000db5ae       ___telemetry_main_invoke_trigger 200dc5ae f   libvcruntime:telemetry.obj
 0001:000db64a       ___telemetry_main_return_trigger 200dc64a f   libvcruntime:telemetry.obj
 0001:000db6e6       ___vcrt_initialize_telemetry_provider 200dc6e6 f   libvcruntime:telemetry.obj
 0001:000db6f9       ___vcrt_uninitialize_telemetry_provider 200dc6f9 f   libvcruntime:telemetry.obj
 0001:000db750       __except_handler4          200dc750 f   libvcruntime:_chandler4_.obj
 0001:000db8aa       ___vcrt_initialize         200dc8aa f   libvcruntime:initialization.obj
 0001:000db8d8       ___vcrt_thread_attach      200dc8d8 f   libvcruntime:initialization.obj
 0001:000db8e3       ___vcrt_thread_detach      200dc8e3 f   libvcruntime:initialization.obj
 0001:000db8ee       ___vcrt_uninitialize       200dc8ee f   libvcruntime:initialization.obj
 0001:000db912       ___vcrt_uninitialize_critical 200dc912 f   libvcruntime:initialization.obj
 0001:000db91a       ___std_type_info_destroy_list 200dc91a f   libvcruntime:std_type_info.obj
 0001:000db93d       ??$__crt_fast_encode_pointer@PAP6AXXZ@@YAPAP6AXXZQAP6AXXZ@Z 200dc93d f i LIBCMT:utility.obj
 0001:000db93d       ??$__crt_fast_encode_pointer@PAX@@YAPAXQAX@Z 200dc93d f i libvcruntime:winapi_downlevel.obj
 0001:000dba7b       ___vcrt_EventRegister      200dca7b f   libvcruntime:winapi_downlevel.obj
 0001:000dbabb       ___vcrt_EventSetInformation 200dcabb f   libvcruntime:winapi_downlevel.obj
 0001:000dbafe       ___vcrt_EventUnregister    200dcafe f   libvcruntime:winapi_downlevel.obj
 0001:000dbb38       ___vcrt_EventWriteTransfer 200dcb38 f   libvcruntime:winapi_downlevel.obj
 0001:000dbb81       ___vcrt_FlsAlloc           200dcb81 f   libvcruntime:winapi_downlevel.obj
 0001:000dbbbb       ___vcrt_FlsFree            200dcbbb f   libvcruntime:winapi_downlevel.obj
 0001:000dbbf5       ___vcrt_FlsGetValue        200dcbf5 f   libvcruntime:winapi_downlevel.obj
 0001:000dbc2f       ___vcrt_FlsSetValue        200dcc2f f   libvcruntime:winapi_downlevel.obj
 0001:000dbc6c       ___vcrt_InitializeCriticalSectionEx 200dcc6c f   libvcruntime:winapi_downlevel.obj
 0001:000dbcb2       ___vcrt_initialize_winapi_thunks 200dccb2 f   libvcruntime:winapi_downlevel.obj
 0001:000dbcd6       ___vcrt_uninitialize_winapi_thunks 200dccd6 f   libvcruntime:winapi_downlevel.obj
 0001:000dbd10       __local_unwind4            200dcd10 f   libvcruntime:_exsup4_.obj
 0001:000dbde6       __seh_longjmp_unwind4@4    200dcde6 f   libvcruntime:_exsup4_.obj
 0001:000dbe0e       @_EH4_CallFilterFunc@8     200dce0e f   libvcruntime:_exsup4_.obj
 0001:000dbe25       @_EH4_TransferToHandler@8  200dce25 f   libvcruntime:_exsup4_.obj
 0001:000dbe3e       @_EH4_GlobalUnwind2@8      200dce3e f   libvcruntime:_exsup4_.obj
 0001:000dbe57       @_EH4_LocalUnwind@16       200dce57 f   libvcruntime:_exsup4_.obj
 0001:000dbe6e       ___vcrt_freefls@4          200dce6e f   libvcruntime:per_thread_data.obj
 0001:000dbe8a       ___vcrt_freeptd            200dce8a f   libvcruntime:per_thread_data.obj
 0001:000dbec0       ___vcrt_getptd_noexit      200dcec0 f   libvcruntime:per_thread_data.obj
 0001:000dbf38       ___vcrt_initialize_ptd     200dcf38 f   libvcruntime:per_thread_data.obj
 0001:000dbf6b       ___vcrt_uninitialize_ptd   200dcf6b f   libvcruntime:per_thread_data.obj
 0001:000dbf86       ___vcrt_initialize_locks   200dcf86 f   libvcruntime:locks.obj
 0001:000dbfc2       ___vcrt_uninitialize_locks 200dcfc2 f   libvcruntime:locks.obj
 0001:000dbff1       ___vcrt_initialize_pure_virtual_call_handler 200dcff1 f   libvcruntime:purevirt_data.obj
 0001:000dc010       __global_unwind2           200dd010 f   libvcruntime:_exsup_.obj
 0001:000dc075       __local_unwind2            200dd075 f   libvcruntime:_exsup_.obj
 0001:000dc0f9       __abnormal_termination     200dd0f9 f   libvcruntime:_exsup_.obj
 0001:000dc11c       __NLG_Notify1              200dd11c f   libvcruntime:_exsup_.obj
 0001:000dc125       __NLG_Notify               200dd125 f   libvcruntime:_exsup_.obj
 0001:000dc13c       __NLG_Dispatch2            200dd13c     libvcruntime:_exsup_.obj
 0001:000dc13c       __NLG_Dispatch             200dd13c     libvcruntime:_exsup_.obj
 0001:000dc144       __NLG_Call                 200dd144 f   libvcruntime:_exsup_.obj
 0001:000dc146       __NLG_Return2              200dd146     libvcruntime:_exsup_.obj
 0001:000dc147       _rand                      200dd147 f   libucrt:rand.obj
 0001:000dc168       _srand                     200dd168 f   libucrt:rand.obj
 0001:000dc180       __libm_sse2_sqrt_precise   200dd180 f   libucrt:sqrt_sse2_precise.obj
 0001:000dc280       ??$assemble_floating_point_ind@N@__crt_strtox@@YAXAAN@Z 200dd280 f i libucrt:atof.obj
 0001:000dc2af       ??$assemble_floating_point_infinity@N@__crt_strtox@@YAX_NAAN@Z 200dd2af f i libucrt:atof.obj
 0001:000dc2ee       ??$assemble_floating_point_qnan@N@__crt_strtox@@YAX_NAAN@Z 200dd2ee f i libucrt:atof.obj
 0001:000dc32d       ??$assemble_floating_point_snan@N@__crt_strtox@@YAX_NAAN@Z 200dd32d f i libucrt:atof.obj
 0001:000dc371       ??$assemble_floating_point_value_t@M@__crt_strtox@@YA?AW4SLD_STATUS@@_NH_KAAM@Z 200dd371 f i libucrt:atof.obj
 0001:000dc3a1       ??$assemble_floating_point_value_t@N@__crt_strtox@@YA?AW4SLD_STATUS@@_NH_KAAN@Z 200dd3a1 f i libucrt:atof.obj
 0001:000dc400       ??$assemble_floating_point_zero@N@__crt_strtox@@YAX_NAAN@Z 200dd400 f i libucrt:atof.obj
 0001:000dc4aa       ??$convert_decimal_string_to_floating_type@M@__crt_strtox@@YA?AW4SLD_STATUS@@ABUfloating_point_string@0@AAM@Z 200dd4aa f i libucrt:atof.obj
 0001:000dc4cd       ??$convert_decimal_string_to_floating_type@N@__crt_strtox@@YA?AW4SLD_STATUS@@ABUfloating_point_string@0@AAN@Z 200dd4cd f i libucrt:atof.obj
 0001:000dc4f0       ??$convert_hexadecimal_string_to_floating_type@M@__crt_strtox@@YA?AW4SLD_STATUS@@ABUfloating_point_string@0@AAM@Z 200dd4f0 f i libucrt:atof.obj
 0001:000dc513       ??$convert_hexadecimal_string_to_floating_type@N@__crt_strtox@@YA?AW4SLD_STATUS@@ABUfloating_point_string@0@AAN@Z 200dd513 f i libucrt:atof.obj
 0001:000dc536       ??$parse_floating_point@V?$c_string_character_source@D@__crt_strtox@@N@__crt_strtox@@YA?AW4SLD_STATUS@@QAU__crt_locale_pointers@@V?$c_string_character_source@D@0@QAN@Z 200dd536 f i libucrt:atof.obj
 0001:000dc5ac       ??$parse_floating_point_from_source@V?$c_string_character_source@D@__crt_strtox@@@__crt_strtox@@YA?AW4floating_point_parse_result@0@QAU__crt_locale_pointers@@AAV?$c_string_character_source@D@0@AAUfloating_point_string@0@@Z 200dd5ac f i libucrt:atof.obj
 0001:000dc99e       ??$parse_floating_point_possible_infinity@DV?$c_string_character_source@D@__crt_strtox@@PBD@__crt_strtox@@YA?AW4floating_point_parse_result@0@AADAAV?$c_string_character_source@D@0@PBD@Z 200dd99e f i libucrt:atof.obj
 0001:000dca4b       ??$parse_floating_point_possible_nan@DV?$c_string_character_source@D@__crt_strtox@@PBD@__crt_strtox@@YA?AW4floating_point_parse_result@0@AADAAV?$c_string_character_source@D@0@PBD@Z 200dda4b f i libucrt:atof.obj
 0001:000dcb66       ??$parse_floating_point_possible_nan_is_ind@DV?$c_string_character_source@D@__crt_strtox@@@__crt_strtox@@YA_NAADAAV?$c_string_character_source@D@0@@Z 200ddb66 f i libucrt:atof.obj
 0001:000dcba2       ??$parse_floating_point_possible_nan_is_snan@DV?$c_string_character_source@D@__crt_strtox@@@__crt_strtox@@YA_NAADAAV?$c_string_character_source@D@0@@Z 200ddba2 f i libucrt:atof.obj
 0001:000dcbde       ??$parse_floating_point_write_result@M@__crt_strtox@@YA?AW4SLD_STATUS@@W4floating_point_parse_result@0@ABUfloating_point_string@0@QAM@Z 200ddbde f i libucrt:atof.obj
 0001:000dccee       ??$parse_floating_point_write_result@N@__crt_strtox@@YA?AW4SLD_STATUS@@W4floating_point_parse_result@0@ABUfloating_point_string@0@QAN@Z 200ddcee f i libucrt:atof.obj
 0001:000dcdf2       ??0_LocaleUpdate@@QAE@QAU__crt_locale_pointers@@@Z 200dddf2 f i libucrt:atof.obj
 0001:000dce9b       ?as_double@floating_point_value@__crt_strtox@@QBEAANXZ 200dde9b f i libucrt:atof.obj
 0001:000dcec0       ?as_float@floating_point_value@__crt_strtox@@QBEAAMXZ 200ddec0 f i libucrt:atof.obj
 0001:000dcee5       ?assemble_floating_point_infinity@__crt_strtox@@YAX_NABVfloating_point_value@1@@Z 200ddee5 f i libucrt:atof.obj
 0001:000dcf1f       ?assemble_floating_point_value@__crt_strtox@@YA?AW4SLD_STATUS@@_KH_N1ABVfloating_point_value@1@@Z 200ddf1f f i libucrt:atof.obj
 0001:000dd26b       ?assemble_floating_point_value_from_big_integer@__crt_strtox@@YA?AW4SLD_STATUS@@ABUbig_integer@1@I_N1ABVfloating_point_value@1@@Z 200de26b f i libucrt:atof.obj
 0001:000dd3f9       ?assemble_floating_point_zero@__crt_strtox@@YAX_NABVfloating_point_value@1@@Z 200de3f9 f i libucrt:atof.obj
 0001:000dd42d       ?convert_decimal_string_to_floating_type_common@__crt_strtox@@YA?AW4SLD_STATUS@@ABUfloating_point_string@1@ABVfloating_point_value@1@@Z 200de42d f i libucrt:atof.obj
 0001:000df1f0       ?convert_hexadecimal_string_to_floating_type_common@__crt_strtox@@YA?AW4SLD_STATUS@@ABUfloating_point_string@1@ABVfloating_point_value@1@@Z 200e01f0 f i libucrt:atof.obj
 0001:000df29c       ?denormal_mantissa_mask@floating_point_value@__crt_strtox@@QBE_KXZ 200e029c f i libucrt:atof.obj
 0001:000df2c0       ?divide@__crt_strtox@@YA_KAAUbig_integer@1@ABU21@@Z 200e02c0 f i libucrt:atof.obj
 0001:000df76e       ?normal_mantissa_mask@floating_point_value@__crt_strtox@@QBE_KXZ 200e076e f i libucrt:atof.obj
 0001:000df785       ?unget@?$c_string_character_source@D@__crt_strtox@@QAEXD@Z 200e0785 f i libucrt:atof.obj
 0001:000df7ad       ?validate@?$c_string_character_source@D@__crt_strtox@@QBE_NXZ 200e07ad f i libucrt:atof.obj
 0001:000df7ad       ?validate@?$string_output_adapter@D@__crt_stdio_output@@QBE_NXZ 200e07ad f i libucrt:output.obj
 0001:000df7c8       __chvalidchk_l             200e07c8 f i libucrt:atof.obj
 0001:000df7f2       __ischartype_l             200e07f2 f i libucrt:atof.obj
 0001:000df825       _atof                      200e0825 f   libucrt:atof.obj
 0001:000df8b9       ??$is_overflow_condition@K@__crt_strtox@@YA_NIK@Z 200e08b9 f i libucrt:atox.obj
 0001:000df8ec       ??$is_overflow_condition@_K@__crt_strtox@@YA_NI_K@Z 200e08ec f i libucrt:atox.obj
 0001:000df92f       ??$parse_integer@KV?$c_string_character_source@D@__crt_strtox@@@__crt_strtox@@YAKQAU__crt_locale_pointers@@V?$c_string_character_source@D@0@H_N@Z 200e092f f i libucrt:atox.obj
 0001:000dfb57       ??$parse_integer@_KV?$c_string_character_source@D@__crt_strtox@@@__crt_strtox@@YA_KQAU__crt_locale_pointers@@V?$c_string_character_source@D@0@H_N@Z 200e0b57 f i libucrt:atox.obj
 0001:000dfdfd       _atoi                      200e0dfd f   libucrt:atox.obj
 0001:000dfee6       ??$make_input_adapter_character_source@V?$string_input_adapter@D@__crt_stdio_input@@@__crt_strtox@@YA?AV?$input_adapter_character_source@V?$string_input_adapter@D@__crt_stdio_input@@@0@QAV?$string_input_adapter@D@__crt_stdio_input@@_KQA_N@Z 200e0ee6 f i libucrt:input.obj
 0001:000dff04       ??$parse_floating_point@V?$input_adapter_character_source@V?$string_input_adapter@D@__crt_stdio_input@@@__crt_strtox@@M@__crt_strtox@@YA?AW4SLD_STATUS@@QAU__crt_locale_pointers@@V?$input_adapter_character_source@V?$string_input_adapter@D@__crt_stdio_input@@@0@QAM@Z 200e0f04 f i libucrt:input.obj
 0001:000dff7f       ??$parse_floating_point@V?$input_adapter_character_source@V?$string_input_adapter@D@__crt_stdio_input@@@__crt_strtox@@N@__crt_strtox@@YA?AW4SLD_STATUS@@QAU__crt_locale_pointers@@V?$input_adapter_character_source@V?$string_input_adapter@D@__crt_stdio_input@@@0@QAN@Z 200e0f7f f i libucrt:input.obj
 0001:000dfffa       ??$parse_floating_point_from_source@V?$input_adapter_character_source@V?$string_input_adapter@D@__crt_stdio_input@@@__crt_strtox@@@__crt_strtox@@YA?AW4floating_point_parse_result@0@QAU__crt_locale_pointers@@AAV?$input_adapter_character_source@V?$string_input_adapter@D@__crt_stdio_input@@@0@AAUfloating_point_string@0@@Z 200e0ffa f i libucrt:input.obj
 0001:000e0461       ??$parse_floating_point_possible_infinity@DV?$input_adapter_character_source@V?$string_input_adapter@D@__crt_stdio_input@@@__crt_strtox@@_K@__crt_strtox@@YA?AW4floating_point_parse_result@0@AADAAV?$input_adapter_character_source@V?$string_input_adapter@D@__crt_stdio_input@@@0@_K@Z 200e1461 f i libucrt:input.obj
 0001:000e0522       ??$parse_floating_point_possible_nan@DV?$input_adapter_character_source@V?$string_input_adapter@D@__crt_stdio_input@@@__crt_strtox@@_K@__crt_strtox@@YA?AW4floating_point_parse_result@0@AADAAV?$input_adapter_character_source@V?$string_input_adapter@D@__crt_stdio_input@@@0@_K@Z 200e1522 f i libucrt:input.obj
 0001:000e0634       ??$parse_floating_point_possible_nan_is_ind@DV?$input_adapter_character_source@V?$string_input_adapter@D@__crt_stdio_input@@@__crt_strtox@@@__crt_strtox@@YA_NAADAAV?$input_adapter_character_source@V?$string_input_adapter@D@__crt_stdio_input@@@0@@Z 200e1634 f i libucrt:input.obj
 0001:000e066e       ??$parse_floating_point_possible_nan_is_snan@DV?$input_adapter_character_source@V?$string_input_adapter@D@__crt_stdio_input@@@__crt_strtox@@@__crt_strtox@@YA_NAADAAV?$input_adapter_character_source@V?$string_input_adapter@D@__crt_stdio_input@@@0@@Z 200e166e f i libucrt:input.obj
 0001:000e06a8       ??$parse_integer@_KV?$input_adapter_character_source@V?$string_input_adapter@D@__crt_stdio_input@@@__crt_strtox@@@__crt_strtox@@YA_KQAU__crt_locale_pointers@@V?$input_adapter_character_source@V?$string_input_adapter@D@__crt_stdio_input@@@0@H_N@Z 200e16a8 f i libucrt:input.obj
 0001:000e0959       ??$process_floating_point_specifier_t@M@?$input_processor@DV?$string_input_adapter@D@__crt_stdio_input@@@__crt_stdio_input@@AAE_NXZ 200e1959 f i libucrt:input.obj
 0001:000e09c1       ??$process_floating_point_specifier_t@N@?$input_processor@DV?$string_input_adapter@D@__crt_stdio_input@@@__crt_stdio_input@@AAE_NXZ 200e19c1 f i libucrt:input.obj
 0001:000e0a29       ??$process_string_specifier_tchar@D@?$input_processor@DV?$string_input_adapter@D@__crt_stdio_input@@@__crt_stdio_input@@AAE_NW4conversion_mode@1@D@Z 200e1a29 f i libucrt:input.obj
 0001:000e0b8b       ??$process_string_specifier_tchar@_W@?$input_processor@DV?$string_input_adapter@D@__crt_stdio_input@@@__crt_stdio_input@@AAE_NW4conversion_mode@1@_W@Z 200e1b8b f i libucrt:input.obj
 0001:000e0cf7       ??$skip_whitespace@Vstring_input_adapter@__crt_stdio_input@@D@__crt_stdio_input@@YAHAAV?$string_input_adapter@D@0@QAU__crt_locale_pointers@@@Z 200e1cf7 f i libucrt:input.obj
 0001:000e0d26       ??$write_floating_point@M@?$input_processor@DV?$string_input_adapter@D@__crt_stdio_input@@@__crt_stdio_input@@AAE_NABM@Z 200e1d26 f i libucrt:input.obj
 0001:000e0d5d       ??$write_floating_point@N@?$input_processor@DV?$string_input_adapter@D@__crt_stdio_input@@@__crt_stdio_input@@AAE_NABN@Z 200e1d5d f i libucrt:input.obj
 0001:000e0d9a       ??0?$format_string_parser@D@__crt_stdio_input@@QAE@_KQBE@Z 200e1d9a f i libucrt:input.obj
 0001:000e0de4       ??0?$input_adapter_character_source@V?$string_input_adapter@D@__crt_stdio_input@@@__crt_strtox@@QAE@QAV?$string_input_adapter@D@__crt_stdio_input@@_KQA_N@Z 200e1de4 f i libucrt:input.obj
 0001:000e0e15       ??0?$input_processor@DV?$string_input_adapter@D@__crt_stdio_input@@@__crt_stdio_input@@QAE@ABV?$string_input_adapter@D@1@_KQBDQAU__crt_locale_pointers@@QAD@Z 200e1e15 f i libucrt:input.obj
 0001:000e0e87       ?advance@?$format_string_parser@D@__crt_stdio_input@@QAE_NXZ 200e1e87 f i libucrt:input.obj
 0001:000e0fa7       ?get@?$input_adapter_character_source@V?$string_input_adapter@D@__crt_stdio_input@@@__crt_strtox@@QAEDXZ 200e1fa7 f i libucrt:input.obj
 0001:000e0fe1       ?get@?$string_input_adapter@D@__crt_stdio_input@@QAEHXZ 200e1fe1 f i libucrt:input.obj
 0001:000e0ff7       ?invert@?$scanset_buffer@E@__crt_stdio_input@@QAEXXZ 200e1ff7 f i libucrt:input.obj
 0001:000e1015       ?is_character_allowed_in_string@?$input_processor@DV?$string_input_adapter@D@__crt_stdio_input@@@__crt_stdio_input@@ABE_NW4conversion_mode@2@H@Z 200e2015 f i libucrt:input.obj
 0001:000e105b       ?length@?$format_string_parser@D@__crt_stdio_input@@QBEIXZ 200e205b f i libucrt:input.obj
 0001:000e109c       ?process@?$input_processor@DV?$string_input_adapter@D@__crt_stdio_input@@@__crt_stdio_input@@QAEHXZ 200e209c f i libucrt:input.obj
 0001:000e1121       ?process_character_count_specifier@?$input_processor@DV?$string_input_adapter@D@__crt_stdio_input@@@__crt_stdio_input@@AAE_NXZ 200e2121 f i libucrt:input.obj
 0001:000e113b       ?process_conversion_specifier@?$input_processor@DV?$string_input_adapter@D@__crt_stdio_input@@@__crt_stdio_input@@AAE_NXZ 200e213b f i libucrt:input.obj
 0001:000e11af       ?process_floating_point_specifier@?$input_processor@DV?$string_input_adapter@D@__crt_stdio_input@@@__crt_stdio_input@@AAE_NXZ 200e21af f i libucrt:input.obj
 0001:000e11df       ?process_integer_specifier@?$input_processor@DV?$string_input_adapter@D@__crt_stdio_input@@@__crt_stdio_input@@AAE_NI_N@Z 200e21df f i libucrt:input.obj
 0001:000e1245       ?process_literal_character@?$input_processor@DV?$string_input_adapter@D@__crt_stdio_input@@@__crt_stdio_input@@AAE_NXZ 200e2245 f i libucrt:input.obj
 0001:000e127b       ?process_literal_character_tchar@?$input_processor@DV?$string_input_adapter@D@__crt_stdio_input@@@__crt_stdio_input@@AAE_ND@Z 200e227b f i libucrt:input.obj
 0001:000e12d1       ?process_state@?$input_processor@DV?$string_input_adapter@D@__crt_stdio_input@@@__crt_stdio_input@@AAE_NXZ 200e22d1 f i libucrt:input.obj
 0001:000e1307       ?process_string_specifier@?$input_processor@DV?$string_input_adapter@D@__crt_stdio_input@@@__crt_stdio_input@@AAE_NW4conversion_mode@2@@Z 200e2307 f i libucrt:input.obj
 0001:000e134f       ?process_whitespace@?$input_processor@DV?$string_input_adapter@D@__crt_stdio_input@@@__crt_stdio_input@@AAE_NXZ 200e234f f i libucrt:input.obj
 0001:000e136c       ?restore_state@?$input_adapter_character_source@V?$string_input_adapter@D@__crt_stdio_input@@@__crt_strtox@@QAE_N_K@Z 200e236c f i libucrt:input.obj
 0001:000e1391       ?scan_conversion_specifier@?$format_string_parser@D@__crt_stdio_input@@AAE_NXZ 200e2391 f i libucrt:input.obj
 0001:000e14fc       ?scan_optional_field_width@?$format_string_parser@D@__crt_stdio_input@@AAE_NXZ 200e24fc f i libucrt:input.obj
 0001:000e159b       ?scan_optional_length_modifier@?$format_string_parser@D@__crt_stdio_input@@AAEXXZ 200e259b f i libucrt:input.obj
 0001:000e16bb       ?scan_optional_literal_character_trail_bytes_tchar@?$format_string_parser@D@__crt_stdio_input@@AAE_ND@Z 200e26bb f i libucrt:input.obj
 0001:000e1710       ?scan_optional_wide_modifier@?$format_string_parser@D@__crt_stdio_input@@AAEXXZ 200e2710 f i libucrt:input.obj
 0001:000e172e       ?scan_scanset_range@?$format_string_parser@D@__crt_stdio_input@@AAE_NXZ 200e272e f i libucrt:input.obj
 0001:000e1835       ?set@?$scanset_buffer@E@__crt_stdio_input@@QAEXE@Z 200e2835 f i libucrt:input.obj
 0001:000e1860       ?set_wide_for_c_s_or_scanset@?$format_string_parser@D@__crt_stdio_input@@AAEXXZ 200e2860 f i libucrt:input.obj
 0001:000e1880       ?test@?$scanset_buffer@E@__crt_stdio_input@@QBE_NE@Z 200e2880 f i libucrt:input.obj
 0001:000e18b1       ?to_floating_point_length@__crt_stdio_input@@YAIW4length_modifier@1@@Z 200e28b1 f i libucrt:input.obj
 0001:000e18d4       ?to_integer_length@__crt_stdio_input@@YAIW4length_modifier@1@@Z 200e28d4 f i libucrt:input.obj
 0001:000e192c       ?unget@?$input_adapter_character_source@V?$string_input_adapter@D@__crt_stdio_input@@@__crt_strtox@@QAEXD@Z 200e292c f i libucrt:input.obj
 0001:000e196d       ?unget@?$string_input_adapter@D@__crt_stdio_input@@QAEXH@Z 200e296d f i libucrt:input.obj
 0001:000e198c       ?validate@?$format_string_parser@D@__crt_stdio_input@@QBE_NXZ 200e298c f i libucrt:input.obj
 0001:000e19a8       ?validate@?$input_adapter_character_source@V?$string_input_adapter@D@__crt_stdio_input@@@__crt_strtox@@QBE_NXZ 200e29a8 f i libucrt:input.obj
 0001:000e19c9       ?validate@?$string_input_adapter@D@__crt_stdio_input@@QAE_NXZ 200e29c9 f i libucrt:input.obj
 0001:000e19eb       ?write_character@?$input_processor@DV?$string_input_adapter@D@__crt_stdio_input@@@__crt_stdio_input@@AAE_NQA_WIAAPA_WAAID@Z 200e29eb f i libucrt:input.obj
 0001:000e1a5c       ?write_integer@?$input_processor@DV?$string_input_adapter@D@__crt_stdio_input@@@__crt_stdio_input@@AAE_N_K_N@Z 200e2a5c f i libucrt:input.obj
 0001:000e1ad3       ___stdio_common_vsscanf    200e2ad3 f   libucrt:input.obj
 0001:000e1b00       _atan2                     200e2b00 f   libucrt:87ctriga.obj
 0001:000e1b0a       __CIatan2                  200e2b0a f   libucrt:87ctriga.obj
 0001:000e1b20       __libm_sse2_cos_precise    200e2b20 f   libucrt:cos_sse2_precise.obj
 0001:000e1ce0       __libm_sse2_sin_precise    200e2ce0 f   libucrt:sin_sse2_precise.obj
 0001:000e1eb0       _ceil                      200e2eb0 f   libucrt:ceil_pentium4.obj
 0001:000e1ef0       __ceil_pentium4            200e2ef0 f   libucrt:ceil_pentium4.obj
 0001:000e1fd0       _floor                     200e2fd0 f   libucrt:floor_pentium4.obj
 0001:000e2010       __floor_pentium4           200e3010 f   libucrt:floor_pentium4.obj
 0001:000e20d0       _strncpy                   200e30d0 f   libucrt:strncpy.obj
 0001:000e24c2       __tolower_l                200e34c2 f   libucrt:tolower_toupper.obj
 0001:000e24dc       __toupper_l                200e34dc f   libucrt:tolower_toupper.obj
 0001:000e24f6       _tolower                   200e34f6 f   libucrt:tolower_toupper.obj
 0001:000e2526       _toupper                   200e3526 f   libucrt:tolower_toupper.obj
 0001:000e26d2       ??$count@D@formatting_buffer@__crt_stdio_output@@QBEIXZ 200e36d2 f i libucrt:output.obj
 0001:000e26ea       ??$ensure_buffer_is_big_enough@D@formatting_buffer@__crt_stdio_output@@QAE_NI@Z 200e36ea f i libucrt:output.obj
 0001:000e2770       ??$is_wide_character_specifier@D@__crt_stdio_output@@YA_N_KDW4length_modifier@0@@Z 200e3770 f i libucrt:output.obj
 0001:000e27b0       ??$scratch_data@D@formatting_buffer@__crt_stdio_output@@QAEPADXZ 200e37b0 f i libucrt:output.obj
 0001:000e27ce       ??$type_case_integer_parse_into_buffer@I@?$output_processor@DV?$string_output_adapter@D@__crt_stdio_output@@V?$standard_base@DV?$string_output_adapter@D@__crt_stdio_output@@@2@@__crt_stdio_output@@AAEXII_N@Z 200e37ce f i libucrt:output.obj
 0001:000e2843       ??$type_case_integer_parse_into_buffer@_K@?$output_processor@DV?$string_output_adapter@D@__crt_stdio_output@@V?$standard_base@DV?$string_output_adapter@D@__crt_stdio_output@@@2@@__crt_stdio_output@@AAEX_KI_N@Z 200e3843 f i libucrt:output.obj
 0001:000e28cb       ??$write_multiple_characters@V?$string_output_adapter@D@__crt_stdio_output@@D@__crt_stdio_output@@YAXABV?$string_output_adapter@D@0@DHQAH@Z 200e38cb f i libucrt:output.obj
 0001:000e28f7       ??0?$common_data@D@__crt_stdio_output@@IAE@XZ 200e38f7 f i libucrt:output.obj
 0001:000e293e       ??0?$output_adapter_data@DV?$string_output_adapter@D@__crt_stdio_output@@@__crt_stdio_output@@IAE@ABV?$string_output_adapter@D@1@_KQBDQAU__crt_locale_pointers@@QAD@Z 200e393e f i libucrt:output.obj
 0001:000e297a       ??0?$output_processor@DV?$string_output_adapter@D@__crt_stdio_output@@V?$standard_base@DV?$string_output_adapter@D@__crt_stdio_output@@@2@@__crt_stdio_output@@QAE@ABV?$string_output_adapter@D@1@_KQBDQAU__crt_locale_pointers@@QAD@Z 200e397a f i libucrt:output.obj
 0001:000e29af       ??1formatting_buffer@__crt_stdio_output@@QAE@XZ 200e39af f i libucrt:output.obj
 0001:000e29c9       ??4?$__crt_unique_heap_ptr@DU__crt_internal_free_policy@@@@QAEAAV0@$$QAV0@@Z 200e39c9 f i libucrt:output.obj
 0001:000e29ed       ?crop_zeroes@__crt_stdio_output@@YAXPADQAU__crt_locale_pointers@@@Z 200e39ed f i libucrt:output.obj
 0001:000e2a44       ?find_next_state@?$output_processor@DV?$string_output_adapter@D@__crt_stdio_output@@V?$standard_base@DV?$string_output_adapter@D@__crt_stdio_output@@@2@@__crt_stdio_output@@ABE?AW4state@2@DW432@@Z 200e3a44 f i libucrt:output.obj
 0001:000e2a76       ?force_decimal_point@__crt_stdio_output@@YAXPADQAU__crt_locale_pointers@@@Z 200e3a76 f i libucrt:output.obj
 0001:000e2ad2       ?parse_int_from_format_string@?$output_processor@DV?$string_output_adapter@D@__crt_stdio_output@@V?$standard_base@DV?$string_output_adapter@D@__crt_stdio_output@@@2@@__crt_stdio_output@@AAE_NQAH@Z 200e3ad2 f i libucrt:output.obj
 0001:000e2b2e       ?process@?$output_processor@DV?$string_output_adapter@D@__crt_stdio_output@@V?$standard_base@DV?$string_output_adapter@D@__crt_stdio_output@@@2@@__crt_stdio_output@@QAEHXZ 200e3b2e f i libucrt:output.obj
 0001:000e2c4a       ?state_case_flag@?$output_processor@DV?$string_output_adapter@D@__crt_stdio_output@@V?$standard_base@DV?$string_output_adapter@D@__crt_stdio_output@@@2@@__crt_stdio_output@@AAE_NXZ 200e3c4a f i libucrt:output.obj
 0001:000e2c87       ?state_case_normal@?$output_processor@DV?$string_output_adapter@D@__crt_stdio_output@@V?$standard_base@DV?$string_output_adapter@D@__crt_stdio_output@@@2@@__crt_stdio_output@@AAE_NXZ 200e3c87 f i libucrt:output.obj
 0001:000e2ca6       ?state_case_normal_common@?$output_processor@DV?$string_output_adapter@D@__crt_stdio_output@@V?$standard_base@DV?$string_output_adapter@D@__crt_stdio_output@@@2@@__crt_stdio_output@@AAE_NXZ 200e3ca6 f i libucrt:output.obj
 0001:000e2cd0       ?state_case_normal_tchar@?$output_processor@DV?$string_output_adapter@D@__crt_stdio_output@@V?$standard_base@DV?$string_output_adapter@D@__crt_stdio_output@@@2@@__crt_stdio_output@@AAE_ND@Z 200e3cd0 f i libucrt:output.obj
 0001:000e2d31       ?state_case_precision@?$output_processor@DV?$string_output_adapter@D@__crt_stdio_output@@V?$standard_base@DV?$string_output_adapter@D@__crt_stdio_output@@@2@@__crt_stdio_output@@AAE_NXZ 200e3d31 f i libucrt:output.obj
 0001:000e2d59       ?state_case_size@?$output_processor@DV?$string_output_adapter@D@__crt_stdio_output@@V?$standard_base@DV?$string_output_adapter@D@__crt_stdio_output@@@2@@__crt_stdio_output@@AAE_NXZ 200e3d59 f i libucrt:output.obj
 0001:000e2ec2       ?state_case_type@?$output_processor@DV?$string_output_adapter@D@__crt_stdio_output@@V?$standard_base@DV?$string_output_adapter@D@__crt_stdio_output@@@2@@__crt_stdio_output@@AAE_NXZ 200e3ec2 f i libucrt:output.obj
 0001:000e30f1       ?state_case_width@?$output_processor@DV?$string_output_adapter@D@__crt_stdio_output@@V?$standard_base@DV?$string_output_adapter@D@__crt_stdio_output@@@2@@__crt_stdio_output@@AAE_NXZ 200e40f1 f i libucrt:output.obj
 0001:000e311c       ?to_integer_size@__crt_stdio_output@@YAIW4length_modifier@1@@Z 200e411c f i libucrt:output.obj
 0001:000e3178       ?type_case_Z@?$output_processor@DV?$string_output_adapter@D@__crt_stdio_output@@V?$standard_base@DV?$string_output_adapter@D@__crt_stdio_output@@@2@@__crt_stdio_output@@AAE_NXZ 200e4178 f i libucrt:output.obj
 0001:000e31db       ?type_case_a@?$output_processor@DV?$string_output_adapter@D@__crt_stdio_output@@V?$standard_base@DV?$string_output_adapter@D@__crt_stdio_output@@@2@@__crt_stdio_output@@AAE_NXZ 200e41db f i libucrt:output.obj
 0001:000e3335       ?type_case_c_tchar@?$output_processor@DV?$string_output_adapter@D@__crt_stdio_output@@V?$standard_base@DV?$string_output_adapter@D@__crt_stdio_output@@@2@@__crt_stdio_output@@AAE_ND@Z 200e4335 f i libucrt:output.obj
 0001:000e33c5       ?type_case_integer@?$output_processor@DV?$string_output_adapter@D@__crt_stdio_output@@V?$standard_base@DV?$string_output_adapter@D@__crt_stdio_output@@@2@@__crt_stdio_output@@AAE_NI_N@Z 200e43c5 f i libucrt:output.obj
 0001:000e350f       ?type_case_n@?$output_processor@DV?$string_output_adapter@D@__crt_stdio_output@@V?$standard_base@DV?$string_output_adapter@D@__crt_stdio_output@@@2@@__crt_stdio_output@@AAE_NXZ 200e450f f i libucrt:output.obj
 0001:000e3583       ?type_case_o@?$output_processor@DV?$string_output_adapter@D@__crt_stdio_output@@V?$standard_base@DV?$string_output_adapter@D@__crt_stdio_output@@@2@@__crt_stdio_output@@AAE_NXZ 200e4583 f i libucrt:output.obj
 0001:000e35a2       ?type_case_p@?$output_processor@DV?$string_output_adapter@D@__crt_stdio_output@@V?$standard_base@DV?$string_output_adapter@D@__crt_stdio_output@@@2@@__crt_stdio_output@@AAE_NXZ 200e45a2 f i libucrt:output.obj
 0001:000e35ba       ?type_case_s@?$output_processor@DV?$string_output_adapter@D@__crt_stdio_output@@V?$standard_base@DV?$string_output_adapter@D@__crt_stdio_output@@@2@@__crt_stdio_output@@AAE_NXZ 200e45ba f i libucrt:output.obj
 0001:000e362d       ?write_character@?$string_output_adapter@D@__crt_stdio_output@@QBE_NDQAH@Z 200e462d f i libucrt:output.obj
 0001:000e366f       ?write_stored_string_tchar@?$output_processor@DV?$string_output_adapter@D@__crt_stdio_output@@V?$standard_base@DV?$string_output_adapter@D@__crt_stdio_output@@@2@@__crt_stdio_output@@AAE_ND@Z 200e466f f i libucrt:output.obj
 0001:000e3716       ?write_string@?$string_output_adapter@D@__crt_stdio_output@@QBEXQBDHQAH1@Z 200e4716 f i libucrt:output.obj
 0001:000e37a9       ___stdio_common_vsprintf   200e47a9 f   libucrt:output.obj
 0001:000e38b0       _qsort                     200e48b0 f   libucrt:qsort.obj
 0001:000e3c50       __libm_sse2_acos_precise   200e4c50 f   libucrt:acos_sse2_precise.obj
 0001:000e4170       _fmod                      200e5170 f   libucrt:87fmod.obj
 0001:000e417a       __CIfmod                   200e517a f   libucrt:87fmod.obj
 0001:000e4192       __errcode                  200e5192 f   libucrt:fpexcept.obj
 0001:000e41c6       __except1                  200e51c6 f   libucrt:fpexcept.obj
 0001:000e4294       __handle_exc               200e5294 f   libucrt:fpexcept.obj
 0001:000e4474       __raise_exc                200e5474 f   libucrt:fpexcept.obj
 0001:000e4497       __raise_exc_ex             200e5497 f   libucrt:fpexcept.obj
 0001:000e4788       __set_errno_from_matherr   200e5788 f   libucrt:fpexcept.obj
 0001:000e47b7       __umatherr                 200e57b7 f   libucrt:fpexcept.obj
 0001:000e4859       __initterm                 200e5859 f   libucrt:initterm.obj
 0001:000e48b5       __initterm_e               200e58b5 f   libucrt:initterm.obj
 0001:000e48fa       __seh_filter_dll           200e58fa f   libucrt:exception_filter.obj
 0001:000e491a       __seh_filter_exe           200e591a f   libucrt:exception_filter.obj
 0001:000e4ca8       ___acrt_initialize_thread_local_exit_callback 200e5ca8 f   libucrt:exit.obj
 0001:000e4cb7       __cexit                    200e5cb7 f   libucrt:exit.obj
 0001:000e4cc6       __exit                     200e5cc6 f   libucrt:exit.obj
 0001:000e4cdc       __is_c_termination_complete 200e5cdc f   libucrt:exit.obj
 0001:000e4e3b       ??$uninitialize@A6AXAAPAPA_W@Z@?$dual_state_global@PAPA_W@__crt_state_management@@QAEXA6AXAAPAPA_W@Z@Z 200e5e3b f i libucrt:environment_initialization.obj
 0001:000e4e3b       ??$uninitialize@A6AXAAPAPAD@Z@?$dual_state_global@PAPAD@__crt_state_management@@QAEXA6AXAAPAPAD@Z@Z 200e5e3b f i libucrt:environment_initialization.obj
 0001:000e4eb1       ___dcrt_uninitialize_environments_nolock 200e5eb1 f   libucrt:environment_initialization.obj
 0001:000e4ee8       __initialize_narrow_environment 200e5ee8 f   libucrt:environment_initialization.obj
 0001:000e4eed       ??$?RV<lambda_800076c951b434888f4765a74a194fcc>@@AAV<lambda_4e60a939b0d047cfe11ddc22648dfba9>@@V<lambda_6dbb1268764f43b569ce7b67e331d33a>@@@?$__crt_seh_guarded_call@H@@QAEH$$QAV<lambda_800076c951b434888f4765a74a194fcc>@@AAV<lambda_4e60a939b0d047cfe11ddc22648dfba9>@@$$QAV<lambda_6dbb1268764f43b569ce7b67e331d33a>@@@Z 200e5eed f i libucrt:onexit.obj
 0001:000e4f3e       ??$?RV<lambda_995298e7d72eb4c2aab26c0585b3abe5>@@AAV<lambda_275893d493268fdec8709772e3fcec0e>@@V<lambda_293819299cbf9a7022e18b56a874bb5c>@@@?$__crt_seh_guarded_call@H@@QAEH$$QAV<lambda_995298e7d72eb4c2aab26c0585b3abe5>@@AAV<lambda_275893d493268fdec8709772e3fcec0e>@@$$QAV<lambda_293819299cbf9a7022e18b56a874bb5c>@@@Z 200e5f3e f i libucrt:onexit.obj
 0001:000e4f8f       ??$__acrt_lock_and_call@V<lambda_275893d493268fdec8709772e3fcec0e>@@@@YAHW4__acrt_lock_id@@$$QAV<lambda_275893d493268fdec8709772e3fcec0e>@@@Z 200e5f8f f i libucrt:onexit.obj
 0001:000e4fb7       ??$__acrt_lock_and_call@V<lambda_4e60a939b0d047cfe11ddc22648dfba9>@@@@YAHW4__acrt_lock_id@@$$QAV<lambda_4e60a939b0d047cfe11ddc22648dfba9>@@@Z 200e5fb7 f i libucrt:onexit.obj
 0001:000e4fdf       ??$__crt_fast_encode_pointer@P6AHXZ@@YAP6AHXZQ6AHXZ@Z 200e5fdf f i libucrt:onexit.obj
 0001:000e525f       __crt_atexit               200e625f f   libucrt:onexit.obj
 0001:000e5275       __execute_onexit_table     200e6275 f   libucrt:onexit.obj
 0001:000e5292       __initialize_onexit_table  200e6292 f   libucrt:onexit.obj
 0001:000e52cf       __register_onexit_function 200e62cf f   libucrt:onexit.obj
 0001:000e53e4       ?initialize@?$dual_state_global@P6AHPAU_exception@@@Z@__crt_state_management@@QAEXQ6AHPAU_exception@@@Z@Z 200e63e4 f i libucrt:matherr.obj
 0001:000e53e4       ?initialize@?$dual_state_global@PAPAD@__crt_state_management@@QAEXQAPAD@Z 200e63e4 f i libucrt:environment_initialization.obj
 0001:000e53e4       ?initialize@?$dual_state_global@P6AHI@Z@__crt_state_management@@QAEXQ6AHI@Z@Z 200e63e4 f i libucrt:new_handler.obj
 0001:000e53e4       ?initialize@?$dual_state_global@P6AXPB_W00II@Z@__crt_state_management@@QAEXQ6AXPB_W00II@Z@Z 200e63e4 f i libucrt:invalid_parameter.obj
 0001:000e53e4       ?initialize@?$dual_state_global@P6AXH@Z@__crt_state_management@@QAEXQ6AXH@Z@Z 200e63e4 f i libucrt:signal.obj
 0001:000e53e4       ?initialize@?$dual_state_global@PAU__crt_locale_data@@@__crt_state_management@@QAEXQAU__crt_locale_data@@@Z 200e63e4 f i libucrt:initialization.obj
 0001:000e5415       ___acrt_initialize         200e6415 f   libucrt:initialization.obj
 0001:000e5427       ___acrt_thread_attach      200e6427 f   libucrt:initialization.obj
 0001:000e5432       ___acrt_thread_detach      200e6432 f   libucrt:initialization.obj
 0001:000e543a       ___acrt_uninitialize       200e643a f   libucrt:initialization.obj
 0001:000e544c       ___acrt_uninitialize_critical 200e644c f   libucrt:initialization.obj
 0001:000e545e       _terminate                 200e645e f   libucrt:terminate.obj
 0001:000e549a       __free_base                200e649a f   libucrt:free_base.obj
 0001:000e54d4       __malloc_base              200e64d4 f   libucrt:malloc_base.obj
 0001:000e5522       _strcpy_s                  200e6522 f   libucrt:strcpy_s.obj
 0001:000e557c       _abort                     200e657c f   libucrt:abort.obj
 0001:000e55bf       __calloc_base              200e65bf f   libucrt:calloc_base.obj
 0001:000e561c       ??$?RV<lambda_3518db117f0e7cdb002338c5d3c47b6c>@@AAV<lambda_b2ea41f6bbb362cd97d94c6828d90b61>@@V<lambda_abdedf541bb04549bc734292b4a045d4>@@@?$__crt_seh_guarded_call@X@@QAEX$$QAV<lambda_3518db117f0e7cdb002338c5d3c47b6c>@@AAV<lambda_b2ea41f6bbb362cd97d94c6828d90b61>@@$$QAV<lambda_abdedf541bb04549bc734292b4a045d4>@@@Z 200e661c f i libucrt:per_thread_data.obj
 0001:000e566c       ??$?RV<lambda_51b6e8b1eb166f2a3faf91f424b38130>@@AAV<lambda_6250bd4b2a391816dd638c3bf72b0bcb>@@V<lambda_0b5a4a3e68152e1d9b943535f5f47bed>@@@?$__crt_seh_guarded_call@X@@QAEX$$QAV<lambda_51b6e8b1eb166f2a3faf91f424b38130>@@AAV<lambda_6250bd4b2a391816dd638c3bf72b0bcb>@@$$QAV<lambda_0b5a4a3e68152e1d9b943535f5f47bed>@@@Z 200e666c f i libucrt:per_thread_data.obj
 0001:000e56cd       ??$?RV<lambda_5b71d36f03204c0beab531769a5b5694>@@AAV<lambda_be2b3da3f62db62e9dad5dc70221a656>@@V<lambda_8f9ce462984622f9bf76b59e2aaaf805>@@@?$__crt_seh_guarded_call@X@@QAEX$$QAV<lambda_5b71d36f03204c0beab531769a5b5694>@@AAV<lambda_be2b3da3f62db62e9dad5dc70221a656>@@$$QAV<lambda_8f9ce462984622f9bf76b59e2aaaf805>@@@Z 200e66cd f i libucrt:per_thread_data.obj
 0001:000e5718       ??$?RV<lambda_9df27f884b057bc3edfc946cb5b7cf47>@@AAV<lambda_e69574bed617af4e071282c136b37893>@@V<lambda_cc0d902bcbbeb830f749456577db4721>@@@?$__crt_seh_guarded_call@X@@QAEX$$QAV<lambda_9df27f884b057bc3edfc946cb5b7cf47>@@AAV<lambda_e69574bed617af4e071282c136b37893>@@$$QAV<lambda_cc0d902bcbbeb830f749456577db4721>@@@Z 200e6718 f i libucrt:per_thread_data.obj
 0001:000e5760       ??$__acrt_lock_and_call@V<lambda_6250bd4b2a391816dd638c3bf72b0bcb>@@@@YAXW4__acrt_lock_id@@$$QAV<lambda_6250bd4b2a391816dd638c3bf72b0bcb>@@@Z 200e6760 f i libucrt:per_thread_data.obj
 0001:000e5788       ??$__acrt_lock_and_call@V<lambda_b2ea41f6bbb362cd97d94c6828d90b61>@@@@YAXW4__acrt_lock_id@@$$QAV<lambda_b2ea41f6bbb362cd97d94c6828d90b61>@@@Z 200e6788 f i libucrt:per_thread_data.obj
 0001:000e57b0       ??$__acrt_lock_and_call@V<lambda_be2b3da3f62db62e9dad5dc70221a656>@@@@YAXW4__acrt_lock_id@@$$QAV<lambda_be2b3da3f62db62e9dad5dc70221a656>@@@Z 200e67b0 f i libucrt:per_thread_data.obj
 0001:000e57d8       ??$__acrt_lock_and_call@V<lambda_e69574bed617af4e071282c136b37893>@@@@YAXW4__acrt_lock_id@@$$QAV<lambda_e69574bed617af4e071282c136b37893>@@@Z 200e67d8 f i libucrt:per_thread_data.obj
 0001:000e598e       ___acrt_freeptd            200e698e f   libucrt:per_thread_data.obj
 0001:000e59ba       ___acrt_getptd             200e69ba f   libucrt:per_thread_data.obj
 0001:000e5a3e       ___acrt_getptd_noexit      200e6a3e f   libucrt:per_thread_data.obj
 0001:000e5ac3       ___acrt_initialize_ptd     200e6ac3 f   libucrt:per_thread_data.obj
 0001:000e5aef       ___acrt_uninitialize_ptd   200e6aef f   libucrt:per_thread_data.obj
 0001:000e5b09       ___libm_error_support      200e6b09 f   libucrt:libm_error.obj
 0001:000e5d30       __CIsqrt                   200e6d30 f   libucrt:sqrt.obj
 0001:000e5d44       _sqrt                      200e6d44     libucrt:sqrt.obj
 0001:000e5dea       ___acrt_call_reportfault   200e6dea f   libucrt:invalid_parameter.obj
 0001:000e5f25       ___acrt_initialize_invalid_parameter_handler 200e6f25 f   libucrt:invalid_parameter.obj
 0001:000e5f39       __invalid_parameter        200e6f39 f   libucrt:invalid_parameter.obj
 0001:000e5fb4       __invalid_parameter_noinfo 200e6fb4 f   libucrt:invalid_parameter.obj
 0001:000e5fc4       __invoke_watson            200e6fc4 f   libucrt:invalid_parameter.obj
 0001:000e5ff7       ___acrt_errno_from_os_error 200e6ff7 f   libucrt:errno.obj
 0001:000e603a       ___acrt_errno_map_os_error 200e703a f   libucrt:errno.obj
 0001:000e605d       ___doserrno                200e705d f   libucrt:errno.obj
 0001:000e6070       __errno                    200e7070 f   libucrt:errno.obj
 0001:000e6083       ___pctype_func             200e7083 f   libucrt:ctype.obj
 0001:000e60a9       __isctype_l                200e70a9 f   libucrt:isctype.obj
 0001:000e617b       ___acrt_update_locale_info 200e717b f   libucrt:locale_update.obj
 0001:000e61a8       ___acrt_update_multibyte_info 200e71a8 f   libucrt:locale_update.obj
 0001:000e61d5       _fegetround                200e71d5 f   libucrt:fegetround.obj
 0001:000e61e0       ___acrt_set_locale_changed 200e71e0 f   libucrt:wsetlocale.obj
 0001:000e61eb       ___acrt_uninitialize_locale 200e71eb f   libucrt:wsetlocale.obj
 0001:000e623d       __isdigit_l                200e723d f i libucrt:_ctype.obj
 0001:000e6275       __isspace_l                200e7275 f i libucrt:_ctype.obj
 0001:000e62ad       _isdigit                   200e72ad f i libucrt:_ctype.obj
 0001:000e62da       _isspace                   200e72da f i libucrt:_ctype.obj
 0001:000e6307       ??$make_c_string_character_source@DPAPAD@__crt_strtox@@YA?AV?$c_string_character_source@D@0@QBDQAPAD@Z 200e7307 f i libucrt:strtox.obj
 0001:000e6307       ??$make_c_string_character_source@D$$T@__crt_strtox@@YA?AV?$c_string_character_source@D@0@QBD$$T@Z 200e7307 f i libucrt:atof.obj
 0001:000e6322       _strtol                    200e7322 f   libucrt:strtox.obj
 0001:000e634e       _strtoull                  200e734e f   libucrt:strtox.obj
 0001:000e637a       __mbtowc_l                 200e737a f   libucrt:mbtowc.obj
 0001:000e6474       _mbtowc                    200e7474 f   libucrt:mbtowc.obj
 0001:000e648e       __wctomb_s_l               200e748e f   libucrt:wctomb.obj
 0001:000e65af       _wctomb_s                  200e75af f   libucrt:wctomb.obj
 0001:000e65cc       __fileno                   200e75cc f   libucrt:fileno.obj
 0001:000e65f2       ___acrt_initialize_stdio   200e75f2 f   libucrt:_file.obj
 0001:000e66ba       ___acrt_uninitialize_stdio 200e76ba f   libucrt:_file.obj
 0001:000e6706       __lock_file                200e7706 f   libucrt:_file.obj
 0001:000e671a       __unlock_file              200e771a f   libucrt:_file.obj
 0001:000e689a       ___acrt_initialize_lowio   200e789a f   libucrt:ioinit.obj
 0001:000e68f0       ___acrt_uninitialize_lowio 200e78f0 f   libucrt:ioinit.obj
 0001:000e693c       __fFATN2                   200e793c     libucrt:87triga.obj
 0001:000e698c       __rtpiby2                  200e798c     libucrt:87triga.obj
 0001:000e69d0       __cintrindisp2             200e79d0 f   libucrt:87cdisp.obj
 0001:000e6a14       __cintrindisp1             200e7a14 f   libucrt:87cdisp.obj
 0001:000e6a57       __ctrandisp2               200e7a57 f   libucrt:87cdisp.obj
 0001:000e6be6       __ctrandisp1               200e7be6 f   libucrt:87cdisp.obj
 0001:000e6c19       __fload                    200e7c19 f   libucrt:87cdisp.obj
 0001:000e6c60       _cos                       200e7c60 f   libucrt:cos.obj
 0001:000e6ca0       __CIcos                    200e7ca0 f   libucrt:cos.obj
 0001:000e6cdb       __CIcos_default            200e7cdb f   libucrt:cos.obj
 0001:000e6cef       __cos_default              200e7cef     libucrt:cos.obj
 0001:000e6d90       _sin                       200e7d90 f   libucrt:sin.obj
 0001:000e6dd0       __CIsin                    200e7dd0 f   libucrt:sin.obj
 0001:000e6e0b       __CIsin_default            200e7e0b f   libucrt:sin.obj
 0001:000e6e1f       __sin_default              200e7e1f     libucrt:sin.obj
 0001:000e6eb2       ___acrt_initialize_sse2    200e7eb2 f   libucrt:mathfcns.obj
 0001:000e6ec1       __ceil_default             200e7ec1 f   libucrt:ceil.obj
 0001:000e6f7a       __floor_default            200e7f7a f   libucrt:floor.obj
 0001:000e7033       __isleadbyte_l             200e8033 f i libucrt:_wctype.obj
 0001:000e7289       ___acrt_LCMapStringA       200e8289 f   libucrt:lcmapstringa.obj
 0001:000e72d4       __freea_crt                200e82d4 f i libucrt:lcmapstringa.obj
 0001:000e72f4       _strnlen                   200e82f4 f   libucrt:strnlen.obj
 0001:000e741b       _wcsnlen                   200e841b f   libucrt:strnlen.obj
 0001:000e75d2       ?__acrt_fp_classify@@YA?AW4__acrt_fp_class@@ABN@Z 200e85d2 f i libucrt:cvt.obj
 0001:000e763e       ?__acrt_fp_is_negative@@YA_NABN@Z 200e863e f i libucrt:cvt.obj
 0001:000e7e9d       ___acrt_fp_format          200e8e9d f   libucrt:cvt.obj
 0001:000e7fe7       __get_printf_count_output  200e8fe7 f   libucrt:printf_count_output.obj
 0001:000e8000       _acos                      200e9000 f   libucrt:acos.obj
 0001:000e8040       __CIacos                   200e9040 f   libucrt:acos.obj
 0001:000e807b       __CIacos_default           200e907b f   libucrt:acos.obj
 0001:000e808f       __acos_default             200e908f     libucrt:acos.obj
 0001:000e8150       __trandisp1                200e9150 f   libucrt:87disp.obj
 0001:000e81b7       __trandisp2                200e91b7 f   libucrt:87disp.obj
 0001:000e8243       __rttospopde               200e9243     libucrt:87disp.obj
 0001:000e8248       __rttospop                 200e9248     libucrt:87disp.obj
 0001:000e824a       __rtnospop                 200e924a     libucrt:87disp.obj
 0001:000e824c       __rttosnpop                200e924c     libucrt:87disp.obj
 0001:000e824d       __rtnospopde               200e924d     libucrt:87disp.obj
 0001:000e8254       __rtzeropop                200e9254     libucrt:87disp.obj
 0001:000e8256       __rtzeronpop               200e9256     libucrt:87disp.obj
 0001:000e825b       __rtzerospop               200e925b     libucrt:87disp.obj
 0001:000e8268       __rtonepop                 200e9268     libucrt:87disp.obj
 0001:000e826a       __rtonenpop                200e926a     libucrt:87disp.obj
 0001:000e826f       __tosnan1                  200e926f     libucrt:87disp.obj
 0001:000e829a       __nosnan2                  200e929a     libucrt:87disp.obj
 0001:000e829c       __tosnan2                  200e929c     libucrt:87disp.obj
 0001:000e82c4       __nan2                     200e92c4     libucrt:87disp.obj
 0001:000e8303       __rtindfpop                200e9303     libucrt:87disp.obj
 0001:000e8305       __rtindfnpop               200e9305     libucrt:87disp.obj
 0001:000e8316       __rttosnpopde              200e9316     libucrt:87disp.obj
 0001:000e8320       __rtatan2inf               200e9320     libucrt:87disp.obj
 0001:000e833d       __rtchsifneg               200e933d     libucrt:87disp.obj
 0001:000e8344       ___acrt_has_user_matherr   200e9344 f   libucrt:matherr.obj
 0001:000e835d       ___acrt_initialize_user_matherr 200e935d f   libucrt:matherr.obj
 0001:000e8371       ___acrt_invoke_user_matherr 200e9371 f   libucrt:matherr.obj
 0001:000e83ba       __decomp                   200e93ba f   libucrt:util.obj
 0001:000e848e       __set_exp                  200e948e f   libucrt:util.obj
 0001:000e84bd       __sptype                   200e94bd f   libucrt:util.obj
 0001:000e851b       __clrfp                    200e951b f   libucrt:fpctrl.obj
 0001:000e852e       __ctrlfp                   200e952e f   libucrt:fpctrl.obj
 0001:000e855a       __set_statfp               200e955a f   libucrt:fpctrl.obj
 0001:000e85b5       __statfp                   200e95b5 f   libucrt:fpctrl.obj
 0001:000e85c7       ___acrt_initialize_locks   200e95c7 f   libucrt:locks.obj
 0001:000e8608       ___acrt_lock               200e9608 f   libucrt:locks.obj
 0001:000e861f       ___acrt_uninitialize_locks 200e961f f   libucrt:locks.obj
 0001:000e8650       ___acrt_unlock             200e9650 f   libucrt:locks.obj
 0001:000e877e       ___acrt_FlsAlloc@4         200e977e f   libucrt:winapi_thunks.obj
 0001:000e87d4       ___acrt_FlsFree@4          200e97d4 f   libucrt:winapi_thunks.obj
 0001:000e882a       ___acrt_FlsGetValue@4      200e982a f   libucrt:winapi_thunks.obj
 0001:000e8880       ___acrt_FlsSetValue@8      200e9880 f   libucrt:winapi_thunks.obj
 0001:000e88d9       ___acrt_InitializeCriticalSectionEx@12 200e98d9 f   libucrt:winapi_thunks.obj
 0001:000e893b       ___acrt_LCMapStringEx@36   200e993b f   libucrt:winapi_thunks.obj
 0001:000e89c3       ___acrt_LocaleNameToLCID@8 200e99c3 f   libucrt:winapi_thunks.obj
 0001:000e8a1f       ___acrt_initialize_winapi_thunks 200e9a1f f   libucrt:winapi_thunks.obj
 0001:000e8a45       ___acrt_is_packaged_app    200e9a45 f   libucrt:winapi_thunks.obj
 0001:000e8acc       ___acrt_uninitialize_winapi_thunks 200e9acc f   libucrt:winapi_thunks.obj
 0001:000e8b02       ??$?RV<lambda_978dc153c237d78434369da87b74ff60>@@AAV<lambda_ad1ced32f4ac17aa236e5ef05d6b3b7c>@@V<lambda_4a8533e2866a575feecb8298ce776b0d>@@@?$__crt_seh_guarded_call@X@@QAEX$$QAV<lambda_978dc153c237d78434369da87b74ff60>@@AAV<lambda_ad1ced32f4ac17aa236e5ef05d6b3b7c>@@$$QAV<lambda_4a8533e2866a575feecb8298ce776b0d>@@@Z 200e9b02 f i libucrt:mbctype.obj
 0001:000e8b45       ??$__acrt_lock_and_call@V<lambda_ad1ced32f4ac17aa236e5ef05d6b3b7c>@@@@YAXW4__acrt_lock_id@@$$QAV<lambda_ad1ced32f4ac17aa236e5ef05d6b3b7c>@@@Z 200e9b45 f i libucrt:mbctype.obj
 0001:000e8fdc       ___acrt_initialize_multibyte 200e9fdc f   libucrt:mbctype.obj
 0001:000e8ffd       ___acrt_update_thread_multibyte_data 200e9ffd f   libucrt:mbctype.obj
 0001:000e909f       __setmbcp_nolock           200ea09f f   libucrt:mbctype.obj
 0001:000e92c7       ___dcrt_get_narrow_environment_from_os 200ea2c7 f   libucrt:get_environment_from_os.obj
 0001:000e934a       __recalloc                 200ea34a f   libucrt:recalloc.obj
 0001:000e9355       __recalloc_base            200ea355 f   libucrt:recalloc.obj
 0001:000e93c2       ___acrt_initialize_heap    200ea3c2 f   libucrt:heap_handle.obj
 0001:000e93d3       ___acrt_uninitialize_heap  200ea3d3 f   libucrt:heap_handle.obj
 0001:000e93dd       ___acrt_initialize_command_line 200ea3dd f   libucrt:argv_data.obj
 0001:000e93f6       ___acrt_uninitialize_command_line 200ea3f6 f   libucrt:argv_data.obj
 0001:000e93f9       ___acrt_execute_initializers 200ea3f9 f   libucrt:shared_initialization.obj
 0001:000e947c       ___acrt_execute_uninitializers 200ea47c f   libucrt:shared_initialization.obj
 0001:000e94c9       ___acrt_initialize_new_handler 200ea4c9 f   libucrt:new_handler.obj
 0001:000e94dd       __callnewh                 200ea4dd f   libucrt:new_handler.obj
 0001:000e9521       __query_new_handler        200ea521 f   libucrt:new_handler.obj
 0001:000e9573       ??$?RV<lambda_a048d3beccc847880fc8490e18b82769>@@AAV<lambda_ec61778202f4f5fc7e7711acc23c3bca>@@V<lambda_f7496a158712204296dd6628a163878e>@@@?$__crt_seh_guarded_call@P6AXH@Z@@QAEP6AXH@Z$$QAV<lambda_a048d3beccc847880fc8490e18b82769>@@AAV<lambda_ec61778202f4f5fc7e7711acc23c3bca>@@$$QAV<lambda_f7496a158712204296dd6628a163878e>@@@Z 200ea573 f i libucrt:signal.obj
 0001:000e95cd       ??$__acrt_lock_and_call@V<lambda_ec61778202f4f5fc7e7711acc23c3bca>@@@@YAP6AXH@ZW4__acrt_lock_id@@$$QAV<lambda_ec61778202f4f5fc7e7711acc23c3bca>@@@Z 200ea5cd f i libucrt:signal.obj
 0001:000e965f       ___acrt_get_sigabrt_handler 200ea65f f   libucrt:signal.obj
 0001:000e9676       ___acrt_initialize_signal_handlers 200ea676 f   libucrt:signal.obj
 0001:000e96b1       ___fpecode                 200ea6b1 f   libucrt:signal.obj
 0001:000e96ba       _raise                     200ea6ba f   libucrt:signal.obj
 0001:000e98c2       __query_new_mode           200ea8c2 f   libucrt:new_mode.obj
 0001:000e98c8       ___acrt_add_locale_ref     200ea8c8 f   libucrt:locale_refcounting.obj
 0001:000e9945       ___acrt_free_locale        200ea945 f   libucrt:locale_refcounting.obj
 0001:000e9a8f       ___acrt_locale_add_lc_time_reference 200eaa8f f   libucrt:locale_refcounting.obj
 0001:000e9ab8       ___acrt_locale_free_lc_time_if_unreferenced 200eaab8 f   libucrt:locale_refcounting.obj
 0001:000e9ae8       ___acrt_locale_release_lc_time_reference 200eaae8 f   libucrt:locale_refcounting.obj
 0001:000e9b11       ___acrt_release_locale_ref 200eab11 f   libucrt:locale_refcounting.obj
 0001:000e9b92       ___acrt_update_thread_locale_data 200eab92 f   libucrt:locale_refcounting.obj
 0001:000e9c09       __updatetlocinfoEx_nolock  200eac09 f   libucrt:locale_refcounting.obj
 0001:000e9c60       __startTwoArgErrorHandling 200eac60 f   libucrt:genexcep.obj
 0001:000e9c77       __startOneArgErrorHandling 200eac77 f   libucrt:genexcep.obj
 0001:000e9cc0       __twoToTOS                 200eacc0 f   libucrt:common.obj
 0001:000e9cd5       __load_CW                  200eacd5 f   libucrt:common.obj
 0001:000e9cec       __convertTOStoQNaN         200eacec f   libucrt:common.obj
 0001:000e9d05       __fload_withFB             200ead05 f   libucrt:common.obj
 0001:000e9d48       __checkTOS_withFB          200ead48 f   libucrt:common.obj
 0001:000e9d5e       __fast_exit                200ead5e f   libucrt:common.obj
 0001:000e9d6b       __math_exit                200ead6b f   libucrt:common.obj
 0001:000e9d95       __check_overflow_exit      200ead95 f   libucrt:common.obj
 0001:000e9da9       __check_range_exit         200eada9 f   libucrt:common.obj
 0001:000e9e4c       ___acrt_GetStringTypeA     200eae4c f   libucrt:getstringtypea.obj
 0001:000ea20c       __getfpcontrolword         200eb20c f   libucrt:_fenvutils.obj
 0001:000ea24f       __getfpstatusword          200eb24f f   libucrt:_fenvutils.obj
 0001:000ea2f7       __setfpcontrolword         200eb2f7 f   libucrt:_fenvutils.obj
 0001:000ea377       __setfpstatusword          200eb377 f   libucrt:_fenvutils.obj
 0001:000ea3f7       ___acrt_locale_free_monetary 200eb3f7 f   libucrt:initmon.obj
 0001:000ea4f5       ___acrt_locale_free_numeric 200eb4f5 f   libucrt:initnum.obj
 0001:000ea59a       ___acrt_locale_free_time   200eb59a f   libucrt:inittime.obj
 0001:000ea67e       __fcloseall                200eb67e f   libucrt:closeall.obj
 0001:000ea71e       ___acrt_stdio_flush_nolock 200eb71e f   libucrt:fflush.obj
 0001:000ea784       __fflush_nolock            200eb784 f   libucrt:fflush.obj
 0001:000ea7cb       __flushall                 200eb7cb f   libucrt:fflush.obj
 0001:000ea8ac       ___acrt_stdio_free_buffer_nolock 200eb8ac f   libucrt:_freebuf.obj
 0001:000ea8ea       ___acrt_lowio_create_handle_array 200eb8ea f   libucrt:osfinfo.obj
 0001:000ea964       ___acrt_lowio_destroy_handle_array 200eb964 f   libucrt:osfinfo.obj
 0001:000ea999       ___acrt_lowio_ensure_fh_exists 200eb999 f   libucrt:osfinfo.obj
 0001:000eaa31       ___acrt_lowio_lock_fh      200eba31 f   libucrt:osfinfo.obj
 0001:000eaa54       ___acrt_lowio_unlock_fh    200eba54 f   libucrt:osfinfo.obj
 0001:000eaa77       __free_osfhnd              200eba77 f   libucrt:osfinfo.obj
 0001:000eab08       __get_osfhandle            200ebb08 f   libucrt:osfinfo.obj
 0001:000eab72       __87except                 200ebb72 f   libucrt:87except.obj
 0001:000eac80       __CIcos_pentium4           200ebc80 f   libucrt:cos_pentium4.obj
 0001:000eac98       __cos_pentium4             200ebc98     libucrt:cos_pentium4.obj
 0001:000eae30       __CIsin_pentium4           200ebe30 f   libucrt:sin_pentium4.obj
 0001:000eae48       __sin_pentium4             200ebe48     libucrt:sin_pentium4.obj
 0001:000eaff8       __frnd                     200ebff8 f   libucrt:frnd.obj
 0001:000eb00e       ___strncnt                 200ec00e f   libucrt:strncnt.obj
 0001:000eb02a       ___acrt_fp_strflt_to_string 200ec02a f   libucrt:_fptostr.obj
 0001:000eb0e6       ??0scoped_fp_state_reset@?A0x48fbfdd4@@QAE@XZ 200ec0e6 f i libucrt:cfout.obj
 0001:000eb110       ___acrt_fltout             200ec110 f   libucrt:cfout.obj
 0001:000ec4ac       __isatty                   200ed4ac f   libucrt:isatty.obj
 0001:000ec510       __CIacos_pentium4          200ed510 f   libucrt:acos_pentium4.obj
 0001:000ec528       __acos_pentium4            200ed528     libucrt:acos_pentium4.obj
 0001:000ecb20       ___acrt_DownlevelLocaleNameToLCID 200edb20 f   libucrt:lcidtoname_downlevel.obj
 0001:000ecb5b       __msize                    200edb5b f   libucrt:msize.obj
 0001:000ecb8e       __realloc_base             200edb8e f   libucrt:realloc_base.obj
 0001:000ecbf7       __fclose_nolock            200edbf7 f   libucrt:fclose.obj
 0001:000ecc6d       _fclose                    200edc6d f   libucrt:fclose.obj
 0001:000ecced       ??$?RV<lambda_61cee617f5178ae960314fd4d05640a0>@@AAV<lambda_6978c1fb23f02e42e1d9e99668cc68aa>@@V<lambda_9cd88cf8ad10232537feb2133f08c833>@@@?$__crt_seh_guarded_call@H@@QAEH$$QAV<lambda_61cee617f5178ae960314fd4d05640a0>@@AAV<lambda_6978c1fb23f02e42e1d9e99668cc68aa>@@$$QAV<lambda_9cd88cf8ad10232537feb2133f08c833>@@@Z 200edced f i libucrt:commit.obj
 0001:000ecd85       ??$__acrt_lowio_lock_fh_and_call@V<lambda_6978c1fb23f02e42e1d9e99668cc68aa>@@@@YAHH$$QAV<lambda_6978c1fb23f02e42e1d9e99668cc68aa>@@@Z 200edd85 f i libucrt:commit.obj
 0001:000ecdad       __commit                   200eddad f   libucrt:commit.obj
 0001:000ed3ac       __write                    200ee3ac f   libucrt:write.obj
 0001:000ed497       __write_nolock             200ee497 f   libucrt:write.obj
 0001:000ed6a3       __query_app_type           200ee6a3 f   libucrt:report_runtime_error.obj
 0001:000ed6a9       _fegetenv                  200ee6a9 f   libucrt:fegetenv.obj
 0001:000ed6c6       _fesetenv                  200ee6c6 f   libucrt:fesetenv.obj
 0001:000ed70f       _feholdexcept              200ee70f f   libucrt:feholdexcept.obj
 0001:000ed760       _log10                     200ee760 f   libucrt:log10.obj
 0001:000ed7a0       __CIlog10                  200ee7a0 f   libucrt:log10.obj
 0001:000ed7db       __CIlog10_default          200ee7db f   libucrt:log10.obj
 0001:000ed7ef       __log10_default            200ee7ef     libucrt:log10.obj
 0001:000ed92e       __lseeki64_nolock          200ee92e f   libucrt:lseek.obj
 0001:000ed949       ??$?RV<lambda_123407a5e2ac06da108355a851863b7a>@@AAV<lambda_2fe9b910cf3cbf4a0ab98a02ba45b3ec>@@V<lambda_ae55bdf541ad94d75914d381c370e64d>@@@?$__crt_seh_guarded_call@H@@QAEH$$QAV<lambda_123407a5e2ac06da108355a851863b7a>@@AAV<lambda_2fe9b910cf3cbf4a0ab98a02ba45b3ec>@@$$QAV<lambda_ae55bdf541ad94d75914d381c370e64d>@@@Z 200ee949 f i libucrt:close.obj
 0001:000ed9cb       ??$__acrt_lowio_lock_fh_and_call@V<lambda_2fe9b910cf3cbf4a0ab98a02ba45b3ec>@@@@YAHH$$QAV<lambda_2fe9b910cf3cbf4a0ab98a02ba45b3ec>@@@Z 200ee9cb f i libucrt:close.obj
 0001:000ed9f3       __close                    200ee9f3 f   libucrt:close.obj
 0001:000eda72       __close_nolock             200eea72 f   libucrt:close.obj
 0001:000edb0e       ?__acrt_stdio_free_stream@@YAXV__crt_stdio_stream@@@Z 200eeb0e f   libucrt:stream.obj
 0001:000edb49       __putwch_nolock            200eeb49 f   libucrt:putwch.obj
 0001:000edb8e       __clearfp                  200eeb8e f   libucrt:ieee87.obj
 0001:000edc70       __CIlog10_pentium4         200eec70 f   libucrt:log10_pentium4.obj
 0001:000edc88       __log10_pentium4           200eec88     libucrt:log10_pentium4.obj
 0001:000edf11       __fFEXP                    200eef11     libucrt:87tran.obj
 0001:000edf68       __rtinfpopse               200eef68     libucrt:87tran.obj
 0001:000edf6a       __rtinfnpopse              200eef6a     libucrt:87tran.obj
 0001:000edf7a       __fFLN                     200eef7a     libucrt:87tran.obj
 0001:000ee02f       __rtinfpop                 200ef02f     libucrt:87tran.obj
 0001:000ee031       __rtinfnpop                200ef031     libucrt:87tran.obj
 0001:000ee04e       __ffexpm1                  200ef04e     libucrt:87tran.obj
 0001:000ee100       ___ascii_strnicmp          200ef100 f   libucrt:_strnicm.obj
 0001:000ee161       ___dcrt_lowio_initialize_console_output 200ef161 f   libucrt:initcon.obj
 0001:000ee180       ___dcrt_terminate_console_output 200ef180 f   libucrt:initcon.obj
 0001:000ee197       __d_inttype                200ef197 f   libucrt:powhlp.obj
 0001:000ee201       __powhlp                   200ef201 f   libucrt:powhlp.obj
 0001:000ee32c       __fpclass                  200ef32c f   libucrt:ieeemisc.obj
 0001:000ee3d0       _IsProcessorFeaturePresent@4 200ef3d0 f   kernel32:KERNEL32.dll
 0001:000ee3d6       _RtlUnwind@16              200ef3d6 f   kernel32:KERNEL32.dll
 0001:000ee3dc       _SystemFunction036@8       200ef3dc f   advapi32:ADVAPI32.dll
 0001:000ee3f0       __FindPESection            200ef3f0 f   LIBCMT:pesect.obj
 0001:000ee440       __IsNonwritableInCurrentImage 200ef440 f   LIBCMT:pesect.obj
 0001:000ee500       __ValidateImageBase        200ef500 f   LIBCMT:pesect.obj
 0001:000ee540       __aulldvrm                 200ef540 f   LIBCMT:ulldvrm.obj
 0001:000ee5e0       __allmul                   200ef5e0 f   LIBCMT:llmul.obj
 0001:000ee620       __allshl                   200ef620 f   LIBCMT:llshl.obj
 0001:000ee640       __aullshr                  200ef640 f   LIBCMT:ullshr.obj
 0001:000ee660       __SEH_prolog4_GS           200ef660 f   LIBCMT:_sehprolg4gs_.obj
 0001:000ee6a9       __SEH_epilog4_GS           200ef6a9 f   LIBCMT:_sehprolg4gs_.obj
 0001:000ee6c0       __alloca_probe_16          200ef6c0 f   LIBCMT:alloca16.obj
 0001:000ee6d6       __alloca_probe_8           200ef6d6     LIBCMT:alloca16.obj
 0001:000ee6f0       __alldvrm                  200ef6f0 f   LIBCMT:lldvrm.obj
 0001:000ee7d0       _strrchr                   200ef7d0 f   libvcruntime:strrchr.obj
 0002:00000000       __imp__SystemFunction036@8 200f0000     advapi32:ADVAPI32.dll
 0002:00000004       \177ADVAPI32_NULL_THUNK_DATA 200f0004     advapi32:ADVAPI32.dll
 0002:00000008       __imp__GetCurrentProcessId@0 200f0008     kernel32:KERNEL32.dll
 0002:0000000c       __imp__GetCurrentThreadId@0 200f000c     kernel32:KERNEL32.dll
 0002:00000010       __imp__GetSystemTimeAsFileTime@4 200f0010     kernel32:KERNEL32.dll
 0002:00000014       __imp__InitializeSListHead@4 200f0014     kernel32:KERNEL32.dll
 0002:00000018       __imp__IsDebuggerPresent@0 200f0018     kernel32:KERNEL32.dll
 0002:0000001c       __imp__UnhandledExceptionFilter@4 200f001c     kernel32:KERNEL32.dll
 0002:00000020       __imp__SetUnhandledExceptionFilter@4 200f0020     kernel32:KERNEL32.dll
 0002:00000024       __imp__GetStartupInfoW@4   200f0024     kernel32:KERNEL32.dll
 0002:00000028       __imp__GetModuleHandleW@4  200f0028     kernel32:KERNEL32.dll
 0002:0000002c       __imp__GetCurrentProcess@0 200f002c     kernel32:KERNEL32.dll
 0002:00000030       __imp__TerminateProcess@8  200f0030     kernel32:KERNEL32.dll
 0002:00000034       __imp__GetLastError@0      200f0034     kernel32:KERNEL32.dll
 0002:00000038       __imp__GetModuleFileNameW@12 200f0038     kernel32:KERNEL32.dll
 0002:0000003c       __imp__InterlockedFlushSList@4 200f003c     kernel32:KERNEL32.dll
 0002:00000040       __imp__InitializeCriticalSectionAndSpinCount@8 200f0040     kernel32:KERNEL32.dll
 0002:00000044       __imp__TlsAlloc@0          200f0044     kernel32:KERNEL32.dll
 0002:00000048       __imp__TlsGetValue@4       200f0048     kernel32:KERNEL32.dll
 0002:0000004c       __imp__TlsSetValue@8       200f004c     kernel32:KERNEL32.dll
 0002:00000050       __imp__TlsFree@4           200f0050     kernel32:KERNEL32.dll
 0002:00000054       __imp__FreeLibrary@4       200f0054     kernel32:KERNEL32.dll
 0002:00000058       __imp__GetProcAddress@8    200f0058     kernel32:KERNEL32.dll
 0002:0000005c       __imp__LoadLibraryExW@12   200f005c     kernel32:KERNEL32.dll
 0002:00000060       __imp__RtlUnwind@16        200f0060     kernel32:KERNEL32.dll
 0002:00000064       __imp__SetLastError@4      200f0064     kernel32:KERNEL32.dll
 0002:00000068       __imp__EnterCriticalSection@4 200f0068     kernel32:KERNEL32.dll
 0002:0000006c       __imp__LeaveCriticalSection@4 200f006c     kernel32:KERNEL32.dll
 0002:00000070       __imp__DeleteCriticalSection@4 200f0070     kernel32:KERNEL32.dll
 0002:00000074       __imp__RaiseException@16   200f0074     kernel32:KERNEL32.dll
 0002:00000078       __imp__ExitProcess@4       200f0078     kernel32:KERNEL32.dll
 0002:0000007c       __imp__GetModuleHandleExW@12 200f007c     kernel32:KERNEL32.dll
 0002:00000080       __imp__MultiByteToWideChar@24 200f0080     kernel32:KERNEL32.dll
 0002:00000084       __imp__WideCharToMultiByte@32 200f0084     kernel32:KERNEL32.dll
 0002:00000088       __imp__HeapFree@12         200f0088     kernel32:KERNEL32.dll
 0002:0000008c       __imp__HeapAlloc@12        200f008c     kernel32:KERNEL32.dll
 0002:00000090       __imp__DecodePointer@4     200f0090     kernel32:KERNEL32.dll
 0002:00000094       __imp__GetStringTypeW@16   200f0094     kernel32:KERNEL32.dll
 0002:00000098       __imp__QueryPerformanceCounter@4 200f0098     kernel32:KERNEL32.dll
 0002:0000009c       __imp__GetStdHandle@4      200f009c     kernel32:KERNEL32.dll
 0002:000000a0       __imp__GetFileType@4       200f00a0     kernel32:KERNEL32.dll
 0002:000000a4       __imp__LCMapStringW@24     200f00a4     kernel32:KERNEL32.dll
 0002:000000a8       __imp__IsValidCodePage@4   200f00a8     kernel32:KERNEL32.dll
 0002:000000ac       __imp__GetOEMCP@0          200f00ac     kernel32:KERNEL32.dll
 0002:000000b0       __imp__GetCPInfo@8         200f00b0     kernel32:KERNEL32.dll
 0002:000000b4       __imp__GetEnvironmentStringsW@0 200f00b4     kernel32:KERNEL32.dll
 0002:000000b8       __imp__FreeEnvironmentStringsW@4 200f00b8     kernel32:KERNEL32.dll
 0002:000000bc       __imp__GetProcessHeap@0    200f00bc     kernel32:KERNEL32.dll
 0002:000000c0       __imp__GetCommandLineA@0   200f00c0     kernel32:KERNEL32.dll
 0002:000000c4       __imp__GetCommandLineW@0   200f00c4     kernel32:KERNEL32.dll
 0002:000000c8       __imp__SetStdHandle@8      200f00c8     kernel32:KERNEL32.dll
 0002:000000cc       __imp__HeapSize@12         200f00cc     kernel32:KERNEL32.dll
 0002:000000d0       __imp__HeapReAlloc@16      200f00d0     kernel32:KERNEL32.dll
 0002:000000d4       __imp__GetConsoleMode@8    200f00d4     kernel32:KERNEL32.dll
 0002:000000d8       __imp__FlushFileBuffers@4  200f00d8     kernel32:KERNEL32.dll
 0002:000000dc       __imp__WriteFile@20        200f00dc     kernel32:KERNEL32.dll
 0002:000000e0       __imp__GetConsoleCP@0      200f00e0     kernel32:KERNEL32.dll
 0002:000000e4       __imp__SetFilePointerEx@20 200f00e4     kernel32:KERNEL32.dll
 0002:000000e8       __imp__CloseHandle@4       200f00e8     kernel32:KERNEL32.dll
 0002:000000ec       __imp__WriteConsoleW@20    200f00ec     kernel32:KERNEL32.dll
 0002:000000f0       __imp__CreateFileW@28      200f00f0     kernel32:KERNEL32.dll
 0002:000000f4       __imp__GetACP@0            200f00f4     kernel32:KERNEL32.dll
 0002:000000f8       __imp__IsProcessorFeaturePresent@4 200f00f8     kernel32:KERNEL32.dll
 0002:000000fc       \177KERNEL32_NULL_THUNK_DATA 200f00fc     kernel32:KERNEL32.dll
 0002:00000100       ___guard_check_icall_fptr  200f0100     LIBCMT:guard_support.obj
 0002:00000104       ___xc_a                    200f0104     LIBCMT:initializers.obj
 0002:00000108       ___xc_z                    200f0108     LIBCMT:initializers.obj
 0002:0000010c       ___xi_a                    200f010c     LIBCMT:initializers.obj
 0002:00000110       ___acrt_stdio_initializer  200f0110     libucrt:stdio_initializer.obj
 0002:00000114       ___acrt_tran_sse2_initializer 200f0114     libucrt:sse2_initializer.obj
 0002:00000118       ___acrt_multibyte_initializer 200f0118     libucrt:multibyte_initializer.obj
 0002:0000011c       ___xi_z                    200f011c     LIBCMT:initializers.obj
 0002:00000120       ___xp_a                    200f0120     LIBCMT:initializers.obj
 0002:00000124       ___acrt_locale_terminator  200f0124     libucrt:locale_initializer.obj
 0002:00000128       ___dcrt_console_output_terminator 200f0128     libucrt:console_output_initializer.obj
 0002:0000012c       ___acrt_stdio_terminator   200f012c     libucrt:stdio_initializer.obj
 0002:00000130       ___xp_z                    200f0130     LIBCMT:initializers.obj
 0002:00000134       ___xt_a                    200f0134     LIBCMT:initializers.obj
 0002:00000138       ___xt_z                    200f0138     LIBCMT:initializers.obj
 0002:00000140       ??_C@_0O@HEICDJLP@CTFSTATE_NONE?$AA@ 200f0140     ai_main.obj
 0002:00000150       ??_C@_0BC@DLLLCBFN@CTFSTATE_ATTACKER?$AA@ 200f0150     ai_main.obj
 0002:00000164       ??_C@_0BC@KBOEOLB@CTFSTATE_DEFENDER?$AA@ 200f0164     ai_main.obj
 0002:00000178       ??_C@_0BD@CKFOAELE@CTFSTATE_RETRIEVAL?$AA@ 200f0178     ai_main.obj
 0002:0000018c       ??_C@_0BG@IHHCANKB@CTFSTATE_GUARDCARRIER?$AA@ 200f018c     ai_main.obj
 0002:000001a4       ??_C@_0BF@HMJPJPGP@CTFSTATE_GETFLAGHOME?$AA@ 200f01a4     ai_main.obj
 0002:000001bc       ??_C@_0BG@PBPENMCC@CTFSTATE_MAXCTFSTATES?$AA@ 200f01bc     ai_main.obj
 0002:000001d4       ??_C@_0BB@PAHJPIGL@I?8m?5not?5occupied?$AA@ 200f01d4     ai_main.obj
 0002:000001e8       ??_C@_0BP@LPOLBPPI@I?8m?5attacking?5the?5enemy?8s?5base?$AA@ 200f01e8     ai_main.obj
 0002:00000208       ??_C@_0BH@EIOOKFAP@I?8m?5defending?5our?5base?$AA@ 200f0208     ai_main.obj
 0002:00000220       ??_C@_0BK@KMGAFOMB@I?8m?5getting?5our?5flag?5back?$AA@ 200f0220     ai_main.obj
 0002:0000023c       ??_C@_0BP@DPAAPNN@I?8m?5escorting?5our?5flag?5carrier?$AA@ 200f023c     ai_main.obj
 0002:0000025c       ??_C@_0BK@IJFHNMND@I?8ve?5got?5the?5enemy?8s?5flag?$AA@ 200f025c     ai_main.obj
 0002:00000278       ??_C@_0DB@KCABENBD@I?8m?5attemtping?5to?5complete?5the?5c@ 200f0278     ai_main.obj
 0002:000002ac       ??_C@_0DJ@KHDOOLND@I?8m?5preventing?5the?5enemy?5from?5co@ 200f02ac     ai_main.obj
 0002:000002e8       ??_C@_0CB@LHPHOKPL@I?8m?5following?5my?5squad?5commander@ 200f02e8     ai_main.obj
 0002:0000030c       ??_C@_0BM@ONBPMKCA@I?8m?5assisting?5my?5commanding?$AA@ 200f030c     ai_main.obj
 0002:00000328       ??_C@_0CP@FFBNGCID@I?8m?5attempting?5to?5regroup?5and?5fo@ 200f0328     ai_main.obj
 0002:00000358       ??_C@_03DGFNDEPM@cp?5?$AA@ 200f0358     ai_main.obj
 0002:0000035c       ??_C@_02EODNHJKB@cs?$AA@   200f035c     ai_main.obj
 0002:00000360       ??_C@_06KBCJDMLG@scores?$AA@ 200f0360     ai_main.obj
 0002:00000368       ??_C@_0BA@GNMFKLDC@clientLevelShot?$AA@ 200f0368     ai_main.obj
 0002:00000378       ??_C@_0BB@OJCKABLF@GeneralGreetings?$AA@ 200f0378     ai_main.obj
 0002:0000038c       ??_C@_05NOJGJHG@func_?$AA@ 200f038c     ai_main.obj
 0002:00000394       ??_C@_0BH@BGHKMCMA@LovedOneKilledLovedOne?$AA@ 200f0394     ai_main.obj
 0002:000003ac       ??_C@_06FEDGEOBA@Hatred?$AA@ 200f03ac     ai_main.obj
 0002:000003b4       ??_C@_0O@MBHBAKKF@BelovedKilled?$AA@ 200f03b4     ai_main.obj
 0002:000003c4       ??_C@_0BC@FHPIICJP@ResponseGreetings?$AA@ 200f03c4     ai_main.obj
 0002:000003d8       ??_C@_05FAPHKBON@freed?$AA@ 200f03d8     ai_main.obj
 0002:000003e0       ??_C@_07DBJBBFPO@detpack?$AA@ 200f03e0     ai_main.obj
 0002:000003e8       ??_C@_04JNANOJIK@Died?$AA@ 200f03e8     ai_main.obj
 0002:000003f0       ??_C@_0BG@DBJDPADA@KilledOnPurposeByLove?$AA@ 200f03f0     ai_main.obj
 0002:00000408       ??_C@_0P@JCCFAGGL@KilledHatedOne?$AA@ 200f0408     ai_main.obj
 0002:00000418       ??_C@_06GJNLCKAP@Killed?$AA@ 200f0418     ai_main.obj
 0002:00000420       ??_C@_01HIHLOKLC@1?$AA@    200f0420     ai_main.obj
 0002:00000424       ??_C@_0BA@GMJHGJGG@bot_forcepowers?$AA@ 200f0424     ai_main.obj
 0002:00000434       ??_C@_01GBGANLPD@0?$AA@    200f0434     ai_main.obj
 0002:00000438       ??_C@_0P@PBNJHIHP@bot_forgimmick?$AA@ 200f0438     ai_main.obj
 0002:00000448       ??_C@_0BM@FPHAOOCP@bot_honorableduelacceptance?$AA@ 200f0448     ai_main.obj
 0002:00000464       ??_C@_0M@CJGGFHPJ@bot_pvstype?$AA@ 200f0464     ai_main.obj
 0002:00000470       ??_C@_0BC@PBFKODBL@bot_getinthecarrr?$AA@ 200f0470     ai_main.obj
 0002:00000484       ??_C@_0BA@KAAKNOND@bot_attachments?$AA@ 200f0484     ai_main.obj
 0002:00000494       ??_C@_08LFGPACAA@bot_camp?$AA@ 200f0494     ai_main.obj
 0002:000004a0       ??_C@_0M@IHOHKFMK@bot_wp_info?$AA@ 200f04a0     ai_main.obj
 0002:000004ac       ??_C@_0M@IPMACEAI@bot_wp_edit?$AA@ 200f04ac     ai_main.obj
 0002:000004b8       ??_C@_0BD@PKKPPOKJ@bot_wp_clearweight?$AA@ 200f04b8     ai_main.obj
 0002:000004cc       ??_C@_0BD@KJBMKFFA@bot_wp_distconnect?$AA@ 200f04cc     ai_main.obj
 0002:000004e0       ??_C@_0BC@KNHEDFAF@bot_wp_visconnect?$AA@ 200f04e0     ai_main.obj
 0002:000004f4       __real@00000000            200f04f4     ai_main.obj
 0002:000004f8       __real@3a83126f            200f04f8     ai_main.obj
 0002:000004fc       __real@3e800000            200f04fc     ai_main.obj
 0002:00000500       __real@3eb33333            200f0500     ai_main.obj
 0002:00000504       __real@3ecccccd            200f0504     ai_main.obj
 0002:00000508       __real@3ee66666            200f0508     ai_main.obj
 0002:0000050c       __real@3f000000            200f050c     ai_main.obj
 0002:00000510       __real@3f19999a            200f0510     ai_main.obj
 0002:00000514       __real@3f333333            200f0514     ai_main.obj
 0002:00000518       __real@3f4ccccd            200f0518     ai_main.obj
 0002:00000520       __real@3f50624dd2f1a9fc    200f0520     ai_main.obj
 0002:00000528       __real@3f53a92a30553261    200f0528     ai_main.obj
 0002:00000530       __real@3f76800000000000    200f0530     ai_main.obj
 0002:00000538       __real@3f800000            200f0538     ai_main.obj
 0002:00000540       __real@3fc3333333333333    200f0540     ai_main.obj
 0002:00000548       __real@3fd0000000000000    200f0548     ai_main.obj
 0002:00000550       __real@3fd3333333333333    200f0550     ai_main.obj
 0002:00000558       __real@3fdccccccccccccd    200f0558     ai_main.obj
 0002:00000560       __real@3fe0000000000000    200f0560     ai_main.obj
 0002:00000568       __real@3feccccccccccccd    200f0568     ai_main.obj
 0002:00000570       __real@40000000            200f0570     ai_main.obj
 0002:00000574       __real@40400000            200f0574     ai_main.obj
 0002:00000578       __real@4076800000000000    200f0578     ai_main.obj
 0002:00000580       __real@40800000            200f0580     ai_main.obj
 0002:00000588       __real@40bf400000000000    200f0588     ai_main.obj
 0002:00000590       __real@40e00000            200f0590     ai_main.obj
 0002:00000594       __real@41000000            200f0594     ai_main.obj
 0002:00000598       __real@41800000            200f0598     ai_main.obj
 0002:0000059c       __real@41f00000            200f059c     ai_main.obj
 0002:000005a0       __real@41f80000            200f05a0     ai_main.obj
 0002:000005a4       __real@42000000            200f05a4     ai_main.obj
 0002:000005a8       __real@42200000            200f05a8     ai_main.obj
 0002:000005ac       __real@42240000            200f05ac     ai_main.obj
 0002:000005b0       __real@42580000            200f05b0     ai_main.obj
 0002:000005b4       __real@42600000            200f05b4     ai_main.obj
 0002:000005b8       __real@42700000            200f05b8     ai_main.obj
 0002:000005bc       __real@42800000            200f05bc     ai_main.obj
 0002:000005c0       __real@42960000            200f05c0     ai_main.obj
 0002:000005c4       __real@42a00000            200f05c4     ai_main.obj
 0002:000005c8       __real@42b40000            200f05c8     ai_main.obj
 0002:000005cc       __real@42c80000            200f05cc     ai_main.obj
 0002:000005d0       __real@42fe0000            200f05d0     ai_main.obj
 0002:000005d4       __real@43000000            200f05d4     ai_main.obj
 0002:000005d8       __real@43200000            200f05d8     ai_main.obj
 0002:000005dc       __real@43340000            200f05dc     ai_main.obj
 0002:000005e0       __real@43400000            200f05e0     ai_main.obj
 0002:000005e4       __real@43480000            200f05e4     ai_main.obj
 0002:000005e8       __real@437a0000            200f05e8     ai_main.obj
 0002:000005ec       __real@43800000            200f05ec     ai_main.obj
 0002:000005f0       __real@43960000            200f05f0     ai_main.obj
 0002:000005f4       __real@43af0000            200f05f4     ai_main.obj
 0002:000005f8       __real@43b40000            200f05f8     ai_main.obj
 0002:000005fc       __real@43c80000            200f05fc     ai_main.obj
 0002:00000600       __real@44000000            200f0600     ai_main.obj
 0002:00000604       __real@44160000            200f0604     ai_main.obj
 0002:00000608       __real@442f0000            200f0608     ai_main.obj
 0002:0000060c       __real@44480000            200f060c     ai_main.obj
 0002:00000610       __real@447a0000            200f0610     ai_main.obj
 0002:00000614       __real@44800000            200f0614     ai_main.obj
 0002:00000618       __real@44bb8000            200f0618     ai_main.obj
 0002:0000061c       __real@44fa0000            200f061c     ai_main.obj
 0002:00000620       __real@45000000            200f0620     ai_main.obj
 0002:00000624       __real@457a0000            200f0624     ai_main.obj
 0002:00000628       __real@45800000            200f0628     ai_main.obj
 0002:0000062c       __real@459c4000            200f062c     ai_main.obj
 0002:00000630       __real@45dac000            200f0630     ai_main.obj
 0002:00000634       __real@47800000            200f0634     ai_main.obj
 0002:00000638       __real@497423f0            200f0638     ai_main.obj
 0002:0000063c       __real@4e6e6b28            200f063c     ai_main.obj
 0002:00000640       __real@bf800000            200f0640     ai_main.obj
 0002:00000644       __real@c2700000            200f0644     ai_main.obj
 0002:00000648       __real@c3340000            200f0648     ai_main.obj
 0002:00000650       __xmm@80000000800000008000000080000000 200f0650     ai_main.obj
 0002:00000660       ??_C@_0M@DBLGOKHK@se_language?$AA@ 200f0660     ai_util.obj
 0002:0000066c       ??_C@_0BC@KHIFHCIB@BEGIN_CHAT_GROUPS?$AA@ 200f066c     ai_util.obj
 0002:00000680       ??_C@_0DE@KEFKFFLA@?$FO1Error?3?5Personality?5chat?5sectio@ 200f0680     ai_util.obj
 0002:000006b4       ??_C@_0CK@EENCHHIP@?$FO1Error?3?5Specified?5personality?5n@ 200f06b4     ai_util.obj
 0002:000006e0       ??_C@_0CL@FOGCICFM@?$FO1Personality?5file?5exceeds?5maxim@ 200f06e0     ai_util.obj
 0002:0000070c       ??_C@_0P@LBKAJOLI@GeneralBotInfo?$AA@ 200f070c     ai_util.obj
 0002:0000071c       ??_C@_0DF@KFKANJBB@?$FO1Personality?5file?5contains?5no?5G@ 200f071c     ai_util.obj
 0002:00000754       ??_C@_06IPCFEPAJ@reflex?$AA@ 200f0754     ai_util.obj
 0002:0000075c       ??_C@_08FJNPIHOL@accuracy?$AA@ 200f075c     ai_util.obj
 0002:00000768       ??_C@_09FLAOKKFN@turnspeed?$AA@ 200f0768     ai_util.obj
 0002:00000774       ??_C@_0BB@GEIIBHDB@turnspeed_combat?$AA@ 200f0774     ai_util.obj
 0002:00000788       ??_C@_07OHDLLBLH@maxturn?$AA@ 200f0788     ai_util.obj
 0002:00000790       ??_C@_0L@NKDGLMCB@perfectaim?$AA@ 200f0790     ai_util.obj
 0002:0000079c       ??_C@_0M@DKOBIOAP@chatability?$AA@ 200f079c     ai_util.obj
 0002:000007a8       ??_C@_0O@MCBEJNHC@chatfrequency?$AA@ 200f07a8     ai_util.obj
 0002:000007b8       ??_C@_09IDCNFPPO@hatelevel?$AA@ 200f07b8     ai_util.obj
 0002:000007c4       ??_C@_06ECONKLNJ@camper?$AA@ 200f07c4     ai_util.obj
 0002:000007cc       ??_C@_0BA@KLKGFPMG@saberspecialist?$AA@ 200f07cc     ai_util.obj
 0002:000007dc       ??_C@_09KOKAKGEB@forceinfo?$AA@ 200f07dc     ai_util.obj
 0002:000007e8       ??_C@_03BPOAKJOG@?$CFs?$AA?$AA@ 200f07e8     ai_util.obj
 0002:000007ec       ??_C@_0BH@JHFKKJAL@5?91?9000000000000000000?$AA@ 200f07ec     ai_util.obj
 0002:00000804       ??_C@_0BB@HJPIIEL@BotWeaponWeights?$AA@ 200f0804     ai_util.obj
 0002:00000818       ??_C@_0O@NNFLCPNL@WP_STUN_BATON?$AA@ 200f0818     ai_util.obj
 0002:00000828       ??_C@_08KPDGEGJN@WP_SABER?$AA@ 200f0828     ai_util.obj
 0002:00000834       ??_C@_0BA@GBAOKNDN@WP_BRYAR_PISTOL?$AA@ 200f0834     ai_util.obj
 0002:00000844       ??_C@_0L@DIBFNABM@WP_BLASTER?$AA@ 200f0844     ai_util.obj
 0002:00000850       ??_C@_0N@KLINONG@WP_DISRUPTOR?$AA@ 200f0850     ai_util.obj
 0002:00000860       ??_C@_0N@ODCPPBBA@WP_BOWCASTER?$AA@ 200f0860     ai_util.obj
 0002:00000870       ??_C@_0M@GCNBMEBC@WP_REPEATER?$AA@ 200f0870     ai_util.obj
 0002:0000087c       ??_C@_08GDBGMIBE@WP_DEMP2?$AA@ 200f087c     ai_util.obj
 0002:00000888       ??_C@_0N@DNBPCFMC@WP_FLECHETTE?$AA@ 200f0888     ai_util.obj
 0002:00000898       ??_C@_0BD@JBJHCOEB@WP_ROCKET_LAUNCHER?$AA@ 200f0898     ai_util.obj
 0002:000008ac       ??_C@_0L@COCGCIBD@WP_THERMAL?$AA@ 200f08ac     ai_util.obj
 0002:000008b8       ??_C@_0N@OGLOKOOO@WP_TRIP_MINE?$AA@ 200f08b8     ai_util.obj
 0002:000008c8       ??_C@_0M@EOMDDGDC@WP_DET_PACK?$AA@ 200f08c8     ai_util.obj
 0002:000008d4       ??_C@_0BF@OFIAGBKP@EmotionalAttachments?$AA@ 200f08d4     ai_util.obj
 0002:000008f0       __xmm@41f00000000000000000000000000000 200f08f0     ai_util.obj
 0002:00000900       ??_C@_05PCEEFJBB@none?$AA?$AA@ 200f0900     ai_wpnav.obj
 0002:00000908       ??_C@_08HCCPDHOE@unknown?$AA?$AA@ 200f0908     ai_wpnav.obj
 0002:00000914       ??_C@_0DJ@GNLLPBIP@?$FO3Waypoint?5?$CFi?6Flags?5?9?5?$CFi?5?$CI?$CFs?$CJ?5?$CIw@ 200f0914     ai_wpnav.obj
 0002:00000950       ??_C@_0DI@MKIILHHG@?$FO1FATAL?5ERROR?3?5Could?5not?5allocat@ 200f0950     ai_wpnav.obj
 0002:00000988       ??_C@_0CE@PGKIIABD@?$FO3Warning?3?5Waypoint?5limit?5hit?5?$CI?$CF@ 200f0988     ai_wpnav.obj
 0002:000009ac       ??_C@_0DC@KPGPDBHG@?$FO1ERROR?3?5Could?5not?5allocated?5mem@ 200f09ac     ai_wpnav.obj
 0002:000009e0       ??_C@_0CF@NKJDHHPL@?$FO3Waypoint?5number?5?$CFi?5does?5not?5ex@ 200f09e0     ai_wpnav.obj
 0002:00000a08       ??_C@_0DE@ODOAIDAB@?$FO3Waypoint?5index?5?$CFi?5should?5exist@ 200f0a08     ai_wpnav.obj
 0002:00000a3c       ??_C@_0CN@OAEDPBFH@?$FO3WPFlagsModify?3?5Waypoint?5?$CFi?5doe@ 200f0a3c     ai_wpnav.obj
 0002:00000a6c       ??_C@_0DC@CGOLCOPN@?$FO3Point?5?$CFi?5is?5not?5connected?5to?5?$CF@ 200f0a6c     ai_wpnav.obj
 0002:00000aa0       ??_C@_0DL@OFFLGMHM@?$FO1Could?5not?5link?5?$CFi?5to?5?$CFi?0?5unrea@ 200f0aa0     ai_wpnav.obj
 0002:00000ae0       ??_C@_0HP@CMIAOCMB@?$FO3Since?5points?5cannot?5be?5connect@ 200f0ae0     ai_wpnav.obj
 0002:00000b60       ??_C@_0DA@CFKANIBG@?$FO1Could?5not?5link?5?$CFi?5to?5?$CFi?0?5waypo@ 200f0b60     ai_wpnav.obj
 0002:00000b90       ??_C@_0CB@IOBANBFK@?$FO3Finished?5connecting?5?$CFi?5to?5?$CFi?4?6@ 200f0b90     ai_wpnav.obj
 0002:00000bb4       ??_C@_0BF@JOOKCKMH@info_siege_objective?$AA@ 200f0bb4     ai_wpnav.obj
 0002:00000bcc       ??_C@_0M@CJHMIAK@item_seeker?$AA@ 200f0bcc     ai_wpnav.obj
 0002:00000bd8       ??_C@_0M@IIGPMPLO@item_shield?$AA@ 200f0bd8     ai_wpnav.obj
 0002:00000be4       ??_C@_0M@NLNOFNHL@item_medpac?$AA@ 200f0be4     ai_wpnav.obj
 0002:00000bf0       ??_C@_0BA@HKIJMOIG@item_sentry_gun?$AA@ 200f0bf0     ai_wpnav.obj
 0002:00000c00       ??_C@_0BK@JFKBFAGB@item_force_enlighten_dark?$AA@ 200f0c00     ai_wpnav.obj
 0002:00000c1c       ??_C@_0BL@MINBJMDE@item_force_enlighten_light?$AA@ 200f0c1c     ai_wpnav.obj
 0002:00000c38       ??_C@_0BA@HALIIJIE@item_force_boon?$AA@ 200f0c38     ai_wpnav.obj
 0002:00000c48       ??_C@_0P@BMGIHJKN@item_ysalimari?$AA@ 200f0c48     ai_wpnav.obj
 0002:00000c58       ??_C@_07MDJDKHIJ@weapon_?$AA@ 200f0c58     ai_wpnav.obj
 0002:00000c60       ??_C@_0BC@MDDJNKOI@botroutes?1?$CFs?4wnt?$AA?$AA@ 200f0c60     ai_wpnav.obj
 0002:00000c74       ??_C@_0CD@PDNHMLAP@?$FO3Bot?5route?5data?5not?5found?5for?5?$CF@ 200f0c74     ai_wpnav.obj
 0002:00000c98       ??_C@_0CF@HBIFNAFM@?$FO1Route?5file?5exceeds?5maximum?5len@ 200f0c98     ai_wpnav.obj
 0002:00000cc0       ??_C@_0BB@JNMMCIHG@team_CTF_redflag?$AA@ 200f0cc0     ai_wpnav.obj
 0002:00000cd4       ??_C@_0BC@NLKCOFAB@team_CTF_blueflag?$AA@ 200f0cd4     ai_wpnav.obj
 0002:00000ce8       ??_C@_0DB@MGNCDHIL@?$FO1ERROR?3?5Could?5not?5open?5file?5to?5@ 200f0ce8     ai_wpnav.obj
 0002:00000d1c       ??_C@_0BH@CAPEAMJ@?$CFi?5?$CFi?5?$CFf?5?$CI?$CFf?5?$CFf?5?$CFf?$CJ?5?$HL?5?$AA@ 200f0d1c     ai_wpnav.obj
 0002:00000d34       ??_C@_08DNAOJCND@?$CFs?$CFi?9?$CFi?5?$AA@ 200f0d34     ai_wpnav.obj
 0002:00000d40       ??_C@_05OCEANLMH@?$CFs?$CFi?5?$AA@ 200f0d40     ai_wpnav.obj
 0002:00000d48       ??_C@_07KBOPLHBN@?$CFs?$HN?5?$CFf?6?$AA@ 200f0d48     ai_wpnav.obj
 0002:00000d50       ??_C@_0HE@HFDPPPGP@Path?5data?5has?5been?5saved?5and?5upd@ 200f0d50     ai_wpnav.obj
 0002:00000dc4       ??_C@_07JBFDOFDL@terrain?$AA@ 200f0dc4     ai_wpnav.obj
 0002:00000dcc       ??_C@_0BN@GMKAPJAJ@Error?3?5RMG?5with?5no?5terrain?$CB?6?$AA@ 200f0dcc     ai_wpnav.obj
 0002:00000dec       ??_C@_0BH@IGAFCIL@info_player_deathmatch?$AA@ 200f0dec     ai_wpnav.obj
 0002:00000e03       ??_C@_00CNPNBAHC@?$AA@     200f0e03     ai_wpnav.obj
 0002:00000e04       ??_C@_07KMNEBLH@mapname?$AA@ 200f0e04     ai_wpnav.obj
 0002:00000e0c       ??_C@_0O@HPPLPOKI@bot_normgpath?$AA@ 200f0e0c     ai_wpnav.obj
 0002:00000e1c       ??_C@_0BC@IHPKIKNE@info_player_start?$AA@ 200f0e1c     ai_wpnav.obj
 0002:00000e30       ??_C@_0P@IAKMCDJK@bot_wp_cmdlist?$AA@ 200f0e30     ai_wpnav.obj
 0002:00000e40       ??_C@_0HP@MKMJGOIM@?$FO3bot_wp_add?$FO7?5?9?5Add?5a?5waypoint?5@ 200f0e40     ai_wpnav.obj
 0002:00000ec0       ??_C@_0GG@DAAKFOPK@?$FO3bot_wp_rem?$FO7?5?9?5Remove?5a?5waypoi@ 200f0ec0     ai_wpnav.obj
 0002:00000f28       ??_C@_0GF@OPMDMEHI@?$FO3bot_wp_addflagged?$FO7?5?9?5Same?5as?5@ 200f0f28     ai_wpnav.obj
 0002:00000f90       ??_C@_0GF@CEHAMODA@?$FO3bot_wp_switchflags?$FO7?5?9?5Switche@ 200f0f90     ai_wpnav.obj
 0002:00000ff8       ??_C@_0EK@FLEGKNCI@?$FO3bot_wp_tele?$FO7?5?9?5Teleport?5yours@ 200f0ff8     ai_wpnav.obj
 0002:00001048       ??_C@_0GF@HAHJGLLO@?$FO3bot_wp_killoneways?$FO7?5?9?5Removes@ 200f1048     ai_wpnav.obj
 0002:000010b0       ??_C@_0EF@KLGMOFOG@?$FO3bot_wp_save?$FO7?5?9?5Saves?5all?5wayp@ 200f10b0     ai_wpnav.obj
 0002:000010f8       ??_C@_0L@MIBOKLOD@bot_wp_add?$AA@ 200f10f8     ai_wpnav.obj
 0002:00001104       ??_C@_0L@FKLCICOM@bot_wp_rem?$AA@ 200f1104     ai_wpnav.obj
 0002:00001110       ??_C@_0M@DPOOBMKE@bot_wp_tele?$AA@ 200f1110     ai_wpnav.obj
 0002:0000111c       ??_C@_0CP@IAMALPFE@?$FO3You?5didn?8t?5specify?5an?5index?4?5A@ 200f111c     ai_wpnav.obj
 0002:0000114c       ??_C@_0BB@GABGAACE@bot_wp_spawntele?$AA@ 200f114c     ai_wpnav.obj
 0002:00001160       ??_C@_0BC@HGOOCCHA@bot_wp_addflagged?$AA@ 200f1160     ai_wpnav.obj
 0002:00001178       ??_C@_0BGK@KOKBEDBG@?$FO3Flag?5string?5needed?5for?5bot_wp_@ 200f1178     ai_wpnav.obj
 0002:000012e4       ??_C@_0BD@IJIOBJAA@bot_wp_switchflags?$AA@ 200f12e4     ai_wpnav.obj
 0002:000012f8       ??_C@_0LK@DHKCNLAF@?$FO3Flag?5string?5needed?5for?5bot_wp_@ 200f12f8     ai_wpnav.obj
 0002:000013b8       ??_C@_0GE@MFIBKMLO@?$FO3Waypoint?5number?5?$CIto?5modify?$CJ?5ne@ 200f13b8     ai_wpnav.obj
 0002:0000141c       ??_C@_0BD@DNEIDMNA@bot_wp_killoneways?$AA@ 200f141c     ai_wpnav.obj
 0002:00001430       ??_C@_0M@BDBNHBEF@bot_wp_save?$AA@ 200f1430     ai_wpnav.obj
 0002:0000143c       __real@40a00000            200f143c     ai_wpnav.obj
 0002:00001440       __real@41700000            200f1440     ai_wpnav.obj
 0002:00001444       __real@42480000            200f1444     ai_wpnav.obj
 0002:00001448       __real@43fa0000            200f1448     ai_wpnav.obj
 0002:0000144c       __real@443b8000            200f144c     ai_wpnav.obj
 0002:00001450       __real@44a00000            200f1450     ai_wpnav.obj
 0002:00001454       __real@453b8000            200f1454     ai_wpnav.obj
 0002:00001458       __real@461c3c00            200f1458     ai_wpnav.obj
 0002:0000145c       __real@3e4ccccd            200f145c     AnimalNPC.obj
 0002:00001460       __real@3e8ccccd            200f1460     AnimalNPC.obj
 0002:00001464       __real@bc23d70a            200f1464     AnimalNPC.obj
 0002:00001468       ??_C@_08MCJJKOHJ@jaw_bone?$AA@ 200f1468     bg_g2_utils.obj
 0002:00001474       ??_C@_07BNEEMBEL@?$CKr_hand?$AA@ 200f1474     bg_g2_utils.obj
 0002:0000147c       ??_C@_04DJCABLIL@?$CFs?$CFc?$AA@ 200f147c     bg_g2_utils.obj
 0002:00001484       ??_C@_0P@MNCBBKHB@EV_SABER_BLOCK?$AA@ 200f1484     bg_misc.obj
 0002:00001494       ??_C@_0BE@HNEOPGEL@EV_SABER_CLASHFLARE?$AA@ 200f1494     bg_misc.obj
 0002:000014a8       ??_C@_0BD@FFJMPGGA@EV_SABER_UNHOLSTER?$AA@ 200f14a8     bg_misc.obj
 0002:000014bc       ??_C@_0BF@MBILLJJH@EV_BECOME_JEDIMASTER?$AA@ 200f14bc     bg_misc.obj
 0002:000014d4       ??_C@_0BH@KDGLLAMO@EV_DISRUPTOR_MAIN_SHOT?$AA@ 200f14d4     bg_misc.obj
 0002:000014ec       ??_C@_0BJ@MDNKGNJN@EV_DISRUPTOR_SNIPER_SHOT?$AA@ 200f14ec     bg_misc.obj
 0002:00001508       ??_C@_0BJ@POMLOPMI@EV_DISRUPTOR_SNIPER_MISS?$AA@ 200f1508     bg_misc.obj
 0002:00001524       ??_C@_0BB@JNGCFFFI@EV_DISRUPTOR_HIT?$AA@ 200f1524     bg_misc.obj
 0002:00001538       ??_C@_0BH@GCPNKPAL@EV_DISRUPTOR_ZOOMSOUND?$AA@ 200f1538     bg_misc.obj
 0002:00001550       ??_C@_0P@MDPKBHNH@EV_PREDEFSOUND?$AA@ 200f1550     bg_misc.obj
 0002:00001560       ??_C@_0O@GMONIJJI@EV_TEAM_POWER?$AA@ 200f1560     bg_misc.obj
 0002:00001570       ??_C@_0P@EIHBPBOL@EV_SCREENSHAKE?$AA@ 200f1570     bg_misc.obj
 0002:00001580       ??_C@_0O@GLOAIHAI@EV_LOCALTIMER?$AA@ 200f1580     bg_misc.obj
 0002:00001590       ??_C@_06LBDBNJG@EV_USE?$AA@ 200f1590     bg_misc.obj
 0002:00001598       ??_C@_0N@CGCBJKGD@EV_USE_ITEM0?$AA@ 200f1598     bg_misc.obj
 0002:000015a8       ??_C@_0N@DPDKKLCC@EV_USE_ITEM1?$AA@ 200f15a8     bg_misc.obj
 0002:000015b8       ??_C@_0N@BEBHPIOB@EV_USE_ITEM2?$AA@ 200f15b8     bg_misc.obj
 0002:000015c8       ??_C@_0N@NAMMJKA@EV_USE_ITEM3?$AA@ 200f15c8     bg_misc.obj
 0002:000015d8       ??_C@_0N@ECENFPGH@EV_USE_ITEM4?$AA@ 200f15d8     bg_misc.obj
 0002:000015e8       ??_C@_0N@FLFGGOCG@EV_USE_ITEM5?$AA@ 200f15e8     bg_misc.obj
 0002:000015f8       ??_C@_0N@HAHLDNOF@EV_USE_ITEM6?$AA@ 200f15f8     bg_misc.obj
 0002:00001608       ??_C@_0N@GJGAAMKE@EV_USE_ITEM7?$AA@ 200f1608     bg_misc.obj
 0002:00001618       ??_C@_0N@OOPIBAGL@EV_USE_ITEM8?$AA@ 200f1618     bg_misc.obj
 0002:00001628       ??_C@_0N@PHODCBCK@EV_USE_ITEM9?$AA@ 200f1628     bg_misc.obj
 0002:00001638       ??_C@_0O@KBJENLM@EV_USE_ITEM10?$AA@ 200f1638     bg_misc.obj
 0002:00001648       ??_C@_0O@BDACHMPN@EV_USE_ITEM11?$AA@ 200f1648     bg_misc.obj
 0002:00001658       ??_C@_0O@DICPCPDO@EV_USE_ITEM12?$AA@ 200f1658     bg_misc.obj
 0002:00001668       ??_C@_0O@CBDEBOHP@EV_USE_ITEM13?$AA@ 200f1668     bg_misc.obj
 0002:00001678       ??_C@_0O@GOHFIILI@EV_USE_ITEM14?$AA@ 200f1678     bg_misc.obj
 0002:00001688       ??_C@_0O@HHGOLJPJ@EV_USE_ITEM15?$AA@ 200f1688     bg_misc.obj
 0002:00001698       ??_C@_0P@JFHCOBFC@EV_ITEMUSEFAIL?$AA@ 200f1698     bg_misc.obj
 0002:000016a8       ??_C@_0BA@GJNCODNG@EV_ITEM_RESPAWN?$AA@ 200f16a8     bg_misc.obj
 0002:000016b8       ??_C@_0M@ECGFPIMP@EV_ITEM_POP?$AA@ 200f16b8     bg_misc.obj
 0002:000016c4       ??_C@_0BG@HBBJKNDP@EV_PLAYER_TELEPORT_IN?$AA@ 200f16c4     bg_misc.obj
 0002:000016dc       ??_C@_0BH@FNNILPIN@EV_PLAYER_TELEPORT_OUT?$AA@ 200f16dc     bg_misc.obj
 0002:000016f4       ??_C@_0BC@ECIIAFLJ@EV_GRENADE_BOUNCE?$AA@ 200f16f4     bg_misc.obj
 0002:00001708       ??_C@_0BB@JGOOAGDJ@EV_MISSILE_STICK?$AA@ 200f1708     bg_misc.obj
 0002:0000171c       ??_C@_0P@PLIFONPM@EV_PLAY_EFFECT?$AA@ 200f171c     bg_misc.obj
 0002:0000172c       ??_C@_0BC@LCOMFDPL@EV_PLAY_EFFECT_ID?$AA@ 200f172c     bg_misc.obj
 0002:00001740       ??_C@_0BJ@CGDHKBCK@EV_PLAY_PORTAL_EFFECT_ID?$AA@ 200f1740     bg_misc.obj
 0002:0000175c       ??_C@_0BB@OGNONJKP@EV_PLAYDOORSOUND?$AA@ 200f175c     bg_misc.obj
 0002:00001770       ??_C@_0BF@BLAPJAMF@EV_PLAYDOORLOOPSOUND?$AA@ 200f1770     bg_misc.obj
 0002:00001788       ??_C@_0BA@EGLCGAMO@EV_BMODEL_SOUND?$AA@ 200f1788     bg_misc.obj
 0002:00001798       ??_C@_0O@JHBKAOKG@EV_MUTE_SOUND?$AA@ 200f1798     bg_misc.obj
 0002:000017a8       ??_C@_0BC@GMNGJAOD@EV_VOICECMD_SOUND?$AA@ 200f17a8     bg_misc.obj
 0002:000017bc       ??_C@_0BB@LJGGMAII@EV_GENERAL_SOUND?$AA@ 200f17bc     bg_misc.obj
 0002:000017d0       ??_C@_0BA@JAMKLOPJ@EV_GLOBAL_SOUND?$AA@ 200f17d0     bg_misc.obj
 0002:000017e0       ??_C@_0BF@DDOIKLHD@EV_GLOBAL_TEAM_SOUND?$AA@ 200f17e0     bg_misc.obj
 0002:000017f8       ??_C@_0BA@LLJGBFCE@EV_ENTITY_SOUND?$AA@ 200f17f8     bg_misc.obj
 0002:00001808       ??_C@_0N@BEKJCCJE@EV_PLAY_ROFF?$AA@ 200f1808     bg_misc.obj
 0002:00001818       ??_C@_0BB@HHFJBAND@EV_GLASS_SHATTER?$AA@ 200f1818     bg_misc.obj
 0002:0000182c       ??_C@_09KLJDDMJG@EV_DEBRIS?$AA@ 200f182c     bg_misc.obj
 0002:00001838       ??_C@_0BC@MLGOBNCG@EV_MISC_MODEL_EXP?$AA@ 200f1838     bg_misc.obj
 0002:0000184c       ??_C@_0BD@PIOAMKHB@EV_CONC_ALT_IMPACT?$AA@ 200f184c     bg_misc.obj
 0002:00001860       ??_C@_0P@JFMFNBMO@EV_MISSILE_HIT?$AA@ 200f1860     bg_misc.obj
 0002:00001870       ??_C@_0BA@CAHALNAE@EV_MISSILE_MISS?$AA@ 200f1870     bg_misc.obj
 0002:00001880       ??_C@_0BG@LPAHEABB@EV_MISSILE_MISS_METAL?$AA@ 200f1880     bg_misc.obj
 0002:00001898       ??_C@_09ICDIPKFJ@EV_BULLET?$AA@ 200f1898     bg_misc.obj
 0002:000018a4       ??_C@_07EMHHKOOH@EV_PAIN?$AA@ 200f18a4     bg_misc.obj
 0002:000018ac       ??_C@_09JPFBHKII@EV_DEATH1?$AA@ 200f18ac     bg_misc.obj
 0002:000018b8       ??_C@_09LEHMCJEL@EV_DEATH2?$AA@ 200f18b8     bg_misc.obj
 0002:000018c4       ??_C@_09KNGHBIAK@EV_DEATH3?$AA@ 200f18c4     bg_misc.obj
 0002:000018d0       ??_C@_0M@PPLCDPP@EV_OBITUARY?$AA@ 200f18d0     bg_misc.obj
 0002:000018dc       ??_C@_0BA@HLHGHIIE@EV_POWERUP_QUAD?$AA@ 200f18dc     bg_misc.obj
 0002:000018ec       ??_C@_0BG@CHAMNADK@EV_POWERUP_BATTLESUIT?$AA@ 200f18ec     bg_misc.obj
 0002:00001904       ??_C@_0BB@KGMADNKO@EV_FORCE_DRAINED?$AA@ 200f1904     bg_misc.obj
 0002:00001918       ??_C@_0O@JLGFLKBE@EV_GIB_PLAYER?$AA@ 200f1918     bg_misc.obj
 0002:00001928       ??_C@_0N@GAJBP@EV_SCOREPLUM?$AA@ 200f1928     bg_misc.obj
 0002:00001938       ??_C@_0O@NEHCEMNJ@EV_CTFMESSAGE?$AA@ 200f1938     bg_misc.obj
 0002:00001948       ??_C@_0M@GBGEMMKK@EV_BODYFADE?$AA@ 200f1948     bg_misc.obj
 0002:00001954       ??_C@_0BD@LACADBAO@EV_SIEGE_ROUNDOVER?$AA@ 200f1954     bg_misc.obj
 0002:00001968       ??_C@_0BL@CGBBFEIE@EV_SIEGE_OBJECTIVECOMPLETE?$AA@ 200f1968     bg_misc.obj
 0002:00001984       ??_C@_0BL@DNICLAEN@EV_DESTROY_GHOUL2_INSTANCE?$AA@ 200f1984     bg_misc.obj
 0002:000019a0       ??_C@_0BI@CEGPCIEH@EV_DESTROY_WEAPON_MODEL?$AA@ 200f19a0     bg_misc.obj
 0002:000019b8       ??_C@_0BB@JIHOLMBD@EV_GIVE_NEW_RANK?$AA@ 200f19b8     bg_misc.obj
 0002:000019cc       ??_C@_0BC@DDJADHAK@EV_SET_FREE_SABER?$AA@ 200f19cc     bg_misc.obj
 0002:000019e0       ??_C@_0BF@KFICFFCM@EV_SET_FORCE_DISABLE?$AA@ 200f19e0     bg_misc.obj
 0002:000019f8       ??_C@_0BB@HAHOHAKJ@EV_WEAPON_CHARGE?$AA@ 200f19f8     bg_misc.obj
 0002:00001a0c       ??_C@_0BF@LLJHJACN@EV_WEAPON_CHARGE_ALT?$AA@ 200f1a0c     bg_misc.obj
 0002:00001a24       ??_C@_0O@CBLOOGHB@EV_SHIELD_HIT?$AA@ 200f1a24     bg_misc.obj
 0002:00001a34       ??_C@_0O@PBPAKHP@EV_DEBUG_LINE?$AA@ 200f1a34     bg_misc.obj
 0002:00001a44       ??_C@_0M@LDAKOPJP@EV_TESTLINE?$AA@ 200f1a44     bg_misc.obj
 0002:00001a50       ??_C@_0BE@OHJHDFJH@EV_STOPLOOPINGSOUND?$AA@ 200f1a50     bg_misc.obj
 0002:00001a64       ??_C@_0BF@EAHNFOOG@EV_STARTLOOPINGSOUND?$AA@ 200f1a64     bg_misc.obj
 0002:00001a7c       ??_C@_08GBKLDCBE@EV_TAUNT?$AA@ 200f1a7c     bg_misc.obj
 0002:00001a88       _bgToggleableSurfaceDebris 200f1a88     bg_misc.obj
 0002:00001b04       ??_C@_09EPBMGDBP@l_arm_key?$AA@ 200f1b04     bg_misc.obj
 0002:00001b10       ??_C@_0BA@FKJGEIF@torso_canister1?$AA@ 200f1b10     bg_misc.obj
 0002:00001b20       ??_C@_0BA@COIEDHEG@torso_canister2?$AA@ 200f1b20     bg_misc.obj
 0002:00001b30       ??_C@_0BA@DHJPAGAH@torso_canister3?$AA@ 200f1b30     bg_misc.obj
 0002:00001b40       ??_C@_0M@DPGBHBIA@torso_tube1?$AA@ 200f1b40     bg_misc.obj
 0002:00001b4c       ??_C@_0M@BEEMCCED@torso_tube2?$AA@ 200f1b4c     bg_misc.obj
 0002:00001b58       ??_C@_0M@NFHBDAC@torso_tube3?$AA@ 200f1b58     bg_misc.obj
 0002:00001b64       ??_C@_0M@ECBGIFMF@torso_tube4?$AA@ 200f1b64     bg_misc.obj
 0002:00001b70       ??_C@_0M@FLANLEIE@torso_tube5?$AA@ 200f1b70     bg_misc.obj
 0002:00001b7c       ??_C@_0M@HACAOHEH@torso_tube6?$AA@ 200f1b7c     bg_misc.obj
 0002:00001b88       ??_C@_05LGCIJDDO@r_arm?$AA@ 200f1b88     bg_misc.obj
 0002:00001b90       ??_C@_05IPPEPANF@l_arm?$AA@ 200f1b90     bg_misc.obj
 0002:00001b98       ??_C@_0N@IFENOPML@torso_shield?$AA@ 200f1b98     bg_misc.obj
 0002:00001ba8       ??_C@_0BB@FPOHHKLE@torso_galaktorso?$AA@ 200f1ba8     bg_misc.obj
 0002:00001bbc       ??_C@_0N@FODOKFMD@torso_collar?$AA@ 200f1bbc     bg_misc.obj
 0002:00001bcc       ??_C@_07HDAMFNEH@r_wing1?$AA@ 200f1bcc     bg_misc.obj
 0002:00001bd4       ??_C@_07FICBAOIE@r_wing2?$AA@ 200f1bd4     bg_misc.obj
 0002:00001bdc       ??_C@_07BKDNHOFO@l_wing1?$AA@ 200f1bdc     bg_misc.obj
 0002:00001be4       ??_C@_07DBBACNJN@l_wing2?$AA@ 200f1be4     bg_misc.obj
 0002:00001bec       ??_C@_06JHEKENKO@r_gear?$AA@ 200f1bec     bg_misc.obj
 0002:00001bf4       ??_C@_06KAKLKKDN@l_gear?$AA@ 200f1bf4     bg_misc.obj
 0002:00001bfc       ??_C@_04DCKHGPHA@nose?$AA@ 200f1bfc     bg_misc.obj
 0002:00001c04       ??_C@_05CJLHJDEI@blah4?$AA@ 200f1c04     bg_misc.obj
 0002:00001c0c       ??_C@_05DAKMKCAJ@blah5?$AA@ 200f1c0c     bg_misc.obj
 0002:00001c14       ??_C@_06LKFNFIFB@l_hand?$AA@ 200f1c14     bg_misc.obj
 0002:00001c1c       ??_C@_06INLMLPMC@r_hand?$AA@ 200f1c1c     bg_misc.obj
 0002:00001c24       ??_C@_06BCDCLMEB@helmet?$AA@ 200f1c24     bg_misc.obj
 0002:00001c2c       ??_C@_04NEODDMOL@head?$AA@ 200f1c2c     bg_misc.obj
 0002:00001c34       ??_C@_0BI@FPANAMDK@head_concussion_charger?$AA@ 200f1c34     bg_misc.obj
 0002:00001c4c       ??_C@_0BI@KPCBHBOL@head_light_blaster_cann?$AA@ 200f1c4c     bg_misc.obj
 0002:00001c64       ??_C@_0M@MHLPAMFK@?$CKatt_attack?$AA@ 200f1c64     bg_misc.obj
 0002:00001c70       ??_C@_0N@GFADGNOG@?$CKatt_primary?$AA@ 200f1c70     bg_misc.obj
 0002:00001c80       ??_C@_0M@ECCLODLO@?$CKatt_second?$AA@ 200f1c80     bg_misc.obj
 0002:00001c8c       ??_C@_09PJJIIOPG@?$CKdef_guns?$AA@ 200f1c8c     bg_misc.obj
 0002:00001c98       ??_C@_0O@EGEINPEB@?$CKdef_position?$AA@ 200f1c98     bg_misc.obj
 0002:00001ca8       ??_C@_0N@LBIDFACI@?$CKdef_primary?$AA@ 200f1ca8     bg_misc.obj
 0002:00001cb8       ??_C@_0M@HJCGMPNN@?$CKdef_second?$AA@ 200f1cb8     bg_misc.obj
 0002:00001cc4       ??_C@_0O@LCDECPIN@?$CKreply_coming?$AA@ 200f1cc4     bg_misc.obj
 0002:00001cd4       ??_C@_09FJFLGJJB@?$CKreply_go?$AA@ 200f1cd4     bg_misc.obj
 0002:00001ce0       ??_C@_09FGIKFCBO@?$CKreply_no?$AA@ 200f1ce0     bg_misc.obj
 0002:00001cec       ??_C@_0M@PJKELJII@?$CKreply_stay?$AA@ 200f1cec     bg_misc.obj
 0002:00001cf8       ??_C@_0L@DOBCHHPE@?$CKreply_yes?$AA@ 200f1cf8     bg_misc.obj
 0002:00001d04       ??_C@_0M@MJLNGIKA@?$CKreq_assist?$AA@ 200f1d04     bg_misc.obj
 0002:00001d10       ??_C@_09HHLDNJAG@?$CKreq_demo?$AA@ 200f1d10     bg_misc.obj
 0002:00001d1c       ??_C@_08BDPMJJAM@?$CKreq_hvy?$AA@ 200f1d1c     bg_misc.obj
 0002:00001d28       ??_C@_0L@PJEOEMHI@?$CKreq_medic?$AA@ 200f1d28     bg_misc.obj
 0002:00001d34       ??_C@_08EHGAEMIC@?$CKreq_sup?$AA@ 200f1d34     bg_misc.obj
 0002:00001d40       ??_C@_09FCIMPFEJ@?$CKreq_tech?$AA@ 200f1d40     bg_misc.obj
 0002:00001d4c       ??_C@_09KPOPDKGM@?$CKspot_air?$AA@ 200f1d4c     bg_misc.obj
 0002:00001d58       ??_C@_0P@ILGDCGKG@?$CKspot_defenses?$AA@ 200f1d58     bg_misc.obj
 0002:00001d68       ??_C@_0P@LLDGJFLE@?$CKspot_emplaced?$AA@ 200f1d68     bg_misc.obj
 0002:00001d78       ??_C@_0N@JGIPLKJE@?$CKspot_sniper?$AA@ 200f1d78     bg_misc.obj
 0002:00001d88       ??_C@_0N@KDPAKEEJ@?$CKspot_troops?$AA@ 200f1d88     bg_misc.obj
 0002:00001d98       ??_C@_0L@EHELGHNE@?$CKtac_cover?$AA@ 200f1d98     bg_misc.obj
 0002:00001da4       ??_C@_0O@NFGMPNBH@?$CKtac_fallback?$AA@ 200f1da4     bg_misc.obj
 0002:00001db4       ??_C@_0M@PABJGNLG@?$CKtac_follow?$AA@ 200f1db4     bg_misc.obj
 0002:00001dc0       ??_C@_09DINJJNAI@?$CKtac_hold?$AA@ 200f1dc0     bg_misc.obj
 0002:00001dcc       ??_C@_0L@MGMJIMAF@?$CKtac_split?$AA@ 200f1dcc     bg_misc.obj
 0002:00001dd8       ??_C@_0O@GKPNHIOC@?$CKtac_together?$AA@ 200f1dd8     bg_misc.obj
 0002:00001de8       ??_C@_08BLACEHGF@MASTERY0?$AA@ 200f1de8     bg_misc.obj
 0002:00001df4       ??_C@_08CBJHGCE@MASTERY1?$AA@ 200f1df4     bg_misc.obj
 0002:00001e00       ??_C@_08CJDECFOH@MASTERY2?$AA@ 200f1e00     bg_misc.obj
 0002:00001e0c       ??_C@_08DACPBEKG@MASTERY3?$AA@ 200f1e0c     bg_misc.obj
 0002:00001e18       ??_C@_08HPGOICGB@MASTERY4?$AA@ 200f1e18     bg_misc.obj
 0002:00001e24       ??_C@_08GGHFLDCA@MASTERY5?$AA@ 200f1e24     bg_misc.obj
 0002:00001e30       ??_C@_08ENFIOAOD@MASTERY6?$AA@ 200f1e30     bg_misc.obj
 0002:00001e3c       ??_C@_08FEEDNBKC@MASTERY7?$AA@ 200f1e3c     bg_misc.obj
 0002:00001e48       ??_C@_0BH@DINJFPKN@item_shield_sm_instant?$AA@ 200f1e48     bg_misc.obj
 0002:00001e60       ??_C@_0BO@CHCEMMJK@sound?1player?1pickupshield?4wav?$AA@ 200f1e60     bg_misc.obj
 0002:00001e80       ??_C@_0CB@FFNAAGJJ@models?1map_objects?1mp?1psd_sm?4md3@ 200f1e80     bg_misc.obj
 0002:00001ea4       ??_C@_0BE@GPDHMLPP@gfx?1mp?1small_shield?$AA@ 200f1ea4     bg_misc.obj
 0002:00001eb8       ??_C@_0BI@HGJKGJEB@item_shield_lrg_instant?$AA@ 200f1eb8     bg_misc.obj
 0002:00001ed0       ??_C@_0BO@JPJCNECL@models?1map_objects?1mp?1psd?4md3?$AA@ 200f1ed0     bg_misc.obj
 0002:00001ef0       ??_C@_0BE@JKBNBKPH@gfx?1mp?1large_shield?$AA@ 200f1ef0     bg_misc.obj
 0002:00001f04       ??_C@_0BE@MEFMIHAD@item_medpak_instant?$AA@ 200f1f04     bg_misc.obj
 0002:00001f18       ??_C@_0BO@NIGJKPEE@sound?1player?1pickuphealth?4wav?$AA@ 200f1f18     bg_misc.obj
 0002:00001f38       ??_C@_0CB@PABPOCJH@models?1map_objects?1mp?1medpac?4md3@ 200f1f38     bg_misc.obj
 0002:00001f5c       ??_C@_0BG@PFBKDHHG@gfx?1hud?1i_icon_medkit?$AA@ 200f1f5c     bg_misc.obj
 0002:00001f74       ??_C@_0BJ@IBMECGJM@sound?1weapons?1w_pkup?4wav?$AA@ 200f1f74     bg_misc.obj
 0002:00001f90       ??_C@_0BI@PEKMFNBP@models?1items?1remote?4md3?$AA@ 200f1f90     bg_misc.obj
 0002:00001fa8       ??_C@_0BG@KANLKHLH@gfx?1hud?1i_icon_seeker?$AA@ 200f1fa8     bg_misc.obj
 0002:00001fc0       ??_C@_0BP@JJMOPAPI@?$EAMENUS_AN_ATTACK_DRONE_SIMILAR?$AA@ 200f1fc0     bg_misc.obj
 0002:00001fe0       ??_C@_0CB@EAKHAPIK@models?1map_objects?1mp?1shield?4md3@ 200f1fe0     bg_misc.obj
 0002:00002004       ??_C@_0BK@OODCPGGP@gfx?1hud?1i_icon_shieldwall?$AA@ 200f2004     bg_misc.obj
 0002:00002020       ??_C@_0KM@PHBHELNF@sound?1weapons?1detpack?1stick?4wav?5@ 200f2020     bg_misc.obj
 0002:000020cc       ??_C@_0BO@HHEDFEHB@?$EAMENUS_THIS_STATIONARY_ENERGY?$AA@ 200f20cc     bg_misc.obj
 0002:000020ec       ??_C@_0CA@COCFAODK@models?1map_objects?1mp?1bacta?4md3?$AA@ 200f20ec     bg_misc.obj
 0002:0000210c       ??_C@_0BF@EDJNGJL@gfx?1hud?1i_icon_bacta?$AA@ 200f210c     bg_misc.obj
 0002:00002124       ??_C@_0BG@BFJBNBGL@?$EASP_INGAME_BACTA_DESC?$AA@ 200f2124     bg_misc.obj
 0002:0000213c       ??_C@_0BA@JADGBDOO@item_medpac_big?$AA@ 200f213c     bg_misc.obj
 0002:0000214c       ??_C@_0BL@HEJMELJJ@models?1items?1big_bacta?4md3?$AA@ 200f214c     bg_misc.obj
 0002:00002168       ??_C@_0BJ@DMMPEJNE@gfx?1hud?1i_icon_big_bacta?$AA@ 200f2168     bg_misc.obj
 0002:00002184       ??_C@_0BA@KBLOKIGM@item_binoculars?$AA@ 200f2184     bg_misc.obj
 0002:00002194       ??_C@_0BM@HNHCIOH@models?1items?1binoculars?4md3?$AA@ 200f2194     bg_misc.obj
 0002:000021b0       ??_C@_0BE@PKBACEEE@gfx?1hud?1i_icon_zoom?$AA@ 200f21b0     bg_misc.obj
 0002:000021c4       ??_C@_0BL@PADDACKM@?$EASP_INGAME_LA_GOGGLES_DESC?$AA@ 200f21c4     bg_misc.obj
 0002:000021e0       ??_C@_0BH@PFALJFOC@models?1items?1psgun?4glm?$AA@ 200f21e0     bg_misc.obj
 0002:000021f8       ??_C@_0BJ@JKBMBJCM@gfx?1hud?1i_icon_sentrygun?$AA@ 200f21f8     bg_misc.obj
 0002:00002214       ??_C@_0BN@MFHKBDDJ@?$EAMENUS_THIS_DEADLY_WEAPON_IS?$AA@ 200f2214     bg_misc.obj
 0002:00002234       ??_C@_0N@EIBGMPAH@item_jetpack?$AA@ 200f2234     bg_misc.obj
 0002:00002244       ??_C@_0BH@PNGEEMFJ@gfx?1hud?1i_icon_jetpack?$AA@ 200f2244     bg_misc.obj
 0002:0000225c       ??_C@_0BF@CHFBNMLA@effects?1boba?1jet?4efx?$AA@ 200f225c     bg_misc.obj
 0002:00002278       ??_C@_0FD@EDGCAKBF@sound?1chars?1boba?1JETON?4wav?5sound@ 200f2278     bg_misc.obj
 0002:000022cc       ??_C@_0BE@JOMGFMAF@?$EAMENUS_JETPACK_DESC?$AA@ 200f22cc     bg_misc.obj
 0002:000022e0       ??_C@_0BA@MKABDBIL@item_healthdisp?$AA@ 200f22e0     bg_misc.obj
 0002:000022f0       ??_C@_0BK@CIGOJBM@gfx?1hud?1i_icon_healthdisp?$AA@ 200f22f0     bg_misc.obj
 0002:0000230c       ??_C@_0O@FFANILHN@item_ammodisp?$AA@ 200f230c     bg_misc.obj
 0002:0000231c       ??_C@_0BI@NJGLIFAN@gfx?1hud?1i_icon_ammodisp?$AA@ 200f231c     bg_misc.obj
 0002:00002334       ??_C@_0BD@FNDPGFNF@item_eweb_holdable?$AA@ 200f2334     bg_misc.obj
 0002:00002348       ??_C@_0CA@PCDIFNM@sound?1interface?1shieldcon_empty?$AA@ 200f2348     bg_misc.obj
 0002:00002368       ??_C@_0CH@FJBCGPDI@models?1map_objects?1hoth?1eweb_mod@ 200f2368     bg_misc.obj
 0002:00002390       ??_C@_0BE@HACMCHO@gfx?1hud?1i_icon_eweb?$AA@ 200f2390     bg_misc.obj
 0002:000023a4       ??_C@_0BB@BOLMLFOH@?$EAMENUS_EWEB_DESC?$AA@ 200f23a4     bg_misc.obj
 0002:000023b8       ??_C@_0L@LGDPDIAF@item_cloak?$AA@ 200f23b8     bg_misc.obj
 0002:000023c4       ??_C@_0BF@JNCBPHCG@gfx?1hud?1i_icon_cloak?$AA@ 200f23c4     bg_misc.obj
 0002:000023dc       ??_C@_0BC@GHMKCCIP@?$EAMENUS_CLOAK_DESC?$AA@ 200f23dc     bg_misc.obj
 0002:000023f0       ??_C@_0BP@GFNNPIJO@sound?1player?1enlightenment?4wav?$AA@ 200f23f0     bg_misc.obj
 0002:00002410       ??_C@_0CN@DIMKCGKC@models?1map_objects?1mp?1jedi_enlig@ 200f2410     bg_misc.obj
 0002:00002440       ??_C@_0BD@MPGMMGMB@gfx?1hud?1mpi_jlight?$AA@ 200f2440     bg_misc.obj
 0002:00002454       ??_C@_0CL@IJLGBCPL@models?1map_objects?1mp?1dk_enlight@ 200f2454     bg_misc.obj
 0002:00002480       ??_C@_0BE@NFHAGLDO@gfx?1hud?1mpi_dklight?$AA@ 200f2480     bg_misc.obj
 0002:00002494       ??_C@_0BG@GFIPDGIH@sound?1player?1boon?4wav?$AA@ 200f2494     bg_misc.obj
 0002:000024ac       ??_C@_0CF@JPDLAKMB@models?1map_objects?1mp?1force_boon@ 200f24ac     bg_misc.obj
 0002:000024d4       ??_C@_0BC@DEOLDKOL@gfx?1hud?1mpi_fboon?$AA@ 200f24d4     bg_misc.obj
 0002:000024e8       ??_C@_0BL@LEFKKCEP@sound?1player?1ysalimari?4wav?$AA@ 200f24e8     bg_misc.obj
 0002:00002504       ??_C@_0CE@KCIGBHIN@models?1map_objects?1mp?1ysalimari?4@ 200f2504     bg_misc.obj
 0002:00002528       ??_C@_0BE@OEFHDNBF@gfx?1hud?1mpi_ysamari?$AA@ 200f2528     bg_misc.obj
 0002:0000253c       ??_C@_0BC@EJEDEKOE@weapon_stun_baton?$AA@ 200f253c     bg_misc.obj
 0002:00002550       ??_C@_0CH@BLMKNANE@models?1weapons2?1stun_baton?1baton@ 200f2550     bg_misc.obj
 0002:00002578       ??_C@_0CF@INEBKGM@models?1weapons2?1stun_baton?1baton@ 200f2578     bg_misc.obj
 0002:000025a0       ??_C@_0BJ@JFPGMAAH@gfx?1hud?1w_icon_stunbaton?$AA@ 200f25a0     bg_misc.obj
 0002:000025bc       ??_C@_0N@LBBGELFA@weapon_melee?$AA@ 200f25bc     bg_misc.obj
 0002:000025cc       ??_C@_0BF@GPOFHEPB@gfx?1hud?1w_icon_melee?$AA@ 200f25cc     bg_misc.obj
 0002:000025e4       ??_C@_0BC@CEFBGLCB@?$EAMENUS_MELEE_DESC?$AA@ 200f25e4     bg_misc.obj
 0002:000025f8       ??_C@_0N@JIBGHNNO@weapon_saber?$AA@ 200f25f8     bg_misc.obj
 0002:00002608       ??_C@_0CC@PBCBCODB@models?1weapons2?1saber?1saber_w?4gl@ 200f2608     bg_misc.obj
 0002:0000262c       ??_C@_0CC@LELHOPDH@models?1weapons2?1saber?1saber_w?4md@ 200f262c     bg_misc.obj
 0002:00002650       ??_C@_0BK@DENAAEJI@gfx?1hud?1w_icon_lightsaber?$AA@ 200f2650     bg_misc.obj
 0002:0000266c       ??_C@_0BN@GPMHMMHO@?$EAMENUS_AN_ELEGANT_WEAPON_FOR?$AA@ 200f266c     bg_misc.obj
 0002:0000268c       ??_C@_0BG@JEHALHIL@weapon_blaster_pistol?$AA@ 200f268c     bg_misc.obj
 0002:000026a4       ??_C@_0DE@EHAMJOHG@models?1weapons2?1blaster_pistol?1b@ 200f26a4     bg_misc.obj
 0002:000026d8       ??_C@_0DC@EGNBDNKO@models?1weapons2?1blaster_pistol?1b@ 200f26d8     bg_misc.obj
 0002:0000270c       ??_C@_0BO@EGOADNOO@gfx?1hud?1w_icon_blaster_pistol?$AA@ 200f270c     bg_misc.obj
 0002:0000272c       ??_C@_0BL@EJPJHBLO@?$EAMENUS_BLASTER_PISTOL_DESC?$AA@ 200f272c     bg_misc.obj
 0002:00002748       ??_C@_0BI@JFLEEDJH@weapon_concussion_rifle?$AA@ 200f2748     bg_misc.obj
 0002:00002760       ??_C@_0CJ@OKJJMKPH@models?1weapons2?1concussion?1c_rif@ 200f2760     bg_misc.obj
 0002:0000278c       ??_C@_0CH@PIBGBJPN@models?1weapons2?1concussion?1c_rif@ 200f278c     bg_misc.obj
 0002:000027b4       ??_C@_0BH@PEIIGOLA@gfx?1hud?1w_icon_c_rifle?$AA@ 200f27b4     bg_misc.obj
 0002:000027cc       ??_C@_0BH@OEFKMKID@?$EAMENUS_CONC_RIFLE_DESC?$AA@ 200f27cc     bg_misc.obj
 0002:000027e4       ??_C@_0BE@NCEGAEHJ@weapon_bryar_pistol?$AA@ 200f27e4     bg_misc.obj
 0002:000027f8       ??_C@_0DA@DCLFBBNM@models?1weapons2?1briar_pistol?1bri@ 200f27f8     bg_misc.obj
 0002:00002828       ??_C@_0CO@LMBDAEMJ@models?1weapons2?1briar_pistol?1bri@ 200f2828     bg_misc.obj
 0002:00002858       ??_C@_0BF@HJCHFBMO@gfx?1hud?1w_icon_briar?$AA@ 200f2858     bg_misc.obj
 0002:00002870       ??_C@_0BK@JHPMONHL@?$EASP_INGAME_BLASTER_PISTOL?$AA@ 200f2870     bg_misc.obj
 0002:0000288c       ??_C@_0P@PPIDHAJM@weapon_blaster?$AA@ 200f288c     bg_misc.obj
 0002:0000289c       ??_C@_0CI@FHMEJMJP@models?1weapons2?1blaster_r?1blaste@ 200f289c     bg_misc.obj
 0002:000028c4       ??_C@_0CG@IJILPHPH@models?1weapons2?1blaster_r?1blaste@ 200f28c4     bg_misc.obj
 0002:000028ec       ??_C@_0BH@POPJAOPK@gfx?1hud?1w_icon_blaster?$AA@ 200f28ec     bg_misc.obj
 0002:00002904       ??_C@_0BN@KLDCJACF@?$EAMENUS_THE_PRIMARY_WEAPON_OF?$AA@ 200f2904     bg_misc.obj
 0002:00002924       ??_C@_0BB@EKCEEAKB@weapon_disruptor?$AA@ 200f2924     bg_misc.obj
 0002:00002938       ??_C@_0CK@LDOPBIMF@models?1weapons2?1disruptor?1disrup@ 200f2938     bg_misc.obj
 0002:00002964       ??_C@_0CI@KNAINLEF@models?1weapons2?1disruptor?1disrup@ 200f2964     bg_misc.obj
 0002:0000298c       ??_C@_0BJ@MODONBMB@gfx?1hud?1w_icon_disruptor?$AA@ 200f298c     bg_misc.obj
 0002:000029a8       ??_C@_0BN@PDALGMFE@?$EAMENUS_THIS_NEFARIOUS_WEAPON?$AA@ 200f29a8     bg_misc.obj
 0002:000029c8       ??_C@_0BB@KDLDGPGH@weapon_bowcaster?$AA@ 200f29c8     bg_misc.obj
 0002:000029dc       ??_C@_0CK@OFDEGMIN@models?1weapons2?1bowcaster?1bowcas@ 200f29dc     bg_misc.obj
 0002:00002a08       ??_C@_0CI@MANABGJH@models?1weapons2?1bowcaster?1bowcas@ 200f2a08     bg_misc.obj
 0002:00002a30       ??_C@_0BJ@CHKJPOAH@gfx?1hud?1w_icon_bowcaster?$AA@ 200f2a30     bg_misc.obj
 0002:00002a4c       ??_C@_0BM@MHHBLDA@?$EAMENUS_THIS_ARCHAIC_LOOKING?$AA@ 200f2a4c     bg_misc.obj
 0002:00002a68       ??_C@_0BA@BKCKPFDA@weapon_repeater?$AA@ 200f2a68     bg_misc.obj
 0002:00002a78       ??_C@_0DE@LBIFBLHF@models?1weapons2?1heavy_repeater?1h@ 200f2a78     bg_misc.obj
 0002:00002aac       ??_C@_0DC@FAHGABEB@models?1weapons2?1heavy_repeater?1h@ 200f2aac     bg_misc.obj
 0002:00002ae0       ??_C@_0BI@LOPKELCD@gfx?1hud?1w_icon_repeater?$AA@ 200f2ae0     bg_misc.obj
 0002:00002af8       ??_C@_0CD@FCKGGFFG@?$EAMENUS_THIS_DESTRUCTIVE_PROJECTI@ 200f2af8     bg_misc.obj
 0002:00002b1c       ??_C@_0N@MBLCNHPF@weapon_demp2?$AA@ 200f2b1c     bg_misc.obj
 0002:00002b2c       ??_C@_0CC@DIKAHCC@models?1weapons2?1demp2?1demp2_w?4gl@ 200f2b2c     bg_misc.obj
 0002:00002b50       ??_C@_0CA@PKACJAPI@models?1weapons2?1demp2?1demp2?4md3?$AA@ 200f2b50     bg_misc.obj
 0002:00002b70       ??_C@_0BF@BPEBOIFE@gfx?1hud?1w_icon_demp2?$AA@ 200f2b70     bg_misc.obj
 0002:00002b88       ??_C@_0BM@BCDPDFEB@?$EAMENUS_COMMONLY_REFERRED_TO?$AA@ 200f2b88     bg_misc.obj
 0002:00002ba4       ??_C@_0BB@HNIDLLLF@weapon_flechette?$AA@ 200f2ba4     bg_misc.obj
 0002:00002bb8       ??_C@_0CM@GDMOBBJ@models?1weapons2?1golan_arms?1golan@ 200f2bb8     bg_misc.obj
 0002:00002be4       ??_C@_0CK@CNAHGKMH@models?1weapons2?1golan_arms?1golan@ 200f2be4     bg_misc.obj
 0002:00002c10       ??_C@_0BJ@PJJJCKNF@gfx?1hud?1w_icon_flechette?$AA@ 200f2c10     bg_misc.obj
 0002:00002c2c       ??_C@_0CE@HHDMNMLP@?$EAMENUS_WIDELY_USED_BY_THE_CORPOR@ 200f2c2c     bg_misc.obj
 0002:00002c50       ??_C@_0BH@CFPMIEJH@weapon_rocket_launcher?$AA@ 200f2c50     bg_misc.obj
 0002:00002c68       ??_C@_0CK@IJJCBMNO@models?1weapons2?1merr_sonn?1merr_s@ 200f2c68     bg_misc.obj
 0002:00002c94       ??_C@_0CI@CPIMDKHH@models?1weapons2?1merr_sonn?1merr_s@ 200f2c94     bg_misc.obj
 0002:00002cbc       ??_C@_0BI@DDNFEDEJ@gfx?1hud?1w_icon_merrsonn?$AA@ 200f2cbc     bg_misc.obj
 0002:00002cd4       ??_C@_0CC@EJOKBHDJ@?$EAMENUS_THE_PLX_2M_IS_AN_EXTREMEL@ 200f2cd4     bg_misc.obj
 0002:00002cf8       ??_C@_0N@IBCNMHOJ@ammo_thermal?$AA@ 200f2cf8     bg_misc.obj
 0002:00002d08       ??_C@_0CH@BBPIBDBM@models?1weapons2?1thermal?1thermal_@ 200f2d08     bg_misc.obj
 0002:00002d30       ??_C@_0CG@CCBCCJGG@models?1weapons2?1thermal?1thermal_@ 200f2d30     bg_misc.obj
 0002:00002d58       ??_C@_0CE@PJGNCPEG@models?1weapons2?1thermal?1thermal?4@ 200f2d58     bg_misc.obj
 0002:00002d7c       ??_C@_0BH@OIMKPGPF@gfx?1hud?1w_icon_thermal?$AA@ 200f2d7c     bg_misc.obj
 0002:00002d94       ??_C@_0BN@FMFLLCGL@?$EAMENUS_THE_THERMAL_DETONATOR?$AA@ 200f2d94     bg_misc.obj
 0002:00002db4       ??_C@_0O@GAPOPCOE@ammo_tripmine?$AA@ 200f2db4     bg_misc.obj
 0002:00002dc4       ??_C@_0CN@JOEHJLGB@models?1weapons2?1laser_trap?1laser@ 200f2dc4     bg_misc.obj
 0002:00002df4       ??_C@_0CM@PIAEKLLK@models?1weapons2?1laser_trap?1laser@ 200f2df4     bg_misc.obj
 0002:00002e20       ??_C@_0CK@BPCANEAG@models?1weapons2?1laser_trap?1laser@ 200f2e20     bg_misc.obj
 0002:00002e4c       ??_C@_0BI@HEJGEJJK@gfx?1hud?1w_icon_tripmine?$AA@ 200f2e4c     bg_misc.obj
 0002:00002e64       ??_C@_0BN@CMMDBNGF@?$EAMENUS_TRIP_MINES_CONSIST_OF?$AA@ 200f2e64     bg_misc.obj
 0002:00002e84       ??_C@_0N@CIBIOIEN@ammo_detpack?$AA@ 200f2e84     bg_misc.obj
 0002:00002e94       ??_C@_0CI@CBJMGLP@models?1weapons2?1detpack?1det_pack@ 200f2e94     bg_misc.obj
 0002:00002ebc       ??_C@_0CK@CDFEGPDE@models?1weapons2?1detpack?1det_pack@ 200f2ebc     bg_misc.obj
 0002:00002ee8       ??_C@_0CH@KPFPNMHO@models?1weapons2?1detpack?1det_pack@ 200f2ee8     bg_misc.obj
 0002:00002f10       ??_C@_0CF@NONMEFGL@models?1weapons2?1detpack?1det_pack@ 200f2f10     bg_misc.obj
 0002:00002f38       ??_C@_0BH@EBPPNJFB@gfx?1hud?1w_icon_detpack?$AA@ 200f2f38     bg_misc.obj
 0002:00002f50       ??_C@_0BM@MOLHJNKH@?$EAMENUS_A_DETONATION_PACK_IS?$AA@ 200f2f50     bg_misc.obj
 0002:00002f6c       ??_C@_0P@OJLAIIJD@weapon_thermal?$AA@ 200f2f6c     bg_misc.obj
 0002:00002f7c       ??_C@_0BB@KBIODFKP@weapon_trip_mine?$AA@ 200f2f7c     bg_misc.obj
 0002:00002f90       ??_C@_0BA@DBJEACCG@weapon_det_pack?$AA@ 200f2f90     bg_misc.obj
 0002:00002fa0       ??_C@_0BA@PHDHEKAE@weapon_emplaced?$AA@ 200f2fa0     bg_misc.obj
 0002:00002fb0       ??_C@_0BA@EENDCNMH@weapon_turretwp?$AA@ 200f2fb0     bg_misc.obj
 0002:00002fc0       ??_C@_0L@GKDELMG@ammo_force?$AA@ 200f2fc0     bg_misc.obj
 0002:00002fcc       ??_C@_0BO@EBHMDMMM@sound?1player?1pickupenergy?4wav?$AA@ 200f2fcc     bg_misc.obj
 0002:00002fec       ??_C@_0BN@BKBHFNLE@models?1items?1energy_cell?4md3?$AA@ 200f2fec     bg_misc.obj
 0002:0000300c       ??_C@_0N@JHBODPOG@ammo_blaster?$AA@ 200f300c     bg_misc.obj
 0002:0000301c       ??_C@_0BH@MFDMPLPM@gfx?1hud?1i_icon_battery?$AA@ 200f301c     bg_misc.obj
 0002:00003034       ??_C@_0P@GBMHNHF@ammo_powercell?$AA@ 200f3034     bg_misc.obj
 0002:00003044       ??_C@_0BM@GDMBBHDI@models?1items?1power_cell?4md3?$AA@ 200f3044     bg_misc.obj
 0002:00003060       ??_C@_0BH@KBMOAFPH@gfx?1mp?1ammo_power_cell?$AA@ 200f3060     bg_misc.obj
 0002:00003078       ??_C@_0BE@OMMGIMPN@ammo_metallic_bolts?$AA@ 200f3078     bg_misc.obj
 0002:0000308c       ??_C@_0CA@POKDMLNN@models?1items?1metallic_bolts?4md3?$AA@ 200f308c     bg_misc.obj
 0002:000030ac       ??_C@_0BL@IPLJCMOM@gfx?1mp?1ammo_metallic_bolts?$AA@ 200f30ac     bg_misc.obj
 0002:000030c8       ??_C@_0N@CLEPKBOE@ammo_rockets?$AA@ 200f30c8     bg_misc.obj
 0002:000030d8       ??_C@_0BJ@BCBNBFGD@models?1items?1rockets?4md3?$AA@ 200f30d8     bg_misc.obj
 0002:000030f4       ??_C@_0BE@IIEBFJHN@gfx?1mp?1ammo_rockets?$AA@ 200f30f4     bg_misc.obj
 0002:00003108       ??_C@_08LLJPIFOF@ammo_all?$AA@ 200f3108     bg_misc.obj
 0002:00003114       ??_C@_0BJ@DIDDNCPE@models?1items?1battery?4md3?$AA@ 200f3114     bg_misc.obj
 0002:00003130       ??_C@_0BI@PEHEOJEO@models?1flags?1r_flag?4md3?$AA@ 200f3130     bg_misc.obj
 0002:00003148       ??_C@_0BN@DGDBEGIO@models?1flags?1r_flag_ysal?4md3?$AA@ 200f3148     bg_misc.obj
 0002:00003168       ??_C@_0BC@JAMFOFAL@gfx?1hud?1mpi_rflag?$AA@ 200f3168     bg_misc.obj
 0002:0000317c       ??_C@_0BI@FKICCNIF@models?1flags?1b_flag?4md3?$AA@ 200f317c     bg_misc.obj
 0002:00003194       ??_C@_0BN@NABGHIBA@models?1flags?1b_flag_ysal?4md3?$AA@ 200f3194     bg_misc.obj
 0002:000031b4       ??_C@_0BC@JDBDOHJA@gfx?1hud?1mpi_bflag?$AA@ 200f31b4     bg_misc.obj
 0002:000031c8       ??_C@_0BF@NFGOPKAE@team_CTF_neutralflag?$AA@ 200f31c8     bg_misc.obj
 0002:000031e0       ??_C@_0BI@FAJILPEC@models?1flags?1n_flag?4md3?$AA@ 200f31e0     bg_misc.obj
 0002:000031f8       ??_C@_0BF@OGGGKBMJ@icons?1iconf_neutral1?$AA@ 200f31f8     bg_misc.obj
 0002:00003210       ??_C@_0N@IDOEINCB@item_redcube?$AA@ 200f3210     bg_misc.obj
 0002:00003220       ??_C@_0BO@LDKNFLC@models?1powerups?1orb?1r_orb?4md3?$AA@ 200f3220     bg_misc.obj
 0002:00003240       ??_C@_0BB@PKDLFOID@icons?1iconh_rorb?$AA@ 200f3240     bg_misc.obj
 0002:00003254       ??_C@_0O@NHDOFNIN@item_bluecube?$AA@ 200f3254     bg_misc.obj
 0002:00003264       ??_C@_0BO@CMJEFEFK@models?1powerups?1orb?1b_orb?4md3?$AA@ 200f3264     bg_misc.obj
 0002:00003284       ??_C@_0BB@JKNLMJAB@icons?1iconh_borb?$AA@ 200f3284     bg_misc.obj
 0002:00003298       ??_C@_07JFMDDPHJ@EV_NONE?$AA@ 200f3298     bg_misc.obj
 0002:000032a0       ??_C@_0O@JHBAELOC@EV_CLIENTJOIN?$AA@ 200f32a0     bg_misc.obj
 0002:000032b0       ??_C@_0M@HLKBOJPO@EV_FOOTSTEP?$AA@ 200f32b0     bg_misc.obj
 0002:000032bc       ??_C@_0BC@DIJMAMMI@EV_FOOTSTEP_METAL?$AA@ 200f32bc     bg_misc.obj
 0002:000032d0       ??_C@_0O@HLJHKIDH@EV_FOOTSPLASH?$AA@ 200f32d0     bg_misc.obj
 0002:000032e0       ??_C@_0M@NPJBGELA@EV_FOOTWADE?$AA@ 200f32e0     bg_misc.obj
 0002:000032ec       ??_C@_07FFIIIPLH@EV_SWIM?$AA@ 200f32ec     bg_misc.obj
 0002:000032f4       ??_C@_09OLFOHJNB@EV_STEP_4?$AA@ 200f32f4     bg_misc.obj
 0002:00003300       ??_C@_09EHOLDGNN@EV_STEP_8?$AA@ 200f3300     bg_misc.obj
 0002:0000330c       ??_C@_0L@BKIECKKB@EV_STEP_12?$AA@ 200f330c     bg_misc.obj
 0002:00003318       ??_C@_0L@HOOIOPKF@EV_STEP_16?$AA@ 200f3318     bg_misc.obj
 0002:00003324       ??_C@_07JHCKGMKM@EV_FALL?$AA@ 200f3324     bg_misc.obj
 0002:0000332c       ??_C@_0M@BPNFGBOJ@EV_JUMP_PAD?$AA@ 200f332c     bg_misc.obj
 0002:00003338       ??_C@_0P@BMAPLDAL@EV_GHOUL2_MARK?$AA@ 200f3338     bg_misc.obj
 0002:00003348       ??_C@_0P@MHGGNABN@EV_GLOBAL_DUEL?$AA@ 200f3348     bg_misc.obj
 0002:00003358       ??_C@_0BA@NCAJLGNF@EV_PRIVATE_DUEL?$AA@ 200f3358     bg_misc.obj
 0002:00003368       ??_C@_07GKBEHGAP@EV_JUMP?$AA@ 200f3368     bg_misc.obj
 0002:00003370       ??_C@_07OCJFCKNN@EV_ROLL?$AA@ 200f3370     bg_misc.obj
 0002:00003378       ??_C@_0P@GCDBKPMP@EV_WATER_TOUCH?$AA@ 200f3378     bg_misc.obj
 0002:00003388       ??_C@_0P@LHDMOIIG@EV_WATER_LEAVE?$AA@ 200f3388     bg_misc.obj
 0002:00003398       ??_C@_0P@MIAIODEJ@EV_WATER_UNDER?$AA@ 200f3398     bg_misc.obj
 0002:000033a8       ??_C@_0P@NIPCJOBG@EV_WATER_CLEAR?$AA@ 200f33a8     bg_misc.obj
 0002:000033b8       ??_C@_0P@BGIOEPCB@EV_ITEM_PICKUP?$AA@ 200f33b8     bg_misc.obj
 0002:000033c8       ??_C@_0BG@KFILGAMN@EV_GLOBAL_ITEM_PICKUP?$AA@ 200f33c8     bg_misc.obj
 0002:000033e0       ??_C@_0M@MNGOLNFL@EV_VEH_FIRE?$AA@ 200f33e0     bg_misc.obj
 0002:000033ec       ??_C@_09NMIICG@EV_NOAMMO?$AA@ 200f33ec     bg_misc.obj
 0002:000033f8       ??_C@_0BB@ENKPHJLP@EV_CHANGE_WEAPON?$AA@ 200f33f8     bg_misc.obj
 0002:0000340c       ??_C@_0P@PFJPAFGH@EV_FIRE_WEAPON?$AA@ 200f340c     bg_misc.obj
 0002:0000341c       ??_C@_0M@LKPOHPHC@EV_ALT_FIRE?$AA@ 200f341c     bg_misc.obj
 0002:00003428       ??_C@_0BA@FJAFFDLF@EV_SABER_ATTACK?$AA@ 200f3428     bg_misc.obj
 0002:00003438       ??_C@_0N@IKFBFHKB@EV_SABER_HIT?$AA@ 200f3438     bg_misc.obj
 0002:00003448       ??_C@_08OEKJENGB@?$CFf?5?$CFf?5?$CFf?$AA@ 200f3448     bg_misc.obj
 0002:00003454       ??_C@_0BH@HKHNICAI@7?91?9032330000000001333?$AA@ 200f3454     bg_misc.obj
 0002:0000346c       ??_C@_03COHLNFKP@?$CFi?9?$AA@ 200f346c     bg_misc.obj
 0002:00003470       ??_C@_02IKAHHCAI@?$CFi?$AA@ 200f3470     bg_misc.obj
 0002:00003474       ??_C@_0BH@MFGKJDLM@HoldableItem?5not?5found?$AA@ 200f3474     bg_misc.obj
 0002:0000348c       ??_C@_0CB@DEACFJO@Couldn?8t?5find?5item?5for?5weapon?5?$CFi@ 200f348c     bg_misc.obj
 0002:000034b0       ??_C@_0BP@LHPKGFBO@Couldn?8t?5find?5item?5for?5ammo?5?$CFi?$AA@ 200f34b0     bg_misc.obj
 0002:000034d0       ??_C@_0CI@MFONMA@BG_CanItemBeGrabbed?3?5index?5out?5o@ 200f34d0     bg_misc.obj
 0002:000034f8       ??_C@_0BM@NECGLAIF@BG_CanItemBeGrabbed?3?5IT_BAD?$AA@ 200f34f8     bg_misc.obj
 0002:00003514       ??_C@_0DG@OJMFOFAA@BG_EvaluateTrajectory?3?5?$FLGAME?5SID@ 200f3514     bg_misc.obj
 0002:0000354c       ??_C@_0CP@MCFPOIMF@BG_EvaluateTrajectoryDelta?3?5unkn@ 200f354c     bg_misc.obj
 0002:0000357c       ??_C@_04JIEPAMAO@kyle?$AA@ 200f357c     bg_misc.obj
 0002:00003584       ??_C@_04BEPDCOC@fpls?$AA@  200f3584     bg_misc.obj
 0002:0000358c       ??_C@_05KDHFJIBH@fpls2?$AA@ 200f358c     bg_misc.obj
 0002:00003594       ??_C@_05LKGOKJFG@fpls3?$AA@ 200f3594     bg_misc.obj
 0002:0000359c       ??_C@_05HIOBFLDN@jedi_?$AA@ 200f359c     bg_misc.obj
 0002:000035a4       ??_C@_03FAAAOPJM@red?$AA@  200f35a4     bg_misc.obj
 0002:000035a8       ??_C@_04OBGPFBCN@blue?$AA@ 200f35a8     bg_misc.obj
 0002:000035b0       ??_C@_07DLHCIBDH@default?$AA@ 200f35b0     bg_misc.obj
 0002:000035b8       ??_C@_04NCFJPIH@_red?$AA@  200f35b8     bg_misc.obj
 0002:000035c0       ??_C@_0CA@ODGGEHPP@models?1players?1?$CFs?1model_?$CFs?4skin?$AA@ 200f35c0     bg_misc.obj
 0002:000035e0       ??_C@_05GLFHLNLB@_blue?$AA@ 200f35e0     bg_misc.obj
 0002:000035e8       ??_C@_0CJ@BDGLLNGN@BG_Alloc?3?5buffer?5exceeded?5tail?5?$CI@ 200f35e8     bg_misc.obj
 0002:00003614       ??_C@_0CN@JLGNNLBK@BG_TempAlloc?3?5buffer?5exceeded?5he@ 200f3614     bg_misc.obj
 0002:00003644       ??_C@_0CO@IIHBNEDD@BG_TempFree?3?5tail?5greater?5than?5s@ 200f3644     bg_misc.obj
 0002:00003678       __real@400921fb60000000    200f3678     bg_misc.obj
 0002:00003680       __real@40490fdb            200f3680     bg_misc.obj
 0002:00003688       __real@4066800000000000    200f3688     bg_misc.obj
 0002:00003690       __real@4079000000000000    200f3690     bg_misc.obj
 0002:00003698       __real@42100000            200f3698     bg_misc.obj
 0002:0000369c       __real@42300000            200f369c     bg_misc.obj
 0002:000036a0       __real@c2100000            200f36a0     bg_misc.obj
 0002:000036a4       __real@c2480000            200f36a4     bg_misc.obj
 0002:000036a8       ??_C@_0BD@EOHNHFLF@BOTH_GETUP_FROLL_R?$AA@ 200f36a8     bg_panimate.obj
 0002:000036bc       ??_C@_0O@HHONADLF@BOTH_T2_T__BR?$AA@ 200f36bc     bg_panimate.obj
 0002:000036cc       ??_C@_0BF@GJCHNFNC@BOTH_WALL_FLIP_BACK1?$AA@ 200f36cc     bg_panimate.obj
 0002:000036e4       ??_C@_0O@GDBDDDJG@BOTH_T2_T___R?$AA@ 200f36e4     bg_panimate.obj
 0002:000036f4       ??_C@_0BF@ECAKIGBB@BOTH_WALL_FLIP_BACK2?$AA@ 200f36f4     bg_panimate.obj
 0002:0000370c       ??_C@_0O@GPEGNMHH@BOTH_T2_T__TR?$AA@ 200f370c     bg_panimate.obj
 0002:0000371c       ??_C@_0L@JNPKOHDB@BOTH_SPIN1?$AA@ 200f371c     bg_panimate.obj
 0002:00003728       ??_C@_0O@LLAHODKI@BOTH_T2_T__TL?$AA@ 200f3728     bg_panimate.obj
 0002:00003738       ??_C@_0BD@LHONGOKG@BOTH_CEILING_CLING?$AA@ 200f3738     bg_panimate.obj
 0002:0000374c       ??_C@_0O@LHFCAMEJ@BOTH_T2_T___L?$AA@ 200f374c     bg_panimate.obj
 0002:0000375c       ??_C@_0BC@GKKAPGJM@BOTH_CEILING_DROP?$AA@ 200f375c     bg_panimate.obj
 0002:00003770       ??_C@_0O@KDKMDMGK@BOTH_T2_T__BL?$AA@ 200f3770     bg_panimate.obj
 0002:00003780       ??_C@_0BA@CINBNIPK@BOTH_FJSS_TR_BL?$AA@ 200f3780     bg_panimate.obj
 0002:00003790       ??_C@_0O@FAKNOOOH@BOTH_T2_TL_BR?$AA@ 200f3790     bg_panimate.obj
 0002:000037a0       ??_C@_0BA@CDEAMOMG@BOTH_FJSS_TL_BR?$AA@ 200f37a0     bg_panimate.obj
 0002:000037b0       ??_C@_0O@IEOMNBDI@BOTH_T2_TL_BL?$AA@ 200f37b0     bg_panimate.obj
 0002:000037c0       ??_C@_0BJ@PHBNOEEM@BOTH_RIGHTHANDCHOPPEDOFF?$AA@ 200f37c0     bg_panimate.obj
 0002:000037dc       ??_C@_0O@DKGKBOCE@BOTH_T2__L_BR?$AA@ 200f37dc     bg_panimate.obj
 0002:000037ec       ??_C@_0BM@ELFFAKLF@BOTH_DEFLECTSLASH__R__L_FIN?$AA@ 200f37ec     bg_panimate.obj
 0002:00003808       ??_C@_0O@COJECOAH@BOTH_T2__L__R?$AA@ 200f3808     bg_panimate.obj
 0002:00003818       ??_C@_0N@PBBFIKGE@BOTH_BASHED1?$AA@ 200f3818     bg_panimate.obj
 0002:00003828       ??_C@_0O@PGIAPODJ@BOTH_T2__L_TL?$AA@ 200f3828     bg_panimate.obj
 0002:00003838       ??_C@_0O@HINNODAG@BOTH_ARIAL_F1?$AA@ 200f3838     bg_panimate.obj
 0002:00003848       ??_C@_0O@IFCCAPGB@BOTH_T2_BL_BR?$AA@ 200f3848     bg_panimate.obj
 0002:00003858       ??_C@_0BD@GDAEGPCN@BOTH_BUTTERFLY_FR1?$AA@ 200f3858     bg_panimate.obj
 0002:0000386c       ??_C@_0O@JBNMDPEC@BOTH_T2_BL__R?$AA@ 200f386c     bg_panimate.obj
 0002:0000387c       ??_C@_0BD@HFLMOBFH@BOTH_BUTTERFLY_FL1?$AA@ 200f387c     bg_panimate.obj
 0002:00003890       ??_C@_0O@JNIJNAKD@BOTH_T2_BL_TR?$AA@ 200f3890     bg_panimate.obj
 0002:000038a0       ??_C@_0BC@BJEPANJA@BOTH_BACK_FLIP_UP?$AA@ 200f38a0     bg_panimate.obj
 0002:000038b4       ??_C@_0O@EFJNAAJN@BOTH_T2_BL__L?$AA@ 200f38b4     bg_panimate.obj
 0002:000038c4       ??_C@_0BA@NPLLAIGE@BOTH_LOSE_SABER?$AA@ 200f38c4     bg_panimate.obj
 0002:000038d4       ??_C@_0O@ECFJPJEA@BOTH_T2_BR_TR?$AA@ 200f38d4     bg_panimate.obj
 0002:000038e4       ??_C@_0BB@IIJAHOAM@BOTH_STAFF_TAUNT?$AA@ 200f38e4     bg_panimate.obj
 0002:000038f8       ??_C@_0O@PHPHIHAN@BOTH_T2_BR_T_?$AA@ 200f38f8     bg_panimate.obj
 0002:00003908       ??_C@_0BA@ECEJJOCF@BOTH_DUAL_TAUNT?$AA@ 200f3908     bg_panimate.obj
 0002:00003918       ??_C@_0O@OFLKDHMH@BOTH_T2__R_BR?$AA@ 200f3918     bg_panimate.obj
 0002:00003928       ??_C@_0L@LKOFLFIC@BOTH_A6_FB?$AA@ 200f3928     bg_panimate.obj
 0002:00003934       ??_C@_0O@EILPJGEI@BOTH_T2__R_T_?$AA@ 200f3934     bg_panimate.obj
 0002:00003944       ??_C@_0L@PNLACCAF@BOTH_A6_LR?$AA@ 200f3944     bg_panimate.obj
 0002:00003950       ??_C@_0O@JLIDPHCH@BOTH_T2_TR__R?$AA@ 200f3950     bg_panimate.obj
 0002:00003960       ??_C@_0N@NLKPNJAP@BOTH_A7_HILT?$AA@ 200f3960     bg_panimate.obj
 0002:00003970       ??_C@_0O@CCHIGGIL@BOTH_T2_TR_T_?$AA@ 200f3970     bg_panimate.obj
 0002:00003980       ??_C@_0BA@IMOMKPBA@BOTH_ALORA_SPIN?$AA@ 200f3980     bg_panimate.obj
 0002:00003990       ??_C@_0O@EEFDNOME@BOTH_T2_TL__R?$AA@ 200f3990     bg_panimate.obj
 0002:000039a0       ??_C@_0BC@FMCCBPNO@BOTH_ALORA_FLIP_1?$AA@ 200f39a0     bg_panimate.obj
 0002:000039b4       ??_C@_0O@EIAGDBCF@BOTH_T2_TL_TR?$AA@ 200f39b4     bg_panimate.obj
 0002:000039c4       ??_C@_0BC@HHAPEMBN@BOTH_ALORA_FLIP_2?$AA@ 200f39c4     bg_panimate.obj
 0002:000039d8       ??_C@_0O@PNKIEPGI@BOTH_T2_TL_T_?$AA@ 200f39d8     bg_panimate.obj
 0002:000039e8       ??_C@_0BC@GOBEHNFM@BOTH_ALORA_FLIP_3?$AA@ 200f39e8     bg_panimate.obj
 0002:000039fc       ??_C@_0O@JABCOBBL@BOTH_T2_TL__L?$AA@ 200f39fc     bg_panimate.obj
 0002:00003a0c       ??_C@_0BC@FIDADFOL@BOTH_ALORA_FLIP_B?$AA@ 200f3a0c     bg_panimate.obj
 0002:00003a20       ??_C@_0O@CCMBMBOG@BOTH_T2__L_TR?$AA@ 200f3a20     bg_panimate.obj
 0002:00003a30       ??_C@_0BG@EABOBAMI@BOTH_ALORA_SPIN_THROW?$AA@ 200f3a30     bg_panimate.obj
 0002:00003a48       ??_C@_0O@JHGPLPKL@BOTH_T2__L_T_?$AA@ 200f3a48     bg_panimate.obj
 0002:00003a58       ??_C@_0BG@DCFBCKEL@BOTH_ALORA_SPIN_SLASH?$AA@ 200f3a58     bg_panimate.obj
 0002:00003a70       ??_C@_0O@OOCLCBPL@BOTH_T2__L_BL?$AA@ 200f3a70     bg_panimate.obj
 0002:00003a80       ??_C@_0BB@JJKGACDG@BOTH_ALORA_TAUNT?$AA@ 200f3a80     bg_panimate.obj
 0002:00003a94       ??_C@_0O@CICHKOOO@BOTH_T2_BL_T_?$AA@ 200f3a94     bg_panimate.obj
 0002:00003aa4       ??_C@_0P@KODDALBF@BOTH_ROSH_PAIN?$AA@ 200f3aa4     bg_panimate.obj
 0002:00003ab4       ??_C@_0O@EJMIOPHM@BOTH_T2_BL_TL?$AA@ 200f3ab4     bg_panimate.obj
 0002:00003ac4       ??_C@_0P@ENOEHDDL@BOTH_ROSH_HEAL?$AA@ 200f3ac4     bg_panimate.obj
 0002:00003ad4       ??_C@_0O@IFIODGGH@BOTH_S2_S1_T_?$AA@ 200f3ad4     bg_panimate.obj
 0002:00003ae4       ??_C@_0BK@NBGHMOBL@BOTH_TAVION_SCEPTERGROUND?$AA@ 200f3ae4     bg_panimate.obj
 0002:00003b00       ??_C@_0O@OIDEJIBE@BOTH_S2_S1__L?$AA@ 200f3b00     bg_panimate.obj
 0002:00003b10       ??_C@_0BH@HFIAAKKL@BOTH_TAVION_SWORDPOWER?$AA@ 200f3b10     bg_panimate.obj
 0002:00003b28       ??_C@_0O@DMHFKHML@BOTH_S2_S1__R?$AA@ 200f3b28     bg_panimate.obj
 0002:00003b38       ??_C@_0BD@FGCDNAOB@BOTH_SCEPTER_START?$AA@ 200f3b38     bg_panimate.obj
 0002:00003b4c       ??_C@_0O@OEGBHHPF@BOTH_S2_S1_TL?$AA@ 200f3b4c     bg_panimate.obj
 0002:00003b5c       ??_C@_0BC@HIHKAHFB@BOTH_SCEPTER_HOLD?$AA@ 200f3b5c     bg_panimate.obj
 0002:00003b70       ??_C@_0O@CIILJHOI@BOTH_S2_S1_BR?$AA@ 200f3b70     bg_panimate.obj
 0002:00003b80       ??_C@_0BC@MELKBIFA@BOTH_SCEPTER_STOP?$AA@ 200f3b80     bg_panimate.obj
 0002:00003b94       ??_C@_0O@PMMKKIDH@BOTH_S2_S1_BL?$AA@ 200f3b94     bg_panimate.obj
 0002:00003ba4       ??_C@_0P@FMNEHFNM@BOTH_KYLE_GRAB?$AA@ 200f3ba4     bg_panimate.obj
 0002:00003bb4       ??_C@_0O@DACAEICK@BOTH_S2_S1_TR?$AA@ 200f3bb4     bg_panimate.obj
 0002:00003bc4       ??_C@_0P@NNAHOJON@BOTH_KYLE_MISS?$AA@ 200f3bc4     bg_panimate.obj
 0002:00003bd4       ??_C@_0O@ICEMGKJK@BOTH_R2_B__S1?$AA@ 200f3bd4     bg_panimate.obj
 0002:00003be4       ??_C@_0P@NOBCGCHA@BOTH_KYLE_PA_1?$AA@ 200f3be4     bg_panimate.obj
 0002:00003bf4       ??_C@_0O@BKEEJGIN@BOTH_R2__L_S1?$AA@ 200f3bf4     bg_panimate.obj
 0002:00003c04       ??_C@_0BB@JKEILKGN@BOTH_PLAYER_PA_1?$AA@ 200f3c04     bg_panimate.obj
 0002:00003c18       ??_C@_0O@MFJELPGO@BOTH_R2__R_S1?$AA@ 200f3c18     bg_panimate.obj
 0002:00003c28       ??_C@_0P@PFDPDBLD@BOTH_KYLE_PA_2?$AA@ 200f3c28     bg_panimate.obj
 0002:00003c38       ??_C@_0O@HAIDGGEO@BOTH_R2_TL_S1?$AA@ 200f3c38     bg_panimate.obj
 0002:00003c48       ??_C@_0BB@LBGFOJKO@BOTH_PLAYER_PA_2?$AA@ 200f3c48     bg_panimate.obj
 0002:00003c5c       ??_C@_0O@HKNMKOCL@BOTH_R2_BR_S1?$AA@ 200f3c5c     bg_panimate.obj
 0002:00003c6c       ??_C@_0BD@BPPGNPKM@BOTH_PLAYER_PA_FLY?$AA@ 200f3c6c     bg_panimate.obj
 0002:00003c80       ??_C@_0O@KFAMIHMI@BOTH_R2_BL_S1?$AA@ 200f3c80     bg_panimate.obj
 0002:00003c90       ??_C@_0P@OMCEAAPC@BOTH_KYLE_PA_3?$AA@ 200f3c90     bg_panimate.obj
 0002:00003ca0       ??_C@_0O@KPFDEPKN@BOTH_R2_TR_S1?$AA@ 200f3ca0     bg_panimate.obj
 0002:00003cb0       ??_C@_0BB@KIHONIOP@BOTH_PLAYER_PA_3?$AA@ 200f3cb0     bg_panimate.obj
 0002:00003cc4       ??_C@_0O@CEHIFDBH@BOTH_B2_BR___?$AA@ 200f3cc4     bg_panimate.obj
 0002:00003cd4       ??_C@_0BF@HCPCIHAG@BOTH_PLAYER_PA_3_FLY?$AA@ 200f3cd4     bg_panimate.obj
 0002:00003cec       ??_C@_0O@JLDAECFC@BOTH_B2__R___?$AA@ 200f3cec     bg_panimate.obj
 0002:00003cfc       ??_C@_0BA@NKEMKFLI@BOTH_BUCK_RIDER?$AA@ 200f3cfc     bg_panimate.obj
 0002:00003d0c       ??_C@_0O@PBPHLCJB@BOTH_B2_TR___?$AA@ 200f3d0c     bg_panimate.obj
 0002:00003d1c       ??_C@_0BA@CFDHFDLH@BOTH_HOLD_START?$AA@ 200f3d1c     bg_panimate.obj
 0002:00003d2c       ??_C@_0O@JGHHGCA@BOTH_B2_T____?$AA@ 200f3d2c     bg_panimate.obj
 0002:00003d3c       ??_C@_0P@EPJNGCKB@BOTH_HOLD_MISS?$AA@ 200f3d3c     bg_panimate.obj
 0002:00003d4c       ??_C@_0O@COCHJLHC@BOTH_B2_TL___?$AA@ 200f3d4c     bg_panimate.obj
 0002:00003d5c       ??_C@_0P@EDJFENCG@BOTH_HOLD_IDLE?$AA@ 200f3d5c     bg_panimate.obj
 0002:00003d6c       ??_C@_0O@EEOAGLLB@BOTH_B2__L___?$AA@ 200f3d6c     bg_panimate.obj
 0002:00003d7c       ??_C@_0O@HFIKEJBB@BOTH_HOLD_END?$AA@ 200f3d7c     bg_panimate.obj
 0002:00003d8c       ??_C@_0O@PLKIHKPE@BOTH_B2_BL___?$AA@ 200f3d8c     bg_panimate.obj
 0002:00003d9c       ??_C@_0BB@EFCJFPCD@BOTH_HOLD_ATTACK?$AA@ 200f3d9c     bg_panimate.obj
 0002:00003db0       ??_C@_0O@FHGCCKJN@BOTH_D2_BR___?$AA@ 200f3db0     bg_panimate.obj
 0002:00003dc0       ??_C@_0BA@KJAIIPAE@BOTH_HOLD_SNIFF?$AA@ 200f3dc0     bg_panimate.obj
 0002:00003dd0       ??_C@_0O@OICKDLNI@BOTH_D2__R___?$AA@ 200f3dd0     bg_panimate.obj
 0002:00003de0       ??_C@_0P@PLIENJJJ@BOTH_HOLD_DROP?$AA@ 200f3de0     bg_panimate.obj
 0002:00003df0       ??_C@_0O@ICONMLBL@BOTH_D2_TR___?$AA@ 200f3df0     bg_panimate.obj
 0002:00003e00       ??_C@_0N@CFDAGGFP@BOTH_GRABBED?$AA@ 200f3e00     bg_panimate.obj
 0002:00003e10       ??_C@_0O@FNDNOCPI@BOTH_D2_TL___?$AA@ 200f3e10     bg_panimate.obj
 0002:00003e20       ??_C@_0O@LAAPIANC@BOTH_RELEASED?$AA@ 200f3e20     bg_panimate.obj
 0002:00003e30       ??_C@_0O@DHPKBCDL@BOTH_D2__L___?$AA@ 200f3e30     bg_panimate.obj
 0002:00003e40       ??_C@_0P@PIJKILFE@BOTH_HANG_IDLE?$AA@ 200f3e40     bg_panimate.obj
 0002:00003e50       ??_C@_0O@IILCADHO@BOTH_D2_BL___?$AA@ 200f3e50     bg_panimate.obj
 0002:00003e60       ??_C@_0BB@CKCHJINN@BOTH_HANG_ATTACK?$AA@ 200f3e60     bg_panimate.obj
 0002:00003e74       ??_C@_0O@KPPCOOCM@BOTH_D2_B____?$AA@ 200f3e74     bg_panimate.obj
 0002:00003e84       ??_C@_0P@EHILJFLF@BOTH_HANG_PAIN?$AA@ 200f3e84     bg_panimate.obj
 0002:00003e94       ??_C@_0O@OILOHKFI@BOTH_A3_T__B_?$AA@ 200f3e94     bg_panimate.obj
 0002:00003ea4       ??_C@_09PPDGHFCD@BOTH_HIT1?$AA@ 200f3ea4     bg_panimate.obj
 0002:00003eb0       ??_C@_0O@EGJCJKH@BOTH_A3__L__R?$AA@ 200f3eb0     bg_panimate.obj
 0002:00003ec0       ??_C@_0BA@ILKIBIOO@BOTH_LADDER_UP1?$AA@ 200f3ec0     bg_panimate.obj
 0002:00003ed0       ??_C@_0O@PPIDPJL@BOTH_A3__R__L?$AA@ 200f3ed0     bg_panimate.obj
 0002:00003ee0       ??_C@_0BB@BOJOMJDD@BOTH_LADDER_DWN1?$AA@ 200f3ee0     bg_panimate.obj
 0002:00003ef4       ??_C@_0O@HKFAOJEH@BOTH_A3_TL_BR?$AA@ 200f3ef4     bg_panimate.obj
 0002:00003f04       ??_C@_0BB@OMHFJNGP@BOTH_LADDER_IDLE?$AA@ 200f3f04     bg_panimate.obj
 0002:00003f18       ??_C@_0O@LMOFMBDP@BOTH_A3_BR_TL?$AA@ 200f3f18     bg_panimate.obj
 0002:00003f28       ??_C@_0BC@ODIBALPH@BOTH_FLY_SHIELDED?$AA@ 200f3f28     bg_panimate.obj
 0002:00003f3c       ??_C@_0O@LHHENHAD@BOTH_A3_BL_TR?$AA@ 200f3f3c     bg_panimate.obj
 0002:00003f4c       ??_C@_0BA@PIGFMLPF@BOTH_SWIM_IDLE1?$AA@ 200f3f4c     bg_panimate.obj
 0002:00003f5c       ??_C@_0O@HBMBPPHL@BOTH_A3_TR_BL?$AA@ 200f3f5c     bg_panimate.obj
 0002:00003f6c       ??_C@_0BB@FOFCFDFI@BOTH_SWIMFORWARD?$AA@ 200f3f6c     bg_panimate.obj
 0002:00003f80       ??_C@_0O@ICKGBGDP@BOTH_T3_BR__R?$AA@ 200f3f80     bg_panimate.obj
 0002:00003f90       ??_C@_0BC@LJIHFCKB@BOTH_SWIMBACKWARD?$AA@ 200f3f90     bg_panimate.obj
 0002:00003fa4       ??_C@_0O@FKLCMGAB@BOTH_T3_BR_TL?$AA@ 200f3fa4     bg_panimate.obj
 0002:00003fb4       ??_C@_0M@LIOOPEJI@BOTH_SLEEP1?$AA@ 200f3fb4     bg_panimate.obj
 0002:00003fc0       ??_C@_0O@FGOHCJOA@BOTH_T3_BR__L?$AA@ 200f3fc0     bg_panimate.obj
 0002:00003fd0       ??_C@_0BB@HHHLEEDB@BOTH_SLEEP6START?$AA@ 200f3fd0     bg_panimate.obj
 0002:00003fe4       ??_C@_0O@ECBJBJMD@BOTH_T3_BR_BL?$AA@ 200f3fe4     bg_panimate.obj
 0002:00003ff4       ??_C@_0BA@CINKHNGE@BOTH_SLEEP6STOP?$AA@ 200f3ff4     bg_panimate.obj
 0002:00004004       ??_C@_0O@DBLLOIJL@BOTH_T3__R_TR?$AA@ 200f4004     bg_panimate.obj
 0002:00004014       ??_C@_0BB@HBPPPACM@BOTH_SLEEP1GETUP?$AA@ 200f4014     bg_panimate.obj
 0002:00004028       ??_C@_0O@OFPKNHEE@BOTH_T3__R_TL?$AA@ 200f4028     bg_panimate.obj
 0002:00004038       ??_C@_0BC@NPNJMHGC@BOTH_SLEEP1GETUP2?$AA@ 200f4038     bg_panimate.obj
 0002:0000404c       ??_C@_0O@OJKPDIKF@BOTH_T3__R__L?$AA@ 200f404c     bg_panimate.obj
 0002:0000405c       ??_C@_0BB@OFKGJANF@BOTH_CHOKE1START?$AA@ 200f405c     bg_panimate.obj
 0002:00004070       ??_C@_0O@PNFBAIIG@BOTH_T3__R_BL?$AA@ 200f4070     bg_panimate.obj
 0002:00004080       ??_C@_0BF@ICMFFJIF@BOTH_CHOKE1STARTHOLD?$AA@ 200f4080     bg_panimate.obj
 0002:00004098       ??_C@_0O@EDNHMHJK@BOTH_T3_TR_BR?$AA@ 200f4098     bg_panimate.obj
 0002:000040a8       ??_C@_0M@PECDCEEJ@BOTH_CHOKE1?$AA@ 200f40a8     bg_panimate.obj
 0002:000040b4       ??_C@_0O@IPDNCHIH@BOTH_T3_TR_TL?$AA@ 200f40b4     bg_panimate.obj
 0002:000040c4       ??_C@_0M@NPAOHHIK@BOTH_CHOKE2?$AA@ 200f40c4     bg_panimate.obj
 0002:000040d0       ??_C@_0O@IDGIMIGG@BOTH_T3_TR__L?$AA@ 200f40d0     bg_panimate.obj
 0002:000040e0       ??_C@_0M@MGBFEGML@BOTH_CHOKE3?$AA@ 200f40e0     bg_panimate.obj
 0002:000040ec       ??_C@_0O@JHJGPIEF@BOTH_T3_TR_BL?$AA@ 200f40ec     bg_panimate.obj
 0002:000040fc       ??_C@_0O@CAGOCCAO@BOTH_POWERUP1?$AA@ 200f40fc     bg_panimate.obj
 0002:0000410c       ??_C@_0O@LLEHADCL@BOTH_T3_T__BR?$AA@ 200f410c     bg_panimate.obj
 0002:0000411c       ??_C@_0M@ODIMNEKC@BOTH_TURNON?$AA@ 200f411c     bg_panimate.obj
 0002:00004128       ??_C@_0O@KPLJDDAI@BOTH_T3_T___R?$AA@ 200f4128     bg_panimate.obj
 0002:00004138       ??_C@_0N@JAALPHCL@BOTH_TURNOFF?$AA@ 200f4138     bg_panimate.obj
 0002:00004148       ??_C@_0O@KDOMNMOJ@BOTH_T3_T__TR?$AA@ 200f4148     bg_panimate.obj
 0002:00004158       ??_C@_0N@LILLBNDA@BOTH_BUTTON1?$AA@ 200f4158     bg_panimate.obj
 0002:00004168       ??_C@_0O@HHKNODDG@BOTH_T3_T__TL?$AA@ 200f4168     bg_panimate.obj
 0002:00004178       ??_C@_0N@JDJGEOPD@BOTH_BUTTON2?$AA@ 200f4178     bg_panimate.obj
 0002:00004188       ??_C@_0O@HLPIAMNH@BOTH_T3_T___L?$AA@ 200f4188     bg_panimate.obj
 0002:00004198       ??_C@_0BB@FCMBEPCD@BOTH_BUTTON_HOLD?$AA@ 200f4198     bg_panimate.obj
 0002:000041ac       ??_C@_0O@GPAGDMPE@BOTH_T3_T__BL?$AA@ 200f41ac     bg_panimate.obj
 0002:000041bc       ??_C@_0BE@BFLOBGOL@BOTH_BUTTON_RELEASE?$AA@ 200f41bc     bg_panimate.obj
 0002:000041d0       ??_C@_0O@JMAHOOHJ@BOTH_T3_TL_BR?$AA@ 200f41d0     bg_panimate.obj
 0002:000041e0       ??_C@_0BA@IBNLMMOO@BOTH_RESISTPUSH?$AA@ 200f41e0     bg_panimate.obj
 0002:000041f0       ??_C@_0O@EIEGNBKG@BOTH_T3_TL_BL?$AA@ 200f41f0     bg_panimate.obj
 0002:00004200       ??_C@_0P@HEAGBOPG@BOTH_FORCEPUSH?$AA@ 200f4200     bg_panimate.obj
 0002:00004210       ??_C@_0O@PGMABOLK@BOTH_T3__L_BR?$AA@ 200f4210     bg_panimate.obj
 0002:00004220       ??_C@_0P@HBADPLP@BOTH_FORCEPULL?$AA@ 200f4220     bg_panimate.obj
 0002:00004230       ??_C@_0O@OCDOCOJJ@BOTH_T3__L__R?$AA@ 200f4230     bg_panimate.obj
 0002:00004240       ??_C@_0BA@IHNHLMMO@BOTH_MINDTRICK1?$AA@ 200f4240     bg_panimate.obj
 0002:00004250       ??_C@_0O@DKCKPOKH@BOTH_T3__L_TL?$AA@ 200f4250     bg_panimate.obj
 0002:00004260       ??_C@_0BA@KMPKOPAN@BOTH_MINDTRICK2?$AA@ 200f4260     bg_panimate.obj
 0002:00004270       ??_C@_0O@EJIIAPPP@BOTH_T3_BL_BR?$AA@ 200f4270     bg_panimate.obj
 0002:00004280       ??_C@_0BE@OEAHGILF@BOTH_FORCELIGHTNING?$AA@ 200f4280     bg_panimate.obj
 0002:00004294       ??_C@_0O@FNHGDPNM@BOTH_T3_BL__R?$AA@ 200f4294     bg_panimate.obj
 0002:000042a4       ??_C@_0BK@NACKCJFF@BOTH_FORCELIGHTNING_START?$AA@ 200f42a4     bg_panimate.obj
 0002:000042c0       ??_C@_0O@FBCDNADN@BOTH_T3_BL_TR?$AA@ 200f42c0     bg_panimate.obj
 0002:000042d0       ??_C@_0BJ@KCFBGHIB@BOTH_FORCELIGHTNING_HOLD?$AA@ 200f42d0     bg_panimate.obj
 0002:000042ec       ??_C@_0O@IJDHAAAD@BOTH_T3_BL__L?$AA@ 200f42ec     bg_panimate.obj
 0002:000042fc       ??_C@_0BM@GCBAKCPL@BOTH_FORCELIGHTNING_RELEASE?$AA@ 200f42fc     bg_panimate.obj
 0002:00004318       ??_C@_0O@IOPDPJNO@BOTH_T3_BR_TR?$AA@ 200f4318     bg_panimate.obj
 0002:00004328       ??_C@_0BF@FPDMFLAG@BOTH_FORCEHEAL_START?$AA@ 200f4328     bg_panimate.obj
 0002:00004340       ??_C@_0O@DLFNIHJD@BOTH_T3_BR_T_?$AA@ 200f4340     bg_panimate.obj
 0002:00004350       ??_C@_0BE@GNHNNEFM@BOTH_FORCEHEAL_STOP?$AA@ 200f4350     bg_panimate.obj
 0002:00004364       ??_C@_0O@CJBADHFJ@BOTH_T3__R_BR?$AA@ 200f4364     bg_panimate.obj
 0002:00004374       ??_C@_0BF@DKJODMIL@BOTH_FORCEHEAL_QUICK?$AA@ 200f4374     bg_panimate.obj
 0002:0000438c       ??_C@_0O@IEBFJGNG@BOTH_T3__R_T_?$AA@ 200f438c     bg_panimate.obj
 0002:0000439c       ??_C@_0P@PONJILD@BOTH_SABERPULL?$AA@ 200f439c     bg_panimate.obj
 0002:000043ac       ??_C@_0O@FHCJPHLJ@BOTH_T3_TR__R?$AA@ 200f43ac     bg_panimate.obj
 0002:000043bc       ??_C@_0BA@BDJFPNIF@BOTH_FORCEGRIP1?$AA@ 200f43bc     bg_panimate.obj
 0002:000043cc       ??_C@_0O@OONCGGBF@BOTH_T3_TR_T_?$AA@ 200f43cc     bg_panimate.obj
 0002:000043dc       ??_C@_0BA@CBKDJPAH@BOTH_FORCEGRIP3?$AA@ 200f43dc     bg_panimate.obj
 0002:000043ec       ??_C@_0O@IIPJNOFK@BOTH_T3_TL__R?$AA@ 200f43ec     bg_panimate.obj
 0002:000043fc       ??_C@_0BF@BAAGEEBG@BOTH_FORCEGRIP3THROW?$AA@ 200f43fc     bg_panimate.obj
 0002:00004414       ??_C@_0O@IEKMDBLL@BOTH_T3_TL_TR?$AA@ 200f4414     bg_panimate.obj
 0002:00004424       ??_C@_0BE@JLIMFCGH@BOTH_FORCEGRIP_HOLD?$AA@ 200f4424     bg_panimate.obj
 0002:00004438       ??_C@_0O@DBACEPPG@BOTH_T3_TL_T_?$AA@ 200f4438     bg_panimate.obj
 0002:00004448       ??_C@_0BH@JFCMGCAP@BOTH_FORCEGRIP_RELEASE?$AA@ 200f4448     bg_panimate.obj
 0002:00004460       ??_C@_0O@FMLIOBIF@BOTH_T3_TL__L?$AA@ 200f4460     bg_panimate.obj
 0002:00004470       ??_C@_0L@EJBFFAAC@BOTH_TOSS1?$AA@ 200f4470     bg_panimate.obj
 0002:0000447c       ??_C@_0O@OOGLMBHI@BOTH_T3__L_TR?$AA@ 200f447c     bg_panimate.obj
 0002:0000448c       ??_C@_0L@GCDIADMB@BOTH_TOSS2?$AA@ 200f448c     bg_panimate.obj
 0002:00004498       ??_C@_0O@FLMFLPDF@BOTH_T3__L_T_?$AA@ 200f4498     bg_panimate.obj
 0002:000044a8       ??_C@_0BA@GLJOFMJL@BOTH_FORCE_RAGE?$AA@ 200f44a8     bg_panimate.obj
 0002:000044b8       ??_C@_0O@CCIBCBGF@BOTH_T3__L_BL?$AA@ 200f44b8     bg_panimate.obj
 0002:000044c8       ??_C@_0BM@OPHDEJED@BOTH_FORCE_2HANDEDLIGHTNING?$AA@ 200f44c8     bg_panimate.obj
 0002:000044e4       ??_C@_0O@OEINKOHA@BOTH_T3_BL_T_?$AA@ 200f44e4     bg_panimate.obj
 0002:000044f4       ??_C@_0CC@HEIANMP@BOTH_FORCE_2HANDEDLIGHTNING_STAR@ 200f44f4     bg_panimate.obj
 0002:00004518       ??_C@_0O@IFGCOPOC@BOTH_T3_BL_TL?$AA@ 200f4518     bg_panimate.obj
 0002:00004528       ??_C@_0CB@MNKHBDGA@BOTH_FORCE_2HANDEDLIGHTNING_HOLD@ 200f4528     bg_panimate.obj
 0002:0000454c       ??_C@_0O@EJCEDGPJ@BOTH_S3_S1_T_?$AA@ 200f454c     bg_panimate.obj
 0002:0000455c       ??_C@_0CE@NFLNPDNI@BOTH_FORCE_2HANDEDLIGHTNING_RELE@ 200f455c     bg_panimate.obj
 0002:00004580       ??_C@_0O@CEJOJIIK@BOTH_S3_S1__L?$AA@ 200f4580     bg_panimate.obj
 0002:00004590       ??_C@_0BB@NHPCBMHH@BOTH_FORCE_DRAIN?$AA@ 200f4590     bg_panimate.obj
 0002:000045a4       ??_C@_0O@PANPKHFF@BOTH_S3_S1__R?$AA@ 200f45a4     bg_panimate.obj
 0002:000045b4       ??_C@_0BH@BHMNGNLJ@BOTH_FORCE_DRAIN_START?$AA@ 200f45b4     bg_panimate.obj
 0002:000045cc       ??_C@_0O@CIMLHHGL@BOTH_S3_S1_TL?$AA@ 200f45cc     bg_panimate.obj
 0002:000045dc       ??_C@_0BG@JCLNDPPK@BOTH_FORCE_DRAIN_HOLD?$AA@ 200f45dc     bg_panimate.obj
 0002:000045f4       ??_C@_0O@OECBJHHG@BOTH_S3_S1_BR?$AA@ 200f45f4     bg_panimate.obj
 0002:00004604       ??_C@_0BJ@OBGKFMHF@BOTH_FORCE_DRAIN_RELEASE?$AA@ 200f4604     bg_panimate.obj
 0002:00004620       ??_C@_0O@DAGAKIKJ@BOTH_S3_S1_BL?$AA@ 200f4620     bg_panimate.obj
 0002:00004630       ??_C@_0BM@PACMCIGF@BOTH_FORCE_DRAIN_GRAB_START?$AA@ 200f4630     bg_panimate.obj
 0002:0000464c       ??_C@_0O@PMIKEILE@BOTH_S3_S1_TR?$AA@ 200f464c     bg_panimate.obj
 0002:0000465c       ??_C@_0BL@MLNFOEPE@BOTH_FORCE_DRAIN_GRAB_HOLD?$AA@ 200f465c     bg_panimate.obj
 0002:00004678       ??_C@_0O@EOOGGKAE@BOTH_R3_B__S1?$AA@ 200f4678     bg_panimate.obj
 0002:00004688       ??_C@_0BK@POJHMFNL@BOTH_FORCE_DRAIN_GRAB_END?$AA@ 200f4688     bg_panimate.obj
 0002:000046a4       ??_C@_0O@NGOOJGBD@BOTH_R3__L_S1?$AA@ 200f46a4     bg_panimate.obj
 0002:000046b4       ??_C@_0BJ@GKPDEPNJ@BOTH_FORCE_DRAIN_GRABBED?$AA@ 200f46b4     bg_panimate.obj
 0002:000046d0       ??_C@_0O@JDOLPPA@BOTH_R3__R_S1?$AA@ 200f46d0     bg_panimate.obj
 0002:000046e0       ??_C@_0BC@HHGANHBC@BOTH_FORCE_ABSORB?$AA@ 200f46e0     bg_panimate.obj
 0002:000046f4       ??_C@_0O@LMCJGGNA@BOTH_R3_TL_S1?$AA@ 200f46f4     bg_panimate.obj
 0002:00004704       ??_C@_0BI@BPAAFONF@BOTH_FORCE_ABSORB_START?$AA@ 200f4704     bg_panimate.obj
 0002:0000471c       ??_C@_0O@LGHGKOLF@BOTH_R3_BR_S1?$AA@ 200f471c     bg_panimate.obj
 0002:0000472c       ??_C@_0BG@CBNCOJEH@BOTH_FORCE_ABSORB_END?$AA@ 200f472c     bg_panimate.obj
 0002:00004744       ??_C@_0O@GJKGIHFG@BOTH_R3_BL_S1?$AA@ 200f4744     bg_panimate.obj
 0002:00004754       ??_C@_0BD@FFPOEFNG@BOTH_FORCE_PROTECT?$AA@ 200f4754     bg_panimate.obj
 0002:00004768       ??_C@_0O@GDPJEPDD@BOTH_R3_TR_S1?$AA@ 200f4768     bg_panimate.obj
 0002:00004778       ??_C@_0BI@GLAHPFBH@BOTH_FORCE_PROTECT_FAST?$AA@ 200f4778     bg_panimate.obj
 0002:00004790       ??_C@_0O@OINCFDIJ@BOTH_B3_BR___?$AA@ 200f4790     bg_panimate.obj
 0002:000047a0       ??_C@_09FOHPNOGF@BOTH_WIND?$AA@ 200f47a0     bg_panimate.obj
 0002:000047ac       ??_C@_0O@FHJKECMM@BOTH_B3__R___?$AA@ 200f47ac     bg_panimate.obj
 0002:000047bc       ??_C@_0BE@FLPJEFCO@BOTH_STAND_TO_KNEEL?$AA@ 200f47bc     bg_panimate.obj
 0002:000047d0       ??_C@_0O@DNFNLCAP@BOTH_B3_TR___?$AA@ 200f47d0     bg_panimate.obj
 0002:000047e0       ??_C@_0BE@OBEECCKH@BOTH_KNEEL_TO_STAND?$AA@ 200f47e0     bg_panimate.obj
 0002:000047f4       ??_C@_0O@MFMNHGLO@BOTH_B3_T____?$AA@ 200f47f4     bg_panimate.obj
 0002:00004804       ??_C@_0BD@OHIFPJFA@BOTH_TUSKENATTACK1?$AA@ 200f4804     bg_panimate.obj
 0002:00004818       ??_C@_0O@OCINJLOM@BOTH_B3_TL___?$AA@ 200f4818     bg_panimate.obj
 0002:00004828       ??_C@_0BD@MMKIKKJD@BOTH_TUSKENATTACK2?$AA@ 200f4828     bg_panimate.obj
 0002:0000483c       ??_C@_0O@IIEKGLCP@BOTH_B3__L___?$AA@ 200f483c     bg_panimate.obj
 0002:0000484c       ??_C@_0BD@NFLDJLNC@BOTH_TUSKENATTACK3?$AA@ 200f484c     bg_panimate.obj
 0002:00004860       ??_C@_0O@DHACHKGK@BOTH_B3_BL___?$AA@ 200f4860     bg_panimate.obj
 0002:00004870       ??_C@_0BC@BIOHNIGA@BOTH_TUSKENLUNGE1?$AA@ 200f4870     bg_panimate.obj
 0002:00004884       ??_C@_0O@JLMICKAD@BOTH_D3_BR___?$AA@ 200f4884     bg_panimate.obj
 0002:00004894       ??_C@_0BC@KDENGKBK@BOTH_TUSKENTAUNT1?$AA@ 200f4894     bg_panimate.obj
 0002:000048a8       ??_C@_0O@CEIADLEG@BOTH_D3__R___?$AA@ 200f48a8     bg_panimate.obj
 0002:000048b8       ??_C@_0BC@KKMKANGM@BOTH_COWER1_START?$AA@ 200f48b8     bg_panimate.obj
 0002:000048cc       ??_C@_0O@EOEHMLIF@BOTH_D3_TR___?$AA@ 200f48cc     bg_panimate.obj
 0002:000048dc       ??_C@_0M@EAAAAKHE@BOTH_COWER1?$AA@ 200f48dc     bg_panimate.obj
 0002:000048e8       ??_C@_0O@JBJHOCGG@BOTH_D3_TL___?$AA@ 200f48e8     bg_panimate.obj
 0002:000048f8       ??_C@_0BB@JEOPOJAL@BOTH_COWER1_STOP?$AA@ 200f48f8     bg_panimate.obj
 0002:0000490c       ??_C@_0O@PLFABCKF@BOTH_D3__L___?$AA@ 200f490c     bg_panimate.obj
 0002:0000491c       ??_C@_0BF@LOEEPGJI@BOTH_SONICPAIN_START?$AA@ 200f491c     bg_panimate.obj
 0002:00004934       ??_C@_0O@EEBIADOA@BOTH_D3_BL___?$AA@ 200f4934     bg_panimate.obj
 0002:00004944       ??_C@_0BE@KHIIENBG@BOTH_SONICPAIN_HOLD?$AA@ 200f4944     bg_panimate.obj
 0002:00004958       ??_C@_0O@GDFIOOLC@BOTH_D3_B____?$AA@ 200f4958     bg_panimate.obj
 0002:00004968       ??_C@_0BD@KFKLMKIP@BOTH_SONICPAIN_END?$AA@ 200f4968     bg_panimate.obj
 0002:0000497c       ??_C@_0O@OCHLHDEB@BOTH_A4_T__B_?$AA@ 200f497c     bg_panimate.obj
 0002:0000498c       ??_C@_0N@EGCBKCBH@BOTH_STAND10?$AA@ 200f498c     bg_panimate.obj
 0002:0000499c       ??_C@_0O@OKMCALO@BOTH_A4__L__R?$AA@ 200f499c     bg_panimate.obj
 0002:000049ac       ??_C@_0BD@DEOMOHKM@BOTH_STAND10_TALK1?$AA@ 200f49ac     bg_panimate.obj
 0002:000049c0       ??_C@_0O@FDNDGIC@BOTH_A4__R__L?$AA@ 200f49c0     bg_panimate.obj
 0002:000049d0       ??_C@_0BD@BPMBLEGP@BOTH_STAND10_TALK2?$AA@ 200f49d0     bg_panimate.obj
 0002:000049e4       ??_C@_0O@HAJFOAFO@BOTH_A4_TL_BR?$AA@ 200f49e4     bg_panimate.obj
 0002:000049f4       ??_C@_0BF@EILOIEKG@BOTH_STAND10TOSTAND1?$AA@ 200f49f4     bg_panimate.obj
 0002:00004a0c       ??_C@_0O@LGCAMICG@BOTH_A4_BR_TL?$AA@ 200f4a0c     bg_panimate.obj
 0002:00004a1c       ??_C@_0BC@EOCMNLEK@BOTH_STAND1_TALK1?$AA@ 200f4a1c     bg_panimate.obj
 0002:00004a30       ??_C@_0O@LNLBNOBK@BOTH_A4_BL_TR?$AA@ 200f4a30     bg_panimate.obj
 0002:00004a40       ??_C@_0BC@GFABIIIJ@BOTH_STAND1_TALK2?$AA@ 200f4a40     bg_panimate.obj
 0002:00004a54       ??_C@_0O@HLAEPGGC@BOTH_A4_TR_BL?$AA@ 200f4a54     bg_panimate.obj
 0002:00004a64       ??_C@_0BC@HMBKLJMI@BOTH_STAND1_TALK3?$AA@ 200f4a64     bg_panimate.obj
 0002:00004a78       ??_C@_0O@IIGDBPCG@BOTH_T4_BR__R?$AA@ 200f4a78     bg_panimate.obj
 0002:00004a88       ??_C@_09JFHBCHPF@BOTH_SIT4?$AA@ 200f4a88     bg_panimate.obj
 0002:00004a94       ??_C@_0O@FAHHMPBI@BOTH_T4_BR_TL?$AA@ 200f4a94     bg_panimate.obj
 0002:00004aa4       ??_C@_09IMGKBGLE@BOTH_SIT5?$AA@ 200f4aa4     bg_panimate.obj
 0002:00004ab0       ??_C@_0O@FMCCCAPJ@BOTH_T4_BR__L?$AA@ 200f4ab0     bg_panimate.obj
 0002:00004ac0       ??_C@_0BA@JOAOOGJC@BOTH_SIT5_TALK1?$AA@ 200f4ac0     bg_panimate.obj
 0002:00004ad0       ??_C@_0O@EINMBANK@BOTH_T4_BR_BL?$AA@ 200f4ad0     bg_panimate.obj
 0002:00004ae0       ??_C@_0BA@LFCDLFFB@BOTH_SIT5_TALK2?$AA@ 200f4ae0     bg_panimate.obj
 0002:00004af0       ??_C@_0O@DLHOOBIC@BOTH_T4__R_TR?$AA@ 200f4af0     bg_panimate.obj
 0002:00004b00       ??_C@_0BA@KMDIIEBA@BOTH_SIT5_TALK3?$AA@ 200f4b00     bg_panimate.obj
 0002:00004b10       ??_C@_0O@OPDPNOFN@BOTH_T4__R_TL?$AA@ 200f4b10     bg_panimate.obj
 0002:00004b20       ??_C@_09KHEHEFHH@BOTH_SIT6?$AA@ 200f4b20     bg_panimate.obj
 0002:00004b2c       ??_C@_0O@ODGKDBLM@BOTH_T4__R__L?$AA@ 200f4b2c     bg_panimate.obj
 0002:00004b3c       ??_C@_09LOFMHEDG@BOTH_SIT7?$AA@ 200f4b3c     bg_panimate.obj
 0002:00004b48       ??_C@_0O@PHJEABJP@BOTH_T4__R_BL?$AA@ 200f4b48     bg_panimate.obj
 0002:00004b58       ??_C@_0BA@FKIHNDLF@TORSO_DROPWEAP1?$AA@ 200f4b58     bg_panimate.obj
 0002:00004b68       ??_C@_0O@EJBCMOID@BOTH_T4_TR_BR?$AA@ 200f4b68     bg_panimate.obj
 0002:00004b78       ??_C@_0BA@CHPACHPA@TORSO_DROPWEAP4?$AA@ 200f4b78     bg_panimate.obj
 0002:00004b88       ??_C@_0O@IFPICOJO@BOTH_T4_TR_TL?$AA@ 200f4b88     bg_panimate.obj
 0002:00004b98       ??_C@_0BB@OACMJEDC@TORSO_RAISEWEAP1?$AA@ 200f4b98     bg_panimate.obj
 0002:00004bac       ??_C@_0O@IJKNMBHP@BOTH_T4_TR__L?$AA@ 200f4bac     bg_panimate.obj
 0002:00004bbc       ??_C@_0BB@JNFLGAHH@TORSO_RAISEWEAP4?$AA@ 200f4bbc     bg_panimate.obj
 0002:00004bd0       ??_C@_0O@JNFDPBFM@BOTH_T4_TR_BL?$AA@ 200f4bd0     bg_panimate.obj
 0002:00004be0       ??_C@_0BD@DOKMINPD@TORSO_WEAPONREADY1?$AA@ 200f4be0     bg_panimate.obj
 0002:00004bf4       ??_C@_0O@LBICAKDC@BOTH_T4_T__BR?$AA@ 200f4bf4     bg_panimate.obj
 0002:00004c04       ??_C@_0BD@BFIBNODA@TORSO_WEAPONREADY2?$AA@ 200f4c04     bg_panimate.obj
 0002:00004c18       ??_C@_0O@KFHMDKBB@BOTH_T4_T___R?$AA@ 200f4c18     bg_panimate.obj
 0002:00004c28       ??_C@_0BD@MJKOPHB@TORSO_WEAPONREADY3?$AA@ 200f4c28     bg_panimate.obj
 0002:00004c3c       ??_C@_0O@KJCJNFPA@BOTH_T4_T__TR?$AA@ 200f4c3c     bg_panimate.obj
 0002:00004c4c       ??_C@_0BD@EDNLHJLG@TORSO_WEAPONREADY4?$AA@ 200f4c4c     bg_panimate.obj
 0002:00004c60       ??_C@_0O@HNGIOKCP@BOTH_T4_T__TL?$AA@ 200f4c60     bg_panimate.obj
 0002:00004c70       ??_C@_0BE@PLMMDJNI@TORSO_WEAPONREADY10?$AA@ 200f4c70     bg_panimate.obj
 0002:00004c84       ??_C@_0O@HBDNAFMO@BOTH_T4_T___L?$AA@ 200f4c84     bg_panimate.obj
 0002:00004c94       ??_C@_0BC@LCPEPDLD@TORSO_WEAPONIDLE2?$AA@ 200f4c94     bg_panimate.obj
 0002:00004ca8       ??_C@_0O@GFMDDFON@BOTH_T4_T__BL?$AA@ 200f4ca8     bg_panimate.obj
 0002:00004cb8       ??_C@_0BC@KLOPMCPC@TORSO_WEAPONIDLE3?$AA@ 200f4cb8     bg_panimate.obj
 0002:00004ccc       ??_C@_0O@JGMCOHGA@BOTH_T4_TL_BR?$AA@ 200f4ccc     bg_panimate.obj
 0002:00004cdc       ??_C@_0BC@OEKOFEDF@TORSO_WEAPONIDLE4?$AA@ 200f4cdc     bg_panimate.obj
 0002:00004cf0       ??_C@_0O@ECIDNILP@BOTH_T4_TL_BL?$AA@ 200f4cf0     bg_panimate.obj
 0002:00004d00       ??_C@_0BD@IPNKJOGP@TORSO_WEAPONIDLE10?$AA@ 200f4d00     bg_panimate.obj
 0002:00004d14       ??_C@_0O@PMAFBHKD@BOTH_T4__L_BR?$AA@ 200f4d14     bg_panimate.obj
 0002:00004d24       ??_C@_0BG@DJHHNKPJ@TORSO_SURRENDER_START?$AA@ 200f4d24     bg_panimate.obj
 0002:00004d3c       ??_C@_0O@OIPLCHIA@BOTH_T4__L__R?$AA@ 200f4d3c     bg_panimate.obj
 0002:00004d4c       ??_C@_0BF@CAMHOBIG@TORSO_SURRENDER_STOP?$AA@ 200f4d4c     bg_panimate.obj
 0002:00004d64       ??_C@_0O@DAOPPHLO@BOTH_T4__L_TL?$AA@ 200f4d64     bg_panimate.obj
 0002:00004d74       ??_C@_0P@EDGDJEAA@TORSO_CHOKING1?$AA@ 200f4d74     bg_panimate.obj
 0002:00004d84       ??_C@_0O@EDENAGOG@BOTH_T4_BL_BR?$AA@ 200f4d84     bg_panimate.obj
 0002:00004d94       ??_C@_0BC@DEBJGJOG@TORSO_HANDSIGNAL1?$AA@ 200f4d94     bg_panimate.obj
 0002:00004da8       ??_C@_0O@FHLDDGMF@BOTH_T4_BL__R?$AA@ 200f4da8     bg_panimate.obj
 0002:00004db8       ??_C@_0BC@BPDEDKCF@TORSO_HANDSIGNAL2?$AA@ 200f4db8     bg_panimate.obj
 0002:00004dcc       ??_C@_0O@FLOGNJCE@BOTH_T4_BL_TR?$AA@ 200f4dcc     bg_panimate.obj
 0002:00004ddc       ??_C@_0BC@GCPALGE@TORSO_HANDSIGNAL3?$AA@ 200f4ddc     bg_panimate.obj
 0002:00004df0       ??_C@_0O@IDPCAJBK@BOTH_T4_BL__L?$AA@ 200f4df0     bg_panimate.obj
 0002:00004e00       ??_C@_0BC@EJGOJNKD@TORSO_HANDSIGNAL4?$AA@ 200f4e00     bg_panimate.obj
 0002:00004e14       ??_C@_0O@IEDGPAMH@BOTH_T4_BR_TR?$AA@ 200f4e14     bg_panimate.obj
 0002:00004e24       ??_C@_0BC@FAHFKMOC@TORSO_HANDSIGNAL5?$AA@ 200f4e24     bg_panimate.obj
 0002:00004e38       ??_C@_0O@DBJIIOIK@BOTH_T4_BR_T_?$AA@ 200f4e38     bg_panimate.obj
 0002:00004e48       ??_C@_0L@DOMPGAGB@LEGS_TURN1?$AA@ 200f4e48     bg_panimate.obj
 0002:00004e54       ??_C@_0O@CDNFDOEA@BOTH_T4__R_BR?$AA@ 200f4e54     bg_panimate.obj
 0002:00004e64       ??_C@_0L@BFOCDDKC@LEGS_TURN2?$AA@ 200f4e64     bg_panimate.obj
 0002:00004e70       ??_C@_0O@IONAJPMP@BOTH_T4__R_T_?$AA@ 200f4e70     bg_panimate.obj
 0002:00004e80       ??_C@_0BA@MCADBFIF@LEGS_LEAN_LEFT1?$AA@ 200f4e80     bg_panimate.obj
 0002:00004e90       ??_C@_0O@FNOMPOKA@BOTH_T4_TR__R?$AA@ 200f4e90     bg_panimate.obj
 0002:00004ea0       ??_C@_0BB@HCNNJMLM@LEGS_LEAN_RIGHT1?$AA@ 200f4ea0     bg_panimate.obj
 0002:00004eb4       ??_C@_0O@OEBHGPAM@BOTH_T4_TR_T_?$AA@ 200f4eb4     bg_panimate.obj
 0002:00004ec4       ??_C@_0O@FPAJGKKH@LEGS_CHOKING1?$AA@ 200f4ec4     bg_panimate.obj
 0002:00004ed4       ??_C@_0O@ICDMNHED@BOTH_T4_TL__R?$AA@ 200f4ed4     bg_panimate.obj
 0002:00004ee4       ??_C@_0N@FFGGDFNJ@LEGS_LEFTUP1?$AA@ 200f4ee4     bg_panimate.obj
 0002:00004ef4       ??_C@_0O@IOGJDIKC@BOTH_T4_TL_TR?$AA@ 200f4ef4     bg_panimate.obj
 0002:00004f04       ??_C@_0N@HOELGGBK@LEGS_LEFTUP2?$AA@ 200f4f04     bg_panimate.obj
 0002:00004f14       ??_C@_0O@DLMHEGOP@BOTH_T4_TL_T_?$AA@ 200f4f14     bg_panimate.obj
 0002:00004f24       ??_C@_0N@GHFAFHFL@LEGS_LEFTUP3?$AA@ 200f4f24     bg_panimate.obj
 0002:00004f34       ??_C@_0O@FGHNOIJM@BOTH_T4_TL__L?$AA@ 200f4f34     bg_panimate.obj
 0002:00004f44       ??_C@_0N@CIBBMBJM@LEGS_LEFTUP4?$AA@ 200f4f44     bg_panimate.obj
 0002:00004f54       ??_C@_0O@OEKOMIGB@BOTH_T4__L_TR?$AA@ 200f4f54     bg_panimate.obj
 0002:00004f64       ??_C@_0N@DBAKPANN@LEGS_LEFTUP5?$AA@ 200f4f64     bg_panimate.obj
 0002:00004f74       ??_C@_0O@FBAALGCM@BOTH_T4__L_T_?$AA@ 200f4f74     bg_panimate.obj
 0002:00004f84       ??_C@_0O@JLGCDGJK@LEGS_RIGHTUP1?$AA@ 200f4f84     bg_panimate.obj
 0002:00004f94       ??_C@_0O@CIEECIHM@BOTH_T4__L_BL?$AA@ 200f4f94     bg_panimate.obj
 0002:00004fa4       ??_C@_0O@LAEPGFFJ@LEGS_RIGHTUP2?$AA@ 200f4fa4     bg_panimate.obj
 0002:00004fb4       ??_C@_0O@OOEIKHGJ@BOTH_T4_BL_T_?$AA@ 200f4fb4     bg_panimate.obj
 0002:00004fc4       ??_C@_0O@KJFEFEBI@LEGS_RIGHTUP3?$AA@ 200f4fc4     bg_panimate.obj
 0002:00004fd4       ??_C@_0O@IPKHOGPL@BOTH_T4_BL_TL?$AA@ 200f4fd4     bg_panimate.obj
 0002:00004fe4       ??_C@_0O@OGBFMCNP@LEGS_RIGHTUP4?$AA@ 200f4fe4     bg_panimate.obj
 0002:00004ff4       ??_C@_0O@EDOBDPOA@BOTH_S4_S1_T_?$AA@ 200f4ff4     bg_panimate.obj
 0002:00005004       ??_C@_0O@PPAOPDJO@LEGS_RIGHTUP5?$AA@ 200f5004     bg_panimate.obj
 0002:00005014       ??_C@_0O@COFLJBJD@BOTH_S4_S1__L?$AA@ 200f5014     bg_panimate.obj
 0002:00005024       ??_C@_0N@JMJDGNHG@LEGS_S1_LUP1?$AA@ 200f5024     bg_panimate.obj
 0002:00005034       ??_C@_0O@PKBKKOEM@BOTH_S4_S1__R?$AA@ 200f5034     bg_panimate.obj
 0002:00005044       ??_C@_0N@LHLODOLF@LEGS_S1_LUP2?$AA@ 200f5044     bg_panimate.obj
 0002:00005054       ??_C@_0O@CCAOHOHC@BOTH_S4_S1_TL?$AA@ 200f5054     bg_panimate.obj
 0002:00005064       ??_C@_0N@KOKFAPPE@LEGS_S1_LUP3?$AA@ 200f5064     bg_panimate.obj
 0002:00005074       ??_C@_0O@OOOEJOGP@BOTH_S4_S1_BR?$AA@ 200f5074     bg_panimate.obj
 0002:00005084       ??_C@_0N@OBOEJJDD@LEGS_S1_LUP4?$AA@ 200f5084     bg_panimate.obj
 0002:00005094       ??_C@_0O@DKKFKBLA@BOTH_S4_S1_BL?$AA@ 200f5094     bg_panimate.obj
 0002:000050a4       ??_C@_0N@PIPPKIHC@LEGS_S1_LUP5?$AA@ 200f50a4     bg_panimate.obj
 0002:000050b4       ??_C@_0O@PGEPEBKN@BOTH_S4_S1_TR?$AA@ 200f50b4     bg_panimate.obj
 0002:000050c4       ??_C@_0N@EDEDEEJF@LEGS_S1_RUP1?$AA@ 200f50c4     bg_panimate.obj
 0002:000050d4       ??_C@_0O@EECDGDBN@BOTH_R4_B__S1?$AA@ 200f50d4     bg_panimate.obj
 0002:000050e4       ??_C@_0N@GIGOBHFG@LEGS_S1_RUP2?$AA@ 200f50e4     bg_panimate.obj
 0002:000050f4       ??_C@_0O@NMCLJPAK@BOTH_R4__L_S1?$AA@ 200f50f4     bg_panimate.obj
 0002:00005104       ??_C@_0N@HBHFCGBH@LEGS_S1_RUP3?$AA@ 200f5104     bg_panimate.obj
 0002:00005114       ??_C@_0O@DPLLGOJ@BOTH_R4__R_S1?$AA@ 200f5114     bg_panimate.obj
 0002:00005124       ??_C@_0N@DODELANA@LEGS_S1_RUP4?$AA@ 200f5124     bg_panimate.obj
 0002:00005134       ??_C@_0O@LGOMGPMJ@BOTH_R4_TL_S1?$AA@ 200f5134     bg_panimate.obj
 0002:00005144       ??_C@_0N@CHCPIBJB@LEGS_S1_RUP5?$AA@ 200f5144     bg_panimate.obj
 0002:00005154       ??_C@_0O@LMLDKHKM@BOTH_R4_BR_S1?$AA@ 200f5154     bg_panimate.obj
 0002:00005164       ??_C@_0N@LAMHMFP@LEGS_S3_LUP1?$AA@ 200f5164     bg_panimate.obj
 0002:00005174       ??_C@_0O@GDGDIOEP@BOTH_R4_BL_S1?$AA@ 200f5174     bg_panimate.obj
 0002:00005184       ??_C@_0N@CACBCPJM@LEGS_S3_LUP2?$AA@ 200f5184     bg_panimate.obj
 0002:00005194       ??_C@_0O@GJDMEGCK@BOTH_R4_TR_S1?$AA@ 200f5194     bg_panimate.obj
 0002:000051a4       ??_C@_0N@DJDKBONN@LEGS_S3_LUP3?$AA@ 200f51a4     bg_panimate.obj
 0002:000051b4       ??_C@_0O@OCBHFKJA@BOTH_B4_BR___?$AA@ 200f51b4     bg_panimate.obj
 0002:000051c4       ??_C@_0N@HGHLIIBK@LEGS_S3_LUP4?$AA@ 200f51c4     bg_panimate.obj
 0002:000051d4       ??_C@_0O@FNFPELNF@BOTH_B4__R___?$AA@ 200f51d4     bg_panimate.obj
 0002:000051e4       ??_C@_0N@GPGALJFL@LEGS_S3_LUP5?$AA@ 200f51e4     bg_panimate.obj
 0002:000051f4       ??_C@_0O@DHJILLBG@BOTH_B4_TR___?$AA@ 200f51f4     bg_panimate.obj
 0002:00005204       ??_C@_0N@NENMFFLM@LEGS_S3_RUP1?$AA@ 200f5204     bg_panimate.obj
 0002:00005214       ??_C@_0O@MPAIHPKH@BOTH_B4_T____?$AA@ 200f5214     bg_panimate.obj
 0002:00005224       ??_C@_0N@PPPBAGHP@LEGS_S3_RUP2?$AA@ 200f5224     bg_panimate.obj
 0002:00005234       ??_C@_0O@OIEIJCPF@BOTH_B4_TL___?$AA@ 200f5234     bg_panimate.obj
 0002:00005244       ??_C@_0N@OGOKDHDO@LEGS_S3_RUP3?$AA@ 200f5244     bg_panimate.obj
 0002:00005254       ??_C@_0O@ICIPGCDG@BOTH_B4__L___?$AA@ 200f5254     bg_panimate.obj
 0002:00005264       ??_C@_0N@KJKLKBPJ@LEGS_S3_RUP4?$AA@ 200f5264     bg_panimate.obj
 0002:00005274       ??_C@_0O@DNMHHDHD@BOTH_B4_BL___?$AA@ 200f5274     bg_panimate.obj
 0002:00005284       ??_C@_0N@LALAJALI@LEGS_S3_RUP5?$AA@ 200f5284     bg_panimate.obj
 0002:00005294       ??_C@_0O@JBANCDBK@BOTH_D4_BR___?$AA@ 200f5294     bg_panimate.obj
 0002:000052a4       ??_C@_0N@MOKLECNB@LEGS_S4_LUP1?$AA@ 200f52a4     bg_panimate.obj
 0002:000052b4       ??_C@_0O@COEFDCFP@BOTH_D4__R___?$AA@ 200f52b4     bg_panimate.obj
 0002:000052c4       ??_C@_0N@OFIGBBBC@LEGS_S4_LUP2?$AA@ 200f52c4     bg_panimate.obj
 0002:000052d4       ??_C@_0O@EEICMCJM@BOTH_D4_TR___?$AA@ 200f52d4     bg_panimate.obj
 0002:000052e4       ??_C@_0N@PMJNCAFD@LEGS_S4_LUP3?$AA@ 200f52e4     bg_panimate.obj
 0002:000052f4       ??_C@_0O@JLFCOLHP@BOTH_D4_TL___?$AA@ 200f52f4     bg_panimate.obj
 0002:00005304       ??_C@_0N@LDNMLGJE@LEGS_S4_LUP4?$AA@ 200f5304     bg_panimate.obj
 0002:00005314       ??_C@_0O@PBJFBLLM@BOTH_D4__L___?$AA@ 200f5314     bg_panimate.obj
 0002:00005324       ??_C@_0N@KKMHIHNF@LEGS_S4_LUP5?$AA@ 200f5324     bg_panimate.obj
 0002:00005334       ??_C@_0O@EONNAKPJ@BOTH_D4_BL___?$AA@ 200f5334     bg_panimate.obj
 0002:00005344       ??_C@_0N@BBHLGLDC@LEGS_S4_RUP1?$AA@ 200f5344     bg_panimate.obj
 0002:00005354       ??_C@_0O@GJJNOHKL@BOTH_D4_B____?$AA@ 200f5354     bg_panimate.obj
 0002:00005364       ??_C@_0N@DKFGDIPB@LEGS_S4_RUP2?$AA@ 200f5364     bg_panimate.obj
 0002:00005374       ??_C@_0O@CONBHDNP@BOTH_A5_T__B_?$AA@ 200f5374     bg_panimate.obj
 0002:00005384       ??_C@_0N@CDENAJLA@LEGS_S4_RUP3?$AA@ 200f5384     bg_panimate.obj
 0002:00005394       ??_C@_0O@MCAGCACA@BOTH_A5__L__R?$AA@ 200f5394     bg_panimate.obj
 0002:000053a4       ??_C@_0N@GMAMJPHH@LEGS_S4_RUP4?$AA@ 200f53a4     bg_panimate.obj
 0002:000053b4       ??_C@_0O@MJJHDGBM@BOTH_A5__R__L?$AA@ 200f53b4     bg_panimate.obj
 0002:000053c4       ??_C@_0N@HFBHKODG@LEGS_S4_RUP5?$AA@ 200f53c4     bg_panimate.obj
 0002:000053d4       ??_C@_0O@LMDPOAMA@BOTH_A5_TL_BR?$AA@ 200f53d4     bg_panimate.obj
 0002:000053e4       ??_C@_0N@GINMEJGF@LEGS_S5_LUP1?$AA@ 200f53e4     bg_panimate.obj
 0002:000053f4       ??_C@_0O@HKIKMILI@BOTH_A5_BR_TL?$AA@ 200f53f4     bg_panimate.obj
 0002:00005404       ??_C@_0N@EDPBBKKG@LEGS_S5_LUP2?$AA@ 200f5404     bg_panimate.obj
 0002:00005414       ??_C@_0O@HBBLNOIE@BOTH_A5_BL_TR?$AA@ 200f5414     bg_panimate.obj
 0002:00005424       ??_C@_0N@FKOKCLOH@LEGS_S5_LUP3?$AA@ 200f5424     bg_panimate.obj
 0002:00005434       ??_C@_0O@LHKOPGPM@BOTH_A5_TR_BL?$AA@ 200f5434     bg_panimate.obj
 0002:00005444       ??_C@_0N@BFKLLNCA@LEGS_S5_LUP4?$AA@ 200f5444     bg_panimate.obj
 0002:00005454       ??_C@_0O@EEMJBPLI@BOTH_T5_BR__R?$AA@ 200f5454     bg_panimate.obj
 0002:00005464       ??_C@_0N@MLAIMGB@LEGS_S5_LUP5?$AA@ 200f5464     bg_panimate.obj
 0002:00005474       ??_C@_0O@JMNNMPIG@BOTH_T5_BR_TL?$AA@ 200f5474     bg_panimate.obj
 0002:00005484       ??_C@_0N@LHAMGAIG@LEGS_S5_RUP1?$AA@ 200f5484     bg_panimate.obj
 0002:00005494       ??_C@_0O@JAIICAGH@BOTH_T5_BR__L?$AA@ 200f5494     bg_panimate.obj
 0002:000054a4       ??_C@_0N@JMCBDDEF@LEGS_S5_RUP2?$AA@ 200f54a4     bg_panimate.obj
 0002:000054b4       ??_C@_0O@IEHGBAEE@BOTH_T5_BR_BL?$AA@ 200f54b4     bg_panimate.obj
 0002:000054c4       ??_C@_0N@IFDKACAE@LEGS_S5_RUP3?$AA@ 200f54c4     bg_panimate.obj
 0002:000054d4       ??_C@_0O@PHNEOBBM@BOTH_T5__R_TR?$AA@ 200f54d4     bg_panimate.obj
 0002:000054e4       ??_C@_0N@MKHLJEMD@LEGS_S5_RUP4?$AA@ 200f54e4     bg_panimate.obj
 0002:000054f4       ??_C@_0O@CDJFNOMD@BOTH_T5__R_TL?$AA@ 200f54f4     bg_panimate.obj
 0002:00005504       ??_C@_0N@NDGAKFIC@LEGS_S5_RUP5?$AA@ 200f5504     bg_panimate.obj
 0002:00005514       ??_C@_0O@CPMADBCC@BOTH_T5__R__L?$AA@ 200f5514     bg_panimate.obj
 0002:00005524       ??_C@_0N@FJDEFDPI@LEGS_S6_LUP1?$AA@ 200f5524     bg_panimate.obj
 0002:00005534       ??_C@_0O@DLDOABAB@BOTH_T5__R_BL?$AA@ 200f5534     bg_panimate.obj
 0002:00005544       ??_C@_0N@HCBJAADL@LEGS_S6_LUP2?$AA@ 200f5544     bg_panimate.obj
 0002:00005554       ??_C@_0O@IFLIMOBN@BOTH_T5_TR_BR?$AA@ 200f5554     bg_panimate.obj
 0002:00005564       ??_C@_0N@GLACDBHK@LEGS_S6_LUP3?$AA@ 200f5564     bg_panimate.obj
 0002:00005574       ??_C@_0O@EJFCCOAA@BOTH_T5_TR_TL?$AA@ 200f5574     bg_panimate.obj
 0002:00005584       ??_C@_0N@CEEDKHLN@LEGS_S6_LUP4?$AA@ 200f5584     bg_panimate.obj
 0002:00005594       ??_C@_0O@EFAHMBOB@BOTH_T5_TR__L?$AA@ 200f5594     bg_panimate.obj
 0002:000055a4       ??_C@_0N@DNFIJGPM@LEGS_S6_LUP5?$AA@ 200f55a4     bg_panimate.obj
 0002:000055b4       ??_C@_0O@FBPJPBMC@BOTH_T5_TR_BL?$AA@ 200f55b4     bg_panimate.obj
 0002:000055c4       ??_C@_0N@IGOEHKBL@LEGS_S6_RUP1?$AA@ 200f55c4     bg_panimate.obj
 0002:000055d4       ??_C@_0O@HNCIAKKM@BOTH_T5_T__BR?$AA@ 200f55d4     bg_panimate.obj
 0002:000055e4       ??_C@_0N@KNMJCJNI@LEGS_S6_RUP2?$AA@ 200f55e4     bg_panimate.obj
 0002:000055f4       ??_C@_0O@GJNGDKIP@BOTH_T5_T___R?$AA@ 200f55f4     bg_panimate.obj
 0002:00005604       ??_C@_0N@LENCBIJJ@LEGS_S6_RUP3?$AA@ 200f5604     bg_panimate.obj
 0002:00005614       ??_C@_0O@GFIDNFGO@BOTH_T5_T__TR?$AA@ 200f5614     bg_panimate.obj
 0002:00005624       ??_C@_0N@PLJDIOFO@LEGS_S6_RUP4?$AA@ 200f5624     bg_panimate.obj
 0002:00005634       ??_C@_0O@LBMCOKLB@BOTH_T5_T__TL?$AA@ 200f5634     bg_panimate.obj
 0002:00005644       ??_C@_0N@OCIILPBP@LEGS_S6_RUP5?$AA@ 200f5644     bg_panimate.obj
 0002:00005654       ??_C@_0O@LNJHAFFA@BOTH_T5_T___L?$AA@ 200f5654     bg_panimate.obj
 0002:00005664       ??_C@_0N@PPEDFIEM@LEGS_S7_LUP1?$AA@ 200f5664     bg_panimate.obj
 0002:00005674       ??_C@_0O@KJGJDFHD@BOTH_T5_T__BL?$AA@ 200f5674     bg_panimate.obj
 0002:00005684       ??_C@_0N@NEGOALIP@LEGS_S7_LUP2?$AA@ 200f5684     bg_panimate.obj
 0002:00005694       ??_C@_0O@FKGIOHPO@BOTH_T5_TL_BR?$AA@ 200f5694     bg_panimate.obj
 0002:000056a4       ??_C@_0N@MNHFDKMO@LEGS_S7_LUP3?$AA@ 200f56a4     bg_panimate.obj
 0002:000056b4       ??_C@_0O@IOCJNICB@BOTH_T5_TL_BL?$AA@ 200f56b4     bg_panimate.obj
 0002:000056c4       ??_C@_0N@ICDEKMAJ@LEGS_S7_LUP4?$AA@ 200f56c4     bg_panimate.obj
 0002:000056d4       ??_C@_0O@DAKPBHDN@BOTH_T5__L_BR?$AA@ 200f56d4     bg_panimate.obj
 0002:000056e4       ??_C@_0N@JLCPJNEI@LEGS_S7_LUP5?$AA@ 200f56e4     bg_panimate.obj
 0002:000056f4       ??_C@_0O@CEFBCHBO@BOTH_T5__L__R?$AA@ 200f56f4     bg_panimate.obj
 0002:00005704       ??_C@_0N@CAJDHBKP@LEGS_S7_RUP1?$AA@ 200f5704     bg_panimate.obj
 0002:00005714       ??_C@_0O@PMEFPHCA@BOTH_T5__L_TL?$AA@ 200f5714     bg_panimate.obj
 0002:00005724       ??_C@_0N@LLOCCGM@LEGS_S7_RUP2?$AA@ 200f5724     bg_panimate.obj
 0002:00005734       ??_C@_0O@IPOHAGHI@BOTH_T5_BL_BR?$AA@ 200f5734     bg_panimate.obj
 0002:00005744       ??_C@_0N@BCKFBDCN@LEGS_S7_RUP3?$AA@ 200f5744     bg_panimate.obj
 0002:00005754       ??_C@_0O@JLBJDGFL@BOTH_T5_BL__R?$AA@ 200f5754     bg_panimate.obj
 0002:00005764       ??_C@_0N@FNOEIFOK@LEGS_S7_RUP4?$AA@ 200f5764     bg_panimate.obj
 0002:00005774       ??_C@_0O@JHEMNJLK@BOTH_T5_BL_TR?$AA@ 200f5774     bg_panimate.obj
 0002:00005784       ??_C@_0N@EEPPLEKL@LEGS_S7_RUP5?$AA@ 200f5784     bg_panimate.obj
 0002:00005794       ??_C@_0O@EPFIAJIE@BOTH_T5_BL__L?$AA@ 200f5794     bg_panimate.obj
 0002:000057a4       ??_C@_0N@MEGKIHKK@LEGS_TURN180?$AA@ 200f57a4     bg_panimate.obj
 0002:000057b4       ??_C@_0O@EIJMPAFJ@BOTH_T5_BR_TR?$AA@ 200f57b4     bg_panimate.obj
 0002:000057c4       ??_C@_0L@HDOPOBKH@BOTH_CIN_1?$AA@ 200f57c4     bg_panimate.obj
 0002:000057d0       ??_C@_0O@PNDCIOBE@BOTH_T5_BR_T_?$AA@ 200f57d0     bg_panimate.obj
 0002:000057e0       ??_C@_0L@FIMCLCGE@BOTH_CIN_2?$AA@ 200f57e0     bg_panimate.obj
 0002:000057ec       ??_C@_0O@OPHPDONO@BOTH_T5__R_BR?$AA@ 200f57ec     bg_panimate.obj
 0002:000057fc       ??_C@_0L@EBNJIDCF@BOTH_CIN_3?$AA@ 200f57fc     bg_panimate.obj
 0002:00005808       ??_C@_0O@ECHKJPFB@BOTH_T5__R_T_?$AA@ 200f5808     bg_panimate.obj
 0002:00005818       ??_C@_0L@OJIBFOC@BOTH_CIN_4?$AA@ 200f5818     bg_panimate.obj
 0002:00005824       ??_C@_0O@JBEGPODO@BOTH_T5_TR__R?$AA@ 200f5824     bg_panimate.obj
 0002:00005834       ??_C@_0L@BHIDCEKD@BOTH_CIN_5?$AA@ 200f5834     bg_panimate.obj
 0002:00005840       ??_C@_0O@CILNGPJC@BOTH_T5_TR_T_?$AA@ 200f5840     bg_panimate.obj
 0002:00005850       ??_C@_0L@DMKOHHGA@BOTH_CIN_6?$AA@ 200f5850     bg_panimate.obj
 0002:0000585c       ??_C@_0O@EOJGNHNN@BOTH_T5_TL__R?$AA@ 200f585c     bg_panimate.obj
 0002:0000586c       ??_C@_0L@CFLFEGCB@BOTH_CIN_7?$AA@ 200f586c     bg_panimate.obj
 0002:00005878       ??_C@_0O@ECMDDIDM@BOTH_T5_TL_TR?$AA@ 200f5878     bg_panimate.obj
 0002:00005888       ??_C@_0L@KCCNFKOO@BOTH_CIN_8?$AA@ 200f5888     bg_panimate.obj
 0002:00005894       ??_C@_0O@PHGNEGHB@BOTH_T5_TL_T_?$AA@ 200f5894     bg_panimate.obj
 0002:000058a4       ??_C@_0L@LLDGGLKP@BOTH_CIN_9?$AA@ 200f58a4     bg_panimate.obj
 0002:000058b0       ??_C@_0O@JKNHOIAC@BOTH_T5_TL__L?$AA@ 200f58b0     bg_panimate.obj
 0002:000058c0       ??_C@_0M@JHIHOPFJ@BOTH_CIN_10?$AA@ 200f58c0     bg_panimate.obj
 0002:000058cc       ??_C@_0O@CIAEMIPP@BOTH_T5__L_TR?$AA@ 200f58cc     bg_panimate.obj
 0002:000058dc       ??_C@_0M@IOJMNOBI@BOTH_CIN_11?$AA@ 200f58dc     bg_panimate.obj
 0002:000058e8       ??_C@_0O@JNKKLGLC@BOTH_T5__L_T_?$AA@ 200f58e8     bg_panimate.obj
 0002:000058f8       ??_C@_0M@KFLBINNL@BOTH_CIN_12?$AA@ 200f58f8     bg_panimate.obj
 0002:00005904       ??_C@_0O@OEOOCIOC@BOTH_T5__L_BL?$AA@ 200f5904     bg_panimate.obj
 0002:00005914       ??_C@_0M@LMKKLMJK@BOTH_CIN_13?$AA@ 200f5914     bg_panimate.obj
 0002:00005920       ??_C@_0O@CCOCKHPH@BOTH_T5_BL_T_?$AA@ 200f5920     bg_panimate.obj
 0002:00005930       ??_C@_0M@PDOLCKFN@BOTH_CIN_14?$AA@ 200f5930     bg_panimate.obj
 0002:0000593c       ??_C@_0O@EDANOGGF@BOTH_T5_BL_TL?$AA@ 200f593c     bg_panimate.obj
 0002:0000594c       ??_C@_0M@OKPABLBM@BOTH_CIN_15?$AA@ 200f594c     bg_panimate.obj
 0002:00005958       ??_C@_0O@IPELDPHO@BOTH_S5_S1_T_?$AA@ 200f5958     bg_panimate.obj
 0002:00005968       ??_C@_0M@MBNNEINP@BOTH_CIN_16?$AA@ 200f5968     bg_panimate.obj
 0002:00005974       ??_C@_0O@OCPBJBAN@BOTH_S5_S1__L?$AA@ 200f5974     bg_panimate.obj
 0002:00005984       ??_C@_0M@NIMGHJJO@BOTH_CIN_17?$AA@ 200f5984     bg_panimate.obj
 0002:00005990       ??_C@_0O@DGLAKONC@BOTH_S5_S1__R?$AA@ 200f5990     bg_panimate.obj
 0002:000059a0       ??_C@_0M@FPFOGFFB@BOTH_CIN_18?$AA@ 200f59a0     bg_panimate.obj
 0002:000059ac       ??_C@_0O@OOKEHOOM@BOTH_S5_S1_TL?$AA@ 200f59ac     bg_panimate.obj
 0002:000059bc       ??_C@_0M@EGEFFEBA@BOTH_CIN_19?$AA@ 200f59bc     bg_panimate.obj
 0002:000059c8       ??_C@_0O@CCEOJOPB@BOTH_S5_S1_BR?$AA@ 200f59c8     bg_panimate.obj
 0002:000059d8       ??_C@_0M@JFMBFBAA@BOTH_CIN_20?$AA@ 200f59d8     bg_panimate.obj
 0002:000059e4       ??_C@_0O@PGAPKBCO@BOTH_S5_S1_BL?$AA@ 200f59e4     bg_panimate.obj
 0002:000059f4       ??_C@_0M@IMNKGAEB@BOTH_CIN_21?$AA@ 200f59f4     bg_panimate.obj
 0002:00005a00       ??_C@_0O@DKOFEBDD@BOTH_S5_S1_TR?$AA@ 200f5a00     bg_panimate.obj
 0002:00005a10       ??_C@_0M@KHPHDDIC@BOTH_CIN_22?$AA@ 200f5a10     bg_panimate.obj
 0002:00005a1c       ??_C@_0O@IIIJGDID@BOTH_R5_B__S1?$AA@ 200f5a1c     bg_panimate.obj
 0002:00005a2c       ??_C@_0M@LOOMACMD@BOTH_CIN_23?$AA@ 200f5a2c     bg_panimate.obj
 0002:00005a38       ??_C@_0O@BAIBJPJE@BOTH_R5__L_S1?$AA@ 200f5a38     bg_panimate.obj
 0002:00005a48       ??_C@_0M@PBKNJEAE@BOTH_CIN_24?$AA@ 200f5a48     bg_panimate.obj
 0002:00005a54       ??_C@_0O@MPFBLGHH@BOTH_R5__R_S1?$AA@ 200f5a54     bg_panimate.obj
 0002:00005a64       ??_C@_0M@OILGKFEF@BOTH_CIN_25?$AA@ 200f5a64     bg_panimate.obj
 0002:00005a70       ??_C@_0O@HKEGGPFH@BOTH_R5_TL_S1?$AA@ 200f5a70     bg_panimate.obj
 0002:00005a80       ??_C@_0M@MDJLPGIG@BOTH_CIN_26?$AA@ 200f5a80     bg_panimate.obj
 0002:00005a8c       ??_C@_0O@HABJKHDC@BOTH_R5_BR_S1?$AA@ 200f5a8c     bg_panimate.obj
 0002:00005a9c       ??_C@_0M@NKIAMHMH@BOTH_CIN_27?$AA@ 200f5a9c     bg_panimate.obj
 0002:00005aa8       ??_C@_0O@KPMJIONB@BOTH_R5_BL_S1?$AA@ 200f5aa8     bg_panimate.obj
 0002:00005ab8       ??_C@_0M@FNBINLAI@BOTH_CIN_28?$AA@ 200f5ab8     bg_panimate.obj
 0002:00005ac4       ??_C@_0O@KFJGEGLE@BOTH_R5_TR_S1?$AA@ 200f5ac4     bg_panimate.obj
 0002:00005ad4       ??_C@_0M@EEADOKEJ@BOTH_CIN_29?$AA@ 200f5ad4     bg_panimate.obj
 0002:00005ae0       ??_C@_0O@COLNFKAO@BOTH_B5_BR___?$AA@ 200f5ae0     bg_panimate.obj
 0002:00005af0       ??_C@_0M@JEADDLDH@BOTH_CIN_30?$AA@ 200f5af0     bg_panimate.obj
 0002:00005afc       ??_C@_0O@JBPFELEL@BOTH_B5__R___?$AA@ 200f5afc     bg_panimate.obj
 0002:00005b0c       ??_C@_0M@INBIAKHG@BOTH_CIN_31?$AA@ 200f5b0c     bg_panimate.obj
 0002:00005b18       ??_C@_0O@PLDCLLII@BOTH_B5_TR___?$AA@ 200f5b18     bg_panimate.obj
 0002:00005b28       ??_C@_0M@KGDFFJLF@BOTH_CIN_32?$AA@ 200f5b28     bg_panimate.obj
 0002:00005b34       ??_C@_0O@DKCHPDJ@BOTH_B5_T____?$AA@ 200f5b34     bg_panimate.obj
 0002:00005b44       ??_C@_0M@LPCOGIPE@BOTH_CIN_33?$AA@ 200f5b44     bg_panimate.obj
 0002:00005b50       ??_C@_0O@CEOCJCGL@BOTH_B5_TL___?$AA@ 200f5b50     bg_panimate.obj
 0002:00005b60       ??_C@_0M@PAGPPODD@BOTH_CIN_34?$AA@ 200f5b60     bg_panimate.obj
 0002:00005b6c       ??_C@_0O@EOCFGCKI@BOTH_B5__L___?$AA@ 200f5b6c     bg_panimate.obj
 0002:00005b7c       ??_C@_0M@OJHEMPHC@BOTH_CIN_35?$AA@ 200f5b7c     bg_panimate.obj
 0002:00005b88       ??_C@_0O@PBGNHDON@BOTH_B5_BL___?$AA@ 200f5b88     bg_panimate.obj
 0002:00005b98       ??_C@_0M@MCFJJMLB@BOTH_CIN_36?$AA@ 200f5b98     bg_panimate.obj
 0002:00005ba4       ??_C@_0O@FNKHCDIE@BOTH_D5_BR___?$AA@ 200f5ba4     bg_panimate.obj
 0002:00005bb4       ??_C@_0M@NLECKNPA@BOTH_CIN_37?$AA@ 200f5bb4     bg_panimate.obj
 0002:00005bc0       ??_C@_0O@OCOPDCMB@BOTH_D5__R___?$AA@ 200f5bc0     bg_panimate.obj
 0002:00005bd0       ??_C@_0M@FMNKLBDP@BOTH_CIN_38?$AA@ 200f5bd0     bg_panimate.obj
 0002:00005bdc       ??_C@_0O@IICIMCAC@BOTH_D5_TR___?$AA@ 200f5bdc     bg_panimate.obj
 0002:00005bec       ??_C@_0M@EFMBIAHO@BOTH_CIN_39?$AA@ 200f5bec     bg_panimate.obj
 0002:00005bf8       ??_C@_0O@FHPIOLOB@BOTH_D5_TL___?$AA@ 200f5bf8     bg_panimate.obj
 0002:00005c08       ??_C@_0M@JBEMCNLC@BOTH_CIN_40?$AA@ 200f5c08     bg_panimate.obj
 0002:00005c14       ??_C@_0O@DNDPBLCC@BOTH_D5__L___?$AA@ 200f5c14     bg_panimate.obj
 0002:00005c24       ??_C@_0M@IIFHBMPD@BOTH_CIN_41?$AA@ 200f5c24     bg_panimate.obj
 0002:00005c30       ??_C@_0O@ICHHAKGH@BOTH_D5_BL___?$AA@ 200f5c30     bg_panimate.obj
 0002:00005c40       ??_C@_0M@KDHKEPDA@BOTH_CIN_42?$AA@ 200f5c40     bg_panimate.obj
 0002:00005c4c       ??_C@_0O@KFDHOHDF@BOTH_D5_B____?$AA@ 200f5c4c     bg_panimate.obj
 0002:00005c5c       ??_C@_0M@LKGBHOHB@BOTH_CIN_43?$AA@ 200f5c5c     bg_panimate.obj
 0002:00005c68       ??_C@_0O@KAFOHEDM@BOTH_A6_T__B_?$AA@ 200f5c68     bg_panimate.obj
 0002:00005c78       ??_C@_0M@PFCAOILG@BOTH_CIN_44?$AA@ 200f5c78     bg_panimate.obj
 0002:00005c84       ??_C@_0O@EMIJCHMD@BOTH_A6__L__R?$AA@ 200f5c84     bg_panimate.obj
 0002:00005c94       ??_C@_0M@OMDLNJPH@BOTH_CIN_45?$AA@ 200f5c94     bg_panimate.obj
 0002:00005ca0       ??_C@_0O@EHBIDBPP@BOTH_A6__R__L?$AA@ 200f5ca0     bg_panimate.obj
 0002:00005cb0       ??_C@_0M@MHBGIKDE@BOTH_CIN_46?$AA@ 200f5cb0     bg_panimate.obj
 0002:00005cbc       ??_C@_0O@DCLAOHCD@BOTH_A6_TL_BR?$AA@ 200f5cbc     bg_panimate.obj
 0002:00005ccc       ??_C@_0M@NOANLLHF@BOTH_CIN_47?$AA@ 200f5ccc     bg_panimate.obj
 0002:00005cd8       ??_C@_0O@PEAFMPFL@BOTH_A6_BR_TL?$AA@ 200f5cd8     bg_panimate.obj
 0002:00005ce8       ??_C@_0M@FJJFKHLK@BOTH_CIN_48?$AA@ 200f5ce8     bg_panimate.obj
 0002:00005cf4       ??_C@_0O@PPJENJGH@BOTH_A6_BL_TR?$AA@ 200f5cf4     bg_panimate.obj
 0002:00005d04       ??_C@_0M@EAIOJGPL@BOTH_CIN_49?$AA@ 200f5d04     bg_panimate.obj
 0002:00005d10       ??_C@_0O@DJCBPBBP@BOTH_A6_TR_BL?$AA@ 200f5d10     bg_panimate.obj
 0002:00005d20       ??_C@_0M@JAIOEHIF@BOTH_CIN_50?$AA@ 200f5d20     bg_panimate.obj
 0002:00005d2c       ??_C@_0O@MKEGBIFL@BOTH_T6_BR__R?$AA@ 200f5d2c     bg_panimate.obj
 0002:00005d3c       ??_C@_0O@BCFCMIGF@BOTH_T6_BR_TL?$AA@ 200f5d3c     bg_panimate.obj
 0002:00005d4c       ??_C@_0O@BOAHCHIE@BOTH_T6_BR__L?$AA@ 200f5d4c     bg_panimate.obj
 0002:00005d5c       ??_C@_0O@KPJBHKH@BOTH_T6_BR_BL?$AA@ 200f5d5c     bg_panimate.obj
 0002:00005d6c       ??_C@_0O@HJFLOGPP@BOTH_T6__R_TR?$AA@ 200f5d6c     bg_panimate.obj
 0002:00005d7c       ??_C@_0O@KNBKNJCA@BOTH_T6__R_TL?$AA@ 200f5d7c     bg_panimate.obj
 0002:00005d8c       ??_C@_0O@KBEPDGMB@BOTH_T6__R__L?$AA@ 200f5d8c     bg_panimate.obj
 0002:00005d9c       ??_C@_0O@LFLBAGOC@BOTH_T6__R_BL?$AA@ 200f5d9c     bg_panimate.obj
 0002:00005dac       ??_C@_0O@LDHMJPO@BOTH_T6_TR_BR?$AA@ 200f5dac     bg_panimate.obj
 0002:00005dbc       ??_C@_0O@MHNNCJOD@BOTH_T6_TR_TL?$AA@ 200f5dbc     bg_panimate.obj
 0002:00005dcc       ??_C@_0O@MLIIMGAC@BOTH_T6_TR__L?$AA@ 200f5dcc     bg_panimate.obj
 0002:00005ddc       ??_C@_0O@NPHGPGCB@BOTH_T6_TR_BL?$AA@ 200f5ddc     bg_panimate.obj
 0002:00005dec       ??_C@_0O@PDKHANEP@BOTH_T6_T__BR?$AA@ 200f5dec     bg_panimate.obj
 0002:00005dfc       ??_C@_0O@OHFJDNGM@BOTH_T6_T___R?$AA@ 200f5dfc     bg_panimate.obj
 0002:00005e0c       ??_C@_0O@OLAMNCIN@BOTH_T6_T__TR?$AA@ 200f5e0c     bg_panimate.obj
 0002:00005e1c       ??_C@_0O@DPENONFC@BOTH_T6_T__TL?$AA@ 200f5e1c     bg_panimate.obj
 0002:00005e2c       ??_C@_0O@DDBIACLD@BOTH_T6_T___L?$AA@ 200f5e2c     bg_panimate.obj
 0002:00005e3c       ??_C@_0O@CHOGDCJA@BOTH_T6_T__BL?$AA@ 200f5e3c     bg_panimate.obj
 0002:00005e4c       ??_C@_0O@NEOHOABN@BOTH_T6_TL_BR?$AA@ 200f5e4c     bg_panimate.obj
 0002:00005e5c       ??_C@_0O@KGNPMC@BOTH_T6_TL_BL?$AA@ 200f5e5c     bg_panimate.obj
 0002:00005e6c       ??_C@_0O@LOCABANO@BOTH_T6__L_BR?$AA@ 200f5e6c     bg_panimate.obj
 0002:00005e7c       ??_C@_0O@KKNOCAPN@BOTH_T6__L__R?$AA@ 200f5e7c     bg_panimate.obj
 0002:00005e8c       ??_C@_0O@HCMKPAMD@BOTH_T6__L_TL?$AA@ 200f5e8c     bg_panimate.obj
 0002:00005e9c       ??_C@_0O@BGIABJL@BOTH_T6_BL_BR?$AA@ 200f5e9c     bg_panimate.obj
 0002:00005eac       ??_C@_0O@BFJGDBLI@BOTH_T6_BL__R?$AA@ 200f5eac     bg_panimate.obj
 0002:00005ebc       ??_C@_0O@BJMDNOFJ@BOTH_T6_BL_TR?$AA@ 200f5ebc     bg_panimate.obj
 0002:00005ecc       ??_C@_0O@MBNHAOGH@BOTH_T6_BL__L?$AA@ 200f5ecc     bg_panimate.obj
 0002:00005edc       ??_C@_0O@MGBDPHLK@BOTH_T6_BR_TR?$AA@ 200f5edc     bg_panimate.obj
 0002:00005eec       ??_C@_0O@HDLNIJPH@BOTH_T6_BR_T_?$AA@ 200f5eec     bg_panimate.obj
 0002:00005efc       ??_C@_0O@GBPADJDN@BOTH_T6__R_BR?$AA@ 200f5efc     bg_panimate.obj
 0002:00005f0c       ??_C@_0O@MMPFJILC@BOTH_T6__R_T_?$AA@ 200f5f0c     bg_panimate.obj
 0002:00005f1c       ??_C@_0O@BPMJPJNN@BOTH_T6_TR__R?$AA@ 200f5f1c     bg_panimate.obj
 0002:00005f2c       ??_C@_0O@KGDCGIHB@BOTH_T6_TR_T_?$AA@ 200f5f2c     bg_panimate.obj
 0002:00005f3c       ??_C@_0O@MABJNADO@BOTH_T6_TL__R?$AA@ 200f5f3c     bg_panimate.obj
 0002:00005f4c       ??_C@_0O@MMEMDPNP@BOTH_T6_TL_TR?$AA@ 200f5f4c     bg_panimate.obj
 0002:00005f5c       ??_C@_0O@HJOCEBJC@BOTH_T6_TL_T_?$AA@ 200f5f5c     bg_panimate.obj
 0002:00005f6c       ??_C@_0O@BEFIOPOB@BOTH_T6_TL__L?$AA@ 200f5f6c     bg_panimate.obj
 0002:00005f7c       ??_C@_0O@KGILMPBM@BOTH_T6__L_TR?$AA@ 200f5f7c     bg_panimate.obj
 0002:00005f8c       ??_C@_0O@BDCFLBFB@BOTH_T6__L_T_?$AA@ 200f5f8c     bg_panimate.obj
 0002:00005f9c       ??_C@_0O@GKGBCPAB@BOTH_T6__L_BL?$AA@ 200f5f9c     bg_panimate.obj
 0002:00005fac       ??_C@_0O@KMGNKABE@BOTH_T6_BL_T_?$AA@ 200f5fac     bg_panimate.obj
 0002:00005fbc       ??_C@_0O@MNICOBIG@BOTH_T6_BL_TL?$AA@ 200f5fbc     bg_panimate.obj
 0002:00005fcc       ??_C@_0O@LDOEOEIN@BOTH_S6_S6_T_?$AA@ 200f5fcc     bg_panimate.obj
 0002:00005fdc       ??_C@_0O@NOFOEKPO@BOTH_S6_S6__L?$AA@ 200f5fdc     bg_panimate.obj
 0002:00005fec       ??_C@_0O@KBPHFCB@BOTH_S6_S6__R?$AA@ 200f5fec     bg_panimate.obj
 0002:00005ffc       ??_C@_0O@NCALKFBP@BOTH_S6_S6_TL?$AA@ 200f5ffc     bg_panimate.obj
 0002:0000600c       ??_C@_0O@BOOBEFAC@BOTH_S6_S6_BR?$AA@ 200f600c     bg_panimate.obj
 0002:0000601c       ??_C@_0O@MKKAHKNN@BOTH_S6_S6_BL?$AA@ 200f601c     bg_panimate.obj
 0002:0000602c       ??_C@_0O@GEKJKMA@BOTH_S6_S6_TR?$AA@ 200f602c     bg_panimate.obj
 0002:0000603c       ??_C@_0O@EJEHPCKH@BOTH_R6_B__S6?$AA@ 200f603c     bg_panimate.obj
 0002:0000604c       ??_C@_0O@NBEPAOLA@BOTH_R6__L_S6?$AA@ 200f604c     bg_panimate.obj
 0002:0000605c       ??_C@_0O@OJPCHFD@BOTH_R6__R_S6?$AA@ 200f605c     bg_panimate.obj
 0002:0000606c       ??_C@_0O@LLIIPOHD@BOTH_R6_TL_S6?$AA@ 200f606c     bg_panimate.obj
 0002:0000607c       ??_C@_0O@LBNHDGBG@BOTH_R6_BR_S6?$AA@ 200f607c     bg_panimate.obj
 0002:0000608c       ??_C@_0O@GOAHBPPF@BOTH_R6_BL_S6?$AA@ 200f608c     bg_panimate.obj
 0002:0000609c       ??_C@_0O@GEFINHJA@BOTH_R6_TR_S6?$AA@ 200f609c     bg_panimate.obj
 0002:000060ac       ??_C@_0O@KADCFNON@BOTH_B6_BR___?$AA@ 200f60ac     bg_panimate.obj
 0002:000060bc       ??_C@_0O@BPHKEMKI@BOTH_B6__R___?$AA@ 200f60bc     bg_panimate.obj
 0002:000060cc       ??_C@_0O@HFLNLMGL@BOTH_B6_TR___?$AA@ 200f60cc     bg_panimate.obj
 0002:000060dc       ??_C@_0O@INCNHINK@BOTH_B6_T____?$AA@ 200f60dc     bg_panimate.obj
 0002:000060ec       ??_C@_0O@KKGNJFII@BOTH_B6_TL___?$AA@ 200f60ec     bg_panimate.obj
 0002:000060fc       ??_C@_0O@MAKKGFEL@BOTH_B6__L___?$AA@ 200f60fc     bg_panimate.obj
 0002:0000610c       ??_C@_0O@HPOCHEAO@BOTH_B6_BL___?$AA@ 200f610c     bg_panimate.obj
 0002:0000611c       ??_C@_0O@NDCICEGH@BOTH_D6_BR___?$AA@ 200f611c     bg_panimate.obj
 0002:0000612c       ??_C@_0O@GMGADFCC@BOTH_D6__R___?$AA@ 200f612c     bg_panimate.obj
 0002:0000613c       ??_C@_0O@GKHMFOB@BOTH_D6_TR___?$AA@ 200f613c     bg_panimate.obj
 0002:0000614c       ??_C@_0O@NJHHOMAC@BOTH_D6_TL___?$AA@ 200f614c     bg_panimate.obj
 0002:0000615c       ??_C@_0O@LDLABMMB@BOTH_D6__L___?$AA@ 200f615c     bg_panimate.obj
 0002:0000616c       ??_C@_0O@MPIANIE@BOTH_D6_BL___?$AA@ 200f616c     bg_panimate.obj
 0002:0000617c       ??_C@_0O@CLLIOANG@BOTH_D6_B____?$AA@ 200f617c     bg_panimate.obj
 0002:0000618c       ??_C@_0O@GMPEHEKC@BOTH_A7_T__B_?$AA@ 200f618c     bg_panimate.obj
 0002:0000619c       ??_C@_0O@IACDCHFN@BOTH_A7__L__R?$AA@ 200f619c     bg_panimate.obj
 0002:000061ac       ??_C@_0O@ILLCDBGB@BOTH_A7__R__L?$AA@ 200f61ac     bg_panimate.obj
 0002:000061bc       ??_C@_0O@POBKOHLN@BOTH_A7_TL_BR?$AA@ 200f61bc     bg_panimate.obj
 0002:000061cc       ??_C@_0O@DIKPMPMF@BOTH_A7_BR_TL?$AA@ 200f61cc     bg_panimate.obj
 0002:000061dc       ??_C@_0O@DDDONJPJ@BOTH_A7_BL_TR?$AA@ 200f61dc     bg_panimate.obj
 0002:000061ec       ??_C@_0O@PFILPBIB@BOTH_A7_TR_BL?$AA@ 200f61ec     bg_panimate.obj
 0002:000061fc       ??_C@_0O@GOMBIMF@BOTH_T7_BR__R?$AA@ 200f61fc     bg_panimate.obj
 0002:0000620c       ??_C@_0O@NOPIMIPL@BOTH_T7_BR_TL?$AA@ 200f620c     bg_panimate.obj
 0002:0000621c       ??_C@_0O@NCKNCHBK@BOTH_T7_BR__L?$AA@ 200f621c     bg_panimate.obj
 0002:0000622c       ??_C@_0O@MGFDBHDJ@BOTH_T7_BR_BL?$AA@ 200f622c     bg_panimate.obj
 0002:0000623c       ??_C@_0O@LFPBOGGB@BOTH_T7__R_TR?$AA@ 200f623c     bg_panimate.obj
 0002:0000624c       ??_C@_0O@GBLANJLO@BOTH_T7__R_TL?$AA@ 200f624c     bg_panimate.obj
 0002:0000625c       ??_C@_0O@GNOFDGFP@BOTH_T7__R__L?$AA@ 200f625c     bg_panimate.obj
 0002:0000626c       ??_C@_0O@HJBLAGHM@BOTH_T7__R_BL?$AA@ 200f626c     bg_panimate.obj
 0002:0000627c       ??_C@_0O@MHJNMJGA@BOTH_T7_TR_BR?$AA@ 200f627c     bg_panimate.obj
 0002:0000628c       ??_C@_0O@LHHCJHN@BOTH_T7_TR_TL?$AA@ 200f628c     bg_panimate.obj
 0002:0000629c       ??_C@_0O@HCCMGJM@BOTH_T7_TR__L?$AA@ 200f629c     bg_panimate.obj
 0002:000062ac       ??_C@_0O@BDNMPGLP@BOTH_T7_TR_BL?$AA@ 200f62ac     bg_panimate.obj
 0002:000062bc       ??_C@_0O@DPANANNB@BOTH_T7_T__BR?$AA@ 200f62bc     bg_panimate.obj
 0002:000062cc       ??_C@_0O@CLPDDNPC@BOTH_T7_T___R?$AA@ 200f62cc     bg_panimate.obj
 0002:000062dc       ??_C@_0O@CHKGNCBD@BOTH_T7_T__TR?$AA@ 200f62dc     bg_panimate.obj
 0002:000062ec       ??_C@_0O@PDOHONMM@BOTH_T7_T__TL?$AA@ 200f62ec     bg_panimate.obj
 0002:000062fc       ??_C@_0O@PPLCACCN@BOTH_T7_T___L?$AA@ 200f62fc     bg_panimate.obj
 0002:0000630c       ??_C@_0O@OLEMDCAO@BOTH_T7_T__BL?$AA@ 200f630c     bg_panimate.obj
 0002:0000631c       ??_C@_0O@BIENOAID@BOTH_T7_TL_BR?$AA@ 200f631c     bg_panimate.obj
 0002:0000632c       ??_C@_0O@MMAMNPFM@BOTH_T7_TL_BL?$AA@ 200f632c     bg_panimate.obj
 0002:0000633c       ??_C@_0O@HCIKBAEA@BOTH_T7__L_BR?$AA@ 200f633c     bg_panimate.obj
 0002:0000634c       ??_C@_0O@GGHECAGD@BOTH_T7__L__R?$AA@ 200f634c     bg_panimate.obj
 0002:0000635c       ??_C@_0O@LOGAPAFN@BOTH_T7__L_TL?$AA@ 200f635c     bg_panimate.obj
 0002:0000636c       ??_C@_0O@MNMCABAF@BOTH_T7_BL_BR?$AA@ 200f636c     bg_panimate.obj
 0002:0000637c       ??_C@_0O@NJDMDBCG@BOTH_T7_BL__R?$AA@ 200f637c     bg_panimate.obj
 0002:0000638c       ??_C@_0O@NFGJNOMH@BOTH_T7_BL_TR?$AA@ 200f638c     bg_panimate.obj
 0002:0000639c       ??_C@_0O@NHNAOPJ@BOTH_T7_BL__L?$AA@ 200f639c     bg_panimate.obj
 0002:000063ac       ??_C@_0O@KLJPHCE@BOTH_T7_BR_TR?$AA@ 200f63ac     bg_panimate.obj
 0002:000063bc       ??_C@_0O@LPBHIJGJ@BOTH_T7_BR_T_?$AA@ 200f63bc     bg_panimate.obj
 0002:000063cc       ??_C@_0O@KNFKDJKD@BOTH_T7__R_BR?$AA@ 200f63cc     bg_panimate.obj
 0002:000063dc       ??_C@_0O@FPJICM@BOTH_T7__R_T_?$AA@ 200f63dc     bg_panimate.obj
 0002:000063ec       ??_C@_0O@NDGDPJED@BOTH_T7_TR__R?$AA@ 200f63ec     bg_panimate.obj
 0002:000063fc       ??_C@_0O@GKJIGIOP@BOTH_T7_TR_T_?$AA@ 200f63fc     bg_panimate.obj
 0002:0000640c       ??_C@_0O@MLDNAKA@BOTH_T7_TL__R?$AA@ 200f640c     bg_panimate.obj
 0002:0000641c       ??_C@_0O@OGDPEB@BOTH_T7_TL_TR?$AA@ 200f641c     bg_panimate.obj
 0002:0000642c       ??_C@_0O@LFEIEBAM@BOTH_T7_TL_T_?$AA@ 200f642c     bg_panimate.obj
 0002:0000643c       ??_C@_0O@NIPCOPHP@BOTH_T7_TL__L?$AA@ 200f643c     bg_panimate.obj
 0002:0000644c       ??_C@_0O@GKCBMPIC@BOTH_T7__L_TR?$AA@ 200f644c     bg_panimate.obj
 0002:0000645c       ??_C@_0O@NPIPLBMP@BOTH_T7__L_T_?$AA@ 200f645c     bg_panimate.obj
 0002:0000646c       ??_C@_0O@KGMLCPJP@BOTH_T7__L_BL?$AA@ 200f646c     bg_panimate.obj
 0002:0000647c       ??_C@_0O@GAMHKAIK@BOTH_T7_BL_T_?$AA@ 200f647c     bg_panimate.obj
 0002:0000648c       ??_C@_0O@BCIOBBI@BOTH_T7_BL_TL?$AA@ 200f648c     bg_panimate.obj
 0002:0000649c       ??_C@_0O@ECCOMNKD@BOTH_S7_S7_T_?$AA@ 200f649c     bg_panimate.obj
 0002:000064ac       ??_C@_0O@CPJEGDNA@BOTH_S7_S7__L?$AA@ 200f64ac     bg_panimate.obj
 0002:000064bc       ??_C@_0O@PLNFFMAP@BOTH_S7_S7__R?$AA@ 200f64bc     bg_panimate.obj
 0002:000064cc       ??_C@_0O@CDMBIMDB@BOTH_S7_S7_TL?$AA@ 200f64cc     bg_panimate.obj
 0002:000064dc       ??_C@_0O@OPCLGMCM@BOTH_S7_S7_BR?$AA@ 200f64dc     bg_panimate.obj
 0002:000064ec       ??_C@_0O@DLGKFDPD@BOTH_S7_S7_BL?$AA@ 200f64ec     bg_panimate.obj
 0002:000064fc       ??_C@_0O@PHIALDOO@BOTH_S7_S7_TR?$AA@ 200f64fc     bg_panimate.obj
 0002:0000650c       ??_C@_0O@JMPGMDHI@BOTH_R7_B__S7?$AA@ 200f650c     bg_panimate.obj
 0002:0000651c       ??_C@_0O@EPODPGP@BOTH_R7__L_S7?$AA@ 200f651c     bg_panimate.obj
 0002:0000652c       ??_C@_0O@NLCOBGIM@BOTH_R7__R_S7?$AA@ 200f652c     bg_panimate.obj
 0002:0000653c       ??_C@_0O@GODJMPKM@BOTH_R7_TL_S7?$AA@ 200f653c     bg_panimate.obj
 0002:0000654c       ??_C@_0O@GEGGAHMJ@BOTH_R7_BR_S7?$AA@ 200f654c     bg_panimate.obj
 0002:0000655c       ??_C@_0O@LLLGCOCK@BOTH_R7_BL_S7?$AA@ 200f655c     bg_panimate.obj
 0002:0000656c       ??_C@_0O@LBOJOGEP@BOTH_R7_TR_S7?$AA@ 200f656c     bg_panimate.obj
 0002:0000657c       ??_C@_0O@GMJIFNHD@BOTH_B7_BR___?$AA@ 200f657c     bg_panimate.obj
 0002:0000658c       ??_C@_0O@NDNAEMDG@BOTH_B7__R___?$AA@ 200f658c     bg_panimate.obj
 0002:0000659c       ??_C@_0O@LJBHLMPF@BOTH_B7_TR___?$AA@ 200f659c     bg_panimate.obj
 0002:000065ac       ??_C@_0O@EBIHHIEE@BOTH_B7_T____?$AA@ 200f65ac     bg_panimate.obj
 0002:000065bc       ??_C@_0O@GGMHJFBG@BOTH_B7_TL___?$AA@ 200f65bc     bg_panimate.obj
 0002:000065cc       ??_C@_0O@MAAGFNF@BOTH_B7__L___?$AA@ 200f65cc     bg_panimate.obj
 0002:000065dc       ??_C@_0O@LDEIHEJA@BOTH_B7_BL___?$AA@ 200f65dc     bg_panimate.obj
 0002:000065ec       ??_C@_0O@BPICCEPJ@BOTH_D7_BR___?$AA@ 200f65ec     bg_panimate.obj
 0002:000065fc       ??_C@_0O@KAMKDFLM@BOTH_D7__R___?$AA@ 200f65fc     bg_panimate.obj
 0002:0000660c       ??_C@_0O@MKANMFHP@BOTH_D7_TR___?$AA@ 200f660c     bg_panimate.obj
 0002:0000661c       ??_C@_0O@BFNNOMJM@BOTH_D7_TL___?$AA@ 200f661c     bg_panimate.obj
 0002:0000662c       ??_C@_0O@HPBKBMFP@BOTH_D7__L___?$AA@ 200f662c     bg_panimate.obj
 0002:0000663c       ??_C@_0O@MAFCANBK@BOTH_D7_BL___?$AA@ 200f663c     bg_panimate.obj
 0002:0000664c       ??_C@_0O@OHBCOAEI@BOTH_D7_B____?$AA@ 200f664c     bg_panimate.obj
 0002:0000665c       ??_C@_0O@DCIMANEB@BOTH_P1_S1_T_?$AA@ 200f665c     bg_panimate.obj
 0002:0000666c       ??_C@_0O@IHCCHDAM@BOTH_P1_S1_TR?$AA@ 200f666c     bg_panimate.obj
 0002:0000667c       ??_C@_0O@FDGDEMND@BOTH_P1_S1_TL?$AA@ 200f667c     bg_panimate.obj
 0002:0000668c       ??_C@_0O@ELMIJDBB@BOTH_P1_S1_BL?$AA@ 200f668c     bg_panimate.obj
 0002:0000669c       ??_C@_0O@JPIJKMMO@BOTH_P1_S1_BR?$AA@ 200f669c     bg_panimate.obj
 0002:000066ac       ??_C@_0O@BMBJNBON@BOTH_K1_S1_T_?$AA@ 200f66ac     bg_panimate.obj
 0002:000066bc       ??_C@_0O@KJLHKPKA@BOTH_K1_S1_TR?$AA@ 200f66bc     bg_panimate.obj
 0002:000066cc       ??_C@_0O@HNPGJAHP@BOTH_K1_S1_TL?$AA@ 200f66cc     bg_panimate.obj
 0002:000066dc       ??_C@_0O@GFFNEPLN@BOTH_K1_S1_BL?$AA@ 200f66dc     bg_panimate.obj
 0002:000066ec       ??_C@_0O@ELCAOCP@BOTH_K1_S1_B_?$AA@ 200f66ec     bg_panimate.obj
 0002:000066fc       ??_C@_0O@LBBMHAGC@BOTH_K1_S1_BR?$AA@ 200f66fc     bg_panimate.obj
 0002:0000670c       ??_C@_0O@KJLPPIME@BOTH_V1_BR_S1?$AA@ 200f670c     bg_panimate.obj
 0002:0000671c       ??_C@_0O@BGPHOJIB@BOTH_V1__R_S1?$AA@ 200f671c     bg_panimate.obj
 0002:0000672c       ??_C@_0O@HMDABJEC@BOTH_V1_TR_S1?$AA@ 200f672c     bg_panimate.obj
 0002:0000673c       ??_C@_0O@IEKANNPD@BOTH_V1_T__S1?$AA@ 200f673c     bg_panimate.obj
 0002:0000674c       ??_C@_0O@KDOADAKB@BOTH_V1_TL_S1?$AA@ 200f674c     bg_panimate.obj
 0002:0000675c       ??_C@_0O@MJCHMAGC@BOTH_V1__L_S1?$AA@ 200f675c     bg_panimate.obj
 0002:0000676c       ??_C@_0O@HGGPNBCH@BOTH_V1_BL_S1?$AA@ 200f676c     bg_panimate.obj
 0002:0000677c       ??_C@_0O@FBCPDMHF@BOTH_V1_B__S1?$AA@ 200f677c     bg_panimate.obj
 0002:0000678c       ??_C@_0O@CFJEONCI@BOTH_H1_S1_T_?$AA@ 200f678c     bg_panimate.obj
 0002:0000679c       ??_C@_0O@JADKJDGF@BOTH_H1_S1_TR?$AA@ 200f679c     bg_panimate.obj
 0002:000067ac       ??_C@_0O@EEHLKMLK@BOTH_H1_S1_TL?$AA@ 200f67ac     bg_panimate.obj
 0002:000067bc       ??_C@_0O@FMNAHDHI@BOTH_H1_S1_BL?$AA@ 200f67bc     bg_panimate.obj
 0002:000067cc       ??_C@_0O@DNDPDCOK@BOTH_H1_S1_B_?$AA@ 200f67cc     bg_panimate.obj
 0002:000067dc       ??_C@_0O@IIJBEMKH@BOTH_H1_S1_BR?$AA@ 200f67dc     bg_panimate.obj
 0002:000067ec       ??_C@_0O@IKGJNIEI@BOTH_P6_S6_T_?$AA@ 200f67ec     bg_panimate.obj
 0002:000067fc       ??_C@_0O@DPMHKGAF@BOTH_P6_S6_TR?$AA@ 200f67fc     bg_panimate.obj
 0002:0000680c       ??_C@_0O@OLIGJJNK@BOTH_P6_S6_TL?$AA@ 200f680c     bg_panimate.obj
 0002:0000681c       ??_C@_0O@PDCNEGBI@BOTH_P6_S6_BL?$AA@ 200f681c     bg_panimate.obj
 0002:0000682c       ??_C@_0O@CHGMHJMH@BOTH_P6_S6_BR?$AA@ 200f682c     bg_panimate.obj
 0002:0000683c       ??_C@_0O@KEPMAEOE@BOTH_K6_S6_T_?$AA@ 200f683c     bg_panimate.obj
 0002:0000684c       ??_C@_0O@BBFCHKKJ@BOTH_K6_S6_TR?$AA@ 200f684c     bg_panimate.obj
 0002:0000685c       ??_C@_0O@MFBDEFHG@BOTH_K6_S6_TL?$AA@ 200f685c     bg_panimate.obj
 0002:0000686c       ??_C@_0O@NNLIJKLE@BOTH_K6_S6_BL?$AA@ 200f686c     bg_panimate.obj
 0002:0000687c       ??_C@_0O@LMFHNLCG@BOTH_K6_S6_B_?$AA@ 200f687c     bg_panimate.obj
 0002:0000688c       ??_C@_0O@JPJKFGL@BOTH_K6_S6_BR?$AA@ 200f688c     bg_panimate.obj
 0002:0000689c       ??_C@_0O@OMDLGHBK@BOTH_V6_BR_S6?$AA@ 200f689c     bg_panimate.obj
 0002:000068ac       ??_C@_0O@FDHDHGFP@BOTH_V6__R_S6?$AA@ 200f68ac     bg_panimate.obj
 0002:000068bc       ??_C@_0O@DJLEIGJM@BOTH_V6_TR_S6?$AA@ 200f68bc     bg_panimate.obj
 0002:000068cc       ??_C@_0O@MBCEECCN@BOTH_V6_T__S6?$AA@ 200f68cc     bg_panimate.obj
 0002:000068dc       ??_C@_0O@OGGEKPHP@BOTH_V6_TL_S6?$AA@ 200f68dc     bg_panimate.obj
 0002:000068ec       ??_C@_0O@IMKDFPLM@BOTH_V6__L_S6?$AA@ 200f68ec     bg_panimate.obj
 0002:000068fc       ??_C@_0O@DDOLEOPJ@BOTH_V6_BL_S6?$AA@ 200f68fc     bg_panimate.obj
 0002:0000690c       ??_C@_0O@BEKLKDKL@BOTH_V6_B__S6?$AA@ 200f690c     bg_panimate.obj
 0002:0000691c       ??_C@_0O@JNHBDICB@BOTH_H6_S6_T_?$AA@ 200f691c     bg_panimate.obj
 0002:0000692c       ??_C@_0O@CINPEGGM@BOTH_H6_S6_TR?$AA@ 200f692c     bg_panimate.obj
 0002:0000693c       ??_C@_0O@PMJOHJLD@BOTH_H6_S6_TL?$AA@ 200f693c     bg_panimate.obj
 0002:0000694c       ??_C@_0O@OEDFKGHB@BOTH_H6_S6_BL?$AA@ 200f694c     bg_panimate.obj
 0002:0000695c       ??_C@_0O@IFNKOHOD@BOTH_H6_S6_B_?$AA@ 200f695c     bg_panimate.obj
 0002:0000696c       ??_C@_0O@DAHEJJKO@BOTH_H6_S6_BR?$AA@ 200f696c     bg_panimate.obj
 0002:0000697c       ??_C@_0O@HLKDPBGG@BOTH_P7_S7_T_?$AA@ 200f697c     bg_panimate.obj
 0002:0000698c       ??_C@_0O@MOANIPCL@BOTH_P7_S7_TR?$AA@ 200f698c     bg_panimate.obj
 0002:0000699c       ??_C@_0O@BKEMLAPE@BOTH_P7_S7_TL?$AA@ 200f699c     bg_panimate.obj
 0002:000069ac       ??_C@_0O@COHGPDG@BOTH_P7_S7_BL?$AA@ 200f69ac     bg_panimate.obj
 0002:000069bc       ??_C@_0O@NGKGFAOJ@BOTH_P7_S7_BR?$AA@ 200f69bc     bg_panimate.obj
 0002:000069cc       ??_C@_0O@FFDGCNMK@BOTH_K7_S7_T_?$AA@ 200f69cc     bg_panimate.obj
 0002:000069dc       ??_C@_0O@OAJIFDIH@BOTH_K7_S7_TR?$AA@ 200f69dc     bg_panimate.obj
 0002:000069ec       ??_C@_0O@DENJGMFI@BOTH_K7_S7_TL?$AA@ 200f69ec     bg_panimate.obj
 0002:000069fc       ??_C@_0O@CMHCLDJK@BOTH_K7_S7_BL?$AA@ 200f69fc     bg_panimate.obj
 0002:00006a0c       ??_C@_0O@ENJNPCAI@BOTH_K7_S7_B_?$AA@ 200f6a0c     bg_panimate.obj
 0002:00006a1c       ??_C@_0O@PIDDIMEF@BOTH_K7_S7_BR?$AA@ 200f6a1c     bg_panimate.obj
 0002:00006a2c       ??_C@_0O@DJIKFGMF@BOTH_V7_BR_S7?$AA@ 200f6a2c     bg_panimate.obj
 0002:00006a3c       ??_C@_0O@IGMCEHIA@BOTH_V7__R_S7?$AA@ 200f6a3c     bg_panimate.obj
 0002:00006a4c       ??_C@_0O@OMAFLHED@BOTH_V7_TR_S7?$AA@ 200f6a4c     bg_panimate.obj
 0002:00006a5c       ??_C@_0O@BEJFHDPC@BOTH_V7_T__S7?$AA@ 200f6a5c     bg_panimate.obj
 0002:00006a6c       ??_C@_0O@DDNFJOKA@BOTH_V7_TL_S7?$AA@ 200f6a6c     bg_panimate.obj
 0002:00006a7c       ??_C@_0O@FJBCGOGD@BOTH_V7__L_S7?$AA@ 200f6a7c     bg_panimate.obj
 0002:00006a8c       ??_C@_0O@OGFKHPCG@BOTH_V7_BL_S7?$AA@ 200f6a8c     bg_panimate.obj
 0002:00006a9c       ??_C@_0O@MBBKJCHE@BOTH_V7_B__S7?$AA@ 200f6a9c     bg_panimate.obj
 0002:00006aac       ??_C@_0O@GMLLBBAP@BOTH_H7_S7_T_?$AA@ 200f6aac     bg_panimate.obj
 0002:00006abc       ??_C@_0O@NJBFGPEC@BOTH_H7_S7_TR?$AA@ 200f6abc     bg_panimate.obj
 0002:00006acc       ??_C@_0O@NFEFAJN@BOTH_H7_S7_TL?$AA@ 200f6acc     bg_panimate.obj
 0002:00006adc       ??_C@_0O@BFPPIPFP@BOTH_H7_S7_BL?$AA@ 200f6adc     bg_panimate.obj
 0002:00006aec       ??_C@_0O@HEBAMOMN@BOTH_H7_S7_B_?$AA@ 200f6aec     bg_panimate.obj
 0002:00006afc       ??_C@_0O@MBLOLAIA@BOTH_H7_S7_BR?$AA@ 200f6afc     bg_panimate.obj
 0002:00006b0c       ??_C@_0BF@KNBBBPIF@BOTH_LK_S_DL_S_B_1_L?$AA@ 200f6b0c     bg_panimate.obj
 0002:00006b24       ??_C@_0BF@ECHNEBP@BOTH_LK_S_DL_S_B_1_W?$AA@ 200f6b24     bg_panimate.obj
 0002:00006b3c       ??_C@_0BD@FAIJMBFK@BOTH_LK_S_DL_S_L_1?$AA@ 200f6b3c     bg_panimate.obj
 0002:00006b50       ??_C@_0BG@FMMJLELD@BOTH_LK_S_DL_S_SB_1_L?$AA@ 200f6b50     bg_panimate.obj
 0002:00006b68       ??_C@_0BG@PFPPHPCJ@BOTH_LK_S_DL_S_SB_1_W?$AA@ 200f6b68     bg_panimate.obj
 0002:00006b80       ??_C@_0BF@KHNEBGJM@BOTH_LK_S_DL_T_B_1_L?$AA@ 200f6b80     bg_panimate.obj
 0002:00006b98       ??_C@_0BF@OOCNNAG@BOTH_LK_S_DL_T_B_1_W?$AA@ 200f6b98     bg_panimate.obj
 0002:00006bb0       ??_C@_0BD@ENIMPBOC@BOTH_LK_S_DL_T_L_1?$AA@ 200f6bb0     bg_panimate.obj
 0002:00006bc4       ??_C@_0BG@DIKINJHK@BOTH_LK_S_DL_T_SB_1_L?$AA@ 200f6bc4     bg_panimate.obj
 0002:00006bdc       ??_C@_0BG@JBJOBCOA@BOTH_LK_S_DL_T_SB_1_W?$AA@ 200f6bdc     bg_panimate.obj
 0002:00006bf4       ??_C@_0BF@BOKFAPNB@BOTH_LK_S_ST_S_B_1_L?$AA@ 200f6bf4     bg_panimate.obj
 0002:00006c0c       ??_C@_0BF@LHJDMEEL@BOTH_LK_S_ST_S_B_1_W?$AA@ 200f6c0c     bg_panimate.obj
 0002:00006c24       ??_C@_0BD@DHHGMEHM@BOTH_LK_S_ST_S_L_1?$AA@ 200f6c24     bg_panimate.obj
 0002:00006c38       ??_C@_0BG@DAHMJFEO@BOTH_LK_S_ST_S_SB_1_L?$AA@ 200f6c38     bg_panimate.obj
 0002:00006c50       ??_C@_0BG@JJEKFONE@BOTH_LK_S_ST_S_SB_1_W?$AA@ 200f6c50     bg_panimate.obj
 0002:00006c68       ??_C@_0BF@BEGAAGMI@BOTH_LK_S_ST_T_B_1_L?$AA@ 200f6c68     bg_panimate.obj
 0002:00006c80       ??_C@_0BF@LNFGMNFC@BOTH_LK_S_ST_T_B_1_W?$AA@ 200f6c80     bg_panimate.obj
 0002:00006c98       ??_C@_0BD@CKHDPEME@BOTH_LK_S_ST_T_L_1?$AA@ 200f6c98     bg_panimate.obj
 0002:00006cac       ??_C@_0BG@FEBNPIIH@BOTH_LK_S_ST_T_SB_1_L?$AA@ 200f6cac     bg_panimate.obj
 0002:00006cc4       ??_C@_0BG@PNCLDDBN@BOTH_LK_S_ST_T_SB_1_W?$AA@ 200f6cc4     bg_panimate.obj
 0002:00006cdc       ??_C@_0BE@BGKKDADB@BOTH_LK_S_S_S_B_1_L?$AA@ 200f6cdc     bg_panimate.obj
 0002:00006cf0       ??_C@_0BE@LPJMPLKL@BOTH_LK_S_S_S_B_1_W?$AA@ 200f6cf0     bg_panimate.obj
 0002:00006d04       ??_C@_0BC@OIKGFGCA@BOTH_LK_S_S_S_L_1?$AA@ 200f6d04     bg_panimate.obj
 0002:00006d18       ??_C@_0BF@JAHOHIAJ@BOTH_LK_S_S_S_SB_1_L?$AA@ 200f6d18     bg_panimate.obj
 0002:00006d30       ??_C@_0BF@DJEILDJD@BOTH_LK_S_S_S_SB_1_W?$AA@ 200f6d30     bg_panimate.obj
 0002:00006d48       ??_C@_0BE@BMGPDJCI@BOTH_LK_S_S_T_B_1_L?$AA@ 200f6d48     bg_panimate.obj
 0002:00006d5c       ??_C@_0BE@LFFJPCLC@BOTH_LK_S_S_T_B_1_W?$AA@ 200f6d5c     bg_panimate.obj
 0002:00006d70       ??_C@_0BC@PFKDGGJI@BOTH_LK_S_S_T_L_1?$AA@ 200f6d70     bg_panimate.obj
 0002:00006d84       ??_C@_0BF@PEBPBFMA@BOTH_LK_S_S_T_SB_1_L?$AA@ 200f6d84     bg_panimate.obj
 0002:00006d9c       ??_C@_0BF@FNCJNOFK@BOTH_LK_S_S_T_SB_1_W?$AA@ 200f6d9c     bg_panimate.obj
 0002:00006db4       ??_C@_0BG@CLJAPGHI@BOTH_LK_DL_DL_S_B_1_L?$AA@ 200f6db4     bg_panimate.obj
 0002:00006dcc       ??_C@_0BG@ICKGDNOC@BOTH_LK_DL_DL_S_B_1_W?$AA@ 200f6dcc     bg_panimate.obj
 0002:00006de4       ??_C@_0BE@DECCHOJ@BOTH_LK_DL_DL_S_L_1?$AA@ 200f6de4     bg_panimate.obj
 0002:00006df8       ??_C@_0BH@JPEDLLPL@BOTH_LK_DL_DL_S_SB_1_L?$AA@ 200f6df8     bg_panimate.obj
 0002:00006e10       ??_C@_0BH@DGHFHAGB@BOTH_LK_DL_DL_S_SB_1_W?$AA@ 200f6e10     bg_panimate.obj
 0002:00006e28       ??_C@_0BG@CBFFPPGB@BOTH_LK_DL_DL_T_B_1_L?$AA@ 200f6e28     bg_panimate.obj
 0002:00006e40       ??_C@_0BG@IIGDDEPL@BOTH_LK_DL_DL_T_B_1_W?$AA@ 200f6e40     bg_panimate.obj
 0002:00006e58       ??_C@_0BE@BOEHBHFB@BOTH_LK_DL_DL_T_L_1?$AA@ 200f6e58     bg_panimate.obj
 0002:00006e6c       ??_C@_0BH@PLCCNGDC@BOTH_LK_DL_DL_T_SB_1_L?$AA@ 200f6e6c     bg_panimate.obj
 0002:00006e84       ??_C@_0BH@FCBEBNKI@BOTH_LK_DL_DL_T_SB_1_W?$AA@ 200f6e84     bg_panimate.obj
 0002:00006e9c       ??_C@_0BG@JICEOGCM@BOTH_LK_DL_ST_S_B_1_L?$AA@ 200f6e9c     bg_panimate.obj
 0002:00006eb4       ??_C@_0BG@DBBCCNLG@BOTH_LK_DL_ST_S_B_1_W?$AA@ 200f6eb4     bg_panimate.obj
 0002:00006ecc       ??_C@_0BE@GELNCCMP@BOTH_LK_DL_ST_S_L_1?$AA@ 200f6ecc     bg_panimate.obj
 0002:00006ee0       ??_C@_0BH@PDPGJKAG@BOTH_LK_DL_ST_S_SB_1_L?$AA@ 200f6ee0     bg_panimate.obj
 0002:00006ef8       ??_C@_0BH@FKMAFBJM@BOTH_LK_DL_ST_S_SB_1_W?$AA@ 200f6ef8     bg_panimate.obj
 0002:00006f10       ??_C@_0BG@JCOBOPDF@BOTH_LK_DL_ST_T_B_1_L?$AA@ 200f6f10     bg_panimate.obj
 0002:00006f28       ??_C@_0BG@DLNHCEKP@BOTH_LK_DL_ST_T_B_1_W?$AA@ 200f6f28     bg_panimate.obj
 0002:00006f40       ??_C@_0BE@HJLIBCHH@BOTH_LK_DL_ST_T_L_1?$AA@ 200f6f40     bg_panimate.obj
 0002:00006f54       ??_C@_0BH@JHJHPHMP@BOTH_LK_DL_ST_T_SB_1_L?$AA@ 200f6f54     bg_panimate.obj
 0002:00006f6c       ??_C@_0BH@DOKBDMFF@BOTH_LK_DL_ST_T_SB_1_W?$AA@ 200f6f6c     bg_panimate.obj
 0002:00006f84       ??_C@_0BF@EEJBBJOB@BOTH_LK_DL_S_S_B_1_L?$AA@ 200f6f84     bg_panimate.obj
 0002:00006f9c       ??_C@_0BF@ONKHNCHL@BOTH_LK_DL_S_S_B_1_W?$AA@ 200f6f9c     bg_panimate.obj
 0002:00006fb4       ??_C@_0BD@JANDNFNC@BOTH_LK_DL_S_S_L_1?$AA@ 200f6fb4     bg_panimate.obj
 0002:00006fc8       ??_C@_0BG@BGPPJBPE@BOTH_LK_DL_S_S_SB_1_L?$AA@ 200f6fc8     bg_panimate.obj
 0002:00006fe0       ??_C@_0BG@LPMJFKGO@BOTH_LK_DL_S_S_SB_1_W?$AA@ 200f6fe0     bg_panimate.obj
 0002:00006ff8       ??_C@_0BF@EOFEBAPI@BOTH_LK_DL_S_T_B_1_L?$AA@ 200f6ff8     bg_panimate.obj
 0002:00007010       ??_C@_0BF@OHGCNLGC@BOTH_LK_DL_S_T_B_1_W?$AA@ 200f7010     bg_panimate.obj
 0002:00007028       ??_C@_0BD@INNGOFGK@BOTH_LK_DL_S_T_L_1?$AA@ 200f7028     bg_panimate.obj
 0002:0000703c       ??_C@_0BG@HCJOPMDN@BOTH_LK_DL_S_T_SB_1_L?$AA@ 200f703c     bg_panimate.obj
 0002:00007054       ??_C@_0BG@NLKIDHKH@BOTH_LK_DL_S_T_SB_1_W?$AA@ 200f7054     bg_panimate.obj
 0002:0000706c       ??_C@_0BG@MGOLBFGD@BOTH_LK_ST_DL_S_B_1_L?$AA@ 200f706c     bg_panimate.obj
 0002:00007084       ??_C@_0BG@GPNNNOPJ@BOTH_LK_ST_DL_S_B_1_W?$AA@ 200f7084     bg_panimate.obj
 0002:0000709c       ??_C@_0BE@GPPHAGBE@BOTH_LK_ST_DL_S_L_1?$AA@ 200f709c     bg_panimate.obj
 0002:000070b0       ??_C@_0BH@BFMLAJPE@BOTH_LK_ST_DL_S_SB_1_L?$AA@ 200f70b0     bg_panimate.obj
 0002:000070c8       ??_C@_0BH@LMPNMCGO@BOTH_LK_ST_DL_S_SB_1_W?$AA@ 200f70c8     bg_panimate.obj
 0002:000070e0       ??_C@_0BG@MMCOBMHK@BOTH_LK_ST_DL_T_B_1_L?$AA@ 200f70e0     bg_panimate.obj
 0002:000070f8       ??_C@_0BG@GFBINHOA@BOTH_LK_ST_DL_T_B_1_W?$AA@ 200f70f8     bg_panimate.obj
 0002:00007110       ??_C@_0BE@HCPCDGKM@BOTH_LK_ST_DL_T_L_1?$AA@ 200f7110     bg_panimate.obj
 0002:00007124       ??_C@_0BH@HBKKGEDN@BOTH_LK_ST_DL_T_SB_1_L?$AA@ 200f7124     bg_panimate.obj
 0002:0000713c       ??_C@_0BH@NIJMKPKH@BOTH_LK_ST_DL_T_SB_1_W?$AA@ 200f713c     bg_panimate.obj
 0002:00007154       ??_C@_0BG@HFFPAFDH@BOTH_LK_ST_ST_S_B_1_L?$AA@ 200f7154     bg_panimate.obj
 0002:0000716c       ??_C@_0BG@NMGJMOKN@BOTH_LK_ST_ST_S_B_1_W?$AA@ 200f716c     bg_panimate.obj
 0002:00007184       ??_C@_0BE@IAIADDC@BOTH_LK_ST_ST_S_L_1?$AA@ 200f7184     bg_panimate.obj
 0002:00007198       ??_C@_0BH@HJHOCIAJ@BOTH_LK_ST_ST_S_SB_1_L?$AA@ 200f7198     bg_panimate.obj
 0002:000071b0       ??_C@_0BH@NAEIODJD@BOTH_LK_ST_ST_S_SB_1_W?$AA@ 200f71b0     bg_panimate.obj
 0002:000071c8       ??_C@_0BG@HPJKAMCO@BOTH_LK_ST_ST_T_B_1_L?$AA@ 200f71c8     bg_panimate.obj
 0002:000071e0       ??_C@_0BG@NGKMMHLE@BOTH_LK_ST_ST_T_B_1_W?$AA@ 200f71e0     bg_panimate.obj
 0002:000071f8       ??_C@_0BE@BFANDDIK@BOTH_LK_ST_ST_T_L_1?$AA@ 200f71f8     bg_panimate.obj
 0002:0000720c       ??_C@_0BH@BNBPEFMA@BOTH_LK_ST_ST_T_SB_1_L?$AA@ 200f720c     bg_panimate.obj
 0002:00007224       ??_C@_0BH@LECJIOFK@BOTH_LK_ST_ST_T_SB_1_W?$AA@ 200f7224     bg_panimate.obj
 0002:0000723c       ??_C@_0BF@IHPBCCGB@BOTH_LK_ST_S_S_B_1_L?$AA@ 200f723c     bg_panimate.obj
 0002:00007254       ??_C@_0BF@COMHOJPL@BOTH_LK_ST_S_S_B_1_W?$AA@ 200f7254     bg_panimate.obj
 0002:0000726c       ??_C@_0BD@CDGHMFIG@BOTH_LK_ST_S_S_L_1?$AA@ 200f726c     bg_panimate.obj
 0002:00007280       ??_C@_0BG@PLIEHCOP@BOTH_LK_ST_S_S_SB_1_L?$AA@ 200f7280     bg_panimate.obj
 0002:00007298       ??_C@_0BG@FCLCLJHF@BOTH_LK_ST_S_S_SB_1_W?$AA@ 200f7298     bg_panimate.obj
 0002:000072b0       ??_C@_0BF@INDECLHI@BOTH_LK_ST_S_T_B_1_L?$AA@ 200f72b0     bg_panimate.obj
 0002:000072c8       ??_C@_0BF@CEACOAOC@BOTH_LK_ST_S_T_B_1_W?$AA@ 200f72c8     bg_panimate.obj
 0002:000072e0       ??_C@_0BD@DOGCPFDO@BOTH_LK_ST_S_T_L_1?$AA@ 200f72e0     bg_panimate.obj
 0002:000072f4       ??_C@_0BG@JPOFBPCG@BOTH_LK_ST_S_T_SB_1_L?$AA@ 200f72f4     bg_panimate.obj
 0002:0000730c       ??_C@_0BG@DGNDNELM@BOTH_LK_ST_S_T_SB_1_W?$AA@ 200f730c     bg_panimate.obj
 0002:00007324       ??_C@_0BC@MDILAFOD@BOTH_LK_S_S_S_L_2?$AA@ 200f7324     bg_panimate.obj
 0002:00007338       ??_C@_0BC@NOIODFFL@BOTH_LK_S_S_T_L_2?$AA@ 200f7338     bg_panimate.obj
 0002:0000734c       ??_C@_0BE@CIGPHECK@BOTH_LK_DL_DL_S_L_2?$AA@ 200f734c     bg_panimate.obj
 0002:00007360       ??_C@_0BE@DFGKEEJC@BOTH_LK_DL_DL_T_L_2?$AA@ 200f7360     bg_panimate.obj
 0002:00007374       ??_C@_0BE@CDCFFAPB@BOTH_LK_ST_ST_S_L_2?$AA@ 200f7374     bg_panimate.obj
 0002:00007388       ??_C@_0BE@DOCAGAEJ@BOTH_LK_ST_ST_T_L_2?$AA@ 200f7388     bg_panimate.obj
 0002:0000739c       ??_C@_0P@GCBEFEGH@BOTH_BF2RETURN?$AA@ 200f739c     bg_panimate.obj
 0002:000073ac       ??_C@_0O@OBLBAPIM@BOTH_BF2BREAK?$AA@ 200f73ac     bg_panimate.obj
 0002:000073bc       ??_C@_0N@LNLIKJEI@BOTH_BF2LOCK?$AA@ 200f73bc     bg_panimate.obj
 0002:000073cc       ??_C@_0P@OMJLFDIE@BOTH_BF1RETURN?$AA@ 200f73cc     bg_panimate.obj
 0002:000073dc       ??_C@_0O@NAFJBFBB@BOTH_BF1BREAK?$AA@ 200f73dc     bg_panimate.obj
 0002:000073ec       ??_C@_0N@DLCMNLOG@BOTH_BF1LOCK?$AA@ 200f73ec     bg_panimate.obj
 0002:000073fc       ??_C@_0BH@DMDECPBF@BOTH_CWCIRCLE_R2__R_S1?$AA@ 200f73fc     bg_panimate.obj
 0002:00007414       ??_C@_0BI@PBNOCOLC@BOTH_CCWCIRCLE_R2__L_S1?$AA@ 200f7414     bg_panimate.obj
 0002:0000742c       ??_C@_0BH@DBGDLJEC@BOTH_CWCIRCLE_A2__L__R?$AA@ 200f742c     bg_panimate.obj
 0002:00007444       ??_C@_0BI@CIMIIHDK@BOTH_CCWCIRCLE_A2__R__L?$AA@ 200f7444     bg_panimate.obj
 0002:0000745c       ??_C@_0BD@LBKADGEF@BOTH_CWCIRCLEBREAK?$AA@ 200f745c     bg_panimate.obj
 0002:00007470       ??_C@_0BE@OHBEAMBI@BOTH_CCWCIRCLEBREAK?$AA@ 200f7470     bg_panimate.obj
 0002:00007484       ??_C@_0BC@KJPAFMDI@BOTH_CWCIRCLELOCK?$AA@ 200f7484     bg_panimate.obj
 0002:00007498       ??_C@_0BD@KOAOCCAN@BOTH_CCWCIRCLELOCK?$AA@ 200f7498     bg_panimate.obj
 0002:000074ac       ??_C@_0BG@LMJGJJPN@BOTH_SABERFAST_STANCE?$AA@ 200f74ac     bg_panimate.obj
 0002:000074c4       ??_C@_0BG@OHKGBDLF@BOTH_SABERSLOW_STANCE?$AA@ 200f74c4     bg_panimate.obj
 0002:000074dc       ??_C@_0BG@HKMBABJH@BOTH_SABERDUAL_STANCE?$AA@ 200f74dc     bg_panimate.obj
 0002:000074f4       ??_C@_0BH@BDCLHPPP@BOTH_SABERSTAFF_STANCE?$AA@ 200f74f4     bg_panimate.obj
 0002:0000750c       ??_C@_0BC@PILNDLJJ@BOTH_A2_STABBACK1?$AA@ 200f750c     bg_panimate.obj
 0002:00007520       ??_C@_0BB@CBLKELKF@BOTH_ATTACK_BACK?$AA@ 200f7520     bg_panimate.obj
 0002:00007534       ??_C@_0BI@HBGICLGG@BOTH_JUMPFLIPSLASHDOWN1?$AA@ 200f7534     bg_panimate.obj
 0002:0000754c       ??_C@_0BG@BFMBDODP@BOTH_JUMPFLIPSTABDOWN?$AA@ 200f754c     bg_panimate.obj
 0002:00007564       ??_C@_0BG@CELCKDAN@BOTH_FORCELEAP2_T__B_?$AA@ 200f7564     bg_panimate.obj
 0002:0000757c       ??_C@_0BC@BEBALKBG@BOTH_LUNGE2_B__T_?$AA@ 200f757c     bg_panimate.obj
 0002:00007590       ??_C@_0BH@INLIBEMO@BOTH_CROUCHATTACKBACK1?$AA@ 200f7590     bg_panimate.obj
 0002:000075a8       ??_C@_0BB@DBPJDDLK@BOTH_JUMPATTACK6?$AA@ 200f75a8     bg_panimate.obj
 0002:000075bc       ??_C@_0BB@CIOCACPL@BOTH_JUMPATTACK7?$AA@ 200f75bc     bg_panimate.obj
 0002:000075d0       ??_C@_0BB@LMPGHBAM@BOTH_SPINATTACK6?$AA@ 200f75d0     bg_panimate.obj
 0002:000075e4       ??_C@_0BB@KFONEAEN@BOTH_SPINATTACK7?$AA@ 200f75e4     bg_panimate.obj
 0002:000075f8       ??_C@_0L@BHGFBHGL@BOTH_S1_S6?$AA@ 200f75f8     bg_panimate.obj
 0002:00007604       ??_C@_0L@OKAEFNLM@BOTH_S6_S1?$AA@ 200f7604     bg_panimate.obj
 0002:00007610       ??_C@_0L@OHOCGCK@BOTH_S1_S7?$AA@ 200f7610     bg_panimate.obj
 0002:0000761c       ??_C@_0L@NHGEHEAM@BOTH_S7_S1?$AA@ 200f761c     bg_panimate.obj
 0002:00007628       ??_C@_0BJ@KLOIGFJP@BOTH_FORCELONGLEAP_START?$AA@ 200f7628     bg_panimate.obj
 0002:00007644       ??_C@_0BK@HABCCIOP@BOTH_FORCELONGLEAP_ATTACK?$AA@ 200f7644     bg_panimate.obj
 0002:00007660       ??_C@_0BI@MHONAGNG@BOTH_FORCELONGLEAP_LAND?$AA@ 200f7660     bg_panimate.obj
 0002:00007678       ??_C@_0BM@LJCOJFGC@BOTH_FORCEWALLRUNFLIP_START?$AA@ 200f7678     bg_panimate.obj
 0002:00007694       ??_C@_0BK@GPIMNHIL@BOTH_FORCEWALLRUNFLIP_END?$AA@ 200f7694     bg_panimate.obj
 0002:000076b0       ??_C@_0BK@KJKIIGOD@BOTH_FORCEWALLRUNFLIP_ALT?$AA@ 200f76b0     bg_panimate.obj
 0002:000076cc       ??_C@_0BO@CIKJOPHK@BOTH_FORCEWALLREBOUND_FORWARD?$AA@ 200f76cc     bg_panimate.obj
 0002:000076ec       ??_C@_0BL@BOGHGOCO@BOTH_FORCEWALLREBOUND_LEFT?$AA@ 200f76ec     bg_panimate.obj
 0002:00007708       ??_C@_0BL@OFKEILGN@BOTH_FORCEWALLREBOUND_BACK?$AA@ 200f7708     bg_panimate.obj
 0002:00007724       ??_C@_0BM@FDLDEBGK@BOTH_FORCEWALLREBOUND_RIGHT?$AA@ 200f7724     bg_panimate.obj
 0002:00007740       ??_C@_0BL@OBHDGIHE@BOTH_FORCEWALLHOLD_FORWARD?$AA@ 200f7740     bg_panimate.obj
 0002:0000775c       ??_C@_0BI@IEHJEHGK@BOTH_FORCEWALLHOLD_LEFT?$AA@ 200f775c     bg_panimate.obj
 0002:00007774       ??_C@_0BI@HPLKKCCJ@BOTH_FORCEWALLHOLD_BACK?$AA@ 200f7774     bg_panimate.obj
 0002:0000778c       ??_C@_0BJ@CCJINKMK@BOTH_FORCEWALLHOLD_RIGHT?$AA@ 200f778c     bg_panimate.obj
 0002:000077a8       ??_C@_0BO@FMNDOIKN@BOTH_FORCEWALLRELEASE_FORWARD?$AA@ 200f77a8     bg_panimate.obj
 0002:000077c8       ??_C@_0BL@OLNGOJNC@BOTH_FORCEWALLRELEASE_LEFT?$AA@ 200f77c8     bg_panimate.obj
 0002:000077e4       ??_C@_0BL@BABFAMJB@BOTH_FORCEWALLRELEASE_BACK?$AA@ 200f77e4     bg_panimate.obj
 0002:00007800       ??_C@_0BM@OHENEONK@BOTH_FORCEWALLRELEASE_RIGHT?$AA@ 200f7800     bg_panimate.obj
 0002:0000781c       ??_C@_0P@CJGOGJL@BOTH_A7_KICK_F?$AA@ 200f781c     bg_panimate.obj
 0002:0000782c       ??_C@_0P@GGPKCDJP@BOTH_A7_KICK_B?$AA@ 200f782c     bg_panimate.obj
 0002:0000783c       ??_C@_0P@CMDIDBMO@BOTH_A7_KICK_R?$AA@ 200f783c     bg_panimate.obj
 0002:0000784c       ??_C@_0P@PIHJAOBB@BOTH_A7_KICK_L?$AA@ 200f784c     bg_panimate.obj
 0002:0000785c       ??_C@_0P@DFCDAAIP@BOTH_A7_KICK_S?$AA@ 200f785c     bg_panimate.obj
 0002:0000786c       ??_C@_0BA@MGPFJMHF@BOTH_A7_KICK_BF?$AA@ 200f786c     bg_panimate.obj
 0002:0000787c       ??_C@_0BF@OPHCPADF@BOTH_A7_KICK_BF_STOP?$AA@ 200f787c     bg_panimate.obj
 0002:00007894       ??_C@_0BA@CADMNHIP@BOTH_A7_KICK_RL?$AA@ 200f7894     bg_panimate.obj
 0002:000078a4       ??_C@_0BD@GABGGINM@BOTH_A7_KICK_F_AIR?$AA@ 200f78a4     bg_panimate.obj
 0002:000078b8       ??_C@_0BD@PLIHCKMK@BOTH_A7_KICK_B_AIR?$AA@ 200f78b8     bg_panimate.obj
 0002:000078cc       ??_C@_0BD@PIFBCIFB@BOTH_A7_KICK_R_AIR?$AA@ 200f78cc     bg_panimate.obj
 0002:000078e0       ??_C@_0BD@MBINELLK@BOTH_A7_KICK_L_AIR?$AA@ 200f78e0     bg_panimate.obj
 0002:000078f4       ??_C@_0BC@OAEPKLIJ@BOTH_FLIP_ATTACK7?$AA@ 200f78f4     bg_panimate.obj
 0002:00007908       ??_C@_0BA@PECANCJM@BOTH_FLIP_HOLD7?$AA@ 200f7908     bg_panimate.obj
 0002:00007918       ??_C@_0P@FKABGNIE@BOTH_FLIP_LAND?$AA@ 200f7918     bg_panimate.obj
 0002:00007928       ??_C@_0BG@FJEBNIOP@BOTH_PULL_IMPALE_STAB?$AA@ 200f7928     bg_panimate.obj
 0002:00007940       ??_C@_0BH@ENKMMKI@BOTH_PULL_IMPALE_SWING?$AA@ 200f7940     bg_panimate.obj
 0002:00007958       ??_C@_0BE@LGIIAOEH@BOTH_PULLED_INAIR_B?$AA@ 200f7958     bg_panimate.obj
 0002:0000796c       ??_C@_0BE@NCOEMLED@BOTH_PULLED_INAIR_F?$AA@ 200f796c     bg_panimate.obj
 0002:00007980       ??_C@_0O@FMNFAMJP@BOTH_STABDOWN?$AA@ 200f7980     bg_panimate.obj
 0002:00007990       ??_C@_0BE@DOGEHLEN@BOTH_STABDOWN_STAFF?$AA@ 200f7990     bg_panimate.obj
 0002:000079a4       ??_C@_0BD@FCALGDP@BOTH_STABDOWN_DUAL?$AA@ 200f79a4     bg_panimate.obj
 0002:000079b8       ??_C@_0BF@JKDHMCK@BOTH_A6_SABERPROTECT?$AA@ 200f79b8     bg_panimate.obj
 0002:000079d0       ??_C@_0BA@IPLCAALD@BOTH_A7_SOULCAL?$AA@ 200f79d0     bg_panimate.obj
 0002:000079e0       ??_C@_0BA@PNABOJPN@BOTH_A1_SPECIAL?$AA@ 200f79e0     bg_panimate.obj
 0002:000079f0       ??_C@_0BA@BGDGFCPO@BOTH_A2_SPECIAL?$AA@ 200f79f0     bg_panimate.obj
 0002:00007a00       ??_C@_0BA@PJPEDJMA@BOTH_A3_SPECIAL?$AA@ 200f7a00     bg_panimate.obj
 0002:00007a10       ??_C@_0P@HNCGMPEI@BOTH_ROLL_STAB?$AA@ 200f7a10     bg_panimate.obj
 0002:00007a20       ??_C@_0M@GOMFFOAD@BOTH_STAND1?$AA@ 200f7a20     bg_panimate.obj
 0002:00007a2c       ??_C@_0BB@OEICBKPC@BOTH_STAND1IDLE1?$AA@ 200f7a2c     bg_panimate.obj
 0002:00007a40       ??_C@_0M@EFOIANMA@BOTH_STAND2?$AA@ 200f7a40     bg_panimate.obj
 0002:00007a4c       ??_C@_0BB@NFGKAAGP@BOTH_STAND2IDLE1?$AA@ 200f7a4c     bg_panimate.obj
 0002:00007a60       ??_C@_0BB@POEHFDKM@BOTH_STAND2IDLE2?$AA@ 200f7a60     bg_panimate.obj
 0002:00007a74       ??_C@_0M@FMPDDMIB@BOTH_STAND3?$AA@ 200f7a74     bg_panimate.obj
 0002:00007a80       ??_C@_0BB@HDBNALNL@BOTH_STAND3IDLE1?$AA@ 200f7a80     bg_panimate.obj
 0002:00007a94       ??_C@_0M@BDLCKKEG@BOTH_STAND4?$AA@ 200f7a94     bg_panimate.obj
 0002:00007aa0       ??_C@_0M@KKJJLAH@BOTH_STAND5?$AA@ 200f7aa0     bg_panimate.obj
 0002:00007aac       ??_C@_0BB@BAMNDOOB@BOTH_STAND5IDLE1?$AA@ 200f7aac     bg_panimate.obj
 0002:00007ac0       ??_C@_0M@CBIEMIME@BOTH_STAND6?$AA@ 200f7ac0     bg_panimate.obj
 0002:00007acc       ??_C@_0M@LPAHOFEK@BOTH_STAND8?$AA@ 200f7acc     bg_panimate.obj
 0002:00007ad8       ??_C@_0P@BPKJPOKL@BOTH_STAND1TO2?$AA@ 200f7ad8     bg_panimate.obj
 0002:00007ae8       ??_C@_0P@HDCENHLI@BOTH_STAND2TO1?$AA@ 200f7ae8     bg_panimate.obj
 0002:00007af8       ??_C@_0P@OFDCDPN@BOTH_STAND2TO4?$AA@ 200f7af8     bg_panimate.obj
 0002:00007b08       ??_C@_0P@NHEJHBNL@BOTH_STAND4TO2?$AA@ 200f7b08     bg_panimate.obj
 0002:00007b18       ??_C@_0BF@MNEGLANN@BOTH_STAND4TOATTACK2?$AA@ 200f7b18     bg_panimate.obj
 0002:00007b30       ??_C@_0O@JCHGFLGA@BOTH_STANDUP2?$AA@ 200f7b30     bg_panimate.obj
 0002:00007b40       ??_C@_0BC@KJMCMBAN@BOTH_STAND5TOSIT3?$AA@ 200f7b40     bg_panimate.obj
 0002:00007b54       ??_C@_0BE@LJJBDIP@BOTH_STAND1TOSTAND5?$AA@ 200f7b54     bg_panimate.obj
 0002:00007b68       ??_C@_0BE@GGBOHGPB@BOTH_STAND5TOSTAND1?$AA@ 200f7b68     bg_panimate.obj
 0002:00007b7c       ??_C@_0BB@KAKPAJPG@BOTH_STAND5TOAIM?$AA@ 200f7b7c     bg_panimate.obj
 0002:00007b90       ??_C@_0BM@LKMKNIB@BOTH_STAND5STARTLEDLOOKLEFT?$AA@ 200f7b90     bg_panimate.obj
 0002:00007bac       ??_C@_0BO@JCPBABCF@BOTH_STARTLEDLOOKLEFTTOSTAND5?$AA@ 200f7bac     bg_panimate.obj
 0002:00007bcc       ??_C@_0BE@LHNMMNLI@BOTH_STAND5TOSTAND8?$AA@ 200f7bcc     bg_panimate.obj
 0002:00007be0       ??_C@_0BE@LDCJBNIF@BOTH_STAND7TOSTAND8?$AA@ 200f7be0     bg_panimate.obj
 0002:00007bf4       ??_C@_0BE@PHIMDIEF@BOTH_STAND8TOSTAND5?$AA@ 200f7bf4     bg_panimate.obj
 0002:00007c08       ??_C@_0M@KGBMNEAL@BOTH_STAND9?$AA@ 200f7c08     bg_panimate.obj
 0002:00007c14       ??_C@_0BB@NHGNFEJF@BOTH_STAND9IDLE1?$AA@ 200f7c14     bg_panimate.obj
 0002:00007c28       ??_C@_0BH@LKALMHBN@BOTH_STAND5SHIFTWEIGHT?$AA@ 200f7c28     bg_panimate.obj
 0002:00007c40       ??_C@_0BM@LEFLGCNL@BOTH_STAND5SHIFTWEIGHTSTART?$AA@ 200f7c40     bg_panimate.obj
 0002:00007c5c       ??_C@_0BL@EHCDGJJ@BOTH_STAND5SHIFTWEIGHTSTOP?$AA@ 200f7c5c     bg_panimate.obj
 0002:00007c78       ??_C@_0BJ@HOHFOLPM@BOTH_STAND5TURNLEFTSTART?$AA@ 200f7c78     bg_panimate.obj
 0002:00007c94       ??_C@_0BI@JADJJLGI@BOTH_STAND5TURNLEFTSTOP?$AA@ 200f7c94     bg_panimate.obj
 0002:00007cac       ??_C@_0BK@IGPCPOOP@BOTH_STAND5TURNRIGHTSTART?$AA@ 200f7cac     bg_panimate.obj
 0002:00007cc8       ??_C@_0BJ@HFICOBLF@BOTH_STAND5TURNRIGHTSTOP?$AA@ 200f7cc8     bg_panimate.obj
 0002:00007ce4       ??_C@_0BM@BGELABNK@BOTH_STAND5LOOK180LEFTSTART?$AA@ 200f7ce4     bg_panimate.obj
 0002:00007d00       ??_C@_0BL@HDGAEFLK@BOTH_STAND5LOOK180LEFTSTOP?$AA@ 200f7d00     bg_panimate.obj
 0002:00007d1c       ??_C@_0BD@JMEBFELH@BOTH_CONSOLE1START?$AA@ 200f7d1c     bg_panimate.obj
 0002:00007d30       ??_C@_0O@DNGGEOJM@BOTH_CONSOLE1?$AA@ 200f7d30     bg_panimate.obj
 0002:00007d40       ??_C@_0BC@BMPMMEKB@BOTH_CONSOLE1STOP?$AA@ 200f7d40     bg_panimate.obj
 0002:00007d54       ??_C@_0BD@KNKJEOCK@BOTH_CONSOLE2START?$AA@ 200f7d54     bg_panimate.obj
 0002:00007d68       ??_C@_0O@BGELBNFP@BOTH_CONSOLE2?$AA@ 200f7d68     bg_panimate.obj
 0002:00007d78       ??_C@_0BC@JKGILGAP@BOTH_CONSOLE2STOP?$AA@ 200f7d78     bg_panimate.obj
 0002:00007d8c       ??_C@_0BK@JLMHHIBG@BOTH_CONSOLE2HOLDCOMSTART?$AA@ 200f7d8c     bg_panimate.obj
 0002:00007da8       ??_C@_0BJ@PHBEHMKF@BOTH_CONSOLE2HOLDCOMSTOP?$AA@ 200f7da8     bg_panimate.obj
 0002:00007dc4       ??_C@_0BH@IIALJNIM@BOTH_GUARD_LOOKAROUND1?$AA@ 200f7dc4     bg_panimate.obj
 0002:00007ddc       ??_C@_0BB@LLGPJFGM@BOTH_GUARD_IDLE1?$AA@ 200f7ddc     bg_panimate.obj
 0002:00007df0       ??_C@_0O@HANAGBGB@BOTH_GESTURE1?$AA@ 200f7df0     bg_panimate.obj
 0002:00007e00       ??_C@_0O@FLPNDCKC@BOTH_GESTURE2?$AA@ 200f7e00     bg_panimate.obj
 0002:00007e10       ??_C@_0BE@OAMCANFF@BOTH_WALK1TALKCOMM1?$AA@ 200f7e10     bg_panimate.obj
 0002:00007e24       ??_C@_0L@OMGKFLGC@BOTH_TALK1?$AA@ 200f7e24     bg_panimate.obj
 0002:00007e30       ??_C@_0L@MHEHAIKB@BOTH_TALK2?$AA@ 200f7e30     bg_panimate.obj
 0002:00007e3c       ??_C@_0BE@LLPJOKPB@BOTH_TALKCOMM1START?$AA@ 200f7e3c     bg_panimate.obj
 0002:00007e50       ??_C@_0P@IMEACJDE@BOTH_TALKCOMM1?$AA@ 200f7e50     bg_panimate.obj
 0002:00007e60       ??_C@_0BD@KGADCINA@BOTH_TALKCOMM1STOP?$AA@ 200f7e60     bg_panimate.obj
 0002:00007e74       ??_C@_0BC@HDFGDEIC@BOTH_TALKGESTURE1?$AA@ 200f7e74     bg_panimate.obj
 0002:00007e88       ??_C@_0BE@OFJJICOJ@BOTH_HEADTILTLSTART?$AA@ 200f7e88     bg_panimate.obj
 0002:00007e9c       ??_C@_0BD@BIJCDOKI@BOTH_HEADTILTLSTOP?$AA@ 200f7e9c     bg_panimate.obj
 0002:00007eb0       ??_C@_0BE@NCHIGFHK@BOTH_HEADTILTRSTART?$AA@ 200f7eb0     bg_panimate.obj
 0002:00007ec4       ??_C@_0BD@CBEOFNED@BOTH_HEADTILTRSTOP?$AA@ 200f7ec4     bg_panimate.obj
 0002:00007ed8       ??_C@_0N@JGGIBJHN@BOTH_HEADNOD?$AA@ 200f7ed8     bg_panimate.obj
 0002:00007ee8       ??_C@_0P@DFINNNBF@BOTH_HEADSHAKE?$AA@ 200f7ee8     bg_panimate.obj
 0002:00007ef8       ??_C@_0BI@OBPNLCKD@BOTH_SIT2HEADTILTLSTART?$AA@ 200f7ef8     bg_panimate.obj
 0002:00007f10       ??_C@_0BH@KHIEGBCO@BOTH_SIT2HEADTILTLSTOP?$AA@ 200f7f10     bg_panimate.obj
 0002:00007f28       ??_C@_0BB@IHJLPLDL@BOTH_REACH1START?$AA@ 200f7f28     bg_panimate.obj
 0002:00007f3c       ??_C@_0BA@MHPGDDPE@BOTH_REACH1STOP?$AA@ 200f7f3c     bg_panimate.obj
 0002:00007f4c       ??_C@_0O@KHABGCAK@BOTH_COME_ON1?$AA@ 200f7f4c     bg_panimate.obj
 0002:00007f5c       ??_C@_0BB@BHOCMBMP@BOTH_STEADYSELF1?$AA@ 200f7f5c     bg_panimate.obj
 0002:00007f70       ??_C@_0BE@EEMNDGPF@BOTH_STEADYSELF1END?$AA@ 200f7f70     bg_panimate.obj
 0002:00007f84       ??_C@_0BF@HGBIDKLM@BOTH_SILENCEGESTURE1?$AA@ 200f7f84     bg_panimate.obj
 0002:00007f9c       ??_C@_0BE@LPKJJENM@BOTH_REACHFORSABER1?$AA@ 200f7f9c     bg_panimate.obj
 0002:00007fb0       ??_C@_0BC@CEDLFADF@BOTH_SABERKILLER1?$AA@ 200f7fb0     bg_panimate.obj
 0002:00007fc4       ??_C@_0BC@DNFCOFMA@BOTH_SABERKILLEE1?$AA@ 200f7fc4     bg_panimate.obj
 0002:00007fd8       ??_C@_0N@PBPICGOP@BOTH_HUGGER1?$AA@ 200f7fd8     bg_panimate.obj
 0002:00007fe8       ??_C@_0BB@EFDKGEDA@BOTH_HUGGERSTOP1?$AA@ 200f7fe8     bg_panimate.obj
 0002:00007ffc       ??_C@_0N@OIJBJDBK@BOTH_HUGGEE1?$AA@ 200f7ffc     bg_panimate.obj
 0002:0000800c       ??_C@_0BB@OHEDMGHA@BOTH_HUGGEESTOP1?$AA@ 200f800c     bg_panimate.obj
 0002:00008020       ??_C@_0BG@IKDIPHLL@BOTH_SABERTHROW1START?$AA@ 200f8020     bg_panimate.obj
 0002:00008038       ??_C@_0BF@JJAINHO@BOTH_SABERTHROW1STOP?$AA@ 200f8038     bg_panimate.obj
 0002:00008050       ??_C@_0BG@LLNAONCG@BOTH_SABERTHROW2START?$AA@ 200f8050     bg_panimate.obj
 0002:00008068       ??_C@_0BF@IPAEPPNA@BOTH_SABERTHROW2STOP?$AA@ 200f8068     bg_panimate.obj
 0002:00008080       ??_C@_09OIAGNDLA@BOTH_SIT1?$AA@ 200f8080     bg_panimate.obj
 0002:0000808c       ??_C@_09MDCLIAHD@BOTH_SIT2?$AA@ 200f808c     bg_panimate.obj
 0002:00008098       ??_C@_09NKDALBDC@BOTH_SIT3?$AA@ 200f8098     bg_panimate.obj
 0002:000080a4       ??_C@_0BC@PIMMNLNC@BOTH_SIT2TOSTAND5?$AA@ 200f80a4     bg_panimate.obj
 0002:000080b8       ??_C@_0BC@LANJPAEM@BOTH_STAND5TOSIT2?$AA@ 200f80b8     bg_panimate.obj
 0002:000080cc       ??_C@_0BA@LICOGNPB@BOTH_SIT2TOSIT4?$AA@ 200f80cc     bg_panimate.obj
 0002:000080dc       ??_C@_0BC@BHAOLAOM@BOTH_SIT3TOSTAND5?$AA@ 200f80dc     bg_panimate.obj
 0002:000080f0       ??_C@_0N@KLJMDLMC@BOTH_CROUCH1?$AA@ 200f80f0     bg_panimate.obj
 0002:00008100       ??_C@_0BB@NNJBKJDM@BOTH_CROUCH1IDLE?$AA@ 200f8100     bg_panimate.obj
 0002:00008114       ??_C@_0BB@KLBMFNGD@BOTH_CROUCH1WALK?$AA@ 200f8114     bg_panimate.obj
 0002:00008128       ??_C@_0BF@IKEOFDBF@BOTH_CROUCH1WALKBACK?$AA@ 200f8128     bg_panimate.obj
 0002:00008140       ??_C@_0P@CMNLLMOK@BOTH_UNCROUCH1?$AA@ 200f8140     bg_panimate.obj
 0002:00008150       ??_C@_0BF@OBDEHHPH@BOTH_CROUCH2TOSTAND1?$AA@ 200f8150     bg_panimate.obj
 0002:00008168       ??_C@_0N@JJKKFJEA@BOTH_CROUCH3?$AA@ 200f8168     bg_panimate.obj
 0002:00008178       ??_C@_0P@BOONNOGI@BOTH_UNCROUCH3?$AA@ 200f8178     bg_panimate.obj
 0002:00008188       ??_C@_0N@NGOLMPIH@BOTH_CROUCH4?$AA@ 200f8188     bg_panimate.obj
 0002:00008198       ??_C@_0P@FBKMEIKP@BOTH_UNCROUCH4?$AA@ 200f8198     bg_panimate.obj
 0002:000081a8       ??_C@_0N@NEOMJHMD@BOTH_GUNSIT1?$AA@ 200f81a8     bg_panimate.obj
 0002:000081b8       ??_C@_0BA@BIPEOENE@BOTH_VS_MOUNT_L?$AA@ 200f81b8     bg_panimate.obj
 0002:000081c8       ??_C@_0BD@EAEFOEPB@BOTH_VS_DISMOUNT_L?$AA@ 200f81c8     bg_panimate.obj
 0002:000081dc       ??_C@_0BA@MMLFNLAL@BOTH_VS_MOUNT_R?$AA@ 200f81dc     bg_panimate.obj
 0002:000081ec       ??_C@_0BD@JEAENLCO@BOTH_VS_DISMOUNT_R?$AA@ 200f81ec     bg_panimate.obj
 0002:00008200       ??_C@_0BE@CFBMPALJ@BOTH_VS_MOUNTJUMP_L?$AA@ 200f8200     bg_panimate.obj
 0002:00008214       ??_C@_0BD@HKDNANFN@BOTH_VS_MOUNTTHROW?$AA@ 200f8214     bg_panimate.obj
 0002:00008228       ??_C@_0BF@EKIIEMBN@BOTH_VS_MOUNTTHROW_L?$AA@ 200f8228     bg_panimate.obj
 0002:00008240       ??_C@_0BF@JOMJHDMC@BOTH_VS_MOUNTTHROW_R?$AA@ 200f8240     bg_panimate.obj
 0002:00008258       ??_C@_0BF@IKPLNBPC@BOTH_VS_MOUNTTHROWEE?$AA@ 200f8258     bg_panimate.obj
 0002:00008270       ??_C@_0BB@LJMKNCGH@BOTH_VS_LOOKLEFT?$AA@ 200f8270     bg_panimate.obj
 0002:00008284       ??_C@_0L@IMFBDHL@FACE_TALK0?$AA@ 200f8284     bg_panimate.obj
 0002:00008290       ??_C@_0BC@FMBEBFOC@BOTH_VS_LOOKRIGHT?$AA@ 200f8290     bg_panimate.obj
 0002:000082a4       ??_C@_0L@BBNOCCDK@FACE_TALK1?$AA@ 200f82a4     bg_panimate.obj
 0002:000082b0       ??_C@_0O@COMCHHG@BOTH_VS_TURBO?$AA@ 200f82b0     bg_panimate.obj
 0002:000082c0       ??_C@_0L@DKPDHBPJ@FACE_TALK2?$AA@ 200f82c0     bg_panimate.obj
 0002:000082cc       ??_C@_0M@MPJJBHIP@BOTH_VS_REV?$AA@ 200f82cc     bg_panimate.obj
 0002:000082d8       ??_C@_0L@CDOIEALI@FACE_TALK3?$AA@ 200f82d8     bg_panimate.obj
 0002:000082e4       ??_C@_0M@OAEDNDJO@BOTH_VS_AIR?$AA@ 200f82e4     bg_panimate.obj
 0002:000082f0       ??_C@_0L@GMKJNGHP@FACE_TALK4?$AA@ 200f82f0     bg_panimate.obj
 0002:000082fc       ??_C@_0O@CIMAHEPG@BOTH_VS_AIR_G?$AA@ 200f82fc     bg_panimate.obj
 0002:0000830c       ??_C@_0L@MMCADNDE@FACE_ALERT?$AA@ 200f830c     bg_panimate.obj
 0002:00008318       ??_C@_0P@BDBFJMPI@BOTH_VS_AIR_SL?$AA@ 200f8318     bg_panimate.obj
 0002:00008328       ??_C@_0L@LAOJKFMG@FACE_SMILE?$AA@ 200f8328     bg_panimate.obj
 0002:00008334       ??_C@_0P@MHFEKDCH@BOTH_VS_AIR_SR?$AA@ 200f8334     bg_panimate.obj
 0002:00008344       ??_C@_0L@NHKOPMDL@FACE_FROWN?$AA@ 200f8344     bg_panimate.obj
 0002:00008350       ??_C@_0N@KLFKMBNL@BOTH_VS_LAND?$AA@ 200f8350     bg_panimate.obj
 0002:00008360       ??_C@_09OODFOJKI@FACE_DEAD?$AA@ 200f8360     bg_panimate.obj
 0002:0000836c       ??_C@_0P@FGHHPFOH@BOTH_VS_LAND_G?$AA@ 200f836c     bg_panimate.obj
 0002:0000837c       ??_C@_0M@DCIIGDOC@BOTH_DEATH1?$AA@ 200f837c     bg_panimate.obj
 0002:00008388       ??_C@_0BA@HJNLALIL@BOTH_VS_LAND_SL?$AA@ 200f8388     bg_panimate.obj
 0002:00008398       ??_C@_0M@BJKFDACB@BOTH_DEATH2?$AA@ 200f8398     bg_panimate.obj
 0002:000083a4       ??_C@_0BA@KNJKDEFE@BOTH_VS_LAND_SR?$AA@ 200f83a4     bg_panimate.obj
 0002:000083b4       ??_C@_0M@LOABGA@BOTH_DEATH3?$AA@ 200f83b4     bg_panimate.obj
 0002:000083c0       ??_C@_0N@EOPLFLLG@BOTH_VS_IDLE?$AA@ 200f83c0     bg_panimate.obj
 0002:000083d0       ??_C@_0M@EPPPJHKH@BOTH_DEATH4?$AA@ 200f83d0     bg_panimate.obj
 0002:000083dc       ??_C@_0P@JGPOHPPG@BOTH_VS_IDLE_G?$AA@ 200f83dc     bg_panimate.obj
 0002:000083ec       ??_C@_0M@FGOEKGOG@BOTH_DEATH5?$AA@ 200f83ec     bg_panimate.obj
 0002:000083f8       ??_C@_0BA@BDKLKCPD@BOTH_VS_IDLE_SL?$AA@ 200f83f8     bg_panimate.obj
 0002:00008408       ??_C@_0M@HNMJPFCF@BOTH_DEATH6?$AA@ 200f8408     bg_panimate.obj
 0002:00008414       ??_C@_0BA@MHOKJNCM@BOTH_VS_IDLE_SR?$AA@ 200f8414     bg_panimate.obj
 0002:00008424       ??_C@_0M@GENCMEGE@BOTH_DEATH7?$AA@ 200f8424     bg_panimate.obj
 0002:00008430       ??_C@_0O@ONBCGCNE@BOTH_VS_LEANL?$AA@ 200f8430     bg_panimate.obj
 0002:00008440       ??_C@_0M@ODEKNIKL@BOTH_DEATH8?$AA@ 200f8440     bg_panimate.obj
 0002:0000844c       ??_C@_0BA@JODAFNDC@BOTH_VS_LEANL_G?$AA@ 200f844c     bg_panimate.obj
 0002:0000845c       ??_C@_0M@PKFBOJOK@BOTH_DEATH9?$AA@ 200f845c     bg_panimate.obj
 0002:00008468       ??_C@_0BB@IPKKGKHI@BOTH_VS_LEANL_SL?$AA@ 200f8468     bg_panimate.obj
 0002:0000847c       ??_C@_0N@JBHADNME@BOTH_DEATH10?$AA@ 200f847c     bg_panimate.obj
 0002:0000848c       ??_C@_0BB@FLOLFFKH@BOTH_VS_LEANL_SR?$AA@ 200f848c     bg_panimate.obj
 0002:000084a0       ??_C@_0N@IIGLAMIF@BOTH_DEATH11?$AA@ 200f84a0     bg_panimate.obj
 0002:000084b0       ??_C@_0O@DJFDFNAL@BOTH_VS_LEANR?$AA@ 200f84b0     bg_panimate.obj
 0002:000084c0       ??_C@_0N@KDEGFPEG@BOTH_DEATH12?$AA@ 200f84c0     bg_panimate.obj
 0002:000084d0       ??_C@_0BA@COPGHNJO@BOTH_VS_LEANR_G?$AA@ 200f84d0     bg_panimate.obj
 0002:000084e0       ??_C@_0N@LKFNGOAH@BOTH_DEATH13?$AA@ 200f84e0     bg_panimate.obj
 0002:000084f0       ??_C@_0BB@FAHKEDJL@BOTH_VS_LEANR_SL?$AA@ 200f84f0     bg_panimate.obj
 0002:00008504       ??_C@_0N@PFBMPIMA@BOTH_DEATH14?$AA@ 200f8504     bg_panimate.obj
 0002:00008514       ??_C@_0BB@IEDLHMEE@BOTH_VS_LEANR_SR?$AA@ 200f8514     bg_panimate.obj
 0002:00008528       ??_C@_0N@OMAHMJIB@BOTH_DEATH15?$AA@ 200f8528     bg_panimate.obj
 0002:00008538       ??_C@_0O@CONINADM@BOTH_VS_ATL_S?$AA@ 200f8538     bg_panimate.obj
 0002:00008548       ??_C@_0N@MHCKJKEC@BOTH_DEATH16?$AA@ 200f8548     bg_panimate.obj
 0002:00008558       ??_C@_0O@JOBOPAJA@BOTH_VS_ATR_S?$AA@ 200f8558     bg_panimate.obj
 0002:00008568       ??_C@_0N@NODBKLAD@BOTH_DEATH17?$AA@ 200f8568     bg_panimate.obj
 0002:00008578       ??_C@_0BD@IEEEGOL@BOTH_VS_ATR_TO_L_S?$AA@ 200f8578     bg_panimate.obj
 0002:0000858c       ??_C@_0N@FJKJLHMM@BOTH_DEATH18?$AA@ 200f858c     bg_panimate.obj
 0002:0000859c       ??_C@_0BD@NMIAPPKE@BOTH_VS_ATL_TO_R_S?$AA@ 200f859c     bg_panimate.obj
 0002:000085b0       ??_C@_0N@EALCIGIN@BOTH_DEATH19?$AA@ 200f85b0     bg_panimate.obj
 0002:000085c0       ??_C@_0O@LALACHMF@BOTH_VS_ATR_G?$AA@ 200f85c0     bg_panimate.obj
 0002:000085d0       ??_C@_0N@JDDGIDJN@BOTH_DEATH20?$AA@ 200f85d0     bg_panimate.obj
 0002:000085e0       ??_C@_0O@HGAHGJ@BOTH_VS_ATL_G?$AA@ 200f85e0     bg_panimate.obj
 0002:000085f0       ??_C@_0N@IKCNLCNM@BOTH_DEATH21?$AA@ 200f85f0     bg_panimate.obj
 0002:00008600       ??_C@_0O@GPMLOHAN@BOTH_VS_ATF_G?$AA@ 200f8600     bg_panimate.obj
 0002:00008610       ??_C@_0N@KBAAOBBP@BOTH_DEATH22?$AA@ 200f8610     bg_panimate.obj
 0002:00008620       ??_C@_0O@DDKDCJKA@BOTH_VS_PAIN1?$AA@ 200f8620     bg_panimate.obj
 0002:00008630       ??_C@_0N@LIBLNAFO@BOTH_DEATH23?$AA@ 200f8630     bg_panimate.obj
 0002:00008640       ??_C@_0BA@PKCIPPKN@BOTH_VT_MOUNT_L?$AA@ 200f8640     bg_panimate.obj
 0002:00008650       ??_C@_0N@PHFKEGJJ@BOTH_DEATH24?$AA@ 200f8650     bg_panimate.obj
 0002:00008660       ??_C@_0BA@COGJMAHC@BOTH_VT_MOUNT_R?$AA@ 200f8660     bg_panimate.obj
 0002:00008670       ??_C@_0N@OOEBHHNI@BOTH_DEATH25?$AA@ 200f8670     bg_panimate.obj
 0002:00008680       ??_C@_0BA@GEKLNCCD@BOTH_VT_MOUNT_B?$AA@ 200f8680     bg_panimate.obj
 0002:00008690       ??_C@_0BD@LFAMCLEB@BOTH_DEATHFORWARD1?$AA@ 200f8690     bg_panimate.obj
 0002:000086a4       ??_C@_0BB@ICMLAFCL@BOTH_VT_DISMOUNT?$AA@ 200f86a4     bg_panimate.obj
 0002:000086b8       ??_C@_0BD@JOCBHIIC@BOTH_DEATHFORWARD2?$AA@ 200f86b8     bg_panimate.obj
 0002:000086cc       ??_C@_0BD@DNDGOCKJ@BOTH_VT_DISMOUNT_L?$AA@ 200f86cc     bg_panimate.obj
 0002:000086e0       ??_C@_0BD@IHDKEJMD@BOTH_DEATHFORWARD3?$AA@ 200f86e0     bg_panimate.obj
 0002:000086f4       ??_C@_0BD@OJHHNNHG@BOTH_VT_DISMOUNT_R?$AA@ 200f86f4     bg_panimate.obj
 0002:00008708       ??_C@_0BE@MDPCGIFE@BOTH_DEATHBACKWARD1?$AA@ 200f8708     bg_panimate.obj
 0002:0000871c       ??_C@_0BB@PINFIKEN@BOTH_VT_WALK_FWD?$AA@ 200f871c     bg_panimate.obj
 0002:00008730       ??_C@_0BE@OINPDLJH@BOTH_DEATHBACKWARD2?$AA@ 200f8730     bg_panimate.obj
 0002:00008744       ??_C@_0BB@EAPIENEI@BOTH_VT_WALK_REV?$AA@ 200f8744     bg_panimate.obj
 0002:00008758       ??_C@_0BA@LIHBIFLP@BOTH_DEATH1IDLE?$AA@ 200f8758     bg_panimate.obj
 0002:00008768       ??_C@_0BD@HDJGMKCH@BOTH_VT_WALK_FWD_L?$AA@ 200f8768     bg_panimate.obj
 0002:0000877c       ??_C@_0BB@FAMFDOML@BOTH_LYINGDEATH1?$AA@ 200f877c     bg_panimate.obj
 0002:00008790       ??_C@_0BD@KHNHPFPI@BOTH_VT_WALK_FWD_R?$AA@ 200f8790     bg_panimate.obj
 0002:000087a4       ??_C@_0BD@HAOKEEDM@BOTH_STUMBLEDEATH1?$AA@ 200f87a4     bg_panimate.obj
 0002:000087b8       ??_C@_0BA@JEFGBHGE@BOTH_VT_RUN_FWD?$AA@ 200f87b8     bg_panimate.obj
 0002:000087c8       ??_C@_0BA@MMMHHMBO@BOTH_FALLDEATH1?$AA@ 200f87c8     bg_panimate.obj
 0002:000087d8       ??_C@_0BA@CMHLNAGB@BOTH_VT_RUN_REV?$AA@ 200f87d8     bg_panimate.obj
 0002:000087e8       ??_C@_0BF@BGGMCFAN@BOTH_FALLDEATH1INAIR?$AA@ 200f87e8     bg_panimate.obj
 0002:00008800       ??_C@_0BC@LJGONGLG@BOTH_VT_RUN_FWD_L?$AA@ 200f8800     bg_panimate.obj
 0002:00008814       ??_C@_0BE@KLPONOFB@BOTH_FALLDEATH1LAND?$AA@ 200f8814     bg_panimate.obj
 0002:00008828       ??_C@_0BC@GNCPOJGJ@BOTH_VT_RUN_FWD_R?$AA@ 200f8828     bg_panimate.obj
 0002:0000883c       ??_C@_0BA@JLHMHBEO@BOTH_DEATH_ROLL?$AA@ 200f883c     bg_panimate.obj
 0002:0000884c       ??_C@_0P@KFJEKMCA@BOTH_VT_SLIDEF?$AA@ 200f884c     bg_panimate.obj
 0002:0000885c       ??_C@_0BA@PMBFHAFE@BOTH_DEATH_FLIP?$AA@ 200f885c     bg_panimate.obj
 0002:0000886c       ??_C@_0M@PNEGODCG@BOTH_VT_AIR?$AA@ 200f886c     bg_panimate.obj
 0002:00008878       ??_C@_0BF@PGHFNEMI@BOTH_DEATH_SPIN_90_R?$AA@ 200f8878     bg_panimate.obj
 0002:00008890       ??_C@_0M@KDHKMBFE@BOTH_VT_ATB?$AA@ 200f8890     bg_panimate.obj
 0002:0000889c       ??_C@_0BF@CCDEOLBH@BOTH_DEATH_SPIN_90_L?$AA@ 200f889c     bg_panimate.obj
 0002:000088b4       ??_C@_0O@DJGGCALJ@BOTH_VT_PAIN1?$AA@ 200f88b4     bg_panimate.obj
 0002:000088c4       ??_C@_0BE@GAFFKNDC@BOTH_DEATH_SPIN_180?$AA@ 200f88c4     bg_panimate.obj
 0002:000088d8       ??_C@_0P@CICNDPJE@BOTH_VT_DEATH1?$AA@ 200f88d8     bg_panimate.obj
 0002:000088e8       ??_C@_0BE@KCPIFEBO@BOTH_DEATH_LYING_UP?$AA@ 200f88e8     bg_panimate.obj
 0002:000088fc       ??_C@_0O@IAAOOPLJ@BOTH_VT_STAND?$AA@ 200f88fc     bg_panimate.obj
 0002:0000890c       ??_C@_0BE@GLFNKCIG@BOTH_DEATH_LYING_DN?$AA@ 200f890c     bg_panimate.obj
 0002:00008920       ??_C@_0N@IBPGAOGA@BOTH_VT_BUCK?$AA@ 200f8920     bg_panimate.obj
 0002:00008930       ??_C@_0BG@KFLMOKCA@BOTH_DEATH_FALLING_DN?$AA@ 200f8930     bg_panimate.obj
 0002:00008948       ??_C@_0N@GOPNPPFF@BOTH_VT_LAND?$AA@ 200f8948     bg_panimate.obj
 0002:00008958       ??_C@_0BG@GMBJBMLI@BOTH_DEATH_FALLING_UP?$AA@ 200f8958     bg_panimate.obj
 0002:00008970       ??_C@_0O@ICJCOGP@BOTH_VT_TURBO?$AA@ 200f8970     bg_panimate.obj
 0002:00008980       ??_C@_0BE@CACMPNDI@BOTH_DEATH_CROUCHED?$AA@ 200f8980     bg_panimate.obj
 0002:00008994       ??_C@_0BA@PBHHLJIK@BOTH_VT_IDLE_SL?$AA@ 200f8994     bg_panimate.obj
 0002:000089a4       ??_C@_0L@ODAKGANJ@BOTH_DEAD1?$AA@ 200f89a4     bg_panimate.obj
 0002:000089b0       ??_C@_0BA@CFDGIGFF@BOTH_VT_IDLE_SR?$AA@ 200f89b0     bg_panimate.obj
 0002:000089c0       ??_C@_0L@MICHDDBK@BOTH_DEAD2?$AA@ 200f89c0     bg_panimate.obj
 0002:000089cc       ??_C@_0N@ILFMGFDI@BOTH_VT_IDLE?$AA@ 200f89cc     bg_panimate.obj
 0002:000089dc       ??_C@_0L@NBDMACFL@BOTH_DEAD3?$AA@ 200f89dc     bg_panimate.obj
 0002:000089e8       ??_C@_0O@OONEODEJ@BOTH_VT_IDLE1?$AA@ 200f89e8     bg_panimate.obj
 0002:000089f8       ??_C@_0L@JOHNJEJM@BOTH_DEAD4?$AA@ 200f89f8     bg_panimate.obj
 0002:00008a04       ??_C@_0P@NMDBMFGK@BOTH_VT_IDLE_S?$AA@ 200f8a04     bg_panimate.obj
 0002:00008a14       ??_C@_0L@IHGGKFNN@BOTH_DEAD5?$AA@ 200f8a14     bg_panimate.obj
 0002:00008a20       ??_C@_0P@PCJPBCDP@BOTH_VT_IDLE_G?$AA@ 200f8a20     bg_panimate.obj
 0002:00008a30       ??_C@_0L@KMELPGBO@BOTH_DEAD6?$AA@ 200f8a30     bg_panimate.obj
 0002:00008a3c       ??_C@_0P@JDHAFDKN@BOTH_VT_IDLE_T?$AA@ 200f8a3c     bg_panimate.obj
 0002:00008a4c       ??_C@_0L@LFFAMHFP@BOTH_DEAD7?$AA@ 200f8a4c     bg_panimate.obj
 0002:00008a58       ??_C@_0O@CEBNNJCF@BOTH_VT_ATL_S?$AA@ 200f8a58     bg_panimate.obj
 0002:00008a68       ??_C@_0L@DCMINLJA@BOTH_DEAD8?$AA@ 200f8a68     bg_panimate.obj
 0002:00008a74       ??_C@_0O@JENLPJIJ@BOTH_VT_ATR_S?$AA@ 200f8a74     bg_panimate.obj
 0002:00008a84       ??_C@_0L@CLNDOKNB@BOTH_DEAD9?$AA@ 200f8a84     bg_panimate.obj
 0002:00008a90       ??_C@_0BD@HFDHEALD@BOTH_VT_ATR_TO_L_S?$AA@ 200f8a90     bg_panimate.obj
 0002:00008aa4       ??_C@_0M@CAKKFGOD@BOTH_DEAD10?$AA@ 200f8aa4     bg_panimate.obj
 0002:00008ab0       ??_C@_0BD@KBPDPJPM@BOTH_VT_ATL_TO_R_S?$AA@ 200f8ab0     bg_panimate.obj
 0002:00008ac4       ??_C@_0M@DJLBGHKC@BOTH_DEAD11?$AA@ 200f8ac4     bg_panimate.obj
 0002:00008ad0       ??_C@_0O@LKHFCONM@BOTH_VT_ATR_G?$AA@ 200f8ad0     bg_panimate.obj
 0002:00008ae0       ??_C@_0M@BCJMDEGB@BOTH_DEAD12?$AA@ 200f8ae0     bg_panimate.obj
 0002:00008aec       ??_C@_0O@KLDAOHA@BOTH_VT_ATL_G?$AA@ 200f8aec     bg_panimate.obj
 0002:00008afc       ??_C@_0M@LIHAFCA@BOTH_DEAD13?$AA@ 200f8afc     bg_panimate.obj
 0002:00008b08       ??_C@_0O@GFAOOOBE@BOTH_VT_ATF_G?$AA@ 200f8b08     bg_panimate.obj
 0002:00008b18       ??_C@_0M@EEMGJDOH@BOTH_DEAD14?$AA@ 200f8b18     bg_panimate.obj
 0002:00008b24       ??_C@_0BA@MMFJLAL@BOTH_GEARS_OPEN?$AA@ 200f8b24     bg_panimate.obj
 0002:00008b34       ??_C@_0M@FNNNKCKG@BOTH_DEAD15?$AA@ 200f8b34     bg_panimate.obj
 0002:00008b40       ??_C@_0BB@LDEBMNOM@BOTH_GEARS_CLOSE?$AA@ 200f8b40     bg_panimate.obj
 0002:00008b54       ??_C@_0M@HGPAPBGF@BOTH_DEAD16?$AA@ 200f8b54     bg_panimate.obj
 0002:00008b60       ??_C@_0BA@FDONEPNA@BOTH_WINGS_OPEN?$AA@ 200f8b60     bg_panimate.obj
 0002:00008b70       ??_C@_0M@GPOLMACE@BOTH_DEAD17?$AA@ 200f8b70     bg_panimate.obj
 0002:00008b7c       ??_C@_0BB@KCBPOOGE@BOTH_WINGS_CLOSE?$AA@ 200f8b7c     bg_panimate.obj
 0002:00008b90       ??_C@_0M@OIHDNMOL@BOTH_DEAD18?$AA@ 200f8b90     bg_panimate.obj
 0002:00008b9c       ??_C@_0BE@KHOKHMOE@BOTH_DEATH14_UNGRIP?$AA@ 200f8b9c     bg_panimate.obj
 0002:00008bb0       ??_C@_0M@PBGIONKK@BOTH_DEAD19?$AA@ 200f8bb0     bg_panimate.obj
 0002:00008bbc       ??_C@_0BD@FOKLKMPB@BOTH_DEATH14_SITUP?$AA@ 200f8bbc     bg_panimate.obj
 0002:00008bd0       ??_C@_0M@CCOMOILK@BOTH_DEAD20?$AA@ 200f8bd0     bg_panimate.obj
 0002:00008bdc       ??_C@_0M@KDFBDJGD@BOTH_KNEES1?$AA@ 200f8bdc     bg_panimate.obj
 0002:00008be8       ??_C@_0M@DLPHNJPL@BOTH_DEAD21?$AA@ 200f8be8     bg_panimate.obj
 0002:00008bf4       ??_C@_0M@IIHMGKKA@BOTH_KNEES2?$AA@ 200f8bf4     bg_panimate.obj
 0002:00008c00       ??_C@_0M@BANKIKDI@BOTH_DEAD22?$AA@ 200f8c00     bg_panimate.obj
 0002:00008c0c       ??_C@_0P@OGCNLGGI@BOTH_KNEES2TO1?$AA@ 200f8c0c     bg_panimate.obj
 0002:00008c1c       ??_C@_0M@JMBLLHJ@BOTH_DEAD23?$AA@ 200f8c1c     bg_panimate.obj
 0002:00008c28       ??_C@_0L@GKPOCJMM@BOTH_WALK1?$AA@ 200f8c28     bg_panimate.obj
 0002:00008c34       ??_C@_0M@EGIACNLO@BOTH_DEAD24?$AA@ 200f8c34     bg_panimate.obj
 0002:00008c40       ??_C@_0L@EBNDHKAP@BOTH_WALK2?$AA@ 200f8c40     bg_panimate.obj
 0002:00008c4c       ??_C@_0M@FPJLBMPP@BOTH_DEAD25?$AA@ 200f8c4c     bg_panimate.obj
 0002:00008c58       ??_C@_0BA@LMALDKNK@BOTH_WALK_STAFF?$AA@ 200f8c58     bg_panimate.obj
 0002:00008c68       ??_C@_0BC@MMDCJFEJ@BOTH_DEADFORWARD1?$AA@ 200f8c68     bg_panimate.obj
 0002:00008c7c       ??_C@_0BE@MDDMPBCJ@BOTH_WALKBACK_STAFF?$AA@ 200f8c7c     bg_panimate.obj
 0002:00008c90       ??_C@_0BC@OHBPMGIK@BOTH_DEADFORWARD2?$AA@ 200f8c90     bg_panimate.obj
 0002:00008ca4       ??_C@_0P@GCJFOAGJ@BOTH_WALK_DUAL?$AA@ 200f8ca4     bg_panimate.obj
 0002:00008cb4       ??_C@_0BD@MNFANONI@BOTH_DEADBACKWARD1?$AA@ 200f8cb4     bg_panimate.obj
 0002:00008cc8       ??_C@_0BD@DPFDKICF@BOTH_WALKBACK_DUAL?$AA@ 200f8cc8     bg_panimate.obj
 0002:00008cdc       ??_C@_0BD@OGHNINBL@BOTH_DEADBACKWARD2?$AA@ 200f8cdc     bg_panimate.obj
 0002:00008cf0       ??_C@_0L@OJCOMMI@BOTH_WALK5?$AA@ 200f8cf0     bg_panimate.obj
 0002:00008cfc       ??_C@_0BA@HDEKJGIF@BOTH_LYINGDEAD1?$AA@ 200f8cfc     bg_panimate.obj
 0002:00008d0c       ??_C@_0L@CFLPLPAL@BOTH_WALK6?$AA@ 200f8d0c     bg_panimate.obj
 0002:00008d18       ??_C@_0BC@DDLFNCPA@BOTH_STUMBLEDEAD1?$AA@ 200f8d18     bg_panimate.obj
 0002:00008d2c       ??_C@_0L@DMKEIOEK@BOTH_WALK7?$AA@ 200f8d2c     bg_panimate.obj
 0002:00008d38       ??_C@_0BD@BHDKBOHF@BOTH_FALLDEAD1LAND?$AA@ 200f8d38     bg_panimate.obj
 0002:00008d4c       ??_C@_09NOBIDEIB@BOTH_RUN1?$AA@ 200f8d4c     bg_panimate.obj
 0002:00008d58       ??_C@_0P@DCNFIPCD@BOTH_DEADFLOP1?$AA@ 200f8d58     bg_panimate.obj
 0002:00008d68       ??_C@_0P@CLIPKCAJ@BOTH_RUN1START?$AA@ 200f8d68     bg_panimate.obj
 0002:00008d78       ??_C@_0P@BJPINMOA@BOTH_DEADFLOP2?$AA@ 200f8d78     bg_panimate.obj
 0002:00008d88       ??_C@_0O@GPFGEBNP@BOTH_RUN1STOP?$AA@ 200f8d88     bg_panimate.obj
 0002:00008d98       ??_C@_0BF@OGJIODF@BOTH_DISMEMBER_HEAD1?$AA@ 200f8d98     bg_panimate.obj
 0002:00008db0       ??_C@_09PFDFGHEC@BOTH_RUN2?$AA@ 200f8db0     bg_panimate.obj
 0002:00008dbc       ??_C@_0BG@CFOELION@BOTH_DISMEMBER_TORSO1?$AA@ 200f8dbc     bg_panimate.obj
 0002:00008dd4       ??_C@_0BA@JDBHFMOM@BOTH_RUN1TORUN2?$AA@ 200f8dd4     bg_panimate.obj
 0002:00008de4       ??_C@_0BE@EHHEBFGH@BOTH_DISMEMBER_LLEG?$AA@ 200f8de4     bg_panimate.obj
 0002:00008df8       ??_C@_0BA@DGLFAIMM@BOTH_RUN2TORUN1?$AA@ 200f8df8     bg_panimate.obj
 0002:00008e08       ??_C@_0BE@JIKEDMIE@BOTH_DISMEMBER_RLEG?$AA@ 200f8e08     bg_panimate.obj
 0002:00008e1c       ??_C@_09KDGPMAME@BOTH_RUN4?$AA@ 200f8e1c     bg_panimate.obj
 0002:00008e28       ??_C@_0BE@IJEILJCG@BOTH_DISMEMBER_RARM?$AA@ 200f8e28     bg_panimate.obj
 0002:00008e3c       ??_C@_0P@JDNNOOMO@BOTH_RUN_STAFF?$AA@ 200f8e3c     bg_panimate.obj
 0002:00008e4c       ??_C@_0BE@FGJIJAMF@BOTH_DISMEMBER_LARM?$AA@ 200f8e4c     bg_panimate.obj
 0002:00008e60       ??_C@_0BD@OKHEPDMN@BOTH_RUNBACK_STAFF?$AA@ 200f8e60     bg_panimate.obj
 0002:00008e74       ??_C@_0L@EGOOCLKN@BOTH_PAIN1?$AA@ 200f8e74     bg_panimate.obj
 0002:00008e80       ??_C@_0O@NLDNHDFF@BOTH_RUN_DUAL?$AA@ 200f8e80     bg_panimate.obj
 0002:00008e90       ??_C@_0L@GNMDHIGO@BOTH_PAIN2?$AA@ 200f8e90     bg_panimate.obj
 0002:00008e9c       ??_C@_0BC@KOJINEFM@BOTH_RUNBACK_DUAL?$AA@ 200f8e9c     bg_panimate.obj
 0002:00008eb0       ??_C@_0L@HENIEJCP@BOTH_PAIN3?$AA@ 200f8eb0     bg_panimate.obj
 0002:00008ebc       ??_C@_0BC@OMBNLHPO@BOTH_STRAFE_LEFT1?$AA@ 200f8ebc     bg_panimate.obj
 0002:00008ed0       ??_C@_0L@DLJJNPOI@BOTH_PAIN4?$AA@ 200f8ed0     bg_panimate.obj
 0002:00008edc       ??_C@_0BD@LFCECKKK@BOTH_STRAFE_RIGHT1?$AA@ 200f8edc     bg_panimate.obj
 0002:00008ef0       ??_C@_0L@CCICOOKJ@BOTH_PAIN5?$AA@ 200f8ef0     bg_panimate.obj
 0002:00008efc       ??_C@_0BF@DBPGPOAM@BOTH_RUNSTRAFE_LEFT1?$AA@ 200f8efc     bg_panimate.obj
 0002:00008f14       ??_C@_0L@JKPLNGK@BOTH_PAIN6?$AA@ 200f8f14     bg_panimate.obj
 0002:00008f20       ??_C@_0BG@OGEKFCND@BOTH_RUNSTRAFE_RIGHT1?$AA@ 200f8f20     bg_panimate.obj
 0002:00008f38       ??_C@_0L@BALEIMCL@BOTH_PAIN7?$AA@ 200f8f38     bg_panimate.obj
 0002:00008f44       ??_C@_0BA@GKEFEECE@BOTH_TURN_LEFT1?$AA@ 200f8f44     bg_panimate.obj
 0002:00008f54       ??_C@_0L@JHCMJAOE@BOTH_PAIN8?$AA@ 200f8f54     bg_panimate.obj
 0002:00008f60       ??_C@_0BB@NDKEEJJD@BOTH_TURN_RIGHT1?$AA@ 200f8f60     bg_panimate.obj
 0002:00008f74       ??_C@_0L@IODHKBKF@BOTH_PAIN9?$AA@ 200f8f74     bg_panimate.obj
 0002:00008f80       ??_C@_0BA@GOHCIDPJ@BOTH_TURNSTAND1?$AA@ 200f8f80     bg_panimate.obj
 0002:00008f90       ??_C@_0M@HHGHAHIN@BOTH_PAIN10?$AA@ 200f8f90     bg_panimate.obj
 0002:00008f9c       ??_C@_0BA@EFFPNADK@BOTH_TURNSTAND2?$AA@ 200f8f9c     bg_panimate.obj
 0002:00008fac       ??_C@_0M@GOHMDGMM@BOTH_PAIN11?$AA@ 200f8fac     bg_panimate.obj
 0002:00008fb8       ??_C@_0BA@FMEEOBHL@BOTH_TURNSTAND3?$AA@ 200f8fb8     bg_panimate.obj
 0002:00008fc8       ??_C@_0M@EFFBGFAP@BOTH_PAIN12?$AA@ 200f8fc8     bg_panimate.obj
 0002:00008fd4       ??_C@_0BA@BDAFHHLM@BOTH_TURNSTAND4?$AA@ 200f8fd4     bg_panimate.obj
 0002:00008fe4       ??_C@_0M@FMEKFEEO@BOTH_PAIN13?$AA@ 200f8fe4     bg_panimate.obj
 0002:00008ff0       ??_C@_0BA@KBOEGPN@BOTH_TURNSTAND5?$AA@ 200f8ff0     bg_panimate.obj
 0002:00009000       ??_C@_0M@BDALMCIJ@BOTH_PAIN14?$AA@ 200f9000     bg_panimate.obj
 0002:0000900c       ??_C@_0BB@PGPEJHBN@BOTH_TURNCROUCH1?$AA@ 200f900c     bg_panimate.obj
 0002:00009020       ??_C@_0M@KBAPDMI@BOTH_PAIN15?$AA@ 200f9020     bg_panimate.obj
 0002:0000902c       ??_C@_0P@PHEJPEHC@BOTH_WALKBACK1?$AA@ 200f902c     bg_panimate.obj
 0002:0000903c       ??_C@_0M@CBDNKAAL@BOTH_PAIN16?$AA@ 200f903c     bg_panimate.obj
 0002:00009048       ??_C@_0P@NMGEKHLB@BOTH_WALKBACK2?$AA@ 200f9048     bg_panimate.obj
 0002:00009058       ??_C@_0M@DICGJBEK@BOTH_PAIN17?$AA@ 200f9058     bg_panimate.obj
 0002:00009064       ??_C@_0O@EOOBGHEO@BOTH_RUNBACK1?$AA@ 200f9064     bg_panimate.obj
 0002:00009074       ??_C@_0M@LPLOINIF@BOTH_PAIN18?$AA@ 200f9074     bg_panimate.obj
 0002:00009080       ??_C@_0O@GFMMDEIN@BOTH_RUNBACK2?$AA@ 200f9080     bg_panimate.obj
 0002:00009090       ??_C@_0N@HEFOHEMG@BOTH_ATTACK1?$AA@ 200f9090     bg_panimate.obj
 0002:000090a0       ??_C@_0L@OIBJCCDP@BOTH_JUMP1?$AA@ 200f90a0     bg_panimate.obj
 0002:000090ac       ??_C@_0N@FPHDCHAF@BOTH_ATTACK2?$AA@ 200f90ac     bg_panimate.obj
 0002:000090bc       ??_C@_0M@IKFKFLAF@BOTH_INAIR1?$AA@ 200f90bc     bg_panimate.obj
 0002:000090c8       ??_C@_0N@EGGIBGEE@BOTH_ATTACK3?$AA@ 200f90c8     bg_panimate.obj
 0002:000090d8       ??_C@_0L@KCLKFECC@BOTH_LAND1?$AA@ 200f90d8     bg_panimate.obj
 0002:000090e4       ??_C@_0N@JCJIAID@BOTH_ATTACK4?$AA@ 200f90e4     bg_panimate.obj
 0002:000090f4       ??_C@_0L@IJJHAHOB@BOTH_LAND2?$AA@ 200f90f4     bg_panimate.obj
 0002:00009100       ??_C@_0N@BADCLBMC@BOTH_ATTACK5?$AA@ 200f9100     bg_panimate.obj
 0002:00009110       ??_C@_0P@HNEGCFPN@BOTH_JUMPBACK1?$AA@ 200f9110     bg_panimate.obj
 0002:00009120       ??_C@_0N@DLBPOCAB@BOTH_ATTACK6?$AA@ 200f9120     bg_panimate.obj
 0002:00009130       ??_C@_0BA@MBBIHCFF@BOTH_INAIRBACK1?$AA@ 200f9130     bg_panimate.obj
 0002:00009140       ??_C@_0N@CCAENDEA@BOTH_ATTACK7?$AA@ 200f9140     bg_panimate.obj
 0002:00009150       ??_C@_0P@JMGKPJPJ@BOTH_LANDBACK1?$AA@ 200f9150     bg_panimate.obj
 0002:00009160       ??_C@_0O@KNDFAPAC@BOTH_ATTACK10?$AA@ 200f9160     bg_panimate.obj
 0002:00009170       ??_C@_0P@JCGIPGDC@BOTH_JUMPLEFT1?$AA@ 200f9170     bg_panimate.obj
 0002:00009180       ??_C@_0O@LECODOED@BOTH_ATTACK11?$AA@ 200f9180     bg_panimate.obj
 0002:00009190       ??_C@_0BA@CODGKBJK@BOTH_INAIRLEFT1?$AA@ 200f9190     bg_panimate.obj
 0002:000091a0       ??_C@_0M@LPPNEBCJ@BOTH_MELEE1?$AA@ 200f91a0     bg_panimate.obj
 0002:000091ac       ??_C@_0P@HDEECKDG@BOTH_LANDLEFT1?$AA@ 200f91ac     bg_panimate.obj
 0002:000091bc       ??_C@_0M@JENABCOK@BOTH_MELEE2?$AA@ 200f91bc     bg_panimate.obj
 0002:000091c8       ??_C@_0BA@CHIINBHA@BOTH_JUMPRIGHT1?$AA@ 200f91c8     bg_panimate.obj
 0002:000091d8       ??_C@_0BD@FIPEGIGM@BOTH_THERMAL_READY?$AA@ 200f91d8     bg_panimate.obj
 0002:000091ec       ??_C@_0BB@PPDJKEPN@BOTH_INAIRRIGHT1?$AA@ 200f91ec     bg_panimate.obj
 0002:00009200       ??_C@_0BD@KGEHHFNO@BOTH_THERMAL_THROW?$AA@ 200f9200     bg_panimate.obj
 0002:00009214       ??_C@_0BA@CAAEDJLF@BOTH_LANDRIGHT1?$AA@ 200f9214     bg_panimate.obj
 0002:00009224       ??_C@_0O@KKJLHNCF@BOTH_A1_T__B_?$AA@ 200f9224     bg_panimate.obj
 0002:00009234       ??_C@_0BA@JCEJKFBM@BOTH_FORCEJUMP1?$AA@ 200f9234     bg_panimate.obj
 0002:00009244       ??_C@_0O@EGEMCONK@BOTH_A1__L__R?$AA@ 200f9244     bg_panimate.obj
 0002:00009254       ??_C@_0BB@CIEHHKPA@BOTH_FORCEINAIR1?$AA@ 200f9254     bg_panimate.obj
 0002:00009268       ??_C@_0O@ENNNDIOG@BOTH_A1__R__L?$AA@ 200f9268     bg_panimate.obj
 0002:00009278       ??_C@_0BA@NIOKNDAB@BOTH_FORCELAND1?$AA@ 200f9278     bg_panimate.obj
 0002:00009288       ??_C@_0O@DIHFOODK@BOTH_A1_TL_BR?$AA@ 200f9288     bg_panimate.obj
 0002:00009298       ??_C@_0BE@CBNAONFO@BOTH_FORCEJUMPBACK1?$AA@ 200f9298     bg_panimate.obj
 0002:000092ac       ??_C@_0O@POMAMGEC@BOTH_A1_BR_TL?$AA@ 200f92ac     bg_panimate.obj
 0002:000092bc       ??_C@_0BF@IOJLBGMP@BOTH_FORCEINAIRBACK1?$AA@ 200f92bc     bg_panimate.obj
 0002:000092d4       ??_C@_0O@PFFBNAHO@BOTH_A1_BL_TR?$AA@ 200f92d4     bg_panimate.obj
 0002:000092e4       ??_C@_0BE@MAPMDBFK@BOTH_FORCELANDBACK1?$AA@ 200f92e4     bg_panimate.obj
 0002:000092f8       ??_C@_0O@DDOEPIAG@BOTH_A1_TR_BL?$AA@ 200f92f8     bg_panimate.obj
 0002:00009308       ??_C@_0BE@MOPODOJB@BOTH_FORCEJUMPLEFT1?$AA@ 200f9308     bg_panimate.obj
 0002:0000931c       ??_C@_0O@MAIDBBEC@BOTH_T1_BR__R?$AA@ 200f931c     bg_panimate.obj
 0002:0000932c       ??_C@_0BF@GBLFMFAA@BOTH_FORCEINAIRLEFT1?$AA@ 200f932c     bg_panimate.obj
 0002:00009344       ??_C@_0O@BIJHMBHM@BOTH_T1_BR_TL?$AA@ 200f9344     bg_panimate.obj
 0002:00009354       ??_C@_0BE@CPNCOCJF@BOTH_FORCELANDLEFT1?$AA@ 200f9354     bg_panimate.obj
 0002:00009368       ??_C@_0O@BEMCCOJN@BOTH_T1_BR__L?$AA@ 200f9368     bg_panimate.obj
 0002:00009378       ??_C@_0BF@GIALLFOK@BOTH_FORCEJUMPRIGHT1?$AA@ 200f9378     bg_panimate.obj
 0002:00009390       ??_C@_0O@DMBOLO@BOTH_T1_BR_BL?$AA@ 200f9390     bg_panimate.obj
 0002:000093a0       ??_C@_0BG@OPKMFNMD@BOTH_FORCEINAIRRIGHT1?$AA@ 200f93a0     bg_panimate.obj
 0002:000093b8       ??_C@_0O@HDJOOPOG@BOTH_T1__R_TR?$AA@ 200f93b8     bg_panimate.obj
 0002:000093c8       ??_C@_0BF@GPIHFNCP@BOTH_FORCELANDRIGHT1?$AA@ 200f93c8     bg_panimate.obj
 0002:000093e0       ??_C@_0O@KHNPNADJ@BOTH_T1__R_TL?$AA@ 200f93e0     bg_panimate.obj
 0002:000093f0       ??_C@_0M@EEBNKFFB@BOTH_FLIP_F?$AA@ 200f93f0     bg_panimate.obj
 0002:000093fc       ??_C@_0O@KLIKDPNI@BOTH_T1__R__L?$AA@ 200f93fc     bg_panimate.obj
 0002:0000940c       ??_C@_0M@CAHBGAFF@BOTH_FLIP_B?$AA@ 200f940c     bg_panimate.obj
 0002:00009418       ??_C@_0O@LPHEAPPL@BOTH_T1__R_BL?$AA@ 200f9418     bg_panimate.obj
 0002:00009428       ??_C@_0M@LOPCENNL@BOTH_FLIP_L?$AA@ 200f9428     bg_panimate.obj
 0002:00009434       ??_C@_0O@BPCMAOH@BOTH_T1_TR_BR?$AA@ 200f9434     bg_panimate.obj
 0002:00009444       ??_C@_0M@GKLDHCAE@BOTH_FLIP_R?$AA@ 200f9444     bg_panimate.obj
 0002:00009450       ??_C@_0O@MNBICAPK@BOTH_T1_TR_TL?$AA@ 200f9450     bg_panimate.obj
 0002:00009460       ??_C@_0M@IDDHAIHF@BOTH_ROLL_F?$AA@ 200f9460     bg_panimate.obj
 0002:0000946c       ??_C@_0O@MBENMPBL@BOTH_T1_TR__L?$AA@ 200f946c     bg_panimate.obj
 0002:0000947c       ??_C@_0M@OHFLMNHB@BOTH_ROLL_B?$AA@ 200f947c     bg_panimate.obj
 0002:00009488       ??_C@_0O@NFLDPPDI@BOTH_T1_TR_BL?$AA@ 200f9488     bg_panimate.obj
 0002:00009498       ??_C@_0M@HJNIOAPP@BOTH_ROLL_L?$AA@ 200f9498     bg_panimate.obj
 0002:000094a4       ??_C@_0O@PJGCAEFG@BOTH_T1_T__BR?$AA@ 200f94a4     bg_panimate.obj
 0002:000094b4       ??_C@_0M@KNJJNPCA@BOTH_ROLL_R?$AA@ 200f94b4     bg_panimate.obj
 0002:000094c0       ??_C@_0O@ONJMDEHF@BOTH_T1_T___R?$AA@ 200f94c0     bg_panimate.obj
 0002:000094d0       ??_C@_0L@EGNACLFJ@BOTH_HOP_F?$AA@ 200f94d0     bg_panimate.obj
 0002:000094dc       ??_C@_0O@OBMJNLJE@BOTH_T1_T__TR?$AA@ 200f94dc     bg_panimate.obj
 0002:000094ec       ??_C@_0L@CCLMOOFN@BOTH_HOP_B?$AA@ 200f94ec     bg_panimate.obj
 0002:000094f8       ??_C@_0O@DFIIOEEL@BOTH_T1_T__TL?$AA@ 200f94f8     bg_panimate.obj
 0002:00009508       ??_C@_0L@LMDPMDND@BOTH_HOP_L?$AA@ 200f9508     bg_panimate.obj
 0002:00009514       ??_C@_0O@DJNNALKK@BOTH_T1_T___L?$AA@ 200f9514     bg_panimate.obj
 0002:00009524       ??_C@_0L@GIHOPMAM@BOTH_HOP_R?$AA@ 200f9524     bg_panimate.obj
 0002:00009530       ??_C@_0O@CNCDDLIJ@BOTH_T1_T__BL?$AA@ 200f9530     bg_panimate.obj
 0002:00009540       ??_C@_0O@PFPLGFKE@BOTH_DODGE_FL?$AA@ 200f9540     bg_panimate.obj
 0002:00009550       ??_C@_0O@NOCCOJAE@BOTH_T1_TL_BR?$AA@ 200f9550     bg_panimate.obj
 0002:00009560       ??_C@_0O@CBLKFKHL@BOTH_DODGE_FR?$AA@ 200f9560     bg_panimate.obj
 0002:00009570       ??_C@_0O@KGDNGNL@BOTH_T1_TL_BL?$AA@ 200f9570     bg_panimate.obj
 0002:00009580       ??_C@_0O@PCPCMNHI@BOTH_DODGE_BL?$AA@ 200f9580     bg_panimate.obj
 0002:00009590       ??_C@_0O@LEOFBJMH@BOTH_T1__L_BR?$AA@ 200f9590     bg_panimate.obj
 0002:000095a0       ??_C@_0O@CGLDPCKH@BOTH_DODGE_BR?$AA@ 200f95a0     bg_panimate.obj
 0002:000095b0       ??_C@_0O@KABLCJOE@BOTH_T1__L__R?$AA@ 200f95b0     bg_panimate.obj
 0002:000095c0       ??_C@_0N@HBCEBGGG@BOTH_DODGE_L?$AA@ 200f95c0     bg_panimate.obj
 0002:000095d0       ??_C@_0O@HIAPPJNK@BOTH_T1__L_TL?$AA@ 200f95d0     bg_panimate.obj
 0002:000095e0       ??_C@_0N@KFGFCJLJ@BOTH_DODGE_R?$AA@ 200f95e0     bg_panimate.obj
 0002:000095f0       ??_C@_0O@LKNAIIC@BOTH_T1_BL_BR?$AA@ 200f95f0     bg_panimate.obj
 0002:00009600       ??_C@_0BD@BDDLGFBA@BOTH_DODGE_HOLD_FL?$AA@ 200f9600     bg_panimate.obj
 0002:00009614       ??_C@_0O@BPFDDIKB@BOTH_T1_BL__R?$AA@ 200f9614     bg_panimate.obj
 0002:00009624       ??_C@_0BD@MHHKFKMP@BOTH_DODGE_HOLD_FR?$AA@ 200f9624     bg_panimate.obj
 0002:00009638       ??_C@_0O@BDAGNHEA@BOTH_T1_BL_TR?$AA@ 200f9638     bg_panimate.obj
 0002:00009648       ??_C@_0BD@BEDCMNMM@BOTH_DODGE_HOLD_BL?$AA@ 200f9648     bg_panimate.obj
 0002:0000965c       ??_C@_0O@MLBCAHHO@BOTH_T1_BL__L?$AA@ 200f965c     bg_panimate.obj
 0002:0000966c       ??_C@_0BD@MAHDPCBD@BOTH_DODGE_HOLD_BR?$AA@ 200f966c     bg_panimate.obj
 0002:00009680       ??_C@_0O@MMNGPOKD@BOTH_T1_BR_TR?$AA@ 200f9680     bg_panimate.obj
 0002:00009690       ??_C@_0BC@NCHIKDCJ@BOTH_DODGE_HOLD_L?$AA@ 200f9690     bg_panimate.obj
 0002:000096a4       ??_C@_0O@HJHIIAOO@BOTH_T1_BR_T_?$AA@ 200f96a4     bg_panimate.obj
 0002:000096b4       ??_C@_0BC@GDJJMPG@BOTH_DODGE_HOLD_R?$AA@ 200f96b4     bg_panimate.obj
 0002:000096c8       ??_C@_0O@GLDFDACE@BOTH_T1__R_BR?$AA@ 200f96c8     bg_panimate.obj
 0002:000096d8       ??_C@_0BB@EBJHHEMP@BOTH_ENGAGETAUNT?$AA@ 200f96d8     bg_panimate.obj
 0002:000096ec       ??_C@_0O@MGDAJBKL@BOTH_T1__R_T_?$AA@ 200f96ec     bg_panimate.obj
 0002:000096fc       ??_C@_08CINMJMPG@BOTH_BOW?$AA@ 200f96fc     bg_panimate.obj
 0002:00009708       ??_C@_0O@BFAMPAME@BOTH_T1_TR__R?$AA@ 200f9708     bg_panimate.obj
 0002:00009718       ??_C@_0O@NBLEPMIO@BOTH_MEDITATE?$AA@ 200f9718     bg_panimate.obj
 0002:00009728       ??_C@_0O@KMPHGBGI@BOTH_T1_TR_T_?$AA@ 200f9728     bg_panimate.obj
 0002:00009738       ??_C@_0BC@DILNBIJM@BOTH_MEDITATE_END?$AA@ 200f9738     bg_panimate.obj
 0002:0000974c       ??_C@_0O@MKNMNJCH@BOTH_T1_TL__R?$AA@ 200f974c     bg_panimate.obj
 0002:0000975c       ??_C@_0BC@DIEHLMHO@BOTH_SHOWOFF_FAST?$AA@ 200f975c     bg_panimate.obj
 0002:00009770       ??_C@_0O@MGIJDGMG@BOTH_T1_TL_TR?$AA@ 200f9770     bg_panimate.obj
 0002:00009780       ??_C@_0BE@LFOOJMLH@BOTH_SHOWOFF_MEDIUM?$AA@ 200f9780     bg_panimate.obj
 0002:00009794       ??_C@_0O@HDCHEIIL@BOTH_T1_TL_T_?$AA@ 200f9794     bg_panimate.obj
 0002:000097a4       ??_C@_0BE@GKNCDDPP@BOTH_SHOWOFF_STRONG?$AA@ 200f97a4     bg_panimate.obj
 0002:000097b8       ??_C@_0O@BOJNOGPI@BOTH_T1_TL__L?$AA@ 200f97b8     bg_panimate.obj
 0002:000097c8       ??_C@_0BC@EFMAJB@BOTH_SHOWOFF_DUAL?$AA@ 200f97c8     bg_panimate.obj
 0002:000097dc       ??_C@_0O@KMEOMGAF@BOTH_T1__L_TR?$AA@ 200f97dc     bg_panimate.obj
 0002:000097ec       ??_C@_0BD@PAPJANE@BOTH_SHOWOFF_STAFF?$AA@ 200f97ec     bg_panimate.obj
 0002:00009800       ??_C@_0O@BJOALIEI@BOTH_T1__L_T_?$AA@ 200f9800     bg_panimate.obj
 0002:00009810       ??_C@_0BC@DGIHLJDA@BOTH_VICTORY_FAST?$AA@ 200f9810     bg_panimate.obj
 0002:00009824       ??_C@_0O@GAKECGBI@BOTH_T1__L_BL?$AA@ 200f9824     bg_panimate.obj
 0002:00009834       ??_C@_0BE@KLHOAEHD@BOTH_VICTORY_MEDIUM?$AA@ 200f9834     bg_panimate.obj
 0002:00009848       ??_C@_0O@KGKIKJAN@BOTH_T1_BL_T_?$AA@ 200f9848     bg_panimate.obj
 0002:00009858       ??_C@_0BE@HEECKLDL@BOTH_VICTORY_STRONG?$AA@ 200f9858     bg_panimate.obj
 0002:0000986c       ??_C@_0O@MHEHOIJP@BOTH_T1_BL_TL?$AA@ 200f986c     bg_panimate.obj
 0002:0000987c       ??_C@_0BC@OIFMFNP@BOTH_VICTORY_DUAL?$AA@ 200f987c     bg_panimate.obj
 0002:00009890       ??_C@_0O@LABDBIE@BOTH_S1_S1_T_?$AA@ 200f9890     bg_panimate.obj
 0002:000098a0       ??_C@_0BD@JOGFDMEG@BOTH_VICTORY_STAFF?$AA@ 200f98a0     bg_panimate.obj
 0002:000098b4       ??_C@_0O@GGLLJPPH@BOTH_S1_S1__L?$AA@ 200f98b4     bg_panimate.obj
 0002:000098c4       ??_C@_0BA@GLHECKNB@BOTH_ARIAL_LEFT?$AA@ 200f98c4     bg_panimate.obj
 0002:000098d4       ??_C@_0O@LCPKKACI@BOTH_S1_S1__R?$AA@ 200f98d4     bg_panimate.obj
 0002:000098e4       ??_C@_0BB@HOMELNKD@BOTH_ARIAL_RIGHT?$AA@ 200f98e4     bg_panimate.obj
 0002:000098f8       ??_C@_0O@GKOOHABG@BOTH_S1_S1_TL?$AA@ 200f98f8     bg_panimate.obj
 0002:00009908       ??_C@_0BE@POJJIGPG@BOTH_CARTWHEEL_LEFT?$AA@ 200f9908     bg_panimate.obj
 0002:0000991c       ??_C@_0O@KGAEJAAL@BOTH_S1_S1_BR?$AA@ 200f991c     bg_panimate.obj
 0002:0000992c       ??_C@_0BF@NLFLOFGE@BOTH_CARTWHEEL_RIGHT?$AA@ 200f992c     bg_panimate.obj
 0002:00009944       ??_C@_0O@HCEFKPNE@BOTH_S1_S1_BL?$AA@ 200f9944     bg_panimate.obj
 0002:00009954       ??_C@_0P@JBLCLJDK@BOTH_FLIP_LEFT?$AA@ 200f9954     bg_panimate.obj
 0002:00009964       ??_C@_0O@LOKPEPMJ@BOTH_S1_S1_TR?$AA@ 200f9964     bg_panimate.obj
 0002:00009974       ??_C@_0BA@OPOOLPHG@BOTH_FLIP_BACK1?$AA@ 200f9974     bg_panimate.obj
 0002:00009984       ??_C@_0O@MMDGNHJ@BOTH_R1_B__S1?$AA@ 200f9984     bg_panimate.obj
 0002:00009994       ??_C@_0BA@MEMDOMLF@BOTH_FLIP_BACK2?$AA@ 200f9994     bg_panimate.obj
 0002:000099a4       ??_C@_0O@JEMLJBGO@BOTH_R1__L_S1?$AA@ 200f99a4     bg_panimate.obj
 0002:000099b4       ??_C@_0BA@NNNINNPE@BOTH_FLIP_BACK3?$AA@ 200f99b4     bg_panimate.obj
 0002:000099c4       ??_C@_0O@ELBLLIIN@BOTH_R1__R_S1?$AA@ 200f99c4     bg_panimate.obj
 0002:000099d4       ??_C@_0BE@ENKLMJBI@BOTH_BUTTERFLY_LEFT?$AA@ 200f99d4     bg_panimate.obj
 0002:000099e8       ??_C@_0O@POAMGBKN@BOTH_R1_TL_S1?$AA@ 200f99e8     bg_panimate.obj
 0002:000099f8       ??_C@_0BF@JMFKBIFE@BOTH_BUTTERFLY_RIGHT?$AA@ 200f99f8     bg_panimate.obj
 0002:00009a10       ??_C@_0O@PEFDKJMI@BOTH_R1_BR_S1?$AA@ 200f9a10     bg_panimate.obj
 0002:00009a20       ??_C@_0BE@INEIBMIN@BOTH_WALL_RUN_RIGHT?$AA@ 200f9a20     bg_panimate.obj
 0002:00009a34       ??_C@_0O@CLIDIACL@BOTH_R1_BL_S1?$AA@ 200f9a34     bg_panimate.obj
 0002:00009a44       ??_C@_0BJ@JNEELNCP@BOTH_WALL_RUN_RIGHT_FLIP?$AA@ 200f9a44     bg_panimate.obj
 0002:00009a60       ??_C@_0O@CBNMEIEO@BOTH_R1_TR_S1?$AA@ 200f9a60     bg_panimate.obj
 0002:00009a70       ??_C@_0BJ@KEGEKGBP@BOTH_WALL_RUN_RIGHT_STOP?$AA@ 200f9a70     bg_panimate.obj
 0002:00009a8c       ??_C@_0O@KKPHFEPE@BOTH_B1_BR___?$AA@ 200f9a8c     bg_panimate.obj
 0002:00009a9c       ??_C@_0BD@FOKEEMMD@BOTH_WALL_RUN_LEFT?$AA@ 200f9a9c     bg_panimate.obj
 0002:00009ab0       ??_C@_0O@BFLPEFLB@BOTH_B1__R___?$AA@ 200f9ab0     bg_panimate.obj
 0002:00009ac0       ??_C@_0BI@LLGHOLLN@BOTH_WALL_RUN_LEFT_FLIP?$AA@ 200f9ac0     bg_panimate.obj
 0002:00009ad8       ??_C@_0O@HPHILFHC@BOTH_B1_TR___?$AA@ 200f9ad8     bg_panimate.obj
 0002:00009ae8       ??_C@_0BI@ICEHPAIN@BOTH_WALL_RUN_LEFT_STOP?$AA@ 200f9ae8     bg_panimate.obj
 0002:00009b00       ??_C@_0O@IHOIHBMD@BOTH_B1_T____?$AA@ 200f9b00     bg_panimate.obj
 0002:00009b10       ??_C@_0BF@MPCPCKGE@BOTH_WALL_FLIP_RIGHT?$AA@ 200f9b10     bg_panimate.obj
 0002:00009b28       ??_C@_0O@KAKIJMJB@BOTH_B1_TL___?$AA@ 200f9b28     bg_panimate.obj
 0002:00009b38       ??_C@_0BE@ILAKMJOK@BOTH_WALL_FLIP_LEFT?$AA@ 200f9b38     bg_panimate.obj
 0002:00009b4c       ??_C@_0O@MKGPGMFC@BOTH_B1__L___?$AA@ 200f9b4c     bg_panimate.obj
 0002:00009b5c       ??_C@_0BA@ICOJIKIM@BOTH_KNOCKDOWN1?$AA@ 200f9b5c     bg_panimate.obj
 0002:00009b6c       ??_C@_0O@HFCHHNBH@BOTH_B1_BL___?$AA@ 200f9b6c     bg_panimate.obj
 0002:00009b7c       ??_C@_0BA@KJMENJEP@BOTH_KNOCKDOWN2?$AA@ 200f9b7c     bg_panimate.obj
 0002:00009b8c       ??_C@_0O@NJONCNHO@BOTH_D1_BR___?$AA@ 200f9b8c     bg_panimate.obj
 0002:00009b9c       ??_C@_0BA@LANPOIAO@BOTH_KNOCKDOWN3?$AA@ 200f9b9c     bg_panimate.obj
 0002:00009bac       ??_C@_0O@GGKFDMDL@BOTH_D1__R___?$AA@ 200f9bac     bg_panimate.obj
 0002:00009bbc       ??_C@_0BA@PPJOHOMJ@BOTH_KNOCKDOWN4?$AA@ 200f9bbc     bg_panimate.obj
 0002:00009bcc       ??_C@_0O@MGCMMPI@BOTH_D1_TR___?$AA@ 200f9bcc     bg_panimate.obj
 0002:00009bdc       ??_C@_0BA@OGIFEPII@BOTH_KNOCKDOWN5?$AA@ 200f9bdc     bg_panimate.obj
 0002:00009bec       ??_C@_0O@NDLCOFBL@BOTH_D1_TL___?$AA@ 200f9bec     bg_panimate.obj
 0002:00009bfc       ??_C@_0M@BOJPECA@BOTH_GETUP1?$AA@ 200f9bfc     bg_panimate.obj
 0002:00009c08       ??_C@_0O@LJHFBFNI@BOTH_D1__L___?$AA@ 200f9c08     bg_panimate.obj
 0002:00009c18       ??_C@_0M@CKMEKHOD@BOTH_GETUP2?$AA@ 200f9c18     bg_panimate.obj
 0002:00009c24       ??_C@_0O@GDNAEJN@BOTH_D1_BL___?$AA@ 200f9c24     bg_panimate.obj
 0002:00009c34       ??_C@_0M@DDNPJGKC@BOTH_GETUP3?$AA@ 200f9c34     bg_panimate.obj
 0002:00009c40       ??_C@_0O@CBHNOJMP@BOTH_D1_B____?$AA@ 200f9c40     bg_panimate.obj
 0002:00009c50       ??_C@_0M@HMJOAAGF@BOTH_GETUP4?$AA@ 200f9c50     bg_panimate.obj
 0002:00009c5c       ??_C@_0O@CEBEHKMG@BOTH_A2_T__B_?$AA@ 200f9c5c     bg_panimate.obj
 0002:00009c6c       ??_C@_0M@GFIFDBCE@BOTH_GETUP5?$AA@ 200f9c6c     bg_panimate.obj
 0002:00009c78       ??_C@_0O@MIMDCJDJ@BOTH_A2__L__R?$AA@ 200f9c78     bg_panimate.obj
 0002:00009c88       ??_C@_0BF@MOAEFEDA@BOTH_GETUP_CROUCH_F1?$AA@ 200f9c88     bg_panimate.obj
 0002:00009ca0       ??_C@_0O@MDFCDPAF@BOTH_A2__R__L?$AA@ 200f9ca0     bg_panimate.obj
 0002:00009cb0       ??_C@_0BF@MJANPMOM@BOTH_GETUP_CROUCH_B1?$AA@ 200f9cb0     bg_panimate.obj
 0002:00009cc8       ??_C@_0O@LGPKOJNJ@BOTH_A2_TL_BR?$AA@ 200f9cc8     bg_panimate.obj
 0002:00009cd8       ??_C@_0BE@BEIPAFMG@BOTH_FORCE_GETUP_F1?$AA@ 200f9cd8     bg_panimate.obj
 0002:00009cec       ??_C@_0O@HAEPMBKB@BOTH_A2_BR_TL?$AA@ 200f9cec     bg_panimate.obj
 0002:00009cfc       ??_C@_0BE@DPKCFGAF@BOTH_FORCE_GETUP_F2?$AA@ 200f9cfc     bg_panimate.obj
 0002:00009d10       ??_C@_0O@HLNONHJN@BOTH_A2_BL_TR?$AA@ 200f9d10     bg_panimate.obj
 0002:00009d20       ??_C@_0BE@BDIGKNBK@BOTH_FORCE_GETUP_B1?$AA@ 200f9d20     bg_panimate.obj
 0002:00009d34       ??_C@_0O@LNGLPPOF@BOTH_A2_TR_BL?$AA@ 200f9d34     bg_panimate.obj
 0002:00009d44       ??_C@_0BE@DIKLPONJ@BOTH_FORCE_GETUP_B2?$AA@ 200f9d44     bg_panimate.obj
 0002:00009d58       ??_C@_0O@EOAMBGKB@BOTH_T2_BR__R?$AA@ 200f9d58     bg_panimate.obj
 0002:00009d68       ??_C@_0BE@CBLAMPJI@BOTH_FORCE_GETUP_B3?$AA@ 200f9d68     bg_panimate.obj
 0002:00009d7c       ??_C@_0O@JGBIMGJP@BOTH_T2_BR_TL?$AA@ 200f9d7c     bg_panimate.obj
 0002:00009d8c       ??_C@_0BE@GOPBFJFP@BOTH_FORCE_GETUP_B4?$AA@ 200f9d8c     bg_panimate.obj
 0002:00009da0       ??_C@_0O@JKENCJHO@BOTH_T2_BR__L?$AA@ 200f9da0     bg_panimate.obj
 0002:00009db0       ??_C@_0BE@HHOKGIBO@BOTH_FORCE_GETUP_B5?$AA@ 200f9db0     bg_panimate.obj
 0002:00009dc4       ??_C@_0O@IOLDBJFN@BOTH_T2_BR_BL?$AA@ 200f9dc4     bg_panimate.obj
 0002:00009dd4       ??_C@_0BE@FMMHDLNN@BOTH_FORCE_GETUP_B6?$AA@ 200f9dd4     bg_panimate.obj
 0002:00009de8       ??_C@_0O@PNBBOIAF@BOTH_T2__R_TR?$AA@ 200f9de8     bg_panimate.obj
 0002:00009df8       ??_C@_0BD@IAPFGJBO@BOTH_GETUP_BROLL_B?$AA@ 200f9df8     bg_panimate.obj
 0002:00009e0c       ??_C@_0O@CJFANHNK@BOTH_T2__R_TL?$AA@ 200f9e0c     bg_panimate.obj
 0002:00009e1c       ??_C@_0BD@OEJJKMBK@BOTH_GETUP_BROLL_F?$AA@ 200f9e1c     bg_panimate.obj
 0002:00009e30       ??_C@_0O@CFAFDIDL@BOTH_T2__R__L?$AA@ 200f9e30     bg_panimate.obj
 0002:00009e40       ??_C@_0BD@BOHGEEJA@BOTH_GETUP_BROLL_L?$AA@ 200f9e40     bg_panimate.obj
 0002:00009e54       ??_C@_0O@DBPLAIBI@BOTH_T2__R_BL?$AA@ 200f9e54     bg_panimate.obj
 0002:00009e64       ??_C@_0BD@MKDHHLEP@BOTH_GETUP_BROLL_R?$AA@ 200f9e64     bg_panimate.obj
 0002:00009e78       ??_C@_0O@IPHNMHAE@BOTH_T2_TR_BR?$AA@ 200f9e78     bg_panimate.obj
 0002:00009e88       ??_C@_0BD@ELPGHOE@BOTH_GETUP_FROLL_B?$AA@ 200f9e88     bg_panimate.obj
 0002:00009e9c       ??_C@_0O@EDJHCHBJ@BOTH_T2_TR_TL?$AA@ 200f9e9c     bg_panimate.obj
 0002:00009eac       ??_C@_0BD@GANDKCOA@BOTH_GETUP_FROLL_F?$AA@ 200f9eac     bg_panimate.obj
 0002:00009ec0       ??_C@_0O@EPMCMIPI@BOTH_T2_TR__L?$AA@ 200f9ec0     bg_panimate.obj
 0002:00009ed0       ??_C@_0BD@JKDMEKGK@BOTH_GETUP_FROLL_L?$AA@ 200f9ed0     bg_panimate.obj
 0002:00009ee4       ??_C@_0O@FLDMPINL@BOTH_T2_TR_BL?$AA@ 200f9ee4     bg_panimate.obj
 0002:00009ef4       ??_C@_0BE@KLHOHCCI@ERROR?3?5anim?5?$CFd?5?$DM?50?6?$AA@ 200f9ef4     bg_panimate.obj
 0002:00009f08       ??_C@_0BD@IAGLKLFM@players?1_humanoid?1?$AA@ 200f9f08     bg_panimate.obj
 0002:00009f1c       ??_C@_0BH@OHJDKHCL@players?1rockettrooper?1?$AA@ 200f9f1c     bg_panimate.obj
 0002:00009f34       ??_C@_0DD@BJENEBEN@?$CFs?5exceeds?5the?5allowed?5game?9side@ 200f9f34     bg_panimate.obj
 0002:00009f68       __real@3f266666            200f9f68     bg_panimate.obj
 0002:00009f6c       __real@3f400000            200f9f6c     bg_panimate.obj
 0002:00009f70       __real@3fc00000            200f9f70     bg_panimate.obj
 0002:00009f78       __real@3ff4cccccccccccd    200f9f78     bg_panimate.obj
 0002:00009f80       __real@3ffb333333333333    200f9f80     bg_panimate.obj
 0002:00009f90       __xmm@7fffffffffffffff7fffffffffffffff 200f9f90     bg_panimate.obj
 0002:00009fa0       ??_C@_0N@KJCNHCBK@?$CFi?3allsolid?6?$AA@ 200f9fa0     bg_pmove.obj
 0002:00009fb0       ??_C@_08EOGJDHPF@?$CFi?3lift?6?$AA@ 200f9fb0     bg_pmove.obj
 0002:00009fbc       ??_C@_0M@CKJFDFGH@?$CFi?3kickoff?6?$AA@ 200f9fbc     bg_pmove.obj
 0002:00009fc8       ??_C@_09OPMLNNOA@?$CFi?3steep?6?$AA@ 200f9fc8     bg_pmove.obj
 0002:00009fd4       ??_C@_08KACHPCJN@?$CFi?3Land?6?$AA@ 200f9fd4     bg_pmove.obj
 0002:00009fe0       ??_C@_08GMFJNBED@lhumerus?$AA@ 200f9fe0     bg_pmove.obj
 0002:00009fec       ??_C@_07NJHCGBBF@lradius?$AA@ 200f9fec     bg_pmove.obj
 0002:00009ff4       ??_C@_06IHEANBNF@pelvis?$AA@ 200f9ff4     bg_pmove.obj
 0002:00009ffc       ??_C@_07JOKDFEMH@cranium?$AA@ 200f9ffc     bg_pmove.obj
 0002:0000a004       ??_C@_08HPHDBPFM@cervical?$AA@ 200fa004     bg_pmove.obj
 0002:0000a010       ??_C@_08ILEJMJL@thoracic?$AA@ 200fa010     bg_pmove.obj
 0002:0000a01c       ??_C@_0N@DPOICHCI@lower_lumbar?$AA@ 200fa01c     bg_pmove.obj
 0002:0000a02c       ??_C@_0N@FLMNOMBE@upper_lumbar?$AA@ 200fa02c     bg_pmove.obj
 0002:0000a03c       ??_C@_0BP@KPLHHMIM@Bad?5player?5movement?5angle?5?$CI?$CFi?$CJ?$AA@ 200fa03c     bg_pmove.obj
 0002:0000a060       __real@0000000000000000    200fa060     bg_pmove.obj
 0002:0000a068       __real@3c800000            200fa068     bg_pmove.obj
 0002:0000a06c       __real@3d0f5c29            200fa06c     bg_pmove.obj
 0002:0000a070       __real@3dcccccd            200fa070     bg_pmove.obj
 0002:0000a074       __real@3e000000            200fa074     bg_pmove.obj
 0002:0000a078       __real@3e99999a            200fa078     bg_pmove.obj
 0002:0000a07c       __real@3f0ccccd            200fa07c     bg_pmove.obj
 0002:0000a080       __real@3f1a36e2eb1c432d    200fa080     bg_pmove.obj
 0002:0000a088       __real@3f59999a            200fa088     bg_pmove.obj
 0002:0000a090       __real@3f689374bc6a7efa    200fa090     bg_pmove.obj
 0002:0000a098       __real@3f8020c5            200fa098     bg_pmove.obj
 0002:0000a0a0       __real@3fa999999999999a    200fa0a0     bg_pmove.obj
 0002:0000a0a8       __real@3fb999999999999a    200fa0a8     bg_pmove.obj
 0002:0000a0b0       __real@3fc999999999999a    200fa0b0     bg_pmove.obj
 0002:0000a0b8       __real@3fc99999a0000000    200fa0b8     bg_pmove.obj
 0002:0000a0c0       __real@3fd999999999999a    200fa0c0     bg_pmove.obj
 0002:0000a0c8       __real@3fe3333333333333    200fa0c8     bg_pmove.obj
 0002:0000a0d0       __real@3fe6666666666666    200fa0d0     bg_pmove.obj
 0002:0000a0d8       __real@3fe8000000000000    200fa0d8     bg_pmove.obj
 0002:0000a0e0       __real@3fe999999999999a    200fa0e0     bg_pmove.obj
 0002:0000a0e8       __real@3ff0000000000000    200fa0e8     bg_pmove.obj
 0002:0000a0f0       __real@3ff8000000000000    200fa0f0     bg_pmove.obj
 0002:0000a0f8       __real@4004000000000000    200fa0f8     bg_pmove.obj
 0002:0000a100       __real@4008000000000000    200fa100     bg_pmove.obj
 0002:0000a108       __real@40100000            200fa108     bg_pmove.obj
 0002:0000a110       __real@4014000000000000    200fa110     bg_pmove.obj
 0002:0000a118       __real@4018000000000000    200fa118     bg_pmove.obj
 0002:0000a120       __real@40200000            200fa120     bg_pmove.obj
 0002:0000a128       __real@4024000000000000    200fa128     bg_pmove.obj
 0002:0000a130       __real@4028000000000000    200fa130     bg_pmove.obj
 0002:0000a138       __real@4038000000000000    200fa138     bg_pmove.obj
 0002:0000a140       __real@4059000000000000    200fa140     bg_pmove.obj
 0002:0000a148       __real@405fc00000000000    200fa148     bg_pmove.obj
 0002:0000a150       __real@41200000            200fa150     bg_pmove.obj
 0002:0000a154       __real@41400000            200fa154     bg_pmove.obj
 0002:0000a158       __real@41900000            200fa158     bg_pmove.obj
 0002:0000a15c       __real@41a00000            200fa15c     bg_pmove.obj
 0002:0000a160       __real@41c00000            200fa160     bg_pmove.obj
 0002:0000a164       __real@43160000            200fa164     bg_pmove.obj
 0002:0000a168       __real@432f0000            200fa168     bg_pmove.obj
 0002:0000a16c       __real@43610000            200fa16c     bg_pmove.obj
 0002:0000a170       __real@43700000            200fa170     bg_pmove.obj
 0002:0000a174       __real@43870000            200fa174     bg_pmove.obj
 0002:0000a178       __real@43e10000            200fa178     bg_pmove.obj
 0002:0000a17c       __real@44960000            200fa17c     bg_pmove.obj
 0002:0000a180       __real@44af0000            200fa180     bg_pmove.obj
 0002:0000a184       __real@44d48000            200fa184     bg_pmove.obj
 0002:0000a188       __real@44e10000            200fa188     bg_pmove.obj
 0002:0000a18c       __real@471c4000            200fa18c     bg_pmove.obj
 0002:0000a190       __real@bf000000            200fa190     bg_pmove.obj
 0002:0000a194       __real@bf7fbe77            200fa194     bg_pmove.obj
 0002:0000a198       __real@c0000000            200fa198     bg_pmove.obj
 0002:0000a19c       __real@c0400000            200fa19c     bg_pmove.obj
 0002:0000a1a0       __real@c0800000            200fa1a0     bg_pmove.obj
 0002:0000a1a4       __real@c0a00000            200fa1a4     bg_pmove.obj
 0002:0000a1a8       __real@c1700000            200fa1a8     bg_pmove.obj
 0002:0000a1ac       __real@c1c00000            200fa1ac     bg_pmove.obj
 0002:0000a1b0       __real@c1f00000            200fa1b0     bg_pmove.obj
 0002:0000a1b4       __real@c2000000            200fa1b4     bg_pmove.obj
 0002:0000a1b8       __real@c2c80000            200fa1b8     bg_pmove.obj
 0002:0000a1bc       __real@c3000000            200fa1bc     bg_pmove.obj
 0002:0000a1c0       __real@c3160000            200fa1c0     bg_pmove.obj
 0002:0000a1c4       __real@c3480000            200fa1c4     bg_pmove.obj
 0002:0000a1c8       __real@c3960000            200fa1c8     bg_pmove.obj
 0002:0000a1cc       __real@c4960000            200fa1cc     bg_pmove.obj
 0002:0000a1d0       __xmm@41f00000c1a00000c1a00000c2b40000 200fa1d0     bg_pmove.obj
 0002:0000a1e0       ??_C@_04OHJIHAFH@None?$AA@ 200fa1e0     bg_saber.obj
 0002:0000a1e8       ??_C@_05GMBADOLI@Ready?$AA@ 200fa1e8     bg_saber.obj
 0002:0000a1f0       ??_C@_04HMPDNAFK@Draw?$AA@ 200fa1f0     bg_saber.obj
 0002:0000a1f8       ??_C@_07EEKMGHL@Putaway?$AA@ 200fa1f8     bg_saber.obj
 0002:0000a200       ??_C@_09DLNELECG@TL2BR?5Att?$AA@ 200fa200     bg_saber.obj
 0002:0000a20c       ??_C@_07GAJHIGJB@L2R?5Att?$AA@ 200fa20c     bg_saber.obj
 0002:0000a214       ??_C@_09BFGKOMHN@BL2TR?5Att?$AA@ 200fa214     bg_saber.obj
 0002:0000a220       ??_C@_09EILEBGHF@BR2TL?5Att?$AA@ 200fa220     bg_saber.obj
 0002:0000a22c       ??_C@_07DAHKMGGD@R2L?5Att?$AA@ 200fa22c     bg_saber.obj
 0002:0000a234       ??_C@_09GGAKEOCO@TR2BL?5Att?$AA@ 200fa234     bg_saber.obj
 0002:0000a240       ??_C@_07MMBPKOJE@T2B?5Att?$AA@ 200fa240     bg_saber.obj
 0002:0000a248       ??_C@_09JIGLEFGA@Back?5Stab?$AA@ 200fa248     bg_saber.obj
 0002:0000a254       ??_C@_08NHHMKFDG@Back?5Att?$AA@ 200fa254     bg_saber.obj
 0002:0000a260       ??_C@_0M@GCNCHFMC@CR?5Back?5Att?$AA@ 200fa260     bg_saber.obj
 0002:0000a26c       ??_C@_08PKIJPDOE@RollStab?$AA@ 200fa26c     bg_saber.obj
 0002:0000a278       ??_C@_09LEMMEBE@Lunge?5Att?$AA@ 200fa278     bg_saber.obj
 0002:0000a284       ??_C@_08KNHLLBPK@Jump?5Att?$AA@ 200fa284     bg_saber.obj
 0002:0000a290       ??_C@_09JENGNGLB@Flip?5Stab?$AA@ 200fa290     bg_saber.obj
 0002:0000a29c       ??_C@_0L@FMKCKBGH@Flip?5Slash?$AA@ 200fa29c     bg_saber.obj
 0002:0000a2a8       ??_C@_0N@BCAAENJH@DualJump?5Atk?$AA@ 200fa2a8     bg_saber.obj
 0002:0000a2b8       ??_C@_0P@BOMMGCKC@DualJumpAtkL_A?$AA@ 200fa2b8     bg_saber.obj
 0002:0000a2c8       ??_C@_0P@KOAKECAO@DualJumpAtkR_A?$AA@ 200fa2c8     bg_saber.obj
 0002:0000a2d8       ??_C@_0BC@PNIBBCPG@DualJumpAtkLStaff?$AA@ 200fa2d8     bg_saber.obj
 0002:0000a2ec       ??_C@_0BC@MKGAPFGF@DualJumpAtkRStaff?$AA@ 200fa2ec     bg_saber.obj
 0002:0000a300       ??_C@_0O@EJCJKPND@ButterflyLeft?$AA@ 200fa300     bg_saber.obj
 0002:0000a310       ??_C@_0P@FGMKFKI@ButterflyRight?$AA@ 200fa310     bg_saber.obj
 0002:0000a320       ??_C@_0L@DLADLIII@BkFlip?5Atk?$AA@ 200fa320     bg_saber.obj
 0002:0000a32c       ??_C@_0M@HECJKIFI@DualSpinAtk?$AA@ 200fa32c     bg_saber.obj
 0002:0000a338       ??_C@_0L@GNJONGPC@StfSpinAtk?$AA@ 200fa338     bg_saber.obj
 0002:0000a344       ??_C@_0L@NEJJNIPN@LngLeapAtk?$AA@ 200fa344     bg_saber.obj
 0002:0000a350       ??_C@_09OIECNKCB@SwoopAtkR?$AA@ 200fa350     bg_saber.obj
 0002:0000a35c       ??_C@_09DMADOFPO@SwoopAtkL?$AA@ 200fa35c     bg_saber.obj
 0002:0000a368       ??_C@_0N@LKHFPAPA@TauntaunAtkR?$AA@ 200fa368     bg_saber.obj
 0002:0000a378       ??_C@_0N@GODEMPCP@TauntaunAtkL?$AA@ 200fa378     bg_saber.obj
 0002:0000a388       ??_C@_0L@EBPEBDEI@StfKickFwd?$AA@ 200fa388     bg_saber.obj
 0002:0000a394       ??_C@_0M@HLPCDHNL@StfKickBack?$AA@ 200fa394     bg_saber.obj
 0002:0000a3a0       ??_C@_0N@OEKLCFMN@StfKickRight?$AA@ 200fa3a0     bg_saber.obj
 0002:0000a3b0       ??_C@_0M@IADBNCJI@StfKickLeft?$AA@ 200fa3b0     bg_saber.obj
 0002:0000a3bc       ??_C@_0M@LODHMIIA@StfKickSpin?$AA@ 200fa3bc     bg_saber.obj
 0002:0000a3c8       ??_C@_0N@NIILEKHB@StfKickBkFwd?$AA@ 200fa3c8     bg_saber.obj
 0002:0000a3d8       ??_C@_0N@JEMEOOKN@StfKickSplit?$AA@ 200fa3d8     bg_saber.obj
 0002:0000a3e8       ??_C@_0O@NMBBHPCN@StfKickFwdAir?$AA@ 200fa3e8     bg_saber.obj
 0002:0000a3f8       ??_C@_0P@DLMPDNCN@StfKickBackAir?$AA@ 200fa3f8     bg_saber.obj
 0002:0000a408       ??_C@_0BA@EJCHHLPD@StfKickRightAir?$AA@ 200fa408     bg_saber.obj
 0002:0000a418       ??_C@_0P@GIHHJKOM@StfKickLeftAir?$AA@ 200fa418     bg_saber.obj
 0002:0000a428       ??_C@_08HGDIMBKI@StabDown?$AA@ 200fa428     bg_saber.obj
 0002:0000a434       ??_C@_0M@JEGPPONO@StabDownStf?$AA@ 200fa434     bg_saber.obj
 0002:0000a440       ??_C@_0N@MHIEIOPE@StabDownDual?$AA@ 200fa440     bg_saber.obj
 0002:0000a450       ??_C@_0N@KBDLODPM@dualspinprot?$AA@ 200fa450     bg_saber.obj
 0002:0000a460       ??_C@_0L@NHJJEIC@StfSoulCal?$AA@ 200fa460     bg_saber.obj
 0002:0000a46c       ??_C@_0M@GOKDABKC@specialfast?$AA@ 200fa46c     bg_saber.obj
 0002:0000a478       ??_C@_0L@EKOEFLPJ@specialmed?$AA@ 200fa478     bg_saber.obj
 0002:0000a484       ??_C@_0L@PLFOAHMF@specialstr?$AA@ 200fa484     bg_saber.obj
 0002:0000a490       ??_C@_0N@LJBLOMAE@upsidedwnatk?$AA@ 200fa490     bg_saber.obj
 0002:0000a4a0       ??_C@_0M@HMDNHOPJ@pullatkstab?$AA@ 200fa4a0     bg_saber.obj
 0002:0000a4ac       ??_C@_0N@GFKPCBPN@pullatkswing?$AA@ 200fa4ac     bg_saber.obj
 0002:0000a4bc       ??_C@_0N@PCBIMGO@AloraSpinAtk?$AA@ 200fa4bc     bg_saber.obj
 0002:0000a4cc       ??_C@_0M@BHONLNJO@Dual?5FB?5Atk?$AA@ 200fa4cc     bg_saber.obj
 0002:0000a4d8       ??_C@_0M@LAELOAEL@Dual?5LR?5Atk?$AA@ 200fa4d8     bg_saber.obj
 0002:0000a4e4       ??_C@_0M@HBLMDLAK@StfHiltBash?$AA@ 200fa4e4     bg_saber.obj
 0002:0000a4f0       ??_C@_08PCFOCMBL@TL2BR?5St?$AA@ 200fa4f0     bg_saber.obj
 0002:0000a4fc       ??_C@_06GPMCIGKE@L2R?5St?$AA@ 200fa4fc     bg_saber.obj
 0002:0000a504       ??_C@_08PIALPGGG@BL2TR?5St?$AA@ 200fa504     bg_saber.obj
 0002:0000a510       ??_C@_08EOOKPMJM@BR2TL?5St?$AA@ 200fa510     bg_saber.obj
 0002:0000a51c       ??_C@_06IHPDEINE@R2L?5St?$AA@ 200fa51c     bg_saber.obj
 0002:0000a524       ??_C@_08EELPCGOB@TR2BL?5St?$AA@ 200fa524     bg_saber.obj
 0002:0000a530       ??_C@_06FLBDMDIP@T2B?5St?$AA@ 200fa530     bg_saber.obj
 0002:0000a538       ??_C@_09GEJMIFBA@TL2BR?5Ret?$AA@ 200fa538     bg_saber.obj
 0002:0000a544       ??_C@_07DPNPLHKH@L2R?5Ret?$AA@ 200fa544     bg_saber.obj
 0002:0000a54c       ??_C@_09EKCCNNEL@BL2TR?5Ret?$AA@ 200fa54c     bg_saber.obj
 0002:0000a558       ??_C@_09BHPMCHED@BR2TL?5Ret?$AA@ 200fa558     bg_saber.obj
 0002:0000a564       ??_C@_07GPDCPHFF@R2L?5Ret?$AA@ 200fa564     bg_saber.obj
 0002:0000a56c       ??_C@_09DJECHPBI@TR2BL?5Ret?$AA@ 200fa56c     bg_saber.obj
 0002:0000a578       ??_C@_07JDFHJPKC@T2B?5Ret?$AA@ 200fa578     bg_saber.obj
 0002:0000a580       ??_C@_0L@KOAIDIAM@BR2R?5Trans?$AA@ 200fa580     bg_saber.obj
 0002:0000a58c       ??_C@_0M@DCGKFOHF@BR2TR?5Trans?$AA@ 200fa58c     bg_saber.obj
 0002:0000a598       ??_C@_0L@GIGHDBIL@BR2T?5Trans?$AA@ 200fa598     bg_saber.obj
 0002:0000a5a4       ??_C@_0M@FLFLHNGM@BR2TL?5Trans?$AA@ 200fa5a4     bg_saber.obj
 0002:0000a5b0       ??_C@_0L@MHDJBLBF@BR2L?5Trans?$AA@ 200fa5b0     bg_saber.obj
 0002:0000a5bc       ??_C@_0M@IEIBEGJH@BR2BL?5Trans?$AA@ 200fa5bc     bg_saber.obj
 0002:0000a5c8       ??_C@_0L@CBLKDLGC@R2BR?5Trans?$AA@ 200fa5c8     bg_saber.obj
 0002:0000a5d4       ??_C@_0L@POGAAAJJ@R2TR?5Trans?$AA@ 200fa5d4     bg_saber.obj
 0002:0000a5e0       ??_C@_09GOEOEIDP@R2T?5Trans?$AA@ 200fa5e0     bg_saber.obj
 0002:0000a5ec       ??_C@_0L@JHFBCDIA@R2TL?5Trans?$AA@ 200fa5ec     bg_saber.obj
 0002:0000a5f8       ??_C@_09MBBAGCKB@R2L?5Trans?$AA@ 200fa5f8     bg_saber.obj
 0002:0000a604       ??_C@_0L@EIILBIHL@R2BL?5Trans?$AA@ 200fa604     bg_saber.obj
 0002:0000a610       ??_C@_0M@OJFCNJC@TR2BR?5Trans?$AA@ 200fa610     bg_saber.obj
 0002:0000a61c       ??_C@_0L@OIELDGIE@TR2R?5Trans?$AA@ 200fa61c     bg_saber.obj
 0002:0000a628       ??_C@_0L@COCEDPAD@TR2T?5Trans?$AA@ 200fa628     bg_saber.obj
 0002:0000a634       ??_C@_0M@LIHODFHA@TR2TL?5Trans?$AA@ 200fa634     bg_saber.obj
 0002:0000a640       ??_C@_0L@IBHKBFJN@TR2L?5Trans?$AA@ 200fa640     bg_saber.obj
 0002:0000a64c       ??_C@_0M@GHKEAOIL@TR2BL?5Trans?$AA@ 200fa64c     bg_saber.obj
 0002:0000a658       ??_C@_0L@MJAPPBCB@T2BR?5Trans?$AA@ 200fa658     bg_saber.obj
 0002:0000a664       ??_C@_09KFDPDBPP@T2R?5Trans?$AA@ 200fa664     bg_saber.obj
 0002:0000a670       ??_C@_0L@BGNFMKNK@T2TR?5Trans?$AA@ 200fa670     bg_saber.obj
 0002:0000a67c       ??_C@_0L@HPOEOJMD@T2TL?5Trans?$AA@ 200fa67c     bg_saber.obj
 0002:0000a688       ??_C@_09MMAOBCOG@T2L?5Trans?$AA@ 200fa688     bg_saber.obj
 0002:0000a694       ??_C@_0L@KADONCDI@T2BL?5Trans?$AA@ 200fa694     bg_saber.obj
 0002:0000a6a0       ??_C@_0M@PCBFMCFP@TL2BR?5Trans?$AA@ 200fa6a0     bg_saber.obj
 0002:0000a6ac       ??_C@_0L@NBCMIHNP@TL2R?5Trans?$AA@ 200fa6ac     bg_saber.obj
 0002:0000a6b8       ??_C@_0M@CNMPPJKE@TL2TR?5Trans?$AA@ 200fa6b8     bg_saber.obj
 0002:0000a6c4       ??_C@_0L@BHEDIOFI@TL2T?5Trans?$AA@ 200fa6c4     bg_saber.obj
 0002:0000a6d0       ??_C@_0L@LIBNKEMG@TL2L?5Trans?$AA@ 200fa6d0     bg_saber.obj
 0002:0000a6dc       ??_C@_0M@JLCEOBEG@TL2BL?5Trans?$AA@ 200fa6dc     bg_saber.obj
 0002:0000a6e8       ??_C@_0L@NNDKNEKP@L2BR?5Trans?$AA@ 200fa6e8     bg_saber.obj
 0002:0000a6f4       ??_C@_09JBEGPAOD@L2R?5Trans?$AA@ 200fa6f4     bg_saber.obj
 0002:0000a700       ??_C@_0L@COAOPFE@L2TR?5Trans?$AA@ 200fa700     bg_saber.obj
 0002:0000a70c       ??_C@_09FHCJPJGE@L2T?5Trans?$AA@ 200fa70c     bg_saber.obj
 0002:0000a718       ??_C@_0L@GLNBMMEN@L2TL?5Trans?$AA@ 200fa718     bg_saber.obj
 0002:0000a724       ??_C@_0L@LEALPHLG@L2BL?5Trans?$AA@ 200fa724     bg_saber.obj
 0002:0000a730       ??_C@_0M@BBDAIKED@BL2BR?5Trans?$AA@ 200fa730     bg_saber.obj
 0002:0000a73c       ??_C@_0L@JHGPIJFH@BL2R?5Trans?$AA@ 200fa73c     bg_saber.obj
 0002:0000a748       ??_C@_0M@MOOKLBLI@BL2TR?5Trans?$AA@ 200fa748     bg_saber.obj
 0002:0000a754       ??_C@_0L@FBAAIANA@BL2T?5Trans?$AA@ 200fa754     bg_saber.obj
 0002:0000a760       ??_C@_0M@KHNLJCKB@BL2TL?5Trans?$AA@ 200fa760     bg_saber.obj
 0002:0000a76c       ??_C@_0L@POFOKKEO@BL2L?5Trans?$AA@ 200fa76c     bg_saber.obj
 0002:0000a778       ??_C@_09LOMKOKKC@Bounce?5BR?$AA@ 200fa778     bg_saber.obj
 0002:0000a784       ??_C@_08OFNJAPL@Bounce?5R?$AA@ 200fa784     bg_saber.obj
 0002:0000a790       ??_C@_09KGGBDFGA@Bounce?5TR?$AA@ 200fa790     bg_saber.obj
 0002:0000a79c       ??_C@_08FIAHDHHN@Bounce?5T?$AA@ 200fa79c     bg_saber.obj
 0002:0000a7a8       ??_C@_09HCCAAKLP@Bounce?5TL?$AA@ 200fa7a8     bg_saber.obj
 0002:0000a7b4       ??_C@_08NKBMKPCE@Bounce?5L?$AA@ 200fa7b4     bg_saber.obj
 0002:0000a7c0       ??_C@_09GKILNFHN@Bounce?5BL?$AA@ 200fa7c0     bg_saber.obj
 0002:0000a7cc       ??_C@_0L@GNAHDHGP@Deflect?5BR?$AA@ 200fa7cc     bg_saber.obj
 0002:0000a7d8       ??_C@_09BFHEKGJM@Deflect?5R?$AA@ 200fa7d8     bg_saber.obj
 0002:0000a7e4       ??_C@_0L@HFKMOIKN@Deflect?5TR?$AA@ 200fa7e4     bg_saber.obj
 0002:0000a7f0       ??_C@_09EDCOABBK@Deflect?5T?$AA@ 200fa7f0     bg_saber.obj
 0002:0000a7fc       ??_C@_0L@KBONNHHC@Deflect?5TL?$AA@ 200fa7fc     bg_saber.obj
 0002:0000a808       ??_C@_09MBDFJJED@Deflect?5L?$AA@ 200fa808     bg_saber.obj
 0002:0000a814       ??_C@_0L@LJEGAILA@Deflect?5BL?$AA@ 200fa814     bg_saber.obj
 0002:0000a820       ??_C@_09FPLGLEMN@Deflect?5B?$AA@ 200fa820     bg_saber.obj
 0002:0000a82c       ??_C@_0N@GFILIJHD@Reflected?5BR?$AA@ 200fa82c     bg_saber.obj
 0002:0000a83c       ??_C@_0M@PEPHJHNB@Reflected?5R?$AA@ 200fa83c     bg_saber.obj
 0002:0000a848       ??_C@_0N@HNCAFGLB@Reflected?5TR?$AA@ 200fa848     bg_saber.obj
 0002:0000a858       ??_C@_0M@KCKNDAFH@Reflected?5T?$AA@ 200fa858     bg_saber.obj
 0002:0000a864       ??_C@_0N@KJGBGJGO@Reflected?5TL?$AA@ 200fa864     bg_saber.obj
 0002:0000a874       ??_C@_0M@CALGKIAO@Reflected?5L?$AA@ 200fa874     bg_saber.obj
 0002:0000a880       ??_C@_0N@LBMKLGKM@Reflected?5BL?$AA@ 200fa880     bg_saber.obj
 0002:0000a890       ??_C@_0M@LODFIFIA@Reflected?5B?$AA@ 200fa890     bg_saber.obj
 0002:0000a89c       ??_C@_0L@LIOFLEGO@BParry?5Top?$AA@ 200fa89c     bg_saber.obj
 0002:0000a8a8       ??_C@_09GDDODCIC@BParry?5UR?$AA@ 200fa8a8     bg_saber.obj
 0002:0000a8b4       ??_C@_09LHHPANFN@BParry?5UL?$AA@ 200fa8b4     bg_saber.obj
 0002:0000a8c0       ??_C@_09HAMJKKHN@BParry?5LR?$AA@ 200fa8c0     bg_saber.obj
 0002:0000a8cc       ??_C@_0L@KJPLHJCJ@BParry?5Bot?$AA@ 200fa8cc     bg_saber.obj
 0002:0000a8d8       ??_C@_09KEIIJFKC@BParry?5LL?$AA@ 200fa8d8     bg_saber.obj
 0002:0000a8e4       ??_C@_09NGDCGIAE@Knock?5Top?$AA@ 200fa8e4     bg_saber.obj
 0002:0000a8f0       ??_C@_08NPOELPBF@Knock?5UR?$AA@ 200fa8f0     bg_saber.obj
 0002:0000a8fc       ??_C@_08LKFIAMK@Knock?5UL?$AA@ 200fa8fc     bg_saber.obj
 0002:0000a908       ??_C@_08MMBDCHOK@Knock?5LR?$AA@ 200fa908     bg_saber.obj
 0002:0000a914       ??_C@_08BIFCBIDF@Knock?5LL?$AA@ 200fa914     bg_saber.obj
 0002:0000a920       ??_C@_09LOMMMNNK@Parry?5Top?$AA@ 200fa920     bg_saber.obj
 0002:0000a92c       ??_C@_08PMPCJJMH@Parry?5UR?$AA@ 200fa92c     bg_saber.obj
 0002:0000a938       ??_C@_08CILDKGBI@Parry?5UL?$AA@ 200fa938     bg_saber.obj
 0002:0000a944       ??_C@_08OPAFABDI@Parry?5LR?$AA@ 200fa944     bg_saber.obj
 0002:0000a950       ??_C@_08DLEEDOOH@Parry?5LL?$AA@ 200fa950     bg_saber.obj
 0002:0000a95c       ??_C@_0M@EILLDEJE@Reflect?5Top?$AA@ 200fa95c     bg_saber.obj
 0002:0000a968       ??_C@_0L@DCCNIMBC@Reflect?5UR?$AA@ 200fa968     bg_saber.obj
 0002:0000a974       ??_C@_0L@OGGMLDMN@Reflect?5UL?$AA@ 200fa974     bg_saber.obj
 0002:0000a980       ??_C@_0L@CBNKBEON@Reflect?5LR?$AA@ 200fa980     bg_saber.obj
 0002:0000a98c       ??_C@_0L@PFJLCLDC@Reflect?5LL?$AA@ 200fa98c     bg_saber.obj
 0002:0000a998       __real@4054000000000000    200fa998     bg_saber.obj
 0002:0000a9a0       __real@428c0000            200fa9a0     bg_saber.obj
 0002:0000a9a4       __real@43240000            200fa9a4     bg_saber.obj
 0002:0000a9a8       __real@433e0000            200fa9a8     bg_saber.obj
 0002:0000a9ac       __real@43a00000            200fa9ac     bg_saber.obj
 0002:0000a9b0       __real@45c80000            200fa9b0     bg_saber.obj
 0002:0000a9b4       ??_C@_0L@PGJIJNF@SABER_NONE?$AA@ 200fa9b4     bg_saberLoad.obj
 0002:0000a9c0       ??_C@_0N@OGPMBMML@SABER_SINGLE?$AA@ 200fa9c0     bg_saberLoad.obj
 0002:0000a9d0       ??_C@_0M@KCMILOII@SABER_STAFF?$AA@ 200fa9d0     bg_saberLoad.obj
 0002:0000a9dc       ??_C@_0M@DCKEJJCC@SABER_BROAD?$AA@ 200fa9dc     bg_saberLoad.obj
 0002:0000a9e8       ??_C@_0M@FMMLCOEM@SABER_PRONG?$AA@ 200fa9e8     bg_saberLoad.obj
 0002:0000a9f4       ??_C@_0N@KPJEOBIO@SABER_DAGGER?$AA@ 200fa9f4     bg_saberLoad.obj
 0002:0000aa04       ??_C@_09JGPFAKGO@SABER_ARC?$AA@ 200faa04     bg_saberLoad.obj
 0002:0000aa10       ??_C@_09IIGKGANJ@SABER_SAI?$AA@ 200faa10     bg_saberLoad.obj
 0002:0000aa1c       ??_C@_0L@JGOENFGE@SABER_CLAW?$AA@ 200faa1c     bg_saberLoad.obj
 0002:0000aa28       ??_C@_0M@INMNJHEK@SABER_LANCE?$AA@ 200faa28     bg_saberLoad.obj
 0002:0000aa34       ??_C@_0L@BONOMJND@SABER_STAR?$AA@ 200faa34     bg_saberLoad.obj
 0002:0000aa40       ??_C@_0O@JGGDFEFK@SABER_TRIDENT?$AA@ 200faa40     bg_saberLoad.obj
 0002:0000aa50       ??_C@_0BA@FOCLBKAP@unexpected?5EOF?6?$AA@ 200faa50     bg_saberLoad.obj
 0002:0000aa60       ??_C@_0BO@NBJEGAHB@required?5string?5?8?$CFs?8?5missing?6?$AA@ 200faa60     bg_saberLoad.obj
 0002:0000aa80       ??_C@_06HDDOCMMN@orange?$AA@ 200faa80     bg_saberLoad.obj
 0002:0000aa88       ??_C@_06ENJNJKEL@yellow?$AA@ 200faa88     bg_saberLoad.obj
 0002:0000aa90       ??_C@_05GBEEJKMC@green?$AA@ 200faa90     bg_saberLoad.obj
 0002:0000aa98       ??_C@_06GEHONCEN@purple?$AA@ 200faa98     bg_saberLoad.obj
 0002:0000aaa0       ??_C@_06NLFCANPD@random?$AA@ 200faaa0     bg_saberLoad.obj
 0002:0000aaa8       ??_C@_04LBNBHAJC@fast?$AA@ 200faaa8     bg_saberLoad.obj
 0002:0000aab0       ??_C@_06HIDOEFBI@medium?$AA@ 200faab0     bg_saberLoad.obj
 0002:0000aab8       ??_C@_06KHACOKFA@strong?$AA@ 200faab8     bg_saberLoad.obj
 0002:0000aac0       ??_C@_06MBIMHMOE@desann?$AA@ 200faac0     bg_saberLoad.obj
 0002:0000aac8       ??_C@_06DBFFGPJE@tavion?$AA@ 200faac8     bg_saberLoad.obj
 0002:0000aad0       ??_C@_04IJNDAMHN@dual?$AA@ 200faad0     bg_saberLoad.obj
 0002:0000aad8       ??_C@_05DDLOIMOJ@staff?$AA@ 200faad8     bg_saberLoad.obj
 0002:0000aae0       ??_C@_0L@CLLBMKKI@lightsaber?$AA@ 200faae0     bg_saberLoad.obj
 0002:0000aaec       ??_C@_0CJ@PIIDACPD@models?1weapons2?1saber_reborn?1sab@ 200faaec     bg_saberLoad.obj
 0002:0000ab18       ??_C@_0CH@BHNNODOL@sound?1weapons?1saber?1enemy_saber_@ 200fab18     bg_saberLoad.obj
 0002:0000ab40       ??_C@_0CC@LJCDHDAP@sound?1weapons?1saber?1saberhum3?4wa@ 200fab40     bg_saberLoad.obj
 0002:0000ab64       ??_C@_0CI@MHFGOOAJ@sound?1weapons?1saber?1enemy_saber_@ 200fab64     bg_saberLoad.obj
 0002:0000ab8c       ??_C@_04FJIOCDAK@Kyle?$AA@ 200fab8c     bg_saberLoad.obj
 0002:0000ab94       ??_C@_09KGFNABEN@saberinfo?$AA@ 200fab94     bg_saberLoad.obj
 0002:0000aba0       ??_C@_01HCONENDN@?$HL?$AA@ 200faba0     bg_saberLoad.obj
 0002:0000aba4       ??_C@_0CM@LKMGCIC@?$FO1ERROR?3?5unexpected?5EOF?5while?5pa@ 200faba4     bg_saberLoad.obj
 0002:0000abd0       ??_C@_01CELHOKLL@?$HN?$AA@ 200fabd0     bg_saberLoad.obj
 0002:0000abd4       ??_C@_04MEMAJGDJ@name?$AA@ 200fabd4     bg_saberLoad.obj
 0002:0000abdc       ??_C@_09NAGGCFBE@saberType?$AA@ 200fabdc     bg_saberLoad.obj
 0002:0000abe8       ??_C@_0L@MHEAGHEK@saberModel?$AA@ 200fabe8     bg_saberLoad.obj
 0002:0000abf4       ??_C@_0L@EKGCMDJL@customSkin?$AA@ 200fabf4     bg_saberLoad.obj
 0002:0000ac00       ??_C@_07IMONDDDH@soundOn?$AA@ 200fac00     bg_saberLoad.obj
 0002:0000ac08       ??_C@_09LMHPKFJB@soundLoop?$AA@ 200fac08     bg_saberLoad.obj
 0002:0000ac14       ??_C@_08IFIFNFKF@soundOff?$AA@ 200fac14     bg_saberLoad.obj
 0002:0000ac20       ??_C@_09NEDLCGJM@numBlades?$AA@ 200fac20     bg_saberLoad.obj
 0002:0000ac30       ??_C@_0EH@EGIFGFD@WP_SaberParseParms?3?5saber?5?$CFs?5has@ 200fac30     bg_saberLoad.obj
 0002:0000ac78       ??_C@_0L@OBCIJENM@saberColor?$AA@ 200fac78     bg_saberLoad.obj
 0002:0000ac84       ??_C@_0CG@CGJEPIIF@?$FO3WARNING?3?5bad?5saberColor?5?8?$CFs?8?5i@ 200fac84     bg_saberLoad.obj
 0002:0000acac       ??_C@_0M@MOIKADHG@saberLength?$AA@ 200facac     bg_saberLoad.obj
 0002:0000acb8       ??_C@_0CH@KPGIKOPP@?$FO3WARNING?3?5bad?5saberLength?5?8?$CFs?8?5@ 200facb8     bg_saberLoad.obj
 0002:0000ace0       ??_C@_0M@GAGBGIMM@saberRadius?$AA@ 200face0     bg_saberLoad.obj
 0002:0000acec       ??_C@_0CH@KBCAKBPO@?$FO3WARNING?3?5bad?5saberRadius?5?8?$CFs?8?5@ 200facec     bg_saberLoad.obj
 0002:0000ad14       ??_C@_0L@JFMMKNLG@saberStyle?$AA@ 200fad14     bg_saberLoad.obj
 0002:0000ad20       ??_C@_08GIHANBGF@maxChain?$AA@ 200fad20     bg_saberLoad.obj
 0002:0000ad2c       ??_C@_08BODNEOME@lockable?$AA@ 200fad2c     bg_saberLoad.obj
 0002:0000ad38       ??_C@_09ONPKMKJM@throwable?$AA@ 200fad38     bg_saberLoad.obj
 0002:0000ad44       ??_C@_0L@CPEPMKHD@disarmable?$AA@ 200fad44     bg_saberLoad.obj
 0002:0000ad50       ??_C@_08NPIAFDOA@blocking?$AA@ 200fad50     bg_saberLoad.obj
 0002:0000ad5c       ??_C@_09BHFJEHJB@twoHanded?$AA@ 200fad5c     bg_saberLoad.obj
 0002:0000ad68       ??_C@_0O@IDDONEJ@forceRestrict?$AA@ 200fad68     bg_saberLoad.obj
 0002:0000ad78       ??_C@_09FHICMJAA@lockBonus?$AA@ 200fad78     bg_saberLoad.obj
 0002:0000ad84       ??_C@_0L@MJIMNAKN@parryBonus?$AA@ 200fad84     bg_saberLoad.obj
 0002:0000ad90       ??_C@_0BA@FKMMEMID@breakParryBonus?$AA@ 200fad90     bg_saberLoad.obj
 0002:0000ada0       ??_C@_0M@CLGJNKL@disarmBonus?$AA@ 200fada0     bg_saberLoad.obj
 0002:0000adac       ??_C@_0BB@MNBBHKPM@singleBladeStyle?$AA@ 200fadac     bg_saberLoad.obj
 0002:0000adc0       ??_C@_0BF@MFFEBKBA@singleBladeThrowable?$AA@ 200fadc0     bg_saberLoad.obj
 0002:0000add8       ??_C@_0N@MAFMJFFN@brokenSaber1?$AA@ 200fadd8     bg_saberLoad.obj
 0002:0000ade8       ??_C@_0N@OLHBMGJO@brokenSaber2?$AA@ 200fade8     bg_saberLoad.obj
 0002:0000adf8       ??_C@_0N@BLLLLBJF@returnDamage?$AA@ 200fadf8     bg_saberLoad.obj
 0002:0000ae08       ??_C@_07POBCBIAL@notInMP?$AA@ 200fae08     bg_saberLoad.obj
 0002:0000ae10       ??_C@_04CGFJFPFD@none?$AA@ 200fae10     bg_saberLoad.obj
 0002:0000ae18       ??_C@_06LEMKAMD@remove?$AA@ 200fae18     bg_saberLoad.obj
 0002:0000ae20       ??_C@_04CAHIDOMH@?4sab?$AA@ 200fae20     bg_saberLoad.obj
 0002:0000ae28       ??_C@_0BA@MIBHFBCE@ext_data?1sabers?$AA@ 200fae28     bg_saberLoad.obj
 0002:0000ae38       ??_C@_0BD@NNPCBGHA@ext_data?1sabers?1?$CFs?$AA@ 200fae38     bg_saberLoad.obj
 0002:0000ae4c       ??_C@_0BE@DJGNLOAI@error?5reading?5file?6?$AA@ 200fae4c     bg_saberLoad.obj
 0002:0000ae60       ??_C@_0CH@GILDEJCA@Saber?5extensions?5?$CI?$CK?4sab?$CJ?5are?5too@ 200fae60     bg_saberLoad.obj
 0002:0000ae88       ??_C@_01EEMJAFIK@?6?$AA@   200fae88     bg_saberLoad.obj
 0002:0000ae8c       ??_C@_0BB@OIJDKHFE@CFL_MORESABERDMG?$AA@ 200fae8c     bg_saga.obj
 0002:0000aea0       ??_C@_0BK@JLDBMALB@CFL_STRONGAGAINSTPHYSICAL?$AA@ 200faea0     bg_saga.obj
 0002:0000aebc       ??_C@_0BD@DNMLPLIL@CFL_FASTFORCEREGEN?$AA@ 200faebc     bg_saga.obj
 0002:0000aed0       ??_C@_0P@DKGINMOP@CFL_STATVIEWER?$AA@ 200faed0     bg_saga.obj
 0002:0000aee0       ??_C@_0P@NCLEBEDM@CFL_HEAVYMELEE?$AA@ 200faee0     bg_saga.obj
 0002:0000aef0       ??_C@_0BC@LICHKKD@CFL_SINGLE_ROCKET?$AA@ 200faef0     bg_saga.obj
 0002:0000af04       ??_C@_0P@LBJDDHDM@CFL_CUSTOMSKEL?$AA@ 200faf04     bg_saga.obj
 0002:0000af14       ??_C@_0P@KICFDAJ@CFL_EXTRA_AMMO?$AA@ 200faf14     bg_saga.obj
 0002:0000af24       ??_C@_07HNCPCIHC@SS_NONE?$AA@ 200faf24     bg_saga.obj
 0002:0000af2c       ??_C@_07OKKHAHLD@SS_FAST?$AA@ 200faf2c     bg_saga.obj
 0002:0000af34       ??_C@_09JHAJINFA@SS_MEDIUM?$AA@ 200faf34     bg_saga.obj
 0002:0000af40       ??_C@_09EIDFCCBI@SS_STRONG?$AA@ 200faf40     bg_saga.obj
 0002:0000af4c       ??_C@_09COLLLEKM@SS_DESANN?$AA@ 200faf4c     bg_saga.obj
 0002:0000af58       ??_C@_09NOGCKHNM@SS_TAVION?$AA@ 200faf58     bg_saga.obj
 0002:0000af64       ??_C@_07NCKFHLFM@SS_DUAL?$AA@ 200faf64     bg_saga.obj
 0002:0000af6c       ??_C@_08OKAIMOGC@SS_STAFF?$AA@ 200faf6c     bg_saga.obj
 0002:0000af78       ??_C@_04HIBGFPH@NULL?$AA@  200faf78     bg_saga.obj
 0002:0000af80       ??_C@_08IGDGHABD@WP_MELEE?$AA@ 200faf80     bg_saga.obj
 0002:0000af8c       ??_C@_0BC@LEINJGEK@WP_BLASTER_PISTOL?$AA@ 200faf8c     bg_saga.obj
 0002:0000afa0       ??_C@_0O@MNNKJNKC@WP_CONCUSSION?$AA@ 200fafa0     bg_saga.obj
 0002:0000afb0       ??_C@_0N@OIFGJENP@WP_BRYAR_OLD?$AA@ 200fafb0     bg_saga.obj
 0002:0000afc0       ??_C@_0BA@HPLIMHOO@WP_EMPLACED_GUN?$AA@ 200fafc0     bg_saga.obj
 0002:0000afd0       ??_C@_09LJGBHCLN@WP_TURRET?$AA@ 200fafd0     bg_saga.obj
 0002:0000afdc       ??_C@_07ECPPOEBA@FP_HEAL?$AA@ 200fafdc     bg_saga.obj
 0002:0000afe4       ??_C@_0O@GOCMKMCC@FP_LEVITATION?$AA@ 200fafe4     bg_saga.obj
 0002:0000aff4       ??_C@_08MIECCDPD@FP_SPEED?$AA@ 200faff4     bg_saga.obj
 0002:0000b000       ??_C@_07DJLINNNG@FP_PUSH?$AA@ 200fb000     bg_saga.obj
 0002:0000b008       ??_C@_07EKKOPMJP@FP_PULL?$AA@ 200fb008     bg_saga.obj
 0002:0000b010       ??_C@_0N@EOKHLCHN@FP_TELEPATHY?$AA@ 200fb010     bg_saga.obj
 0002:0000b020       ??_C@_07OFAFBAAC@FP_GRIP?$AA@ 200fb020     bg_saga.obj
 0002:0000b028       ??_C@_0N@MLCJOEAL@FP_LIGHTNING?$AA@ 200fb028     bg_saga.obj
 0002:0000b038       ??_C@_07DCICDLJP@FP_RAGE?$AA@ 200fb038     bg_saga.obj
 0002:0000b040       ??_C@_0L@GMEKEMHM@FP_PROTECT?$AA@ 200fb040     bg_saga.obj
 0002:0000b04c       ??_C@_09MANKLPPB@FP_ABSORB?$AA@ 200fb04c     bg_saga.obj
 0002:0000b058       ??_C@_0N@MKMKNEAO@FP_TEAM_HEAL?$AA@ 200fb058     bg_saga.obj
 0002:0000b068       ??_C@_0O@FDDGJKAO@FP_TEAM_FORCE?$AA@ 200fb068     bg_saga.obj
 0002:0000b078       ??_C@_08NAMGMEAJ@FP_DRAIN?$AA@ 200fb078     bg_saga.obj
 0002:0000b084       ??_C@_06NBGCGEAI@FP_SEE?$AA@ 200fb084     bg_saga.obj
 0002:0000b08c       ??_C@_0BB@IIFNHLOA@FP_SABER_OFFENSE?$AA@ 200fb08c     bg_saga.obj
 0002:0000b0a0       ??_C@_0BB@OENPHNCL@FP_SABER_DEFENSE?$AA@ 200fb0a0     bg_saga.obj
 0002:0000b0b4       ??_C@_0O@HFIJJPHA@FP_SABERTHROW?$AA@ 200fb0b4     bg_saga.obj
 0002:0000b0c4       ??_C@_07JPFAMGIP@HI_NONE?$AA@ 200fb0c4     bg_saga.obj
 0002:0000b0cc       ??_C@_09FNJEOG@HI_SEEKER?$AA@ 200fb0cc     bg_saga.obj
 0002:0000b0d8       ??_C@_09IKKFJDFC@HI_SHIELD?$AA@ 200fb0d8     bg_saga.obj
 0002:0000b0e4       ??_C@_09NJBEABJH@HI_MEDPAC?$AA@ 200fb0e4     bg_saga.obj
 0002:0000b0f0       ??_C@_0O@LLNJKJCO@HI_MEDPAC_BIG?$AA@ 200fb0f0     bg_saga.obj
 0002:0000b100       ??_C@_0O@ELJADNKI@HI_BINOCULARS?$AA@ 200fb100     bg_saga.obj
 0002:0000b110       ??_C@_0O@FBGGHEEG@HI_SENTRY_GUN?$AA@ 200fb110     bg_saga.obj
 0002:0000b120       ??_C@_0L@HECMIPKK@HI_JETPACK?$AA@ 200fb120     bg_saga.obj
 0002:0000b12c       ??_C@_0O@CACPKEEP@HI_HEALTHDISP?$AA@ 200fb12c     bg_saga.obj
 0002:0000b13c       ??_C@_0M@GINCEKMK@HI_AMMODISP?$AA@ 200fb13c     bg_saga.obj
 0002:0000b148       ??_C@_07DODJPBMI@HI_EWEB?$AA@ 200fb148     bg_saga.obj
 0002:0000b150       ??_C@_08CKJOPOAO@HI_CLOAK?$AA@ 200fb150     bg_saga.obj
 0002:0000b15c       ??_C@_07HOPALIC@PW_NONE?$AA@ 200fb15c     bg_saga.obj
 0002:0000b164       ??_C@_07MILMMKFG@PW_QUAD?$AA@ 200fb164     bg_saga.obj
 0002:0000b16c       ??_C@_0O@MMBFHIEB@PW_BATTLESUIT?$AA@ 200fb16c     bg_saga.obj
 0002:0000b17c       ??_C@_07DFNNPKLN@PW_PULL?$AA@ 200fb17c     bg_saga.obj
 0002:0000b184       ??_C@_0L@EHANBCOH@PW_REDFLAG?$AA@ 200fb184     bg_saga.obj
 0002:0000b190       ??_C@_0M@MJPEKDEL@PW_BLUEFLAG?$AA@ 200fb190     bg_saga.obj
 0002:0000b19c       ??_C@_0P@IBLDCDDO@PW_NEUTRALFLAG?$AA@ 200fb19c     bg_saga.obj
 0002:0000b1ac       ??_C@_0N@GHPJGBHC@PW_SHIELDHIT?$AA@ 200fb1ac     bg_saga.obj
 0002:0000b1bc       ??_C@_0O@ENGHHLHL@PW_SPEEDBURST?$AA@ 200fb1bc     bg_saga.obj
 0002:0000b1cc       ??_C@_0M@FBGLLBBK@PW_DISINT_4?$AA@ 200fb1cc     bg_saga.obj
 0002:0000b1d8       ??_C@_08BNFNBBBB@PW_SPEED?$AA@ 200fb1d8     bg_saga.obj
 0002:0000b1e4       ??_C@_0L@LJAIJPE@PW_CLOAKED?$AA@ 200fb1e4     bg_saga.obj
 0002:0000b1f0       ??_C@_0BL@EBGCPDCI@PW_FORCE_ENLIGHTENED_LIGHT?$AA@ 200fb1f0     bg_saga.obj
 0002:0000b20c       ??_C@_0BK@MOILIMDA@PW_FORCE_ENLIGHTENED_DARK?$AA@ 200fb20c     bg_saga.obj
 0002:0000b228       ??_C@_0O@IGDAJBEG@PW_FORCE_BOON?$AA@ 200fb228     bg_saga.obj
 0002:0000b238       ??_C@_0N@POBOEFDG@PW_YSALAMIRI?$AA@ 200fb238     bg_saga.obj
 0002:0000b248       ??_C@_08GMEOELGB@infantry?$AA@ 200fb248     bg_saga.obj
 0002:0000b254       ??_C@_08KMDKBEDF@vanguard?$AA@ 200fb254     bg_saga.obj
 0002:0000b260       ??_C@_07ILMBEDPO@support?$AA@ 200fb260     bg_saga.obj
 0002:0000b268       ??_C@_0N@DFCFOLOG@jedi_general?$AA@ 200fb268     bg_saga.obj
 0002:0000b278       ??_C@_0O@FEHNADND@demolitionist?$AA@ 200fb278     bg_saga.obj
 0002:0000b288       ??_C@_0O@OALEAKPJ@heavy_weapons?$AA@ 200fb288     bg_saga.obj
 0002:0000b298       ??_C@_0CM@DMIPCGDB@Unexpected?5EOF?5while?5looking?5for@ 200fb298     bg_saga.obj
 0002:0000b2c8       ??_C@_0FA@EHNNLFND@Found?5a?5closing?5bracket?5without?5@ 200fb2c8     bg_saga.obj
 0002:0000b318       ??_C@_0CI@BBIKCBO@Group?5?8?$CFs?8?5is?5missing?5a?5closing?5@ 200fb318     bg_saga.obj
 0002:0000b340       ??_C@_0GA@DIGHOEOC@Error?5parsing?5group?5in?5file?0?5une@ 200fb340     bg_saga.obj
 0002:0000b3a0       ??_C@_0FJ@KOGMAIHK@Found?5an?5opening?5bracket?5without@ 200fb3a0     bg_saga.obj
 0002:0000b400       ??_C@_0EJ@GJJGBCAC@Unexpected?5closing?5bracket?5?$CItoo?5@ 200fb400     bg_saga.obj
 0002:0000b450       ??_C@_0EP@OCHOIPPN@Unexpected?5EOF?5while?5looking?5for@ 200fb450     bg_saga.obj
 0002:0000b4a0       ??_C@_0FH@PHDPJEBI@Unexpected?5EOF?5while?5looking?5for@ 200fb4a0     bg_saga.obj
 0002:0000b4f8       ??_C@_0EA@CICFFHLL@Error?5parsing?5file?0?5unexpected?5E@ 200fb4f8     bg_saga.obj
 0002:0000b538       ??_C@_0DL@MANGCKOJ@Error?5parsing?5file?0?5found?5commen@ 200fb538     bg_saga.obj
 0002:0000b574       ??_C@_06PFGBHLNK@FP_ALL?$AA@ 200fb574     bg_saga.obj
 0002:0000b57c       ??_C@_07IHELEENG@FP_JUMP?$AA@ 200fb57c     bg_saga.obj
 0002:0000b584       ??_C@_0M@PPJNHBMP@description?$AA@ 200fb584     bg_saga.obj
 0002:0000b590       ??_C@_0BI@JBHHAHFA@DESCRIPTION?5UNAVAILABLE?$AA@ 200fb590     bg_saga.obj
 0002:0000b5a8       ??_C@_09LPPNDGJE@ClassInfo?$AA@ 200fb5a8     bg_saga.obj
 0002:0000b5b4       ??_C@_0BP@JPFHBDB@Siege?5class?5without?5name?5entry?$AA@ 200fb5b4     bg_saga.obj
 0002:0000b5d4       ??_C@_05NCCFOPHA@model?$AA@ 200fb5d4     bg_saga.obj
 0002:0000b5dc       ??_C@_04NHPAFEHJ@skin?$AA@ 200fb5dc     bg_saga.obj
 0002:0000b5e4       ??_C@_06CJJKOFI@saber1?$AA@ 200fb5e4     bg_saga.obj
 0002:0000b5ec       ??_C@_06CJLEPNJL@saber2?$AA@ 200fb5ec     bg_saga.obj
 0002:0000b5f4       ??_C@_0L@JCGAKIIA@saberstyle?$AA@ 200fb5f4     bg_saga.obj
 0002:0000b600       ??_C@_0L@OGIEJBOK@sabercolor?$AA@ 200fb600     bg_saga.obj
 0002:0000b60c       ??_C@_0M@OOLLFDOG@saber2color?$AA@ 200fb60c     bg_saga.obj
 0002:0000b618       ??_C@_07PKKCMMCH@weapons?$AA@ 200fb618     bg_saga.obj
 0002:0000b620       ??_C@_0CC@FAKKFGGN@Siege?5class?5without?5weapons?5entr@ 200fb620     bg_saga.obj
 0002:0000b644       ??_C@_0M@IOJHBENM@forcepowers?$AA@ 200fb644     bg_saga.obj
 0002:0000b650       ??_C@_0L@GKKNICAL@classflags?$AA@ 200fb650     bg_saga.obj
 0002:0000b65c       ??_C@_09MHNPKMIF@maxhealth?$AA@ 200fb65c     bg_saga.obj
 0002:0000b668       ??_C@_0M@JKHBPLJM@starthealth?$AA@ 200fb668     bg_saga.obj
 0002:0000b674       ??_C@_08KAGIGECM@maxarmor?$AA@ 200fb674     bg_saga.obj
 0002:0000b680       ??_C@_0L@GGCEHPNG@startarmor?$AA@ 200fb680     bg_saga.obj
 0002:0000b68c       ??_C@_05HJCMGBKF@speed?$AA@ 200fb68c     bg_saga.obj
 0002:0000b694       ??_C@_08BGECLNMM@uishader?$AA@ 200fb694     bg_saga.obj
 0002:0000b6a0       ??_C@_0CD@GDIFDMKP@Siege?5class?5without?5uishader?5ent@ 200fb6a0     bg_saga.obj
 0002:0000b6c4       ??_C@_0N@NNMCCMOK@class_shader?$AA@ 200fb6c4     bg_saga.obj
 0002:0000b6d4       ??_C@_0CN@HKDFKNIC@ERROR?3?5no?5class_shader?5defined?5f@ 200fb6d4     bg_saga.obj
 0002:0000b704       ??_C@_09LOIGNDON@holdables?$AA@ 200fb704     bg_saga.obj
 0002:0000b710       ??_C@_08BOHIELLL@powerups?$AA@ 200fb710     bg_saga.obj
 0002:0000b71c       ??_C@_04LNHPMHCH@?4scl?$AA@ 200fb71c     bg_saga.obj
 0002:0000b724       ??_C@_0BH@NCMEBBFN@ext_data?1Siege?1Classes?$AA@ 200fb724     bg_saga.obj
 0002:0000b73c       ??_C@_0BI@HBENBDF@ext_data?1Siege?1Classes?1?$AA@ 200fb73c     bg_saga.obj
 0002:0000b754       ??_C@_0CD@FDGFFIBB@Siege?5team?5with?5no?5name?5definiti@ 200fb754     bg_saga.obj
 0002:0000b778       ??_C@_07DPIHKJGF@Classes?$AA@ 200fb778     bg_saga.obj
 0002:0000b780       ??_C@_07GEGLMCI@class?$CFi?$AA@ 200fb780     bg_saga.obj
 0002:0000b788       ??_C@_0BO@LFIIBAMC@Invalid?5class?5specified?3?5?8?$CFs?8?$AA@ 200fb788     bg_saga.obj
 0002:0000b7a8       ??_C@_0CI@JBGGEKDP@Team?5defined?5with?5no?5allowable?5c@ 200fb7a8     bg_saga.obj
 0002:0000b7d0       ??_C@_05OKHHMPNJ@?4team?$AA@ 200fb7d0     bg_saga.obj
 0002:0000b7d8       ??_C@_0BF@KACDOLPP@ext_data?1Siege?1Teams?$AA@ 200fb7d8     bg_saga.obj
 0002:0000b7f0       ??_C@_0BG@DPLOPEAL@ext_data?1Siege?1Teams?1?$AA@ 200fb7f0     bg_saga.obj
 0002:0000b808       ??_C@_0O@JDFCILJF@func_rotating?$AA@ 200fb808     bg_slidemove.obj
 0002:0000b818       ??_C@_0BE@FLPNHHPN@?$CFi?3bend?5can?8t?5step?6?$AA@ 200fb818     bg_slidemove.obj
 0002:0000b82c       ??_C@_0M@CDHDENEF@?$CFi?3stepped?6?$AA@ 200fb82c     bg_slidemove.obj
 0002:0000b838       __real@41300000            200fb838     bg_slidemove.obj
 0002:0000b83c       __real@42340000            200fb83c     bg_slidemove.obj
 0002:0000b840       __real@42840000            200fb840     bg_slidemove.obj
 0002:0000b844       __real@bf333333            200fb844     bg_slidemove.obj
 0002:0000b848       __real@c2340000            200fb848     bg_slidemove.obj
 0002:0000b84c       ??_C@_04GPMDFGEJ@type?$AA@ 200fb84c     bg_vehicleLoad.obj
 0002:0000b854       ??_C@_08FEOKBMLD@numHands?$AA@ 200fb854     bg_vehicleLoad.obj
 0002:0000b860       ??_C@_09EPEKCJNM@lookPitch?$AA@ 200fb860     bg_vehicleLoad.obj
 0002:0000b86c       ??_C@_07OIEJFMLD@lookYaw?$AA@ 200fb86c     bg_vehicleLoad.obj
 0002:0000b874       ??_C@_06IJDLPEM@length?$AA@ 200fb874     bg_vehicleLoad.obj
 0002:0000b87c       ??_C@_0BA@BPLGJHPJ@centerOfGravity?$AA@ 200fb87c     bg_vehicleLoad.obj
 0002:0000b88c       ??_C@_08FGAAHLPO@speedMax?$AA@ 200fb88c     bg_vehicleLoad.obj
 0002:0000b898       ??_C@_0L@MLDLGLOI@turboSpeed?$AA@ 200fb898     bg_vehicleLoad.obj
 0002:0000b8a4       ??_C@_08EEILJPJB@speedMin?$AA@ 200fb8a4     bg_vehicleLoad.obj
 0002:0000b8b0       ??_C@_09JLKIBNNM@speedIdle?$AA@ 200fb8b0     bg_vehicleLoad.obj
 0002:0000b8bc       ??_C@_09HICLJFH@accelIdle?$AA@ 200fb8bc     bg_vehicleLoad.obj
 0002:0000b8c8       ??_C@_0N@OKFAMOHD@acceleration?$AA@ 200fb8c8     bg_vehicleLoad.obj
 0002:0000b8d8       ??_C@_09JCLBALJJ@decelIdle?$AA@ 200fb8d8     bg_vehicleLoad.obj
 0002:0000b8e4       ??_C@_0P@HHEMMPFK@throttleSticks?$AA@ 200fb8e4     bg_vehicleLoad.obj
 0002:0000b8f4       ??_C@_0L@FDBPLPOD@strafePerc?$AA@ 200fb8f4     bg_vehicleLoad.obj
 0002:0000b900       ??_C@_0N@ENHLHJGE@bankingSpeed?$AA@ 200fb900     bg_vehicleLoad.obj
 0002:0000b910       ??_C@_0L@CFHLLIPB@pitchLimit?$AA@ 200fb910     bg_vehicleLoad.obj
 0002:0000b91c       ??_C@_09IPOAKDJE@rollLimit?$AA@ 200fb91c     bg_vehicleLoad.obj
 0002:0000b928       ??_C@_07HAHFHPDC@braking?$AA@ 200fb928     bg_vehicleLoad.obj
 0002:0000b930       ??_C@_08EAELEJGF@mouseYaw?$AA@ 200fb930     bg_vehicleLoad.obj
 0002:0000b93c       ??_C@_0L@PFPFAHKM@mousePitch?$AA@ 200fb93c     bg_vehicleLoad.obj
 0002:0000b948       ??_C@_0N@BEECELKI@turningSpeed?$AA@ 200fb948     bg_vehicleLoad.obj
 0002:0000b958       ??_C@_0BA@DEALIFEA@turnWhenStopped?$AA@ 200fb958     bg_vehicleLoad.obj
 0002:0000b968       ??_C@_08LOEOBHC@traction?$AA@ 200fb968     bg_vehicleLoad.obj
 0002:0000b974       ??_C@_08LKDNMFOC@friction?$AA@ 200fb974     bg_vehicleLoad.obj
 0002:0000b980       ??_C@_08IOPKEDDJ@maxSlope?$AA@ 200fb980     bg_vehicleLoad.obj
 0002:0000b98c       ??_C@_0BG@HOKPMJKB@speedDependantTurning?$AA@ 200fb98c     bg_vehicleLoad.obj
 0002:0000b9a4       ??_C@_04IJEANHEE@mass?$AA@ 200fb9a4     bg_vehicleLoad.obj
 0002:0000b9ac       ??_C@_05JJEJIJLL@armor?$AA@ 200fb9ac     bg_vehicleLoad.obj
 0002:0000b9b4       ??_C@_07EEEOBDLK@shields?$AA@ 200fb9b4     bg_vehicleLoad.obj
 0002:0000b9bc       ??_C@_0BB@BMKKPECK@shieldRechargeMS?$AA@ 200fb9bc     bg_vehicleLoad.obj
 0002:0000b9d0       ??_C@_09FGFEKOJH@toughness?$AA@ 200fb9d0     bg_vehicleLoad.obj
 0002:0000b9dc       ??_C@_0BG@ICOPODEK@malfunctionArmorLevel?$AA@ 200fb9dc     bg_vehicleLoad.obj
 0002:0000b9f4       ??_C@_0BA@PLDNJPJN@surfDestruction?$AA@ 200fb9f4     bg_vehicleLoad.obj
 0002:0000ba04       ??_C@_08CCPHKHEL@g2radius?$AA@ 200fba04     bg_vehicleLoad.obj
 0002:0000ba10       ??_C@_09PMPDIAJG@riderAnim?$AA@ 200fba10     bg_vehicleLoad.obj
 0002:0000ba1c       ??_C@_08EJIADHP@droidNPC?$AA@ 200fba1c     bg_vehicleLoad.obj
 0002:0000ba28       ??_C@_09FONOLKPA@radarIcon?$AA@ 200fba28     bg_vehicleLoad.obj
 0002:0000ba34       ??_C@_0O@DJHCJKGN@dmgIndicFrame?$AA@ 200fba34     bg_vehicleLoad.obj
 0002:0000ba44       ??_C@_0P@FPBFALOJ@dmgIndicShield?$AA@ 200fba44     bg_vehicleLoad.obj
 0002:0000ba54       ??_C@_0BD@KLFJKOII@dmgIndicBackground?$AA@ 200fba54     bg_vehicleLoad.obj
 0002:0000ba68       ??_C@_0L@CBPHNOBK@icon_front?$AA@ 200fba68     bg_vehicleLoad.obj
 0002:0000ba74       ??_C@_09NHADEJIB@icon_back?$AA@ 200fba74     bg_vehicleLoad.obj
 0002:0000ba80       ??_C@_0L@GPLJGMFJ@icon_right?$AA@ 200fba80     bg_vehicleLoad.obj
 0002:0000ba8c       ??_C@_09CMMAKMMC@icon_left?$AA@ 200fba8c     bg_vehicleLoad.obj
 0002:0000ba98       ??_C@_0BA@FMKKHFFJ@crosshairShader?$AA@ 200fba98     bg_vehicleLoad.obj
 0002:0000baa8       ??_C@_0N@JONDFKLC@shieldShader?$AA@ 200fbaa8     bg_vehicleLoad.obj
 0002:0000bab8       ??_C@_0N@CDHFELM@health_front?$AA@ 200fbab8     bg_vehicleLoad.obj
 0002:0000bac8       ??_C@_0M@MOOOFAHG@health_back?$AA@ 200fbac8     bg_vehicleLoad.obj
 0002:0000bad4       ??_C@_0N@EMHJOGPP@health_right?$AA@ 200fbad4     bg_vehicleLoad.obj
 0002:0000bae4       ??_C@_0M@DFCNLFDF@health_left?$AA@ 200fbae4     bg_vehicleLoad.obj
 0002:0000baf0       ??_C@_0N@JPGBMOIF@soundTakeOff?$AA@ 200fbaf0     bg_vehicleLoad.obj
 0002:0000bb00       ??_C@_0BB@GGMAFHFB@soundEngineStart?$AA@ 200fbb00     bg_vehicleLoad.obj
 0002:0000bb14       ??_C@_09IGHJKBGG@soundSpin?$AA@ 200fbb14     bg_vehicleLoad.obj
 0002:0000bb20       ??_C@_0L@BNNFFMJG@soundTurbo?$AA@ 200fbb20     bg_vehicleLoad.obj
 0002:0000bb2c       ??_C@_0L@PMBLMBGF@soundHyper?$AA@ 200fbb2c     bg_vehicleLoad.obj
 0002:0000bb38       ??_C@_09HDMMGPMA@soundLand?$AA@ 200fbb38     bg_vehicleLoad.obj
 0002:0000bb44       ??_C@_0L@MNOPHOMD@soundFlyBy?$AA@ 200fbb44     bg_vehicleLoad.obj
 0002:0000bb50       ??_C@_0M@OPNACIAF@soundFlyBy2?$AA@ 200fbb50     bg_vehicleLoad.obj
 0002:0000bb5c       ??_C@_0M@CNOCLGAB@soundShift1?$AA@ 200fbb5c     bg_vehicleLoad.obj
 0002:0000bb68       ??_C@_0M@GMPOFMC@soundShift2?$AA@ 200fbb68     bg_vehicleLoad.obj
 0002:0000bb74       ??_C@_0M@BPNENEID@soundShift3?$AA@ 200fbb74     bg_vehicleLoad.obj
 0002:0000bb80       ??_C@_0M@FAJFECEE@soundShift4?$AA@ 200fbb80     bg_vehicleLoad.obj
 0002:0000bb8c       ??_C@_09EJLKNCKH@exhaustFX?$AA@ 200fbb8c     bg_vehicleLoad.obj
 0002:0000bb98       ??_C@_07MMLPAJOM@turboFX?$AA@ 200fbb98     bg_vehicleLoad.obj
 0002:0000bba0       ??_C@_0N@KHLFFGCJ@turboStartFX?$AA@ 200fbba0     bg_vehicleLoad.obj
 0002:0000bbb0       ??_C@_07OJDPNJKI@trailFX?$AA@ 200fbbb0     bg_vehicleLoad.obj
 0002:0000bbb8       ??_C@_09BPBLMDGM@explodeFX?$AA@ 200fbbb8     bg_vehicleLoad.obj
 0002:0000bbc4       ??_C@_06GMJLHFJI@wakeFX?$AA@ 200fbbc4     bg_vehicleLoad.obj
 0002:0000bbcc       ??_C@_05BMHOEJHI@dmgFX?$AA@ 200fbbcc     bg_vehicleLoad.obj
 0002:0000bbd4       ??_C@_08NBOBHDEO@injureFX?$AA@ 200fbbd4     bg_vehicleLoad.obj
 0002:0000bbe0       ??_C@_06PEEHBBLG@noseFX?$AA@ 200fbbe0     bg_vehicleLoad.obj
 0002:0000bbe8       ??_C@_07JNCLAFON@lwingFX?$AA@ 200fbbe8     bg_vehicleLoad.obj
 0002:0000bbf0       ??_C@_07PEBKCGPE@rwingFX?$AA@ 200fbbf0     bg_vehicleLoad.obj
 0002:0000bbf8       ??_C@_05BIPOGEJM@weap1?$AA@ 200fbbf8     bg_vehicleLoad.obj
 0002:0000bc00       ??_C@_05DDNDDHFP@weap2?$AA@ 200fbc00     bg_vehicleLoad.obj
 0002:0000bc08       ??_C@_0L@JOPAPHJC@weap1Delay?$AA@ 200fbc08     bg_vehicleLoad.obj
 0002:0000bc14       ??_C@_0L@KPBIONAP@weap2Delay?$AA@ 200fbc14     bg_vehicleLoad.obj
 0002:0000bc20       ??_C@_09DOHGDAAC@weap1Link?$AA@ 200fbc20     bg_vehicleLoad.obj
 0002:0000bc2c       ??_C@_09LIOCECKM@weap2Link?$AA@ 200fbc2c     bg_vehicleLoad.obj
 0002:0000bc38       ??_C@_08BLGAOKCJ@weap1Aim?$AA@ 200fbc38     bg_vehicleLoad.obj
 0002:0000bc44       ??_C@_08FMMAJAPJ@weap2Aim?$AA@ 200fbc44     bg_vehicleLoad.obj
 0002:0000bc50       ??_C@_0N@LOHHABAP@weap1AmmoMax?$AA@ 200fbc50     bg_vehicleLoad.obj
 0002:0000bc60       ??_C@_0N@IHPKDNMK@weap2AmmoMax?$AA@ 200fbc60     bg_vehicleLoad.obj
 0002:0000bc70       ??_C@_0BE@DHCAAGBM@weap1AmmoRechargeMS?$AA@ 200fbc70     bg_vehicleLoad.obj
 0002:0000bc84       ??_C@_0BE@BOOILCOO@weap2AmmoRechargeMS?$AA@ 200fbc84     bg_vehicleLoad.obj
 0002:0000bc98       ??_C@_0BB@EBOBGHDB@weap1SoundNoAmmo?$AA@ 200fbc98     bg_vehicleLoad.obj
 0002:0000bcac       ??_C@_0BB@PMCLALPP@weap2SoundNoAmmo?$AA@ 200fbcac     bg_vehicleLoad.obj
 0002:0000bcc0       ??_C@_0M@NHFPHPLB@weapMuzzle1?$AA@ 200fbcc0     bg_vehicleLoad.obj
 0002:0000bccc       ??_C@_0M@PMHCCMHC@weapMuzzle2?$AA@ 200fbccc     bg_vehicleLoad.obj
 0002:0000bcd8       ??_C@_0M@OFGJBNDD@weapMuzzle3?$AA@ 200fbcd8     bg_vehicleLoad.obj
 0002:0000bce4       ??_C@_0M@KKCIILPE@weapMuzzle4?$AA@ 200fbce4     bg_vehicleLoad.obj
 0002:0000bcf0       ??_C@_0M@LDDDLKLF@weapMuzzle5?$AA@ 200fbcf0     bg_vehicleLoad.obj
 0002:0000bcfc       ??_C@_0M@JIBOOJHG@weapMuzzle6?$AA@ 200fbcfc     bg_vehicleLoad.obj
 0002:0000bd08       ??_C@_0M@IBAFNIDH@weapMuzzle7?$AA@ 200fbd08     bg_vehicleLoad.obj
 0002:0000bd14       ??_C@_0M@GJNMEPI@weapMuzzle8?$AA@ 200fbd14     bg_vehicleLoad.obj
 0002:0000bd20       ??_C@_0M@BPIGPFLJ@weapMuzzle9?$AA@ 200fbd20     bg_vehicleLoad.obj
 0002:0000bd2c       ??_C@_0N@GDPHOKJG@weapMuzzle10?$AA@ 200fbd2c     bg_vehicleLoad.obj
 0002:0000bd3c       ??_C@_0O@JIDEEHO@landingHeight?$AA@ 200fbd3c     bg_vehicleLoad.obj
 0002:0000bd4c       ??_C@_07GFBFDLBM@gravity?$AA@ 200fbd4c     bg_vehicleLoad.obj
 0002:0000bd54       ??_C@_0M@HKBHLPFK@hoverHeight?$AA@ 200fbd54     bg_vehicleLoad.obj
 0002:0000bd60       ??_C@_0O@JOCPMJAA@hoverStrength?$AA@ 200fbd60     bg_vehicleLoad.obj
 0002:0000bd70       ??_C@_0L@KPACIHBI@waterProof?$AA@ 200fbd70     bg_vehicleLoad.obj
 0002:0000bd7c       ??_C@_08DLBCDKOK@bouyancy?$AA@ 200fbd7c     bg_vehicleLoad.obj
 0002:0000bd88       ??_C@_07PBHPKAIK@fuelMax?$AA@ 200fbd88     bg_vehicleLoad.obj
 0002:0000bd90       ??_C@_08POLMHDEL@fuelRate?$AA@ 200fbd90     bg_vehicleLoad.obj
 0002:0000bd9c       ??_C@_0O@LHGBPOCO@turboDuration?$AA@ 200fbd9c     bg_vehicleLoad.obj
 0002:0000bdac       ??_C@_0O@DAFJHCFD@turboRecharge?$AA@ 200fbdac     bg_vehicleLoad.obj
 0002:0000bdbc       ??_C@_0L@CNKMJODB@visibility?$AA@ 200fbdbc     bg_vehicleLoad.obj
 0002:0000bdc8       ??_C@_08PPAAKLBH@loudness?$AA@ 200fbdc8     bg_vehicleLoad.obj
 0002:0000bdd4       ??_C@_0BA@LKLGPLNG@explosionRadius?$AA@ 200fbdd4     bg_vehicleLoad.obj
 0002:0000bde4       ??_C@_0BA@HFCGNKHF@explosionDamage?$AA@ 200fbde4     bg_vehicleLoad.obj
 0002:0000bdf4       ??_C@_0O@NGNHGBJN@maxPassengers?$AA@ 200fbdf4     bg_vehicleLoad.obj
 0002:0000be04       ??_C@_09JBJPOHNK@hideRider?$AA@ 200fbe04     bg_vehicleLoad.obj
 0002:0000be10       ??_C@_0BB@PDHEMPIJ@killRiderOnDeath?$AA@ 200fbe10     bg_vehicleLoad.obj
 0002:0000be24       ??_C@_09FEKLMMFJ@flammable?$AA@ 200fbe24     bg_vehicleLoad.obj
 0002:0000be30       ??_C@_0P@OINMICGP@explosionDelay?$AA@ 200fbe30     bg_vehicleLoad.obj
 0002:0000be40       ??_C@_0P@GNOAPEOI@cameraOverride?$AA@ 200fbe40     bg_vehicleLoad.obj
 0002:0000be50       ??_C@_0M@NABKGBHB@cameraRange?$AA@ 200fbe50     bg_vehicleLoad.obj
 0002:0000be5c       ??_C@_0BB@JIEFMMG@cameraVertOffset?$AA@ 200fbe5c     bg_vehicleLoad.obj
 0002:0000be70       ??_C@_0BB@PHKMDBPA@cameraHorzOffset?$AA@ 200fbe70     bg_vehicleLoad.obj
 0002:0000be84       ??_C@_0BC@HAMFPJAF@cameraPitchOffset?$AA@ 200fbe84     bg_vehicleLoad.obj
 0002:0000be98       ??_C@_09DEDNKOMM@cameraFOV?$AA@ 200fbe98     bg_vehicleLoad.obj
 0002:0000bea4       ??_C@_0M@HCDOHHGA@cameraAlpha?$AA@ 200fbea4     bg_vehicleLoad.obj
 0002:0000beb0       ??_C@_0BP@GIMDHKNG@cameraPitchDependantVertOffset?$AA@ 200fbeb0     bg_vehicleLoad.obj
 0002:0000bed0       ??_C@_0M@KPBBIBLI@turret1Weap?$AA@ 200fbed0     bg_vehicleLoad.obj
 0002:0000bedc       ??_C@_0N@FBCEIJCP@turret1Delay?$AA@ 200fbedc     bg_vehicleLoad.obj
 0002:0000beec       ??_C@_0P@FIKBECBF@turret1AmmoMax?$AA@ 200fbeec     bg_vehicleLoad.obj
 0002:0000befc       ??_C@_0BG@IIODCJED@turret1AmmoRechargeMS?$AA@ 200fbefc     bg_vehicleLoad.obj
 0002:0000bf14       ??_C@_0P@FFEIIECD@turret1YawBone?$AA@ 200fbf14     bg_vehicleLoad.obj
 0002:0000bf24       ??_C@_0BB@NILOLCBI@turret1PitchBone?$AA@ 200fbf24     bg_vehicleLoad.obj
 0002:0000bf38       ??_C@_0P@MGPBDCIH@turret1YawAxis?$AA@ 200fbf38     bg_vehicleLoad.obj
 0002:0000bf48       ??_C@_0BB@ELAHAELM@turret1PitchAxis?$AA@ 200fbf48     bg_vehicleLoad.obj
 0002:0000bf5c       ??_C@_0BB@HFAPNPOM@turret1ClampYawL?$AA@ 200fbf5c     bg_vehicleLoad.obj
 0002:0000bf70       ??_C@_0BB@KBEOOADD@turret1ClampYawR?$AA@ 200fbf70     bg_vehicleLoad.obj
 0002:0000bf84       ??_C@_0BD@KDJFDHCF@turret1ClampPitchU?$AA@ 200fbf84     bg_vehicleLoad.obj
 0002:0000bf98       ??_C@_0BD@PAEMBEDF@turret1ClampPitchD?$AA@ 200fbf98     bg_vehicleLoad.obj
 0002:0000bfac       ??_C@_0P@NDNADLOJ@turret1Muzzle1?$AA@ 200fbfac     bg_vehicleLoad.obj
 0002:0000bfbc       ??_C@_0P@PIPNGICK@turret1Muzzle2?$AA@ 200fbfbc     bg_vehicleLoad.obj
 0002:0000bfcc       ??_C@_0BB@PDLGOJAM@turret1TurnSpeed?$AA@ 200fbfcc     bg_vehicleLoad.obj
 0002:0000bfe0       ??_C@_09IAHODHIH@turret1AI?$AA@ 200fbfe0     bg_vehicleLoad.obj
 0002:0000bfec       ??_C@_0O@NENBBHAC@turret1AILead?$AA@ 200fbfec     bg_vehicleLoad.obj
 0002:0000bffc       ??_C@_0P@GACJEEPN@turret1AIRange?$AA@ 200fbffc     bg_vehicleLoad.obj
 0002:0000c00c       ??_C@_0BE@MNFKLHBD@turret1PassengerNum?$AA@ 200fc00c     bg_vehicleLoad.obj
 0002:0000c020       ??_C@_0BF@EJJOIICO@turret1GunnerViewTag?$AA@ 200fc020     bg_vehicleLoad.obj
 0002:0000c038       ??_C@_0M@CJIFPDBG@turret2Weap?$AA@ 200fc038     bg_vehicleLoad.obj
 0002:0000c044       ??_C@_0N@GAMMJDLC@turret2Delay?$AA@ 200fc044     bg_vehicleLoad.obj
 0002:0000c054       ??_C@_0P@GBCMHONA@turret2AmmoMax?$AA@ 200fc054     bg_vehicleLoad.obj
 0002:0000c064       ??_C@_0BG@KBCLJNLB@turret2AmmoRechargeMS?$AA@ 200fc064     bg_vehicleLoad.obj
 0002:0000c07c       ??_C@_0P@GMMFLIOG@turret2YawBone?$AA@ 200fc07c     bg_vehicleLoad.obj
 0002:0000c08c       ??_C@_0BB@EBFMNEBJ@turret2PitchBone?$AA@ 200fc08c     bg_vehicleLoad.obj
 0002:0000c0a0       ??_C@_0P@PPHMAOEC@turret2YawAxis?$AA@ 200fc0a0     bg_vehicleLoad.obj
 0002:0000c0b0       ??_C@_0BB@NCOFGCLN@turret2PitchAxis?$AA@ 200fc0b0     bg_vehicleLoad.obj
 0002:0000c0c4       ??_C@_0BB@OMONLJON@turret2ClampYawL?$AA@ 200fc0c4     bg_vehicleLoad.obj
 0002:0000c0d8       ??_C@_0BB@DIKMIGDC@turret2ClampYawR?$AA@ 200fc0d8     bg_vehicleLoad.obj
 0002:0000c0ec       ??_C@_0BD@BOFPFLOL@turret2ClampPitchU?$AA@ 200fc0ec     bg_vehicleLoad.obj
 0002:0000c100       ??_C@_0BD@ENIGHIPL@turret2ClampPitchD?$AA@ 200fc100     bg_vehicleLoad.obj
 0002:0000c114       ??_C@_0P@OKFNAHCM@turret2Muzzle1?$AA@ 200fc114     bg_vehicleLoad.obj
 0002:0000c124       ??_C@_0P@MBHAFEOP@turret2Muzzle2?$AA@ 200fc124     bg_vehicleLoad.obj
 0002:0000c134       ??_C@_0BB@GKFEIPAN@turret2TurnSpeed?$AA@ 200fc134     bg_vehicleLoad.obj
 0002:0000c148       ??_C@_09JCMLJIGJ@turret2AI?$AA@ 200fc148     bg_vehicleLoad.obj
 0002:0000c154       ??_C@_0O@FKFOBAOB@turret2AILead?$AA@ 200fc154     bg_vehicleLoad.obj
 0002:0000c164       ??_C@_0P@FJKEHIDI@turret2AIRange?$AA@ 200fc164     bg_vehicleLoad.obj
 0002:0000c174       ??_C@_0BE@LBDLJCMI@turret2PassengerNum?$AA@ 200fc174     bg_vehicleLoad.obj
 0002:0000c188       ??_C@_0BF@FIODOCFH@turret2GunnerViewTag?$AA@ 200fc188     bg_vehicleLoad.obj
 0002:0000c1a0       ??_C@_07FABGOOCC@VH_NONE?$AA@ 200fc1a0     bg_vehicleLoad.obj
 0002:0000c1a8       ??_C@_09EMIPDFIK@VH_WALKER?$AA@ 200fc1a8     bg_vehicleLoad.obj
 0002:0000c1b4       ??_C@_0L@NKPJKKBD@VH_FIGHTER?$AA@ 200fc1b4     bg_vehicleLoad.obj
 0002:0000c1c0       ??_C@_0L@PJKFHOGE@VH_SPEEDER?$AA@ 200fc1c0     bg_vehicleLoad.obj
 0002:0000c1cc       ??_C@_09IHBEGJAE@VH_ANIMAL?$AA@ 200fc1cc     bg_vehicleLoad.obj
 0002:0000c1d8       ??_C@_08GLJJKINI@VH_FLIER?$AA@ 200fc1d8     bg_vehicleLoad.obj
 0002:0000c1e4       ??_C@_0L@BOMCPGNF@projectile?$AA@ 200fc1e4     bg_vehicleLoad.obj
 0002:0000c1f0       ??_C@_0L@IPNKNAOM@hasGravity?$AA@ 200fc1f0     bg_vehicleLoad.obj
 0002:0000c1fc       ??_C@_09LOOPDJEK@ionWeapon?$AA@ 200fc1fc     bg_vehicleLoad.obj
 0002:0000c208       ??_C@_0P@MLELMPKF@saberBlockable?$AA@ 200fc208     bg_vehicleLoad.obj
 0002:0000c218       ??_C@_08OEIEAIMH@muzzleFX?$AA@ 200fc218     bg_vehicleLoad.obj
 0002:0000c224       ??_C@_06KCPOJGHJ@shotFX?$AA@ 200fc224     bg_vehicleLoad.obj
 0002:0000c22c       ??_C@_08LBKCHJGI@impactFX?$AA@ 200fc22c     bg_vehicleLoad.obj
 0002:0000c238       ??_C@_0N@LOKNPDPD@g2MarkShader?$AA@ 200fc238     bg_vehicleLoad.obj
 0002:0000c248       ??_C@_0L@NDLIJKLF@g2MarkSize?$AA@ 200fc248     bg_vehicleLoad.obj
 0002:0000c254       ??_C@_09DPJGNNNM@loopSound?$AA@ 200fc254     bg_vehicleLoad.obj
 0002:0000c260       ??_C@_06GMBBIPLD@homing?$AA@ 200fc260     bg_vehicleLoad.obj
 0002:0000c268       ??_C@_0L@FFLAGJDE@lockOnTime?$AA@ 200fc268     bg_vehicleLoad.obj
 0002:0000c274       ??_C@_06GJOIPFFF@damage?$AA@ 200fc274     bg_vehicleLoad.obj
 0002:0000c27c       ??_C@_0N@LJPCOLCE@splashDamage?$AA@ 200fc27c     bg_vehicleLoad.obj
 0002:0000c28c       ??_C@_0N@HGGCMKIH@splashRadius?$AA@ 200fc28c     bg_vehicleLoad.obj
 0002:0000c29c       ??_C@_0M@EIOFGFCL@ammoPerShot?$AA@ 200fc29c     bg_vehicleLoad.obj
 0002:0000c2a8       ??_C@_06KJINILIP@health?$AA@ 200fc2a8     bg_vehicleLoad.obj
 0002:0000c2b0       ??_C@_05IGKADHGO@width?$AA@ 200fc2b0     bg_vehicleLoad.obj
 0002:0000c2b8       ??_C@_06LNLHEAAG@height?$AA@ 200fc2b8     bg_vehicleLoad.obj
 0002:0000c2c0       ??_C@_08MOKDPMFA@lifetime?$AA@ 200fc2c0     bg_vehicleLoad.obj
 0002:0000c2cc       ??_C@_0BA@KPKBCLLA@explodeOnExpire?$AA@ 200fc2cc     bg_vehicleLoad.obj
 0002:0000c2e0       ??_C@_0FD@MDELBJLL@?$FO3BG_ParseVehWeaponParm?3?5VEC3?5ss@ 200fc2e0     bg_vehicleLoad.obj
 0002:0000c334       ??_C@_0L@MLJDLEMM@vehWeapons?$AA@ 200fc334     bg_vehicleLoad.obj
 0002:0000c340       ??_C@_0DL@FMGLONEB@?$FO1ERROR?3?5unexpected?5EOF?5while?5pa@ 200fc340     bg_vehicleLoad.obj
 0002:0000c37c       ??_C@_0DC@DEIKKAAA@?$FO1ERROR?3?5Vehicle?5Weapon?5token?5?8?$CF@ 200fc37c     bg_vehicleLoad.obj
 0002:0000c3b0       ??_C@_0DL@NMOBCAIH@?$FO1ERROR?3?5Unknown?5Vehicle?5Weapon?5@ 200fc3b0     bg_vehicleLoad.obj
 0002:0000c3ec       ??_C@_0DG@NFPGFPBD@?$FO1ERROR?3?5Trying?5to?5read?5Vehicle?5@ 200fc3ec     bg_vehicleLoad.obj
 0002:0000c428       ??_C@_0EC@OJBJIBOI@?$FO1ERROR?3?5Too?5many?5Vehicle?5Weapon@ 200fc428     bg_vehicleLoad.obj
 0002:0000c46c       ??_C@_0CM@BOPHHAJF@?$FO1ERROR?3?5Could?5not?5find?5Vehicle?5@ 200fc46c     bg_vehicleLoad.obj
 0002:0000c498       ??_C@_0FB@JIOAPADB@?$FO3BG_ParseVehicleParm?3?5VEC3?5ssca@ 200fc498     bg_vehicleLoad.obj
 0002:0000c4ec       ??_C@_08HAIKMFBJ@vehicles?$AA@ 200fc4ec     bg_vehicleLoad.obj
 0002:0000c4f8       ??_C@_0DE@EKJMGPEC@?$FO1ERROR?3?5unexpected?5EOF?5while?5pa@ 200fc4f8     bg_vehicleLoad.obj
 0002:0000c52c       ??_C@_0CL@OGPLJEAB@?$FO1ERROR?3?5Vehicle?5token?5?8?$CFs?8?5has?5@ 200fc52c     bg_vehicleLoad.obj
 0002:0000c558       ??_C@_0DF@FBDCMFNK@?$FO1ERROR?3?5Unknown?5Vehicle?5key?1val@ 200fc558     bg_vehicleLoad.obj
 0002:0000c590       ??_C@_0DI@OLJGHDLJ@?$FO1ERROR?3?5Unknown?5Vehicle?5key?1val@ 200fc590     bg_vehicleLoad.obj
 0002:0000c5c8       ??_C@_0DI@HCHEBFLI@?$FO1ERROR?3?5Unknown?5Vehicle?5key?1val@ 200fc5c8     bg_vehicleLoad.obj
 0002:0000c600       ??_C@_0DO@DJFHMJDF@?$FO1ERROR?3?5Unknown?5Vehicle?5key?1val@ 200fc600     bg_vehicleLoad.obj
 0002:0000c640       ??_C@_0DO@KALFKPDE@?$FO1ERROR?3?5Unknown?5Vehicle?5key?1val@ 200fc640     bg_vehicleLoad.obj
 0002:0000c680       ??_C@_0DO@GBDLHAPE@?$FO1ERROR?3?5Unknown?5Vehicle?5key?1val@ 200fc680     bg_vehicleLoad.obj
 0002:0000c6c0       ??_C@_0DO@EIAAGFHH@?$FO1ERROR?3?5Unknown?5Vehicle?5key?1val@ 200fc6c0     bg_vehicleLoad.obj
 0002:0000c700       ??_C@_0DO@IJIOLKLH@?$FO1ERROR?3?5Unknown?5Vehicle?5key?1val@ 200fc700     bg_vehicleLoad.obj
 0002:0000c740       ??_C@_0DO@BAGMNMLG@?$FO1ERROR?3?5Unknown?5Vehicle?5key?1val@ 200fc740     bg_vehicleLoad.obj
 0002:0000c780       ??_C@_0DO@NBOCADHG@?$FO1ERROR?3?5Unknown?5Vehicle?5key?1val@ 200fc780     bg_vehicleLoad.obj
 0002:0000c7c0       ??_C@_0DO@ECBKPHLA@?$FO1ERROR?3?5Unknown?5Vehicle?5key?1val@ 200fc7c0     bg_vehicleLoad.obj
 0002:0000c800       ??_C@_0DO@IDJECIHA@?$FO1ERROR?3?5Unknown?5Vehicle?5key?1val@ 200fc800     bg_vehicleLoad.obj
 0002:0000c840       ??_C@_0DP@KOBBMOMH@?$FO1ERROR?3?5Unknown?5Vehicle?5key?1val@ 200fc840     bg_vehicleLoad.obj
 0002:0000c880       ??_C@_0BM@KNIODCMI@models?1players?1?$CFs?1model?4glm?$AA@ 200fc880     bg_vehicleLoad.obj
 0002:0000c89c       ??_C@_0BK@NCALAGBO@ships?1ship_explosion_mark?$AA@ 200fc89c     bg_vehicleLoad.obj
 0002:0000c8b8       ??_C@_0CC@DCOMBCFJ@sound?1vehicles?1common?1fire_lp?4wa@ 200fc8b8     bg_vehicleLoad.obj
 0002:0000c8dc       ??_C@_0BB@DNJHOLNH@ships?1swoop_dust?$AA@ 200fc8dc     bg_vehicleLoad.obj
 0002:0000c8f0       ??_C@_0BH@EGNCFGHP@volumetric?1black_smoke?$AA@ 200fc8f0     bg_vehicleLoad.obj
 0002:0000c908       ??_C@_0L@FJMBPMOH@ships?1fire?$AA@ 200fc908     bg_vehicleLoad.obj
 0002:0000c914       ??_C@_0CC@FMEFNJAG@sound?1vehicles?1common?1release?4wa@ 200fc914     bg_vehicleLoad.obj
 0002:0000c938       ??_C@_0CP@GGAMJIMN@?$FO1ERROR?3?5Trying?5to?5read?5Vehicle?5@ 200fc938     bg_vehicleLoad.obj
 0002:0000c968       ??_C@_0DL@LHHFHKNO@?$FO1ERROR?3?5Too?5many?5Vehicles?5?$CImax?5@ 200fc968     bg_vehicleLoad.obj
 0002:0000c9a4       ??_C@_0CF@JDPFBFFF@?$FO1ERROR?3?5Could?5not?5find?5Vehicle?5@ 200fc9a4     bg_vehicleLoad.obj
 0002:0000c9cc       ??_C@_04HHPJGBOE@?4vwp?$AA@ 200fc9cc     bg_vehicleLoad.obj
 0002:0000c9d4       ??_C@_0BK@NBKBPLIB@ext_data?1vehicles?1weapons?$AA@ 200fc9d4     bg_vehicleLoad.obj
 0002:0000c9f0       ??_C@_0BN@HEKLMLDI@ext_data?1vehicles?1weapons?1?$CFs?$AA@ 200fc9f0     bg_vehicleLoad.obj
 0002:0000ca10       ??_C@_01CLKCMJKC@?5?$AA@   200fca10     bg_vehicleLoad.obj
 0002:0000ca14       ??_C@_0DA@KBNENJDB@Vehicle?5Weapon?5extensions?5?$CI?$CK?4vwp@ 200fca14     bg_vehicleLoad.obj
 0002:0000ca44       ??_C@_04OKEAIOKD@?4veh?$AA@ 200fca44     bg_vehicleLoad.obj
 0002:0000ca4c       ??_C@_0BC@OPBPEGFG@ext_data?1vehicles?$AA@ 200fca4c     bg_vehicleLoad.obj
 0002:0000ca60       ??_C@_0BF@IBNPKGMN@ext_data?1vehicles?1?$CFs?$AA@ 200fca60     bg_vehicleLoad.obj
 0002:0000ca78       ??_C@_0CJ@FOAJMHKE@Vehicle?5extensions?5?$CI?$CK?4veh?$CJ?5are?5t@ 200fca78     bg_vehicleLoad.obj
 0002:0000caa4       ??_C@_0DC@CNDALACO@BG_GetVehicleModelName?3?5?5couldn?8@ 200fcaa4     bg_vehicleLoad.obj
 0002:0000cad8       ??_C@_07ECBLGCPH@?$CKdriver?$AA@ 200fcad8     bg_vehicleLoad.obj
 0002:0000cae0       ??_C@_0CB@LNGBPGCI@NULL?5PS?5in?5BG_FighterUpdate?5?$CI?$CFs?$CJ@ 200fcae0     FighterNPC.obj
 0002:0000cb04       __real@3d4ccccd            200fcb04     FighterNPC.obj
 0002:0000cb08       __real@3faaaaab            200fcb08     FighterNPC.obj
 0002:0000cb10       __real@4029000000000000    200fcb10     FighterNPC.obj
 0002:0000cb18       __real@4034000000000000    200fcb18     FighterNPC.obj
 0002:0000cb20       __real@4049000000000000    200fcb20     FighterNPC.obj
 0002:0000cb28       __real@46192000            200fcb28     FighterNPC.obj
 0002:0000cb2c       __real@be800000            200fcb2c     FighterNPC.obj
 0002:0000cb30       __real@c1000000            200fcb30     FighterNPC.obj
 0002:0000cb34       __real@c4fa0000            200fcb34     FighterNPC.obj
 0002:0000cb38       ??_C@_0BH@KONMCHEF@sound?1player?1gurp1?4wav?$AA@ 200fcb38     g_active.obj
 0002:0000cb50       ??_C@_0BH@CIEIFFOL@sound?1player?1gurp2?4wav?$AA@ 200fcb50     g_active.obj
 0002:0000cb68       ??_C@_0BK@CMFHJBAI@Dropped?5due?5to?5inactivity?$AA@ 200fcb68     g_active.obj
 0002:0000cb84       ??_C@_0CJ@OOBJBOCC@cp?5?$CCTen?5seconds?5until?5inactivity@ 200fcb84     g_active.obj
 0002:0000cbb0       ??_C@_0BL@NBPAAOGK@sound?1player?1fallsplat?4wav?$AA@ 200fcbb0     g_active.obj
 0002:0000cbcc       ??_C@_0CF@IPPOHCHK@sound?1chars?1r2d2?1misc?1r2_move_lp@ 200fcbcc     g_active.obj
 0002:0000cbf4       ??_C@_0CG@OEDGGKMM@sound?1chars?1r2d2?1misc?1r2_move_lp@ 200fcbf4     g_active.obj
 0002:0000cc1c       ??_C@_0CF@GKMDDIEL@sound?1chars?1mark2?1misc?1mark2_mov@ 200fcc1c     g_active.obj
 0002:0000cc44       ??_C@_0CA@LMAJNECC@sound?1chars?1mouse?1misc?1mouse_lp?$AA@ 200fcc44     g_active.obj
 0002:0000cc64       ??_C@_0CG@IOOKDBNH@sound?1chars?1probe?1misc?1probedroi@ 200fcc64     g_active.obj
 0002:0000cc8c       ??_C@_01KJLJFBPL@8?$AA@    200fcc8c     g_active.obj
 0002:0000cc90       ??_C@_0L@JLBEBBAD@pmove_msec?$AA@ 200fcc90     g_active.obj
 0002:0000cc9c       ??_C@_02NCPIBIBE@33?$AA@   200fcc9c     g_active.obj
 0002:0000cca0       ??_C@_0BH@JPPKHAKF@sound?1player?1roll1?4wav?$AA@ 200fcca0     g_active.obj
 0002:0000ccb8       ??_C@_0N@LDACPHLA@PLDUELWINNER?$AA@ 200fccb8     g_active.obj
 0002:0000ccc8       ??_C@_09HNLILNJH@MP_SVGAME?$AA@ 200fccc8     g_active.obj
 0002:0000ccd4       ??_C@_0BA@MNGECHOL@cp?5?$CC?$CFs?5?$CFs?5?$CFs?$CB?6?$CC?$AA@ 200fccd4     g_active.obj
 0002:0000cce4       ??_C@_09DFEBFALI@PLDUELTIE?$AA@ 200fcce4     g_active.obj
 0002:0000ccf0       ??_C@_08IPBPDGPB@cp?5?$CC?$CFs?6?$CC?$AA@ 200fccf0     g_active.obj
 0002:0000ccfc       ??_C@_0L@GCPAPBDO@PLDUELSTOP?$AA@ 200fccfc     g_active.obj
 0002:0000cd08       ??_C@_0M@MIDAEIOB@print?5?$CC?$CFs?6?$CC?$AA@ 200fcd08     g_active.obj
 0002:0000cd14       ??_C@_0M@FAKIOGIA@?$CKpain25?4wav?$AA@ 200fcd14     g_active.obj
 0002:0000cd20       ??_C@_0N@CIPOKOBF@?$CKpain100?4wav?$AA@ 200fcd20     g_active.obj
 0002:0000cd30       ??_C@_0L@FMHDEMAN@?$CKjump1?4wav?$AA@ 200fcd30     g_active.obj
 0002:0000cd3c       ??_C@_0M@IIIHJCEC@?$CKl_leg_foot?$AA@ 200fcd3c     g_active.obj
 0002:0000cd48       ??_C@_0M@HEAHHNIP@?$CKr_leg_foot?$AA@ 200fcd48     g_active.obj
 0002:0000cd54       ??_C@_0BM@LMLMICOM@sound?1weapons?1melee?1punch?$CFd?$AA@ 200fcd54     g_active.obj
 0002:0000cd70       ??_C@_09FNMDCDOI@spectator?$AA@ 200fcd70     g_active.obj
 0002:0000cd7c       __real@3c000000            200fcd7c     g_active.obj
 0002:0000cd80       __real@3fa66666            200fcd80     g_active.obj
 0002:0000cd88       __real@3fc47ae147ae147b    200fcd88     g_active.obj
 0002:0000cd90       __real@4070000000000000    200fcd90     g_active.obj
 0002:0000cd98       __real@42500000            200fcd98     g_active.obj
 0002:0000cd9c       __real@437f0000            200fcd9c     g_active.obj
 0002:0000cda0       __real@4a095440            200fcda0     g_active.obj
 0002:0000cda4       __real@4abebc20            200fcda4     g_active.obj
 0002:0000cda8       ??_C@_0BI@BMEIBPEH@Missing?5?$HL?5in?5info?5file?6?$AA@ 200fcda8     g_bot.obj
 0002:0000cdc0       ??_C@_0BE@IKMJLADL@Max?5infos?5exceeded?6?$AA@ 200fcdc0     g_bot.obj
 0002:0000cdd4       ??_C@_0BN@HAJDHEGK@Unexpected?5end?5of?5info?5file?6?$AA@ 200fcdd4     g_bot.obj
 0002:0000cdf4       ??_C@_06CBHGEMFM@?$DMNULL?$DO?$AA@ 200fcdf4     g_bot.obj
 0002:0000cdfc       ??_C@_02DPKJAMEF@?$CFd?$AA@ 200fcdfc     g_bot.obj
 0002:0000ce00       ??_C@_0BG@BJEIGKLP@?$FO1file?5not?5found?3?5?$CFs?6?$AA@ 200fce00     g_bot.obj
 0002:0000ce18       ??_C@_0CO@OKDDPLPD@?$FO1file?5too?5large?3?5?$CFs?5is?5?$CFi?0?5max?5@ 200fce18     g_bot.obj
 0002:0000ce48       ??_C@_03PAEKGFEI@ffa?$AA@  200fce48     g_bot.obj
 0002:0000ce4c       ??_C@_08OFGDEOFK@holocron?$AA@ 200fce4c     g_bot.obj
 0002:0000ce58       ??_C@_0L@PPBFGKBC@jedimaster?$AA@ 200fce58     g_bot.obj
 0002:0000ce64       ??_C@_04IONKKEKB@duel?$AA@ 200fce64     g_bot.obj
 0002:0000ce6c       ??_C@_09OHBAKHCG@powerduel?$AA@ 200fce6c     g_bot.obj
 0002:0000ce78       ??_C@_05OEDHBHJ@siege?$AA@ 200fce78     g_bot.obj
 0002:0000ce80       ??_C@_03JHHHHEKD@ctf?$AA@  200fce80     g_bot.obj
 0002:0000ce84       ??_C@_03FKCNHKDN@cty?$AA@  200fce84     g_bot.obj
 0002:0000ce88       ??_C@_03HBNNNHNM@map?$AA@  200fce88     g_bot.obj
 0002:0000ce8c       ??_C@_0O@JEFGAJAK@map_restart?50?$AA@ 200fce8c     g_bot.obj
 0002:0000ce9c       ??_C@_07MCHHMPMB@nextmap?$AA@ 200fce9c     g_bot.obj
 0002:0000cea4       ??_C@_06CICODAJE@map?5?$CFs?$AA@ 200fcea4     g_bot.obj
 0002:0000ceac       ??_C@_06IPPMLGON@?4arena?$AA@ 200fceac     g_bot.obj
 0002:0000ceb4       ??_C@_07OMEBBDEO@scripts?$AA@ 200fceb4     g_bot.obj
 0002:0000cebc       ??_C@_08IDJEBFOJ@scripts?1?$AA@ 200fcebc     g_bot.obj
 0002:0000cec8       ??_C@_03IHCLBPIC@num?$AA@  200fcec8     g_bot.obj
 0002:0000cecc       ??_C@_09OGEBNCBM@g_spSkill?$AA@ 200fcecc     g_bot.obj
 0002:0000ced8       ??_C@_0BG@IELJJOOM@addbot?5?$CC?$CFs?$CC?5?$CFf?5?$CFs?5?$CFi?6?$AA@ 200fced8     g_bot.obj
 0002:0000cef0       ??_C@_0L@BGEEDJPK@kick?5?$CC?$CFs?$CC?6?$AA@ 200fcef0     g_bot.obj
 0002:0000cefc       ??_C@_0BJ@JBHOCGJI@?$FO3Unable?5to?5delay?5spawn?6?$AA@ 200fcefc     g_bot.obj
 0002:0000cf18       ??_C@_0M@BMHCFBAN@personality?$AA@ 200fcf18     g_bot.obj
 0002:0000cf24       ??_C@_05ODMCMJAJ@skill?$AA@ 200fcf24     g_bot.obj
 0002:0000cf2c       ??_C@_04KADBPNCB@team?$AA@ 200fcf2c     g_bot.obj
 0002:0000cf34       ??_C@_0BI@KOJDMFEB@BotAISetupClient?5failed?$AA@ 200fcf34     g_bot.obj
 0002:0000cf4c       ??_C@_0BP@NGBNIFAK@?$FO1Error?3?5Bot?5?8?$CFs?8?5not?5defined?6?$AA@ 200fcf4c     g_bot.obj
 0002:0000cf6c       ??_C@_07PNOKIGNH@funname?$AA@ 200fcf6c     g_bot.obj
 0002:0000cf74       ??_C@_05GFEIOEMO@25000?$AA@ 200fcf74     g_bot.obj
 0002:0000cf7c       ??_C@_04HCCHHEEF@rate?$AA@ 200fcf7c     g_bot.obj
 0002:0000cf84       ??_C@_02PIBHCBOA@20?$AA@   200fcf84     g_bot.obj
 0002:0000cf88       ??_C@_05DGPADKBM@snaps?$AA@ 200fcf88     g_bot.obj
 0002:0000cf90       ??_C@_05NBLIHODN@?$CF1?42f?$AA@ 200fcf90     g_bot.obj
 0002:0000cf98       ??_C@_02PNFIDHGF@50?$AA@   200fcf98     g_bot.obj
 0002:0000cf9c       ??_C@_08HBHLIHAM@handicap?$AA@ 200fcf9c     g_bot.obj
 0002:0000cfa8       ??_C@_02PONMODAL@70?$AA@   200fcfa8     g_bot.obj
 0002:0000cfac       ??_C@_02PEECMOAB@90?$AA@   200fcfac     g_bot.obj
 0002:0000cfb0       ??_C@_0N@DBLFEAPN@kyle?1default?$AA@ 200fcfb0     g_bot.obj
 0002:0000cfc0       ??_C@_06LFOIHHME@gender?$AA@ 200fcfc0     g_bot.obj
 0002:0000cfc8       ??_C@_04ICKCIGNO@male?$AA@ 200fcfc8     g_bot.obj
 0002:0000cfd0       ??_C@_03OMLNFKE@sex?$AA@   200fcfd0     g_bot.obj
 0002:0000cfd4       ??_C@_06IPMAANOD@color1?$AA@ 200fcfd4     g_bot.obj
 0002:0000cfdc       ??_C@_01FAMBOPH@4?$AA@     200fcfdc     g_bot.obj
 0002:0000cfe0       ??_C@_06KEONFOCA@color2?$AA@ 200fcfe0     g_bot.obj
 0002:0000cfe8       ??_C@_08CAIDFEMJ@single_1?$AA@ 200fcfe8     g_bot.obj
 0002:0000cff4       ??_C@_0BF@HBBFKEDO@botfiles?1default?4jkb?$AA@ 200fcff4     g_bot.obj
 0002:0000d00c       ??_C@_0BC@HGPAPBJP@UNABLE_TO_ADD_BOT?$AA@ 200fd00c     g_bot.obj
 0002:0000d020       ??_C@_05CEDINIPN@?$CF5?42f?$AA@ 200fd020     g_bot.obj
 0002:0000d028       ??_C@_03PADCEAKC@Red?$AA@  200fd028     g_bot.obj
 0002:0000d02c       ??_C@_04CAKOHOCJ@Blue?$AA@ 200fd02c     g_bot.obj
 0002:0000d034       ??_C@_01LKDEMHDF@s?$AA@    200fd034     g_bot.obj
 0002:0000d038       ??_C@_0L@BKCPIMBP@bot_enable?$AA@ 200fd038     g_bot.obj
 0002:0000d048       ??_C@_0ED@LBGLLNI@Usage?3?5Addbot?5?$DMbotname?$DO?5?$FLskill?51@ 200fd048     g_bot.obj
 0002:0000d08c       ??_C@_0L@FBHMLJNH@cl_running?$AA@ 200fd08c     g_bot.obj
 0002:0000d098       ??_C@_0N@GEFCGCPK@loaddefered?6?$AA@ 200fd098     g_bot.obj
 0002:0000d0a8       ??_C@_0EG@EAKBMKJK@?$FO1name?5?5?5?5?5?5?5?5?5?5?5?5?5model?5?5?5?5?5?5?5?5@ 200fd0a8     g_bot.obj
 0002:0000d0f0       ??_C@_07JBIOPIKL@Padawan?$AA@ 200fd0f0     g_bot.obj
 0002:0000d0f8       ??_C@_0BC@DLIPHLBC@botfiles?1kyle?4jkb?$AA@ 200fd0f8     g_bot.obj
 0002:0000d10c       ??_C@_0BJ@GPLOPMDF@?$CF?916s?5?$CF?916s?5?$CF?920s?5?$CF?920s?6?$AA@ 200fd10c     g_bot.obj
 0002:0000d128       ??_C@_0L@IDJNDIMJ@g_botsFile?$AA@ 200fd128     g_bot.obj
 0002:0000d134       ??_C@_0BC@BOHIEOJI@botfiles?1bots?4txt?$AA@ 200fd134     g_bot.obj
 0002:0000d148       ??_C@_04NONLJGOA@?4bot?$AA@ 200fd148     g_bot.obj
 0002:0000d150       ??_C@_0P@IGNPDGBD@bot_minplayers?$AA@ 200fd150     g_bot.obj
 0002:0000d160       __real@46fffe00            200fd160     g_bot.obj
 0002:0000d170       __xmm@00000001000000010000000100000001 200fd170     g_bot.obj
 0002:0000d180       __xmm@ffffffffffffffffffffffffffffffff 200fd180     g_bot.obj
 0002:0000d190       ??_C@_06JHOFIDHH@nobots?$AA@ 200fd190     g_client.obj
 0002:0000d198       ??_C@_08MDEJHCAF@nohumans?$AA@ 200fd198     g_client.obj
 0002:0000d1a4       ??_C@_08IDADLKFJ@startoff?$AA@ 200fd1a4     g_client.obj
 0002:0000d1b0       ??_C@_02PGHGPEOM@?91?$AA@  200fd1b0     g_client.obj
 0002:0000d1b4       ??_C@_08DHHBNGKN@BECOMEJM?$AA@ 200fd1b4     g_client.obj
 0002:0000d1c0       ??_C@_0M@HHKKLDCM@cp?5?$CC?$CFs?5?$CFs?6?$CC?$AA@ 200fd1c0     g_client.obj
 0002:0000d1cc       ??_C@_0BM@DGHFFJBI@Couldn?8t?5find?5a?5spawn?5point?$AA@ 200fd1cc     g_client.obj
 0002:0000d1e8       ??_C@_0BC@LAJNDDCK@info_player_duel1?$AA@ 200fd1e8     g_client.obj
 0002:0000d1fc       ??_C@_0BC@JLLAGAOJ@info_player_duel2?$AA@ 200fd1fc     g_client.obj
 0002:0000d210       ??_C@_0BB@BMHFAIEA@info_player_duel?$AA@ 200fd210     g_client.obj
 0002:0000d224       ??_C@_07ILHJIGAO@bodyque?$AA@ 200fd224     g_client.obj
 0002:0000d22c       ??_C@_0BB@LAEJDCGK@ircg?5?$CFi?5?$CFi?5?$CFi?5?$CFi?$AA@ 200fd22c     g_client.obj
 0002:0000d240       ??_C@_06JGJNMMPB@rcg?5?$CFi?$AA@ 200fd240     g_client.obj
 0002:0000d248       ??_C@_08PJKKDMJN@?$CKblade?$CFi?$AA@ 200fd248     g_client.obj
 0002:0000d254       ??_C@_06PDDIJHJI@?$CKflash?$AA@ 200fd254     g_client.obj
 0002:0000d25c       ??_C@_0BO@KEENCNON@models?1players?1kyle?1model?4glm?$AA@ 200fd25c     g_client.obj
 0002:0000d27c       ??_C@_0CH@LCIAEFJH@models?1players?1kyle?1model_defaul@ 200fd27c     g_client.obj
 0002:0000d2a4       ??_C@_0CF@FIHHFCC@models?1players?1?$CFs?1model_default?4@ 200fd2a4     g_client.obj
 0002:0000d2cc       ??_C@_0BG@BBLNABEM@models?1players?1?$CFs?1?$HM?$CFs?$AA@ 200fd2cc     g_client.obj
 0002:0000d2e4       ??_C@_03CLKAMBIH@?$CK?$CFs?$AA@ 200fd2e4     g_client.obj
 0002:0000d2e8       ??_C@_0CH@JMNIMDPG@models?1players?1_humanoid?1animati@ 200fd2e8     g_client.obj
 0002:0000d310       ??_C@_0CI@JEEOEJJO@Failed?5to?5load?5humanoid?5animatio@ 200fd310     g_client.obj
 0002:0000d338       ??_C@_0P@BNFHKDFH@?1animation?4cfg?$AA@ 200fd338     g_client.obj
 0002:0000d348       ??_C@_0BI@JMFCONIH@NPC?5had?5an?5invalid?5GLA?6?$AA@ 200fd348     g_client.obj
 0002:0000d360       ??_C@_0L@OPBBEMAA@model_root?$AA@ 200fd360     g_client.obj
 0002:0000d36c       ??_C@_0L@JEAMIDKG@?$CKdroidunit?$AA@ 200fd36c     g_client.obj
 0002:0000d378       ??_C@_0L@CJEIKOKF@?$CKexhaust?$CFi?$AA@ 200fd378     g_client.obj
 0002:0000d384       ??_C@_09DFLEJFMN@?$CKmuzzle?$CFi?$AA@ 200fd384     g_client.obj
 0002:0000d390       ??_C@_08FNEKKBCI@?$CKflash?$CFi?$AA@ 200fd390     g_client.obj
 0002:0000d39c       ??_C@_07CKKFCGNI@?$CKl_hand?$AA@ 200fd39c     g_client.obj
 0002:0000d3a4       ??_C@_07PNIOEPOE@?$CKchestg?$AA@ 200fd3a4     g_client.obj
 0002:0000d3ac       ??_C@_07JCDPMDF@?$CKblade1?$AA@ 200fd3ac     g_client.obj
 0002:0000d3b4       ??_C@_0O@JBDOHEEF@?2name?2badinfo?$AA@ 200fd3b4     g_client.obj
 0002:0000d3c4       ??_C@_02GIIHKPLE@ip?$AA@   200fd3c4     g_client.obj
 0002:0000d3c8       ??_C@_09IPAEKDAI@localhost?$AA@ 200fd3c8     g_client.obj
 0002:0000d3d4       ??_C@_0BA@PKAEEJJB@cg_predictItems?$AA@ 200fd3d4     g_client.obj
 0002:0000d3e4       ??_C@_0L@PGGJLCHO@scoreboard?$AA@ 200fd3e4     g_client.obj
 0002:0000d3f0       ??_C@_0N@DOJKODFO@NONAMECHANGE?$AA@ 200fd3f0     g_client.obj
 0002:0000d400       ??_C@_08MPGOGCGH@PLRENAME?$AA@ 200fd400     g_client.obj
 0002:0000d40c       ??_C@_0BE@NPKEBDLN@print?5?$CC?$CFs?$FO7?5?$CFs?5?$CFs?6?$CC?$AA@ 200fd40c     g_client.obj
 0002:0000d420       ??_C@_0P@FBLDEJO@char_color_red?$AA@ 200fd420     g_client.obj
 0002:0000d430       ??_C@_0BB@ECHDKGAH@char_color_green?$AA@ 200fd430     g_client.obj
 0002:0000d444       ??_C@_0BA@PDECLNK@char_color_blue?$AA@ 200fd444     g_client.obj
 0002:0000d454       ??_C@_01KDCPPGHE@r?$AA@    200fd454     g_client.obj
 0002:0000d458       ??_C@_01OJONOECF@b?$AA@    200fd458     g_client.obj
 0002:0000d45c       ??_C@_0M@IKKMOBIP@teamoverlay?$AA@ 200fd45c     g_client.obj
 0002:0000d468       ??_C@_08OKGPDOIO@teamtask?$AA@ 200fd468     g_client.obj
 0002:0000d474       ??_C@_09LPNHELAH@g_redteam?$AA@ 200fd474     g_client.obj
 0002:0000d480       ??_C@_0L@CPNMJIBN@g_blueteam?$AA@ 200fd480     g_client.obj
 0002:0000d490       ??_C@_0GM@NPDIBEID@n?2?$CFs?2t?2?$CFi?2model?2?$CFs?2c1?2?$CFs?2c2?2?$CFs?2h@ 200fd490     g_client.obj
 0002:0000d500       ??_C@_0HO@FAJFAHDC@n?2?$CFs?2t?2?$CFi?2model?2?$CFs?2g_redteam?2?$CFs?2@ 200fd500     g_client.obj
 0002:0000d580       ??_C@_0GJ@BBDNLAG@n?2?$CFs?2t?2?$CFi?2model?2?$CFs?2g_redteam?2?$CFs?2@ 200fd580     g_client.obj
 0002:0000d5ec       ??_C@_0BO@IFHBFKHP@ClientUserinfoChanged?3?5?$CFi?5?$CFs?6?$AA@ 200fd5ec     g_client.obj
 0002:0000d60c       ??_C@_07IAHJGILA@Banned?4?$AA@ 200fd60c     g_client.obj
 0002:0000d614       ??_C@_08NLHBPEGP@password?$AA@ 200fd614     g_client.obj
 0002:0000d620       ??_C@_0BH@CEGKALNF@INVALID_ESCAPE_TO_MAIN?$AA@ 200fd620     g_client.obj
 0002:0000d638       ??_C@_0BB@KINAMDJK@BotConnectfailed?$AA@ 200fd638     g_client.obj
 0002:0000d64c       ??_C@_0BD@LEMBFDEN@ClientConnect?3?5?$CFi?6?$AA@ 200fd64c     g_client.obj
 0002:0000d660       ??_C@_09FKMGKPLO@PLCONNECT?$AA@ 200fd660     g_client.obj
 0002:0000d66c       ??_C@_0BB@FFPEABPI@print?5?$CC?$CFs?$FO7?5?$CFs?6?$CC?$AA@ 200fd66c     g_client.obj
 0002:0000d680       ??_C@_06MEPEPBID@Katarn?$AA@ 200fd680     g_client.obj
 0002:0000d688       ??_C@_06DCJKKMHM@dual_1?$AA@ 200fd688     g_client.obj
 0002:0000d690       ??_C@_07EOLFFJKC@PLENTER?$AA@ 200fd690     g_client.obj
 0002:0000d698       ??_C@_0BB@JCCEPCGJ@ClientBegin?3?5?$CFi?6?$AA@ 200fd698     g_client.obj
 0002:0000d6ac       ??_C@_0CC@NJMNCFMP@sound?1player?1bodyfall_human?$CFi?4wa@ 200fd6ac     g_client.obj
 0002:0000d6d0       ??_C@_06EMGELNAF@Motion?$AA@ 200fd6d0     g_client.obj
 0002:0000d6d8       ??_C@_07MKKCJLCK@saber?$CFi?$AA@ 200fd6d8     g_client.obj
 0002:0000d6e0       ??_C@_06BALNJMNP@player?$AA@ 200fd6e0     g_client.obj
 0002:0000d6e8       ??_C@_0M@HDALJKN@g_jediVmerc?$AA@ 200fd6e8     g_client.obj
 0002:0000d6f4       ??_C@_0BG@PJMKPFGA@ClientDisconnect?3?5?$CFi?6?$AA@ 200fd6f4     g_client.obj
 0002:0000d70c       ??_C@_0N@GGGDBMDO@disconnected?$AA@ 200fd70c     g_client.obj
 0002:0000d720       __real@3ff4000000000000    200fd720     g_client.obj
 0002:0000d728       __real@41100000            200fd728     g_client.obj
 0002:0000d72c       ??_C@_0CL@EAFNPFGA@?5?$CFi?5?$CFi?5?$CFi?5?$CFi?5?$CFi?5?$CFi?5?$CFi?5?$CFi?5?$CFi?5?$CFi?5?$CF@ 200fd72c     g_cmds.obj
 0002:0000d758       ??_C@_0BC@BADCIGBJ@scores?5?$CFi?5?$CFi?5?$CFi?$CFs?$AA@ 200fd758     g_cmds.obj
 0002:0000d76c       ??_C@_08CAGLGEPK@NOCHEATS?$AA@ 200fd76c     g_cmds.obj
 0002:0000d778       ??_C@_0M@HJDNNOOD@MUSTBEALIVE?$AA@ 200fd778     g_cmds.obj
 0002:0000d784       ??_C@_0BN@FGLBNIJH@print?5?$CCBad?5client?5slot?3?5?$CFi?6?$CC?$AA@ 200fd784     g_cmds.obj
 0002:0000d7a4       ??_C@_0CB@IOMDOEKP@print?5?$CCClient?5?$CFi?5is?5not?5active?6?$CC@ 200fd7a4     g_cmds.obj
 0002:0000d7c8       ??_C@_0CG@OFMIDLCG@print?5?$CCUser?5?$CFs?5is?5not?5on?5the?5ser@ 200fd7c8     g_cmds.obj
 0002:0000d7f0       ??_C@_0EH@IGPFKLGG@giveother?5requires?5that?5the?5seco@ 200fd7f0     g_cmds.obj
 0002:0000d838       ??_C@_0BK@NNAEMDNK@?$CFi?5is?5not?5a?5client?5index?6?$AA@ 200fd838     g_cmds.obj
 0002:0000d854       ??_C@_0BM@FJJLMCGD@?$CFi?5is?5not?5an?5active?5client?6?$AA@ 200fd854     g_cmds.obj
 0002:0000d870       ??_C@_03NFKEKGGK@all?$AA@  200fd870     g_cmds.obj
 0002:0000d874       ??_C@_09GIANPGEP@weaponnum?$AA@ 200fd874     g_cmds.obj
 0002:0000d880       ??_C@_04PGKJFGNK@ammo?$AA@ 200fd880     g_cmds.obj
 0002:0000d888       ??_C@_09MBDMPFOO@excellent?$AA@ 200fd888     g_cmds.obj
 0002:0000d894       ??_C@_0L@GBLMIJON@impressive?$AA@ 200fd894     g_cmds.obj
 0002:0000d8a0       ??_C@_0O@DCIHIELO@gauntletaward?$AA@ 200fd8a0     g_cmds.obj
 0002:0000d8b0       ??_C@_06BMABBLML@defend?$AA@ 200fd8b0     g_cmds.obj
 0002:0000d8b8       ??_C@_06CHFMFANC@assist?$AA@ 200fd8b8     g_cmds.obj
 0002:0000d8c0       ??_C@_0N@POKEKLLJ@godmode?5OFF?6?$AA@ 200fd8c0     g_cmds.obj
 0002:0000d8d0       ??_C@_0M@MCLKHHDH@godmode?5ON?6?$AA@ 200fd8d0     g_cmds.obj
 0002:0000d8dc       ??_C@_0L@GPCEIOHM@print?5?$CC?$CFs?$CC?$AA@ 200fd8dc     g_cmds.obj
 0002:0000d8e8       ??_C@_0O@FBINJHBB@notarget?5OFF?6?$AA@ 200fd8e8     g_cmds.obj
 0002:0000d8f8       ??_C@_0N@OBJNJDJO@notarget?5ON?6?$AA@ 200fd8f8     g_cmds.obj
 0002:0000d908       ??_C@_0M@MIKGJGLH@noclip?5OFF?6?$AA@ 200fd908     g_cmds.obj
 0002:0000d914       ??_C@_0L@MDMNIPJN@noclip?5ON?6?$AA@ 200fd914     g_cmds.obj
 0002:0000d920       ??_C@_0CP@EMMMGMNN@print?5?$CCMust?5be?5in?5g_gametype?50?5f@ 200fd920     g_cmds.obj
 0002:0000d950       ??_C@_0BA@HDFNEMIE@ATTEMPTDUELKILL?$AA@ 200fd950     g_cmds.obj
 0002:0000d960       ??_C@_0BB@ENKCBLGF@JOINEDTHEREDTEAM?$AA@ 200fd960     g_cmds.obj
 0002:0000d974       ??_C@_0O@DCNNJJMK@cp?5?$CC?$CFs?$FO7?5?$CFs?6?$CC?$AA@ 200fd974     g_cmds.obj
 0002:0000d984       ??_C@_0BC@BJBGMJJL@JOINEDTHEBLUETEAM?$AA@ 200fd984     g_cmds.obj
 0002:0000d998       ??_C@_0BE@CPHOGHGO@JOINEDTHESPECTATORS?$AA@ 200fd998     g_cmds.obj
 0002:0000d9ac       ??_C@_0BA@OPAFLHJM@JOINEDTHEBATTLE?$AA@ 200fd9ac     g_cmds.obj
 0002:0000d9bc       ??_C@_0BE@HKMOJLNI@setteam?3?5?5?$CFi?5?$CFs?5?$CFs?6?$AA@ 200fd9bc     g_cmds.obj
 0002:0000d9d0       ??_C@_05DBKDOICH@score?$AA@ 200fd9d0     g_cmds.obj
 0002:0000d9d8       ??_C@_07CGPFHOPJ@follow1?$AA@ 200fd9d8     g_cmds.obj
 0002:0000d9e0       ??_C@_07NNICNDK@follow2?$AA@ 200fd9e0     g_cmds.obj
 0002:0000d9e8       ??_C@_0L@OBHABNBK@TOOMANYRED?$AA@ 200fd9e8     g_cmds.obj
 0002:0000d9f4       ??_C@_0M@HAIBCDGI@TOOMANYBLUE?$AA@ 200fd9f4     g_cmds.obj
 0002:0000da00       ??_C@_0O@MGKOAHC@PRINTBLUETEAM?$AA@ 200fda00     g_cmds.obj
 0002:0000da10       ??_C@_0N@OLKGLLDI@PRINTREDTEAM?$AA@ 200fda10     g_cmds.obj
 0002:0000da20       ??_C@_0O@FPGJAOKJ@PRINTFREETEAM?$AA@ 200fda20     g_cmds.obj
 0002:0000da30       ??_C@_0O@CNECONPH@PRINTSPECTEAM?$AA@ 200fda30     g_cmds.obj
 0002:0000da40       ??_C@_08KHFNHMLJ@NOSWITCH?$AA@ 200fda40     g_cmds.obj
 0002:0000da4c       ??_C@_0CF@FCNNJGFE@print?5?$CCCannot?5switch?5teams?5in?5Du@ 200fda4c     g_cmds.obj
 0002:0000da74       ??_C@_0CL@ICLDEEAC@print?5?$CCCannot?5switch?5teams?5in?5Po@ 200fda74     g_cmds.obj
 0002:0000daa0       ??_C@_0O@CJDGLDP@print?5?$CCNone?6?$CC?$AA@ 200fdaa0     g_cmds.obj
 0002:0000dab0       ??_C@_0BA@OOACLMEK@print?5?$CCSingle?6?$CC?$AA@ 200fdab0     g_cmds.obj
 0002:0000dac0       ??_C@_0BA@NFNIMDPC@print?5?$CCDouble?6?$CC?$AA@ 200fdac0     g_cmds.obj
 0002:0000dad0       ??_C@_04LIAPHEDB@free?$AA@ 200fdad0     g_cmds.obj
 0002:0000dad8       ??_C@_06EJFMBPJF@single?$AA@ 200fdad8     g_cmds.obj
 0002:0000dae0       ??_C@_06BNJCAIGJ@double?$AA@ 200fdae0     g_cmds.obj
 0002:0000dae8       ??_C@_0CF@ELCLKFEP@print?5?$CC?8?$CFs?8?5not?5a?5valid?5duel?5tea@ 200fdae8     g_cmds.obj
 0002:0000db10       ??_C@_0O@BMHMPEML@NOCLASSSWITCH?$AA@ 200fdb10     g_cmds.obj
 0002:0000db20       ??_C@_0M@HNCFKAFM@NOCLASSTEAM?$AA@ 200fdb20     g_cmds.obj
 0002:0000db2c       ??_C@_0BC@MPMNNJPF@FORCEPOWERCHANGED?$AA@ 200fdb2c     g_cmds.obj
 0002:0000db40       ??_C@_02ILOMHBCG@?$FO2?$AA@ 200fdb40     g_cmds.obj
 0002:0000db44       ??_C@_0P@IAEIDNPE@print?5?$CC?$CFs?$CFs?6?6?$CC?$AA@ 200fdb44     g_cmds.obj
 0002:0000db54       ??_C@_0BO@KJIMFOBJ@Cmd_FollowCycle_f?3?5bad?5dir?5?$CFi?$AA@ 200fdb54     g_cmds.obj
 0002:0000db74       ??_C@_06JMHAIGFD@ltchat?$AA@ 200fdb74     g_cmds.obj
 0002:0000db7c       ??_C@_05BDENFOOJ@lchat?$AA@ 200fdb7c     g_cmds.obj
 0002:0000db84       ??_C@_0BH@BEJBMMCB@?$CFs?5?$CC?$CFs?$CC?5?$CC?$CFs?$CC?5?$CC?$CFc?$CC?5?$CC?$CFs?$CC?$AA@ 200fdb84     g_cmds.obj
 0002:0000db9c       ??_C@_05PMMINOBP@tchat?$AA@ 200fdb9c     g_cmds.obj
 0002:0000dba4       ??_C@_04BLJLMHHG@chat?$AA@ 200fdba4     g_cmds.obj
 0002:0000dbac       ??_C@_0O@CCPEDGNK@?$CFs?5?$CC?$CFs?$CFc?$CFc?$CFs?$CC?$AA@ 200fdbac     g_cmds.obj
 0002:0000dbbc       ??_C@_0N@PIPLJLA@say?3?5?$CFs?3?5?$CFs?6?$AA@ 200fdbbc     g_cmds.obj
 0002:0000dbcc       ??_C@_09GPHNFPKO@?$CFs?$CFc?$CFc?$BJ?3?5?$AA@ 200fdbcc     g_cmds.obj
 0002:0000dbd8       ??_C@_0BB@OADDLILN@sayteam?3?5?$CFs?3?5?$CFs?6?$AA@ 200fdbd8     g_cmds.obj
 0002:0000dbec       ??_C@_0O@FGLMEIPO@?$BJ?$CI?$CFs?$CFc?$CFc?$BJ?$CJ?$BJ?3?5?$AA@ 200fdbec     g_cmds.obj
 0002:0000dbfc       ??_C@_0O@FNNABOLL@?$BJ?$FL?$CFs?$CFc?$CFc?$BJ?$FN?$BJ?3?5?$AA@ 200fdbfc     g_cmds.obj
 0002:0000dc0c       ??_C@_05JMJKDBEJ@?$CFs?$CFs?6?$AA@ 200fdc0c     g_cmds.obj
 0002:0000dc14       ??_C@_0BE@DNAOGBCN@tell?3?5?$CFs?5to?5?$CFs?3?5?$CFs?6?$AA@ 200fdc14     g_cmds.obj
 0002:0000dc28       ??_C@_0BC@EJMMBHCM@NOVOICECHATASSPEC?$AA@ 200fdc28     g_cmds.obj
 0002:0000dc3c       ??_C@_0BD@BEPMJBOM@hold?5your?5position?$AA@ 200fdc3c     g_cmds.obj
 0002:0000dc50       ??_C@_0BD@BGOJJIFC@hold?5this?5position?$AA@ 200fdc50     g_cmds.obj
 0002:0000dc64       ??_C@_09NKPGKNPA@come?5here?$AA@ 200fdc64     g_cmds.obj
 0002:0000dc70       ??_C@_08NJPHEENP@cover?5me?$AA@ 200fdc70     g_cmds.obj
 0002:0000dc7c       ??_C@_0P@BDHIOPIB@guard?5location?$AA@ 200fdc7c     g_cmds.obj
 0002:0000dc8c       ??_C@_0BD@JFEBCONJ@search?5and?5destroy?$AA@ 200fdc8c     g_cmds.obj
 0002:0000dca0       ??_C@_06MHOMHIDM@report?$AA@ 200fdca0     g_cmds.obj
 0002:0000dca8       ??_C@_0N@PCEMCJC@Free?5For?5All?$AA@ 200fdca8     g_cmds.obj
 0002:0000dcb8       ??_C@_0N@BBLBINLJ@Holocron?5FFA?$AA@ 200fdcb8     g_cmds.obj
 0002:0000dcc8       ??_C@_0M@EBAJNKPF@Jedi?5Master?$AA@ 200fdcc8     g_cmds.obj
 0002:0000dcd4       ??_C@_04EPBLILKF@Duel?$AA@ 200fdcd4     g_cmds.obj
 0002:0000dcdc       ??_C@_0L@MKHOILHK@Power?5Duel?$AA@ 200fdcdc     g_cmds.obj
 0002:0000dce8       ??_C@_0O@NNAOEDOE@Single?5Player?$AA@ 200fdce8     g_cmds.obj
 0002:0000dcf8       ??_C@_08NFCDKJPC@Team?5FFA?$AA@ 200fdcf8     g_cmds.obj
 0002:0000dd04       ??_C@_05JOPHEEP@Siege?$AA@ 200fdd04     g_cmds.obj
 0002:0000dd0c       ??_C@_0BB@OOIHNFAG@Capture?5the?5Flag?$AA@ 200fdd0c     g_cmds.obj
 0002:0000dd20       ??_C@_0BG@BKPINHAJ@Capture?5the?5Ysalamiri?$AA@ 200fdd20     g_cmds.obj
 0002:0000dd38       ??_C@_06BKDGNJDA@NOVOTE?$AA@ 200fdd38     g_cmds.obj
 0002:0000dd40       ??_C@_0P@LNNCCPC@VOTEINPROGRESS?$AA@ 200fdd40     g_cmds.obj
 0002:0000dd50       ??_C@_08GAPKJHJJ@MAXVOTES?$AA@ 200fdd50     g_cmds.obj
 0002:0000dd5c       ??_C@_0L@GMGOMDJC@NOSPECVOTE?$AA@ 200fdd5c     g_cmds.obj
 0002:0000dd68       ??_C@_0BO@PMPHENKD@print?5?$CCInvalid?5vote?5string?4?6?$CC?$AA@ 200fdd68     g_cmds.obj
 0002:0000dd88       ??_C@_0M@NBIMEKNE@map_restart?$AA@ 200fdd88     g_cmds.obj
 0002:0000dd94       ??_C@_0L@GFINLBEC@g_gametype?$AA@ 200fdd94     g_cmds.obj
 0002:0000dda0       ??_C@_04FNIJDBCC@kick?$AA@ 200fdda0     g_cmds.obj
 0002:0000dda8       ??_C@_0L@NBDAICFL@clientkick?$AA@ 200fdda8     g_cmds.obj
 0002:0000ddb4       ??_C@_0L@LPENDGCI@g_doWarmup?$AA@ 200fddb4     g_cmds.obj
 0002:0000ddc0       ??_C@_09KPHKOKCC@timelimit?$AA@ 200fddc0     g_cmds.obj
 0002:0000ddcc       ??_C@_09GCIEGDDN@fraglimit?$AA@ 200fddcc     g_cmds.obj
 0002:0000ddd8       ??_C@_0KJ@BAKDCPAJ@print?5?$CCVote?5commands?5are?3?5map_re@ 200fddd8     g_cmds.obj
 0002:0000de84       ??_C@_03OFAPEBGM@?$CFs?6?$AA@ 200fde84     g_cmds.obj
 0002:0000de88       ??_C@_0BL@HOKFFIC@print?5?$CCInvalid?5gametype?4?6?$CC?$AA@ 200fde88     g_cmds.obj
 0002:0000dea4       ??_C@_05DIALNFFA@?$CFs?5?$CFd?$AA@ 200fdea4     g_cmds.obj
 0002:0000deac       ??_C@_05DNIIFBMG@?$CFs?5?$CFs?$AA@ 200fdeac     g_cmds.obj
 0002:0000deb4       ??_C@_0BN@DDNEJHJ@NOVOTE_MAPNOTSUPPORTEDBYGAME?$AA@ 200fdeb4     g_cmds.obj
 0002:0000ded4       ??_C@_0BI@EHIPCLJD@?$CFs?5?$CFs?$DL?5set?5nextmap?5?$CC?$CFs?$CC?$AA@ 200fded4     g_cmds.obj
 0002:0000deec       ??_C@_08JJAPLNHH@longname?$AA@ 200fdeec     g_cmds.obj
 0002:0000def8       ??_C@_05MBDEGLCK@ERROR?$AA@ 200fdef8     g_cmds.obj
 0002:0000df00       ??_C@_0CD@EDBOGCHD@print?5?$CCinvalid?5client?5number?5?$CFd?4@ 200fdf00     g_cmds.obj
 0002:0000df24       ??_C@_0DH@DKINEMBE@print?5?$CCthere?5is?5no?5client?5with?5t@ 200fdf24     g_cmds.obj
 0002:0000df5c       ??_C@_07PDFGKPOF@kick?5?$CFs?$AA@ 200fdf5c     g_cmds.obj
 0002:0000df68       ??_C@_0EA@JHCLLCKN@print?5?$CCthere?5is?5no?5client?5named?5@ 200fdf68     g_cmds.obj
 0002:0000dfa8       ??_C@_0O@NAKAIOHD@clientkick?5?$CFd?$AA@ 200fdfa8     g_cmds.obj
 0002:0000dfb8       ??_C@_0BK@IOHPLFMM@print?5?$CCnextmap?5not?5set?4?6?$CC?$AA@ 200fdfb8     g_cmds.obj
 0002:0000dfd4       ??_C@_0N@NPFCFAAA@vstr?5nextmap?$AA@ 200fdfd4     g_cmds.obj
 0002:0000dfe4       ??_C@_02DKCKIIND@?$CFs?$AA@ 200fdfe4     g_cmds.obj
 0002:0000dfe8       ??_C@_07CMIPDAGF@?$CFs?5?$CC?$CFs?$CC?$AA@ 200fdfe8     g_cmds.obj
 0002:0000dff0       ??_C@_0N@KEELBNDE@PLCALLEDVOTE?$AA@ 200fdff0     g_cmds.obj
 0002:0000e000       ??_C@_0N@DNEGNLDF@NOVOTEINPROG?$AA@ 200fe000     g_cmds.obj
 0002:0000e010       ??_C@_0M@LOKNBEMN@VOTEALREADY?$AA@ 200fe010     g_cmds.obj
 0002:0000e01c       ??_C@_0N@DFLDHGJO@NOVOTEASSPEC?$AA@ 200fe01c     g_cmds.obj
 0002:0000e02c       ??_C@_0L@JNGMNPKH@PLVOTECAST?$AA@ 200fe02c     g_cmds.obj
 0002:0000e038       ??_C@_0BA@OKMADPLA@TEAMVOTEALREADY?$AA@ 200fe038     g_cmds.obj
 0002:0000e048       ??_C@_0N@CEFMMENN@MAXTEAMVOTES?$AA@ 200fe048     g_cmds.obj
 0002:0000e058       ??_C@_06DFLPLEOP@leader?$AA@ 200fe058     g_cmds.obj
 0002:0000e060       ??_C@_0DA@BDICJJF@print?5?$CC?$CFs?5is?5not?5a?5valid?5player?5@ 200fe060     g_cmds.obj
 0002:0000e090       ??_C@_0DC@JMKMFJGE@print?5?$CCTeam?5vote?5commands?5are?3?5l@ 200fe090     g_cmds.obj
 0002:0000e0c4       ??_C@_0CA@ENAIANHJ@print?5?$CC?$CFs?5called?5a?5team?5vote?4?6?$CC?$AA@ 200fe0c4     g_cmds.obj
 0002:0000e0e4       ??_C@_0BB@ENJPDDMP@NOTEAMVOTEINPROG?$AA@ 200fe0e4     g_cmds.obj
 0002:0000e0f8       ??_C@_0BE@DFLGCFGH@TEAMVOTEALREADYCAST?$AA@ 200fe0f8     g_cmds.obj
 0002:0000e10c       ??_C@_0P@CFKEACHA@PLTEAMVOTECAST?$AA@ 200fe10c     g_cmds.obj
 0002:0000e11c       ??_C@_0CF@GJFHLKOA@print?5?$CCusage?3?5setviewpos?5x?5y?5z?5y@ 200fe11c     g_cmds.obj
 0002:0000e148       ??_C@_0EB@FJEOABKD@print?5?$CCSABERSTANCEDEBUG?3?5Attempt@ 200fe148     g_cmds.obj
 0002:0000e190       ??_C@_0ED@MFKFDKKB@print?5?$CCSABERSTANCEDEBUG?3?5Attempt@ 200fe190     g_cmds.obj
 0002:0000e1d4       ??_C@_0DM@CFILFKNO@print?5?$CCSABERSTANCEDEBUG?3?5Attempt@ 200fe1d4     g_cmds.obj
 0002:0000e210       ??_C@_0EC@NNNMICGN@print?5?$CCSABERSTANCEDEBUG?3?5Attempt@ 200fe210     g_cmds.obj
 0002:0000e254       ??_C@_0DP@COGOMHHI@print?5?$CCSABERSTANCEDEBUG?3?5Attempt@ 200fe254     g_cmds.obj
 0002:0000e294       ??_C@_0BA@EMFPPJJG@NODUEL_GAMETYPE?$AA@ 200fe294     g_cmds.obj
 0002:0000e2a4       ??_C@_0BB@IHHKICJB@CANTDUEL_JUSTDID?$AA@ 200fe2a4     g_cmds.obj
 0002:0000e2b8       ??_C@_0O@JELJOHM@CANTDUEL_BUSY?$AA@ 200fe2b8     g_cmds.obj
 0002:0000e2c8       ??_C@_0N@HFLBPIIP@PLDUELACCEPT?$AA@ 200fe2c8     g_cmds.obj
 0002:0000e2d8       ??_C@_0BD@NOMAAPMF@print?5?$CC?$CFs?5?$CFs?5?$CFs?$CB?6?$CC?$AA@ 200fe2d8     g_cmds.obj
 0002:0000e2ec       ??_C@_0BA@HBPDMLPA@PLDUELCHALLENGE?$AA@ 200fe2ec     g_cmds.obj
 0002:0000e2fc       ??_C@_0BB@CJNJILNG@PLDUELCHALLENGED?$AA@ 200fe2fc     g_cmds.obj
 0002:0000e310       ??_C@_0BD@LDPBKJEC@Anim?5for?5move?3?5?$CFs?6?$AA@ 200fe310     g_cmds.obj
 0002:0000e324       ??_C@_0BP@OFHJNEPL@Animation?5?8?$CFs?8?5does?5not?5exist?6?$AA@ 200fe324     g_cmds.obj
 0002:0000e344       ??_C@_0BF@EOPEGIBC@Set?5body?5anim?5to?5?$CFs?6?$AA@ 200fe344     g_cmds.obj
 0002:0000e35c       ??_C@_04NHLBEKIN@bot_?$AA@ 200fe35c     g_cmds.obj
 0002:0000e364       ??_C@_03BANJEMDJ@say?$AA@  200fe364     g_cmds.obj
 0002:0000e368       ??_C@_08NBFNGOHN@say_team?$AA@ 200fe368     g_cmds.obj
 0002:0000e374       ??_C@_04LBPCFPDD@tell?$AA@ 200fe374     g_cmds.obj
 0002:0000e37c       ??_C@_09JLHFKJAF@voice_cmd?$AA@ 200fe37c     g_cmds.obj
 0002:0000e388       ??_C@_04BMBHJADG@give?$AA@ 200fe388     g_cmds.obj
 0002:0000e390       ??_C@_09DEEIHCPJ@giveother?$AA@ 200fe390     g_cmds.obj
 0002:0000e39c       ??_C@_03DKFAMNOH@god?$AA@  200fe39c     g_cmds.obj
 0002:0000e3a0       ??_C@_08HPLPOCJL@notarget?$AA@ 200fe3a0     g_cmds.obj
 0002:0000e3ac       ??_C@_06IHODGGMJ@noclip?$AA@ 200fe3ac     g_cmds.obj
 0002:0000e3b4       ??_C@_04BJJEOANI@kill?$AA@ 200fe3b4     g_cmds.obj
 0002:0000e3bc       ??_C@_09EFOFPGPE@levelshot?$AA@ 200fe3bc     g_cmds.obj
 0002:0000e3c8       ??_C@_06HNJAFFAK@follow?$AA@ 200fe3c8     g_cmds.obj
 0002:0000e3d0       ??_C@_0L@GBHEMAKD@follownext?$AA@ 200fe3d0     g_cmds.obj
 0002:0000e3dc       ??_C@_0L@FFKCNEMH@followprev?$AA@ 200fe3dc     g_cmds.obj
 0002:0000e3e8       ??_C@_08MDJNPNKN@duelteam?$AA@ 200fe3e8     g_cmds.obj
 0002:0000e3f4       ??_C@_0L@MIIDNALC@siegeclass?$AA@ 200fe3f4     g_cmds.obj
 0002:0000e400       ??_C@_0N@GENKAHPG@forcechanged?$AA@ 200fe400     g_cmds.obj
 0002:0000e410       ??_C@_05LCFPHLEE@where?$AA@ 200fe410     g_cmds.obj
 0002:0000e418       ??_C@_08NNMLCPB@callvote?$AA@ 200fe418     g_cmds.obj
 0002:0000e424       ??_C@_04GHHIKFLG@vote?$AA@ 200fe424     g_cmds.obj
 0002:0000e42c       ??_C@_0N@JDBKAFAM@callteamvote?$AA@ 200fe42c     g_cmds.obj
 0002:0000e43c       ??_C@_08OLLMCBNG@teamvote?$AA@ 200fe43c     g_cmds.obj
 0002:0000e448       ??_C@_02DPGMDCM@gc?$AA@    200fe448     g_cmds.obj
 0002:0000e44c       ??_C@_0L@CCEFBCKP@setviewpos?$AA@ 200fe44c     g_cmds.obj
 0002:0000e458       ??_C@_05BLKJBNOD@stats?$AA@ 200fe458     g_cmds.obj
 0002:0000e460       ??_C@_0BJ@EDEBLPIH@CANNOT_TASK_INTERMISSION?$AA@ 200fe460     g_cmds.obj
 0002:0000e47c       ??_C@_0BC@IKOGLIOK@print?5?$CC?$CFs?5?$CI?$CFs?$CJ?5?6?$CC?$AA@ 200fe47c     g_cmds.obj
 0002:0000e490       ??_C@_05HGBBFANE@t_use?$AA@ 200fe490     g_cmds.obj
 0002:0000e498       ??_C@_03BCJIDNJL@NPC?$AA@  200fe498     g_cmds.obj
 0002:0000e49c       ??_C@_09FGJHPKEH@killother?$AA@ 200fe49c     g_cmds.obj
 0002:0000e4a8       ??_C@_0N@GJLBDMLG@thedestroyer?$AA@ 200fe4a8     g_cmds.obj
 0002:0000e4b8       ??_C@_0BD@LJJDOGJN@debugBMove_Forward?$AA@ 200fe4b8     g_cmds.obj
 0002:0000e4cc       ??_C@_0BA@FMMNPADA@debugBMove_Back?$AA@ 200fe4cc     g_cmds.obj
 0002:0000e4dc       ??_C@_0BB@NDFECBPK@debugBMove_Right?$AA@ 200fe4dc     g_cmds.obj
 0002:0000e4f0       ??_C@_0BA@KHAOBFHD@debugBMove_Left?$AA@ 200fe4f0     g_cmds.obj
 0002:0000e500       ??_C@_0O@LFEDKAGB@debugBMove_Up?$AA@ 200fe500     g_cmds.obj
 0002:0000e510       ??_C@_0BC@EEONCMNF@debugSetSaberMove?$AA@ 200fe510     g_cmds.obj
 0002:0000e524       ??_C@_0BB@JEJBPFMP@debugSetBodyAnim?$AA@ 200fe524     g_cmds.obj
 0002:0000e538       ??_C@_0BD@JFBEOEDN@debugDismemberment?$AA@ 200fe538     g_cmds.obj
 0002:0000e54c       ??_C@_0P@DGMAALA@debugDropSaber?$AA@ 200fe54c     g_cmds.obj
 0002:0000e55c       ??_C@_0BB@BANCIAIP@debugKnockMeDown?$AA@ 200fe55c     g_cmds.obj
 0002:0000e570       ??_C@_0BB@OGONOEHD@debugSaberSwitch?$AA@ 200fe570     g_cmds.obj
 0002:0000e584       ??_C@_0M@LKMCCBJB@debugIKGrab?$AA@ 200fe584     g_cmds.obj
 0002:0000e590       ??_C@_0BD@LIJJHJCA@debugIKBeGrabbedBy?$AA@ 200fe590     g_cmds.obj
 0002:0000e5a4       ??_C@_0P@FABPOPEO@debugIKRelease?$AA@ 200fe5a4     g_cmds.obj
 0002:0000e5b4       ??_C@_0L@EHBBFNHG@debugThrow?$AA@ 200fe5b4     g_cmds.obj
 0002:0000e5c0       ??_C@_0CD@PBPAMPHJ@sound?1movers?1objects?1objectHit?4w@ 200fe5c0     g_cmds.obj
 0002:0000e5e4       ??_C@_0BA@KCBFDKNA@debugShipDamage?$AA@ 200fe5e4     g_cmds.obj
 0002:0000e5f4       ??_C@_06CJHCPEHG@addbot?$AA@ 200fe5f4     g_cmds.obj
 0002:0000e5fc       ??_C@_0BI@EPMKDBE@ONLY_ADD_BOTS_AS_SERVER?$AA@ 200fe5fc     g_cmds.obj
 0002:0000e614       ??_C@_0N@GJHJILLH@print?5?$CC?$CFs?4?6?$CC?$AA@ 200fe614     g_cmds.obj
 0002:0000e624       ??_C@_0BI@FJNBDMBJ@print?5?$CCunknown?5cmd?5?$CFs?6?$CC?$AA@ 200fe624     g_cmds.obj
 0002:0000e63c       ??_C@_0M@BKDMLGAO@MOD_UNKNOWN?$AA@ 200fe63c     g_combat.obj
 0002:0000e648       ??_C@_0P@MMJDLCJM@MOD_STUN_BATON?$AA@ 200fe648     g_combat.obj
 0002:0000e658       ??_C@_09HBIFPGD@MOD_MELEE?$AA@ 200fe658     g_combat.obj
 0002:0000e664       ??_C@_09COBIGJON@MOD_SABER?$AA@ 200fe664     g_combat.obj
 0002:0000e670       ??_C@_0BB@FAIIIKMO@MOD_BRYAR_PISTOL?$AA@ 200fe670     g_combat.obj
 0002:0000e684       ??_C@_0BF@NMLNMPGC@MOD_BRYAR_PISTOL_ALT?$AA@ 200fe684     g_combat.obj
 0002:0000e69c       ??_C@_0M@LMPLBFJN@MOD_BLASTER?$AA@ 200fe69c     g_combat.obj
 0002:0000e6a8       ??_C@_0N@KMHHOLAJ@MOD_TURBLAST?$AA@ 200fe6a8     g_combat.obj
 0002:0000e6b8       ??_C@_0O@MDCOMFAN@MOD_DISRUPTOR?$AA@ 200fe6b8     g_combat.obj
 0002:0000e6c8       ??_C@_0BF@EALPPLAJ@MOD_DISRUPTOR_SPLASH?$AA@ 200fe6c8     g_combat.obj
 0002:0000e6e0       ??_C@_0BF@PBKAACHB@MOD_DISRUPTOR_SNIPER?$AA@ 200fe6e0     g_combat.obj
 0002:0000e6f8       ??_C@_0O@CKLJOKML@MOD_BOWCASTER?$AA@ 200fe6f8     g_combat.obj
 0002:0000e708       ??_C@_0N@PIOKJJGB@MOD_REPEATER?$AA@ 200fe708     g_combat.obj
 0002:0000e718       ??_C@_0BB@FIBDPJOH@MOD_REPEATER_ALT?$AA@ 200fe718     g_combat.obj
 0002:0000e72c       ??_C@_0BI@KHCHNPBE@MOD_REPEATER_ALT_SPLASH?$AA@ 200fe72c     g_combat.obj
 0002:0000e744       ??_C@_09OCDIOHGE@MOD_DEMP2?$AA@ 200fe744     g_combat.obj
 0002:0000e750       ??_C@_0O@HPMOBCGI@MOD_DEMP2_ALT?$AA@ 200fe750     g_combat.obj
 0002:0000e760       ??_C@_0O@PEIJDOBJ@MOD_FLECHETTE?$AA@ 200fe760     g_combat.obj
 0002:0000e770       ??_C@_0BJ@JKADNFCE@MOD_FLECHETTE_ALT_SPLASH?$AA@ 200fe770     g_combat.obj
 0002:0000e78c       ??_C@_0L@FIOJJPEO@MOD_ROCKET?$AA@ 200fe78c     g_combat.obj
 0002:0000e798       ??_C@_0BC@KJDNONBC@MOD_ROCKET_SPLASH?$AA@ 200fe798     g_combat.obj
 0002:0000e7ac       ??_C@_0BC@FFNGLINL@MOD_ROCKET_HOMING?$AA@ 200fe7ac     g_combat.obj
 0002:0000e7c0       ??_C@_0BJ@NPHPHGIN@MOD_ROCKET_HOMING_SPLASH?$AA@ 200fe7c0     g_combat.obj
 0002:0000e7dc       ??_C@_0M@KKMIONJC@MOD_THERMAL?$AA@ 200fe7dc     g_combat.obj
 0002:0000e7e8       ??_C@_0BD@FDHKPAHB@MOD_THERMAL_SPLASH?$AA@ 200fe7e8     g_combat.obj
 0002:0000e7fc       ??_C@_0BF@MDPIBGNN@MOD_TRIP_MINE_SPLASH?$AA@ 200fe7fc     g_combat.obj
 0002:0000e814       ??_C@_0BG@NHEMKAKE@MOD_TIMED_MINE_SPLASH?$AA@ 200fe814     g_combat.obj
 0002:0000e82c       ??_C@_0BE@CLHJHBEF@MOD_DET_PACK_SPLASH?$AA@ 200fe82c     g_combat.obj
 0002:0000e840       ??_C@_0M@BLFBGBEL@MOD_VEHICLE?$AA@ 200fe840     g_combat.obj
 0002:0000e84c       ??_C@_08PGHOOCPG@MOD_CONC?$AA@ 200fe84c     g_combat.obj
 0002:0000e858       ??_C@_0N@NCLFMFFC@MOD_CONC_ALT?$AA@ 200fe858     g_combat.obj
 0002:0000e868       ??_C@_0P@IJFAOGGM@MOD_FORCE_DARK?$AA@ 200fe868     g_combat.obj
 0002:0000e878       ??_C@_0L@DCIPPFM@MOD_SENTRY?$AA@ 200fe878     g_combat.obj
 0002:0000e884       ??_C@_09MAPLCDLI@MOD_WATER?$AA@ 200fe884     g_combat.obj
 0002:0000e890       ??_C@_09KBJPPHD@MOD_SLIME?$AA@ 200fe890     g_combat.obj
 0002:0000e89c       ??_C@_08LEPCJCFO@MOD_LAVA?$AA@ 200fe89c     g_combat.obj
 0002:0000e8a8       ??_C@_09GPMGMMBL@MOD_CRUSH?$AA@ 200fe8a8     g_combat.obj
 0002:0000e8b4       ??_C@_0N@IMHJNLFF@MOD_TELEFRAG?$AA@ 200fe8b4     g_combat.obj
 0002:0000e8c4       ??_C@_0M@JONLOPJN@MOD_FALLING?$AA@ 200fe8c4     g_combat.obj
 0002:0000e8d0       ??_C@_0M@NECNIJDJ@MOD_SUICIDE?$AA@ 200fe8d0     g_combat.obj
 0002:0000e8dc       ??_C@_0BB@HMLMKPCA@MOD_TARGET_LASER?$AA@ 200fe8dc     g_combat.obj
 0002:0000e8f0       ??_C@_0BB@JHNHPELL@MOD_TRIGGER_HURT?$AA@ 200fe8f0     g_combat.obj
 0002:0000e904       ??_C@_0L@EGKMHJKB@right?5foot?$AA@ 200fe904     g_combat.obj
 0002:0000e910       ??_C@_09LFLKLKPJ@left?5foot?$AA@ 200fe910     g_combat.obj
 0002:0000e91c       ??_C@_09DIFMICDA@right?5leg?$AA@ 200fe91c     g_combat.obj
 0002:0000e928       ??_C@_08JHOOJCCC@left?5leg?$AA@ 200fe928     g_combat.obj
 0002:0000e934       ??_C@_05KHICOPKK@waist?$AA@ 200fe934     g_combat.obj
 0002:0000e93c       ??_C@_0BE@PCBICGBO@back?5right?5shoulder?$AA@ 200fe93c     g_combat.obj
 0002:0000e950       ??_C@_0BD@NNOJNAAF@back?5left?5shoulder?$AA@ 200fe950     g_combat.obj
 0002:0000e964       ??_C@_04JFCNHLLM@back?$AA@ 200fe964     g_combat.obj
 0002:0000e96c       ??_C@_0BE@MOIKECPN@front?5right?5shouler?$AA@ 200fe96c     g_combat.obj
 0002:0000e980       ??_C@_0BE@NDAPDMBK@front?5left?5shoulder?$AA@ 200fe980     g_combat.obj
 0002:0000e994       ??_C@_05HIADHCOO@chest?$AA@ 200fe994     g_combat.obj
 0002:0000e99c       ??_C@_09CJLAAHJC@right?5arm?$AA@ 200fe99c     g_combat.obj
 0002:0000e9a8       ??_C@_08IGACBHIA@left?5arm?$AA@ 200fe9a8     g_combat.obj
 0002:0000e9b4       ??_C@_0L@FCEDMIJF@right?5hand?$AA@ 200fe9b4     g_combat.obj
 0002:0000e9c0       ??_C@_09KBFFALMN@left?5hand?$AA@ 200fe9c0     g_combat.obj
 0002:0000e9cc       ??_C@_08HDLPHJFP@generic1?$AA@ 200fe9cc     g_combat.obj
 0002:0000e9d8       ??_C@_08FIJCCKJM@generic2?$AA@ 200fe9d8     g_combat.obj
 0002:0000e9e4       ??_C@_08EBIJBLNN@generic3?$AA@ 200fe9e4     g_combat.obj
 0002:0000e9f0       ??_C@_08OMIINBK@generic4?$AA@ 200fe9f0     g_combat.obj
 0002:0000e9fc       ??_C@_08BHNDLMFL@generic5?$AA@ 200fe9fc     g_combat.obj
 0002:0000ea08       ??_C@_08DMPOOPJI@generic6?$AA@ 200fea08     g_combat.obj
 0002:0000ea14       ??_C@_0BC@INALMPEJ@env?1small_explode?$AA@ 200fea14     g_combat.obj
 0002:0000ea28       ??_C@_0BO@GMFJMHOB@sound?1chars?1mouse?1misc?1death1?$AA@ 200fea28     g_combat.obj
 0002:0000ea48       ??_C@_0BL@CINMKFOA@explosions?1probeexplosion1?$AA@ 200fea48     g_combat.obj
 0002:0000ea64       ??_C@_0BL@GGKGCEDF@explosions?1droidexplosion1?$AA@ 200fea64     g_combat.obj
 0002:0000ea80       ??_C@_0CC@JIJANKFO@sound?1chars?1gonk?1misc?1death?$CFd?4wa@ 200fea80     g_combat.obj
 0002:0000eaa4       ??_C@_0BA@LPFGBOPK@env?1med_explode?$AA@ 200feaa4     g_combat.obj
 0002:0000eab4       ??_C@_0CD@ELMECENL@sound?1chars?1mark2?1misc?1mark2_exp@ 200feab4     g_combat.obj
 0002:0000ead8       ??_C@_0CO@IKNMFJIB@sound?1chars?1interrogator?1misc?1in@ 200fead8     g_combat.obj
 0002:0000eb08       ??_C@_0CD@GGBNKFJB@sound?1chars?1mark1?1misc?1mark1_exp@ 200feb08     g_combat.obj
 0002:0000eb2c       ??_C@_0CF@FGKOJGOE@sound?1chars?1sentry?1misc?1sentry_e@ 200feb2c     g_combat.obj
 0002:0000eb54       ??_C@_09PCJIFGLC@gloatTime?$AA@ 200feb54     g_combat.obj
 0002:0000eb60       ??_C@_0BE@JKDIMAEB@chunks?1r2d2head_veh?$AA@ 200feb60     g_combat.obj
 0002:0000eb74       ??_C@_0BE@OOKACJMO@chunks?1r5d2head_veh?$AA@ 200feb74     g_combat.obj
 0002:0000eb88       ??_C@_0N@HGAIBNNB@?$DMnon?9client?$DO?$AA@ 200feb88     g_combat.obj
 0002:0000eb98       ??_C@_07GECLLGBL@?$DMworld?$DO?$AA@ 200feb98     g_combat.obj
 0002:0000eba0       ??_C@_0P@BDPEDPJP@?$DMbad?5obituary?$DO?$AA@ 200feba0     g_combat.obj
 0002:0000ebb0       ??_C@_0CE@HGPMHBOH@Kill?3?5?$CFi?5?$CFi?5?$CFi?3?5?$CFs?5killed?5?$CFs?5by?5@ 200febb0     g_combat.obj
 0002:0000ebd4       ??_C@_0BE@GLFPHGFP@Duel?5Kill?5Details?3?6?$AA@ 200febd4     g_combat.obj
 0002:0000ebe8       ??_C@_0P@LFIHIEFJ@Kill?5Time?3?5?$CFd?6?$AA@ 200febe8     g_combat.obj
 0002:0000ebf8       ??_C@_0BO@NONEOOBP@victim?3?5?$CFs?0?5hits?5on?5enemy?5?$CFd?6?$AA@ 200febf8     g_combat.obj
 0002:0000ec18       ??_C@_0CK@MEICJNLI@killer?3?5?$CFs?0?5hits?5on?5enemy?5?$CFd?0?5he@ 200fec18     g_combat.obj
 0002:0000ec44       ??_C@_0CO@OPIBPCIK@killer?5saber?5style?3?5?$CFd?0?5killer?5s@ 200fec44     g_combat.obj
 0002:0000ec74       ??_C@_07LAEDECAM@rradius?$AA@ 200fec74     g_combat.obj
 0002:0000ec7c       ??_C@_05GBNHBGPF@rhand?$AA@ 200fec7c     g_combat.obj
 0002:0000ec84       ??_C@_06IANLMJDK@ltibia?$AA@ 200fec84     g_combat.obj
 0002:0000ec8c       ??_C@_06LHDKCOKJ@rtibia?$AA@ 200fec8c     g_combat.obj
 0002:0000ec94       ??_C@_0P@PJCLBOLM@torso_cap_head?$AA@ 200fec94     g_combat.obj
 0002:0000eca4       ??_C@_05LAAIDIGB@torso?$AA@ 200feca4     g_combat.obj
 0002:0000ecac       ??_C@_0P@HDEGEHBA@hips_cap_torso?$AA@ 200fecac     g_combat.obj
 0002:0000ecbc       ??_C@_0N@CPIELHKO@?$CFs_cap_l_arm?$AA@ 200fecbc     g_combat.obj
 0002:0000eccc       ??_C@_0N@BGFINEEF@?$CFs_cap_r_arm?$AA@ 200feccc     g_combat.obj
 0002:0000ecdc       ??_C@_0O@EKMLGHDB@?$CFs_cap_r_hand?$AA@ 200fecdc     g_combat.obj
 0002:0000ecec       ??_C@_05JOBIHFHH@l_leg?$AA@ 200fecec     g_combat.obj
 0002:0000ecf4       ??_C@_04IGFCMOIC@hips?$AA@ 200fecf4     g_combat.obj
 0002:0000ecfc       ??_C@_0N@DOGIDCAM@?$CFs_cap_l_leg?$AA@ 200fecfc     g_combat.obj
 0002:0000ed0c       ??_C@_05KHMEBGJM@r_leg?$AA@ 200fed0c     g_combat.obj
 0002:0000ed14       ??_C@_0N@HLEFBOH@?$CFs_cap_r_leg?$AA@ 200fed14     g_combat.obj
 0002:0000ed24       ??_C@_0L@MLMKFLFJ@playerlimb?$AA@ 200fed24     g_combat.obj
 0002:0000ed30       ??_C@_0N@BNEPHBPB@?$CKhips_l_knee?$AA@ 200fed30     g_combat.obj
 0002:0000ed40       ??_C@_0N@CKKOJGGC@?$CKhips_r_knee?$AA@ 200fed40     g_combat.obj
 0002:0000ed50       ??_C@_0M@LAGOICHM@torso_front?$AA@ 200fed50     g_combat.obj
 0002:0000ed5c       ??_C@_0O@DFENFDEF@torso_antenna?$AA@ 200fed5c     g_combat.obj
 0002:0000ed6c       ??_C@_0BD@EAFFOMNC@torso_antenna_base?$AA@ 200fed6c     g_combat.obj
 0002:0000ed80       ??_C@_02GMCDBJKD@w_?$AA@   200fed80     g_combat.obj
 0002:0000ed84       ??_C@_0BA@LMGOOAAO@?$CKhips_cap_r_leg?$AA@ 200fed84     g_combat.obj
 0002:0000ed94       ??_C@_0BA@IFLCIDOF@?$CKhips_cap_l_leg?$AA@ 200fed94     g_combat.obj
 0002:0000eda4       ??_C@_0BA@KLKCMOPD@?$CKhips_cap_torso?$AA@ 200feda4     g_combat.obj
 0002:0000edb4       ??_C@_0BB@HKNBMIAA@?$CKtorso_cap_r_arm?$AA@ 200fedb4     g_combat.obj
 0002:0000edc8       ??_C@_0BB@EDANKLOL@?$CKtorso_cap_l_arm?$AA@ 200fedc8     g_combat.obj
 0002:0000eddc       ??_C@_0BC@LCHBAINC@?$CKr_arm_cap_r_hand?$AA@ 200feddc     g_combat.obj
 0002:0000edf0       ??_C@_0BC@NDOFIOKK@?$CKl_arm_cap_l_hand?$AA@ 200fedf0     g_combat.obj
 0002:0000ee04       ??_C@_0BA@CBMPJHFP@?$CKtorso_cap_head?$AA@ 200fee04     g_combat.obj
 0002:0000ee14       ??_C@_0CK@FNJIBBCL@Duel?5Dismemberment?3?5?$CFs?5dismember@ 200fee14     g_combat.obj
 0002:0000ee40       ??_C@_0CM@LEIIGBFN@?$CFi?3?5client?3?$CFi?5health?3?$CFi?5damage?3?$CF@ 200fee40     g_combat.obj
 0002:0000ee6c       __real@3da3d70a            200fee6c     g_combat.obj
 0002:0000ee70       __real@3db851ec            200fee70     g_combat.obj
 0002:0000ee74       __real@3f99999a            200fee74     g_combat.obj
 0002:0000ee78       __real@3fb33333            200fee78     g_combat.obj
 0002:0000ee80       __real@3fb47ae147ae147b    200fee80     g_combat.obj
 0002:0000ee88       __real@3fd54fdf3b645a1d    200fee88     g_combat.obj
 0002:0000ee90       __real@3fe54fdf3b645a1d    200fee90     g_combat.obj
 0002:0000ee98       __real@3feb333333333333    200fee98     g_combat.obj
 0002:0000eea0       __real@402e000000000000    200feea0     g_combat.obj
 0002:0000eea8       __real@46800000            200feea8     g_combat.obj
 0002:0000eeac       __real@46c35000            200feeac     g_combat.obj
 0002:0000eeb0       __real@becccccd            200feeb0     g_combat.obj
 0002:0000eeb8       __real@bfb999999999999a    200feeb8     g_combat.obj
 0002:0000eec0       __real@bfd3333333333333    200feec0     g_combat.obj
 0002:0000eec8       __real@bfd54fdf3b645a1d    200feec8     g_combat.obj
 0002:0000eed0       __real@bfd999999999999a    200feed0     g_combat.obj
 0002:0000eed8       __real@bfe54fdf3b645a1d    200feed8     g_combat.obj
 0002:0000eee0       __real@c1200000            200feee0     g_combat.obj
 0002:0000eee4       __real@c1a00000            200feee4     g_combat.obj
 0002:0000eee8       ??_C@_0BA@POKGNIDK@SET_SPAWNSCRIPT?$AA@ 200feee8     g_ICARUScb.obj
 0002:0000eef8       ??_C@_0O@PJHNEIHF@SET_USESCRIPT?$AA@ 200feef8     g_ICARUScb.obj
 0002:0000ef08       ??_C@_0BA@CACABDOJ@SET_AWAKESCRIPT?$AA@ 200fef08     g_ICARUScb.obj
 0002:0000ef18       ??_C@_0BA@EGDJHKEA@SET_ANGERSCRIPT?$AA@ 200fef18     g_ICARUScb.obj
 0002:0000ef28       ??_C@_0BB@PGAEMAJB@SET_ATTACKSCRIPT?$AA@ 200fef28     g_ICARUScb.obj
 0002:0000ef3c       ??_C@_0BC@BHLPFAHG@SET_VICTORYSCRIPT?$AA@ 200fef3c     g_ICARUScb.obj
 0002:0000ef50       ??_C@_0P@DPLLBBHI@SET_PAINSCRIPT?$AA@ 200fef50     g_ICARUScb.obj
 0002:0000ef60       ??_C@_0P@DHFIHLAC@SET_FLEESCRIPT?$AA@ 200fef60     g_ICARUScb.obj
 0002:0000ef70       ??_C@_0BA@KGGFIBIC@SET_DEATHSCRIPT?$AA@ 200fef70     g_ICARUScb.obj
 0002:0000ef80       ??_C@_0BC@KCEDBMFJ@SET_DELAYEDSCRIPT?$AA@ 200fef80     g_ICARUScb.obj
 0002:0000ef94       ??_C@_0BC@NBLNGHOD@SET_BLOCKEDSCRIPT?$AA@ 200fef94     g_ICARUScb.obj
 0002:0000efa8       ??_C@_0BA@CIHEFFLD@SET_FFIRESCRIPT?$AA@ 200fefa8     g_ICARUScb.obj
 0002:0000efb8       ??_C@_0BC@JAFPDDCH@SET_FFDEATHSCRIPT?$AA@ 200fefb8     g_ICARUScb.obj
 0002:0000efcc       ??_C@_0BE@OFDKIIFH@SET_MINDTRICKSCRIPT?$AA@ 200fefcc     g_ICARUScb.obj
 0002:0000efe0       ??_C@_0BB@CHLNDMLC@SET_NO_MINDTRICK?$AA@ 200fefe0     g_ICARUScb.obj
 0002:0000eff4       ??_C@_0L@BPJLOKNG@SET_ORIGIN?$AA@ 200feff4     g_ICARUScb.obj
 0002:0000f000       ??_C@_0BC@LBEEFFOC@SET_TELEPORT_DEST?$AA@ 200ff000     g_ICARUScb.obj
 0002:0000f014       ??_C@_0L@KFPHPPHD@SET_ANGLES?$AA@ 200ff014     g_ICARUScb.obj
 0002:0000f020       ??_C@_0O@EPGHMCHF@SET_XVELOCITY?$AA@ 200ff020     g_ICARUScb.obj
 0002:0000f030       ??_C@_0O@KAKFKJEL@SET_YVELOCITY?$AA@ 200ff030     g_ICARUScb.obj
 0002:0000f040       ??_C@_0O@ELJCBCEI@SET_ZVELOCITY?$AA@ 200ff040     g_ICARUScb.obj
 0002:0000f050       ??_C@_0N@MKMGENPM@SET_Z_OFFSET?$AA@ 200ff050     g_ICARUScb.obj
 0002:0000f060       ??_C@_09NJAFKFJO@SET_ENEMY?$AA@ 200ff060     g_ICARUScb.obj
 0002:0000f06c       ??_C@_0L@PNAIICHO@SET_LEADER?$AA@ 200ff06c     g_ICARUScb.obj
 0002:0000f078       ??_C@_0M@HFEIMCGA@SET_NAVGOAL?$AA@ 200ff078     g_ICARUScb.obj
 0002:0000f084       ??_C@_0P@CGAOFAIH@SET_ANIM_UPPER?$AA@ 200ff084     g_ICARUScb.obj
 0002:0000f094       ??_C@_0P@HNLADLDO@SET_ANIM_LOWER?$AA@ 200ff094     g_ICARUScb.obj
 0002:0000f0a4       ??_C@_0O@DKBIMBCC@SET_ANIM_BOTH?$AA@ 200ff0a4     g_ICARUScb.obj
 0002:0000f0b4       ??_C@_0BI@PAJCCAGG@SET_ANIM_HOLDTIME_LOWER?$AA@ 200ff0b4     g_ICARUScb.obj
 0002:0000f0cc       ??_C@_0BI@KLCMELNP@SET_ANIM_HOLDTIME_UPPER?$AA@ 200ff0cc     g_ICARUScb.obj
 0002:0000f0e4       ??_C@_0BH@BAAOGMDN@SET_ANIM_HOLDTIME_BOTH?$AA@ 200ff0e4     g_ICARUScb.obj
 0002:0000f0fc       ??_C@_0BA@CJGNHIBB@SET_PLAYER_TEAM?$AA@ 200ff0fc     g_ICARUScb.obj
 0002:0000f10c       ??_C@_0P@OKLMGBGC@SET_ENEMY_TEAM?$AA@ 200ff10c     g_ICARUScb.obj
 0002:0000f11c       ??_C@_0BD@KBJEGDLF@SET_BEHAVIOR_STATE?$AA@ 200ff11c     g_ICARUScb.obj
 0002:0000f130       ??_C@_0L@GBDKLNBO@SET_HEALTH?$AA@ 200ff130     g_ICARUScb.obj
 0002:0000f13c       ??_C@_09MCEALIEB@SET_ARMOR?$AA@ 200ff13c     g_ICARUScb.obj
 0002:0000f148       ??_C@_0BD@LFNKCCMB@SET_DEFAULT_BSTATE?$AA@ 200ff148     g_ICARUScb.obj
 0002:0000f15c       ??_C@_0M@OPFCMIGF@SET_CAPTURE?$AA@ 200ff15c     g_ICARUScb.obj
 0002:0000f168       ??_C@_0L@EJDFMFAG@SET_DPITCH?$AA@ 200ff168     g_ICARUScb.obj
 0002:0000f174       ??_C@_08IGMCLPCI@SET_DYAW?$AA@ 200ff174     g_ICARUScb.obj
 0002:0000f180       ??_C@_09DOHNLJMJ@SET_EVENT?$AA@ 200ff180     g_ICARUScb.obj
 0002:0000f18c       ??_C@_0BA@EHIICGKM@SET_TEMP_BSTATE?$AA@ 200ff18c     g_ICARUScb.obj
 0002:0000f19c       ??_C@_0BA@EDMOJBDK@SET_COPY_ORIGIN?$AA@ 200ff19c     g_ICARUScb.obj
 0002:0000f1ac       ??_C@_0P@DDEEMLPG@SET_VIEWTARGET?$AA@ 200ff1ac     g_ICARUScb.obj
 0002:0000f1bc       ??_C@_0L@KMEKFCAJ@SET_WEAPON?$AA@ 200ff1bc     g_ICARUScb.obj
 0002:0000f1c8       ??_C@_08DLBMPBED@SET_ITEM?$AA@ 200ff1c8     g_ICARUScb.obj
 0002:0000f1d4       ??_C@_0O@FHCPKGLE@SET_WALKSPEED?$AA@ 200ff1d4     g_ICARUScb.obj
 0002:0000f1e4       ??_C@_0N@MFKCBDIA@SET_RUNSPEED?$AA@ 200ff1e4     g_ICARUScb.obj
 0002:0000f1f4       ??_C@_0N@ENEAGLJB@SET_YAWSPEED?$AA@ 200ff1f4     g_ICARUScb.obj
 0002:0000f204       ??_C@_0P@CDOEBJIL@SET_AGGRESSION?$AA@ 200ff204     g_ICARUScb.obj
 0002:0000f214       ??_C@_07GDCPCEMJ@SET_AIM?$AA@ 200ff214     g_ICARUScb.obj
 0002:0000f21c       ??_C@_0N@LABEEBNF@SET_FRICTION?$AA@ 200ff21c     g_ICARUScb.obj
 0002:0000f22c       ??_C@_0M@HHFBALFK@SET_GRAVITY?$AA@ 200ff22c     g_ICARUScb.obj
 0002:0000f238       ??_C@_0P@CDFFAHCE@SET_IGNOREPAIN?$AA@ 200ff238     g_ICARUScb.obj
 0002:0000f248       ??_C@_0BC@JIKOHOKF@SET_IGNOREENEMIES?$AA@ 200ff248     g_ICARUScb.obj
 0002:0000f25c       ??_C@_0BB@DHKHFOCJ@SET_IGNOREALERTS?$AA@ 200ff25c     g_ICARUScb.obj
 0002:0000f270       ??_C@_0O@PILPAHDH@SET_DONTSHOOT?$AA@ 200ff270     g_ICARUScb.obj
 0002:0000f280       ??_C@_0N@EPACGMAO@SET_DONTFIRE?$AA@ 200ff280     g_ICARUScb.obj
 0002:0000f290       ??_C@_0BB@KJBIMBIG@SET_LOCKED_ENEMY?$AA@ 200ff290     g_ICARUScb.obj
 0002:0000f2a4       ??_C@_0N@HFJGGGKM@SET_NOTARGET?$AA@ 200ff2a4     g_ICARUScb.obj
 0002:0000f2b4       ??_C@_08DHHNLFNG@SET_LEAN?$AA@ 200ff2b4     g_ICARUScb.obj
 0002:0000f2c0       ??_C@_0N@NBNIJBIN@SET_CROUCHED?$AA@ 200ff2c0     g_ICARUScb.obj
 0002:0000f2d0       ??_C@_0M@LMMCOFLG@SET_WALKING?$AA@ 200ff2d0     g_ICARUScb.obj
 0002:0000f2dc       ??_C@_0M@OCJLHNHE@SET_RUNNING?$AA@ 200ff2dc     g_ICARUScb.obj
 0002:0000f2e8       ??_C@_0BC@EHANOKAI@SET_CHASE_ENEMIES?$AA@ 200ff2e8     g_ICARUScb.obj
 0002:0000f2fc       ??_C@_0BF@GGKDHLOE@SET_LOOK_FOR_ENEMIES?$AA@ 200ff2fc     g_ICARUScb.obj
 0002:0000f314       ??_C@_0BC@GBEDHPDH@SET_FACE_MOVE_DIR?$AA@ 200ff314     g_ICARUScb.obj
 0002:0000f328       ??_C@_0N@CCHDBNOB@SET_ALT_FIRE?$AA@ 200ff328     g_ICARUScb.obj
 0002:0000f338       ??_C@_0O@HMLGHAAF@SET_DONT_FLEE?$AA@ 200ff338     g_ICARUScb.obj
 0002:0000f348       ??_C@_0BB@BFGCIINP@SET_FORCED_MARCH?$AA@ 200ff348     g_ICARUScb.obj
 0002:0000f35c       ??_C@_0BA@KOPPGKJB@SET_NO_RESPONSE?$AA@ 200ff35c     g_ICARUScb.obj
 0002:0000f36c       ??_C@_0BD@DFEBOOLL@SET_NO_COMBAT_TALK?$AA@ 200ff36c     g_ICARUScb.obj
 0002:0000f380       ??_C@_0BC@GJNPJIED@SET_NO_ALERT_TALK?$AA@ 200ff380     g_ICARUScb.obj
 0002:0000f394       ??_C@_0M@PONMNEKN@SET_UNDYING?$AA@ 200ff394     g_ICARUScb.obj
 0002:0000f3a0       ??_C@_0O@KHNLKADE@SET_TREASONED?$AA@ 200ff3a0     g_ICARUScb.obj
 0002:0000f3b0       ??_C@_0BI@FHBPGHHE@SET_DISABLE_SHADER_ANIM?$AA@ 200ff3b0     g_ICARUScb.obj
 0002:0000f3c8       ??_C@_0BA@MCLHLCAO@SET_SHADER_ANIM?$AA@ 200ff3c8     g_ICARUScb.obj
 0002:0000f3d8       ??_C@_0P@OCGKJBJK@SET_INVINCIBLE?$AA@ 200ff3d8     g_ICARUScb.obj
 0002:0000f3e8       ??_C@_0M@KAOOOOJM@SET_NOAVOID?$AA@ 200ff3e8     g_ICARUScb.obj
 0002:0000f3f4       ??_C@_0O@BIHNOALE@SET_SHOOTDIST?$AA@ 200ff3f4     g_ICARUScb.obj
 0002:0000f404       ??_C@_0P@IDOGHPPF@SET_TARGETNAME?$AA@ 200ff404     g_ICARUScb.obj
 0002:0000f414       ??_C@_0L@FBAHPHPL@SET_TARGET?$AA@ 200ff414     g_ICARUScb.obj
 0002:0000f420       ??_C@_0M@MHEOHIBC@SET_TARGET2?$AA@ 200ff420     g_ICARUScb.obj
 0002:0000f42c       ??_C@_0N@CLDMBBPE@SET_LOCATION?$AA@ 200ff42c     g_ICARUScb.obj
 0002:0000f43c       ??_C@_0P@ENOGJIFF@SET_PAINTARGET?$AA@ 200ff43c     g_ICARUScb.obj
 0002:0000f44c       ??_C@_0O@CFLNLEKH@SET_TIMESCALE?$AA@ 200ff44c     g_ICARUScb.obj
 0002:0000f45c       ??_C@_0N@OOBBJEFP@SET_VISRANGE?$AA@ 200ff45c     g_ICARUScb.obj
 0002:0000f46c       ??_C@_0M@DDIBCAII@SET_EARSHOT?$AA@ 200ff46c     g_ICARUScb.obj
 0002:0000f478       ??_C@_0O@KMFHKGGD@SET_VIGILANCE?$AA@ 200ff478     g_ICARUScb.obj
 0002:0000f488       ??_C@_08FIMNAJKL@SET_HFOV?$AA@ 200ff488     g_ICARUScb.obj
 0002:0000f494       ??_C@_08IHBNCAEI@SET_VFOV?$AA@ 200ff494     g_ICARUScb.obj
 0002:0000f4a0       ??_C@_0BE@NHDEIJFG@SET_DELAYSCRIPTTIME?$AA@ 200ff4a0     g_ICARUScb.obj
 0002:0000f4b4       ??_C@_0BA@GJFHGBLN@SET_FORWARDMOVE?$AA@ 200ff4b4     g_ICARUScb.obj
 0002:0000f4c4       ??_C@_0O@ILOPGGKE@SET_RIGHTMOVE?$AA@ 200ff4c4     g_ICARUScb.obj
 0002:0000f4d4       ??_C@_0M@CNPNADLA@SET_LOCKYAW?$AA@ 200ff4d4     g_ICARUScb.obj
 0002:0000f4e0       ??_C@_09LEIHOGOC@SET_SOLID?$AA@ 200ff4e0     g_ICARUScb.obj
 0002:0000f4ec       ??_C@_0BB@OPDFIPKJ@SET_CAMERA_GROUP?$AA@ 200ff4ec     g_ICARUScb.obj
 0002:0000f500       ??_C@_0BH@IMNDKFDA@SET_CAMERA_GROUP_Z_OFS?$AA@ 200ff500     g_ICARUScb.obj
 0002:0000f518       ??_C@_0BF@HIMCMJLH@SET_CAMERA_GROUP_TAG?$AA@ 200ff518     g_ICARUScb.obj
 0002:0000f530       ??_C@_0BA@CLFFKDPE@SET_LOOK_TARGET?$AA@ 200ff530     g_ICARUScb.obj
 0002:0000f540       ??_C@_0BH@BHGGGDJK@SET_ADDRHANDBOLT_MODEL?$AA@ 200ff540     g_ICARUScb.obj
 0002:0000f558       ??_C@_0BK@IJAOECLF@SET_REMOVERHANDBOLT_MODEL?$AA@ 200ff558     g_ICARUScb.obj
 0002:0000f574       ??_C@_0BH@NBMDKLKP@SET_ADDLHANDBOLT_MODEL?$AA@ 200ff574     g_ICARUScb.obj
 0002:0000f58c       ??_C@_0BK@EPKLIKIA@SET_REMOVELHANDBOLT_MODEL?$AA@ 200ff58c     g_ICARUScb.obj
 0002:0000f5a8       ??_C@_0M@FKCILCFH@SET_FACEAUX?$AA@ 200ff5a8     g_ICARUScb.obj
 0002:0000f5b4       ??_C@_0O@LKNNMCLI@SET_FACEBLINK?$AA@ 200ff5b4     g_ICARUScb.obj
 0002:0000f5c4       ??_C@_0BD@DICEOCAG@SET_FACEBLINKFROWN?$AA@ 200ff5c4     g_ICARUScb.obj
 0002:0000f5d8       ??_C@_0O@LFHHJKCL@SET_FACEFROWN?$AA@ 200ff5d8     g_ICARUScb.obj
 0002:0000f5e8       ??_C@_0P@NAOKHCAE@SET_FACENORMAL?$AA@ 200ff5e8     g_ICARUScb.obj
 0002:0000f5f8       ??_C@_0BD@CEJECDEG@SET_FACEEYESCLOSED?$AA@ 200ff5f8     g_ICARUScb.obj
 0002:0000f60c       ??_C@_0BD@HPODBMDB@SET_FACEEYESOPENED?$AA@ 200ff60c     g_ICARUScb.obj
 0002:0000f620       ??_C@_0P@OLNGDOCE@SET_SCROLLTEXT?$AA@ 200ff620     g_ICARUScb.obj
 0002:0000f630       ??_C@_0O@GEGILMFD@SET_LCARSTEXT?$AA@ 200ff630     g_ICARUScb.obj
 0002:0000f640       ??_C@_0BE@GBNNMAAH@SET_SCROLLTEXTCOLOR?$AA@ 200ff640     g_ICARUScb.obj
 0002:0000f654       ??_C@_0BF@HHIBFNIO@SET_CAPTIONTEXTCOLOR?$AA@ 200ff654     g_ICARUScb.obj
 0002:0000f66c       ??_C@_0BE@NLKAELAP@SET_CENTERTEXTCOLOR?$AA@ 200ff66c     g_ICARUScb.obj
 0002:0000f680       ??_C@_0BC@NCBCMGPD@SET_PLAYER_USABLE?$AA@ 200ff680     g_ICARUScb.obj
 0002:0000f694       ??_C@_0P@OAOLCPEI@SET_STARTFRAME?$AA@ 200ff694     g_ICARUScb.obj
 0002:0000f6a4       ??_C@_0N@DJBDHJON@SET_ENDFRAME?$AA@ 200ff6a4     g_ICARUScb.obj
 0002:0000f6b4       ??_C@_0O@DIKHJEHC@SET_ANIMFRAME?$AA@ 200ff6b4     g_ICARUScb.obj
 0002:0000f6c4       ??_C@_0O@IOGOHDIL@SET_LOOP_ANIM?$AA@ 200ff6c4     g_ICARUScb.obj
 0002:0000f6d4       ??_C@_0O@PIJIOCNO@SET_INTERFACE?$AA@ 200ff6d4     g_ICARUScb.obj
 0002:0000f6e4       ??_C@_0M@FGAKCDPM@SET_SHIELDS?$AA@ 200ff6e4     g_ICARUScb.obj
 0002:0000f6f0       ??_C@_0BB@BABLBAAP@SET_NO_KNOCKBACK?$AA@ 200ff6f0     g_ICARUScb.obj
 0002:0000f704       ??_C@_0O@CNPICDHA@SET_INVISIBLE?$AA@ 200ff704     g_ICARUScb.obj
 0002:0000f714       ??_C@_0M@ILAOKIII@SET_VAMPIRE?$AA@ 200ff714     g_ICARUScb.obj
 0002:0000f720       ??_C@_0BF@JOJAEOM@SET_FORCE_INVINCIBLE?$AA@ 200ff720     g_ICARUScb.obj
 0002:0000f738       ??_C@_0BB@GEHEPADJ@SET_GREET_ALLIES?$AA@ 200ff738     g_ICARUScb.obj
 0002:0000f74c       ??_C@_0BC@EFECMLCK@SET_PLAYER_LOCKED?$AA@ 200ff74c     g_ICARUScb.obj
 0002:0000f760       ??_C@_0BI@BHHMGCAD@SET_LOCK_PLAYER_WEAPONS?$AA@ 200ff760     g_ICARUScb.obj
 0002:0000f778       ??_C@_0BF@DAJAMNKM@SET_NO_IMPACT_DAMAGE?$AA@ 200ff778     g_ICARUScb.obj
 0002:0000f790       ??_C@_09GIKECPOO@SET_PARM1?$AA@ 200ff790     g_ICARUScb.obj
 0002:0000f79c       ??_C@_09EDIJHMCN@SET_PARM2?$AA@ 200ff79c     g_ICARUScb.obj
 0002:0000f7a8       ??_C@_09FKJCENGM@SET_PARM3?$AA@ 200ff7a8     g_ICARUScb.obj
 0002:0000f7b4       ??_C@_09BFNDNLKL@SET_PARM4?$AA@ 200ff7b4     g_ICARUScb.obj
 0002:0000f7c0       ??_C@_09MMIOKOK@SET_PARM5?$AA@ 200ff7c0     g_ICARUScb.obj
 0002:0000f7cc       ??_C@_09CHOFLJCJ@SET_PARM6?$AA@ 200ff7cc     g_ICARUScb.obj
 0002:0000f7d8       ??_C@_09DOPOIIGI@SET_PARM7?$AA@ 200ff7d8     g_ICARUScb.obj
 0002:0000f7e4       ??_C@_09LJGGJEKH@SET_PARM8?$AA@ 200ff7e4     g_ICARUScb.obj
 0002:0000f7f0       ??_C@_09KAHNKFOG@SET_PARM9?$AA@ 200ff7f0     g_ICARUScb.obj
 0002:0000f7fc       ??_C@_0L@JIJMFNKD@SET_PARM10?$AA@ 200ff7fc     g_ICARUScb.obj
 0002:0000f808       ??_C@_0L@IBIHGMOC@SET_PARM11?$AA@ 200ff808     g_ICARUScb.obj
 0002:0000f814       ??_C@_0L@KKKKDPCB@SET_PARM12?$AA@ 200ff814     g_ICARUScb.obj
 0002:0000f820       ??_C@_0L@LDLBAOGA@SET_PARM13?$AA@ 200ff820     g_ICARUScb.obj
 0002:0000f82c       ??_C@_0L@PMPAJIKH@SET_PARM14?$AA@ 200ff82c     g_ICARUScb.obj
 0002:0000f838       ??_C@_0L@OFOLKJOG@SET_PARM15?$AA@ 200ff838     g_ICARUScb.obj
 0002:0000f844       ??_C@_0L@MOMGPKCF@SET_PARM16?$AA@ 200ff844     g_ICARUScb.obj
 0002:0000f850       ??_C@_0BC@HJCIKNDI@SET_DEFEND_TARGET?$AA@ 200ff850     g_ICARUScb.obj
 0002:0000f864       ??_C@_08BBBBCPHB@SET_WAIT?$AA@ 200ff864     g_ICARUScb.obj
 0002:0000f870       ??_C@_09NFMNPILI@SET_COUNT?$AA@ 200ff870     g_ICARUScb.obj
 0002:0000f87c       ??_C@_0BB@NEEACLOJ@SET_SHOT_SPACING?$AA@ 200ff87c     g_ICARUScb.obj
 0002:0000f890       ??_C@_0P@FJMCEAMM@SET_VIDEO_PLAY?$AA@ 200ff890     g_ICARUScb.obj
 0002:0000f8a0       ??_C@_0BC@LBKHPKII@SET_VIDEO_FADE_IN?$AA@ 200ff8a0     g_ICARUScb.obj
 0002:0000f8b4       ??_C@_0BD@IBNCHPF@SET_VIDEO_FADE_OUT?$AA@ 200ff8b4     g_ICARUScb.obj
 0002:0000f8c8       ??_C@_0BC@FHGHPDDH@SET_REMOVE_TARGET?$AA@ 200ff8c8     g_ICARUScb.obj
 0002:0000f8dc       ??_C@_0N@OOOKFJHG@SET_LOADGAME?$AA@ 200ff8dc     g_ICARUScb.obj
 0002:0000f8ec       ??_C@_0BA@ELNEOIBH@SET_MENU_SCREEN?$AA@ 200ff8ec     g_ICARUScb.obj
 0002:0000f8fc       ??_C@_0BD@LCGPIMMP@SET_OBJECTIVE_SHOW?$AA@ 200ff8fc     g_ICARUScb.obj
 0002:0000f910       ??_C@_0BD@GJECNCAL@SET_OBJECTIVE_HIDE?$AA@ 200ff910     g_ICARUScb.obj
 0002:0000f924       ??_C@_0BI@PJLHHILM@SET_OBJECTIVE_SUCCEEDED?$AA@ 200ff924     g_ICARUScb.obj
 0002:0000f93c       ??_C@_0BF@FAJJLEFA@SET_OBJECTIVE_FAILED?$AA@ 200ff93c     g_ICARUScb.obj
 0002:0000f954       ??_C@_0BC@DFBGHFNC@SET_MISSIONFAILED?$AA@ 200ff954     g_ICARUScb.obj
 0002:0000f968       ??_C@_0BC@OJCAJMMB@SET_TACTICAL_SHOW?$AA@ 200ff968     g_ICARUScb.obj
 0002:0000f97c       ??_C@_0BC@DCANMCAF@SET_TACTICAL_HIDE?$AA@ 200ff97c     g_ICARUScb.obj
 0002:0000f990       ??_C@_0P@LKFMAHDN@SET_FOLLOWDIST?$AA@ 200ff990     g_ICARUScb.obj
 0002:0000f9a0       ??_C@_09JMMNCAJE@SET_SCALE?$AA@ 200ff9a0     g_ICARUScb.obj
 0002:0000f9ac       ??_C@_0BH@BMEJJMGB@SET_OBJECTIVE_CLEARALL?$AA@ 200ff9ac     g_ICARUScb.obj
 0002:0000f9c4       ??_C@_0BG@DKMAIIEP@SET_MISSIONSTATUSTEXT?$AA@ 200ff9c4     g_ICARUScb.obj
 0002:0000f9dc       ??_C@_09NNKJAGJE@SET_WIDTH?$AA@ 200ff9dc     g_ICARUScb.obj
 0002:0000f9e8       ??_C@_0BD@PCOGAAAD@SET_CLOSINGCREDITS?$AA@ 200ff9e8     g_ICARUScb.obj
 0002:0000f9fc       ??_C@_09LIMLPIPD@SET_SKILL?$AA@ 200ff9fc     g_ICARUScb.obj
 0002:0000fa08       ??_C@_0BG@DJCCHFHM@SET_MISSIONSTATUSTIME?$AA@ 200ffa08     g_ICARUScb.obj
 0002:0000fa20       ??_C@_0N@BGCLHPNH@SET_FULLNAME?$AA@ 200ffa20     g_ICARUScb.obj
 0002:0000fa30       ??_C@_0BF@EEKBIJKH@SET_FORCE_HEAL_LEVEL?$AA@ 200ffa30     g_ICARUScb.obj
 0002:0000fa48       ??_C@_0BF@PGEDGGPO@SET_FORCE_JUMP_LEVEL?$AA@ 200ffa48     g_ICARUScb.obj
 0002:0000fa60       ??_C@_0BG@CJIMHENL@SET_FORCE_SPEED_LEVEL?$AA@ 200ffa60     g_ICARUScb.obj
 0002:0000fa78       ??_C@_0BF@HBEGEJMM@SET_FORCE_PUSH_LEVEL?$AA@ 200ffa78     g_ICARUScb.obj
 0002:0000fa90       ??_C@_0BF@IGHFMKJG@SET_FORCE_PULL_LEVEL?$AA@ 200ffa90     g_ICARUScb.obj
 0002:0000faa8       ??_C@_0BK@DDHFCOGI@SET_FORCE_MINDTRICK_LEVEL?$AA@ 200ffaa8     g_ICARUScb.obj
 0002:0000fac4       ??_C@_0BF@ICOHGBIM@SET_FORCE_GRIP_LEVEL?$AA@ 200ffac4     g_ICARUScb.obj
 0002:0000fadc       ??_C@_0BK@KLPNFNFG@SET_FORCE_LIGHTNING_LEVEL?$AA@ 200ffadc     g_ICARUScb.obj
 0002:0000faf8       ??_C@_0BA@JLKHIGMF@SET_SABER_THROW?$AA@ 200ffaf8     g_ICARUScb.obj
 0002:0000fb08       ??_C@_0BC@LDCIKFMC@SET_SABER_DEFENSE?$AA@ 200ffb08     g_ICARUScb.obj
 0002:0000fb1c       ??_C@_0BC@NPKKKDAJ@SET_SABER_OFFENSE?$AA@ 200ffb1c     g_ICARUScb.obj
 0002:0000fb30       ??_C@_0P@MEGONLMA@SET_VIEWENTITY?$AA@ 200ffb30     g_ICARUScb.obj
 0002:0000fb40       ??_C@_0BA@BGEBCBDF@SET_WATCHTARGET?$AA@ 200ffb40     g_ICARUScb.obj
 0002:0000fb50       ??_C@_0BA@PLJOBBEE@SET_SABERACTIVE?$AA@ 200ffb50     g_ICARUScb.obj
 0002:0000fb60       ??_C@_0BI@BCAGJEIC@SET_ADJUST_AREA_PORTALS?$AA@ 200ffb60     g_ICARUScb.obj
 0002:0000fb78       ??_C@_0BL@NDLGHCA@SET_DMG_BY_HEAVY_WEAP_ONLY?$AA@ 200ffb78     g_ICARUScb.obj
 0002:0000fb94       ??_C@_0N@DIODOBNH@SET_SHIELDED?$AA@ 200ffb94     g_ICARUScb.obj
 0002:0000fba4       ??_C@_0O@BHFJOKNM@SET_NO_GROUPS?$AA@ 200ffba4     g_ICARUScb.obj
 0002:0000fbb4       ??_C@_0BA@MOAIPFOO@SET_FIRE_WEAPON?$AA@ 200ffbb4     g_ICARUScb.obj
 0002:0000fbc4       ??_C@_0N@IHFFKFDD@SET_INACTIVE?$AA@ 200ffbc4     g_ICARUScb.obj
 0002:0000fbd4       ??_C@_0BI@DOADDMCM@SET_FUNC_USABLE_VISIBLE?$AA@ 200ffbd4     g_ICARUScb.obj
 0002:0000fbec       ??_C@_0BK@JDOABANO@SET_MISSION_STATUS_SCREEN?$AA@ 200ffbec     g_ICARUScb.obj
 0002:0000fc08       ??_C@_0BH@EFNEDILD@SET_END_SCREENDISSOLVE?$AA@ 200ffc08     g_ICARUScb.obj
 0002:0000fc20       ??_C@_0O@BFAJHAMD@SET_LOOPSOUND?$AA@ 200ffc20     g_ICARUScb.obj
 0002:0000fc30       ??_C@_0BC@MDOENGEI@SET_ICARUS_FREEZE?$AA@ 200ffc30     g_ICARUScb.obj
 0002:0000fc44       ??_C@_0BE@MIOHBDBD@SET_ICARUS_UNFREEZE?$AA@ 200ffc44     g_ICARUScb.obj
 0002:0000fc58       ??_C@_0BD@BKEIEJGK@SET_USE_CP_NEAREST?$AA@ 200ffc58     g_ICARUScb.obj
 0002:0000fc6c       ??_C@_0O@OBAMDIHH@SET_MORELIGHT?$AA@ 200ffc6c     g_ICARUScb.obj
 0002:0000fc7c       ??_C@_0BJ@DHGOHLBA@SET_CINEMATIC_SKIPSCRIPT?$AA@ 200ffc7c     g_ICARUScb.obj
 0002:0000fc98       ??_C@_0N@MCHHKJNC@SET_NO_FORCE?$AA@ 200ffc98     g_ICARUScb.obj
 0002:0000fca8       ??_C@_0BD@IEJPBIBL@SET_NO_FALLTODEATH?$AA@ 200ffca8     g_ICARUScb.obj
 0002:0000fcbc       ??_C@_0BC@HGGKOEIM@SET_DISMEMBERABLE?$AA@ 200ffcbc     g_ICARUScb.obj
 0002:0000fcd0       ??_C@_0BC@MGOKPFBI@SET_NO_ACROBATICS?$AA@ 200ffcd0     g_ICARUScb.obj
 0002:0000fce4       ??_C@_0BA@GMNGKJBB@SET_MUSIC_STATE?$AA@ 200ffce4     g_ICARUScb.obj
 0002:0000fcf4       ??_C@_0BC@NILGFJAB@SET_USE_SUBTITLES?$AA@ 200ffcf4     g_ICARUScb.obj
 0002:0000fd08       ??_C@_0BI@LGFLFAFG@SET_CLEAN_DAMAGING_ENTS?$AA@ 200ffd08     g_ICARUScb.obj
 0002:0000fd20       ??_C@_07NKNJIKBO@SET_HUD?$AA@ 200ffd20     g_ICARUScb.obj
 0002:0000fd28       ??_C@_0M@JICHILK@?$FO1ERROR?3?5?$CFs?$AA@ 200ffd28     g_ICARUScb.obj
 0002:0000fd34       ??_C@_0O@MNHPCOJJ@?$FO3WARNING?3?5?$CFs?$AA@ 200ffd34     g_ICARUScb.obj
 0002:0000fd44       ??_C@_0BF@BOEAGMID@?$FO4DEBUG?3?5?$CFs?$CI?$CFd?$CJ?3?5?$CFs?6?$AA@ 200ffd44     g_ICARUScb.obj
 0002:0000fd5c       ??_C@_0L@DEHCNGGK@?$FO2INFO?3?5?$CFs?$AA@ 200ffd5c     g_ICARUScb.obj
 0002:0000fd68       ??_C@_0EE@MAOPNMEH@Q3_GetAnimLower?3?5attempted?5to?5re@ 200ffd68     g_ICARUScb.obj
 0002:0000fdb0       ??_C@_0EE@EJOALOAB@Q3_GetAnimUpper?3?5attempted?5to?5re@ 200ffdb0     g_ICARUScb.obj
 0002:0000fdf4       ??_C@_0DD@NINIPANM@Q3_GetAnimBoth?3?5NULL?5legs?5animat@ 200ffdf4     g_ICARUScb.obj
 0002:0000fe28       ??_C@_0DE@CPECIGDK@Q3_GetAnimBoth?3?5NULL?5torso?5anima@ 200ffe28     g_ICARUScb.obj
 0002:0000fe5c       ??_C@_0P@PGMEJIPP@CHAN_ANNOUNCER?$AA@ 200ffe5c     g_ICARUScb.obj
 0002:0000fe6c       ??_C@_0BE@GJAGLKJK@target_scriptrunner?$AA@ 200ffe6c     g_ICARUScb.obj
 0002:0000fe80       ??_C@_0L@GPGGJDHA@CHAN_VOICE?$AA@ 200ffe80     g_ICARUScb.obj
 0002:0000fe8c       ??_C@_0BB@EAIMOIAK@CHAN_VOICE_ATTEN?$AA@ 200ffe8c     g_ICARUScb.obj
 0002:0000fea0       ??_C@_0BC@LBLHAJCE@CHAN_VOICE_GLOBAL?$AA@ 200ffea0     g_ICARUScb.obj
 0002:0000feb4       ??_C@_09IIOBMIO@timescale?$AA@ 200ffeb4     g_ICARUScb.obj
 0002:0000fec0       ??_C@_09GAPFPING@PLAY_ROFF?$AA@ 200ffec0     g_ICARUScb.obj
 0002:0000fecc       ??_C@_0CB@JIOOJHHK@Q3_Lerp2Start?3?5invalid?5entID?5?$CFd?6@ 200ffecc     g_ICARUScb.obj
 0002:0000fef0       ??_C@_0CH@PPMHHGNA@Q3_Lerp2Start?3?5ent?5?$CFd?5is?5NOT?5a?5m@ 200ffef0     g_ICARUScb.obj
 0002:0000ff18       ??_C@_0BP@JAFHMEBM@Q3_Lerp2End?3?5invalid?5entID?5?$CFd?6?$AA@ 200fff18     g_ICARUScb.obj
 0002:0000ff38       ??_C@_0CF@DALAHPCE@Q3_Lerp2End?3?5ent?5?$CFd?5is?5NOT?5a?5mov@ 200fff38     g_ICARUScb.obj
 0002:0000ff60       ??_C@_0BP@DPCBPJGD@Q3_Lerp2Pos?3?5invalid?5entID?5?$CFd?6?$AA@ 200fff60     g_ICARUScb.obj
 0002:0000ff80       ??_C@_0CF@PAFFJBK@Q3_Lerp2Pos?3?5ent?5?$CFd?5is?5NOT?5a?5mov@ 200fff80     g_ICARUScb.obj
 0002:0000ffa8       ??_C@_0CC@LNEIDKPB@Q3_Lerp2Angles?3?5invalid?5entID?5?$CFd@ 200fffa8     g_ICARUScb.obj
 0002:0000ffcc       ??_C@_0CI@FFIBALDO@Q3_Lerp2Angles?3?5ent?5?$CFd?5is?5NOT?5a?5@ 200fffcc     g_ICARUScb.obj
 0002:0000fff4       ??_C@_0BK@GDBGGOJA@Q3_Use?3?5invalid?5entID?5?$CFd?6?$AA@ 200ffff4     g_ICARUScb.obj
 0002:00010010       ??_C@_0BJ@NFHFAHMF@Q3_Use?3?5string?5is?5NULL?$CB?6?$AA@ 20100010     g_ICARUScb.obj
 0002:0001002c       ??_C@_04PJDNGLKJ@self?$AA@ 2010002c     g_ICARUScb.obj
 0002:00010034       ??_C@_05ICAMJEGE@enemy?$AA@ 20100034     g_ICARUScb.obj
 0002:0001003c       ??_C@_0BI@NGBBAIEM@Q3_Kill?3?5can?8t?5find?5?$CFs?6?$AA@ 2010003c     g_ICARUScb.obj
 0002:00010054       ??_C@_0CP@PMHJBFCE@Q3_RemoveEnt?3?5You?5can?8t?5remove?5c@ 20100054     g_ICARUScb.obj
 0002:00010084       ??_C@_0BK@LFOIBKLL@Q3_Remove?3?5can?8t?5find?5?$CFs?6?$AA@ 20100084     g_ICARUScb.obj
 0002:000100a0       ??_C@_0CN@NDKNJKOD@GET_PARM?3?5?$CFs?5?$CFs?5did?5not?5have?5any@ 201000a0     g_ICARUScb.obj
 0002:000100d0       ??_C@_0CN@PIBHMLOD@Q3_GetFloat?3?5SET_XVELOCITY?0?5?$CFs?5n@ 201000d0     g_ICARUScb.obj
 0002:00010100       ??_C@_0CN@PJKCDGPO@Q3_GetFloat?3?5SET_YVELOCITY?0?5?$CFs?5n@ 20100100     g_ICARUScb.obj
 0002:00010130       ??_C@_0CN@PLHMDBNJ@Q3_GetFloat?3?5SET_ZVELOCITY?0?5?$CFs?5n@ 20100130     g_ICARUScb.obj
 0002:00010160       ??_C@_0CK@IBBFJBGO@Q3_GetFloat?3?5SET_FACE___?5not?5imp@ 20100160     g_ICARUScb.obj
 0002:0001018c       ??_C@_0DH@GMJBNMGD@Q3_GetFloat?3?5SET_ANIM_HOLDTIME_L@ 2010018c     g_ICARUScb.obj
 0002:000101c4       ??_C@_0DH@FCHJJJED@Q3_GetFloat?3?5SET_ANIM_HOLDTIME_U@ 201001c4     g_ICARUScb.obj
 0002:000101fc       ??_C@_0DF@CBLGIHDP@Q3_GetFloat?3?5SET_ANIM_HOLDTIME_B@ 201001fc     g_ICARUScb.obj
 0002:00010234       ??_C@_0CJ@DINKEEGE@Q3_GetFloat?3?5SET_ARMOR?0?5?$CFs?5not?5a@ 20100234     g_ICARUScb.obj
 0002:00010260       ??_C@_0CM@PDGGCGPJ@Q3_GetFloat?3?5SET_INTERFACE?5not?5i@ 20100260     g_ICARUScb.obj
 0002:0001028c       ??_C@_0DA@CGHNINKE@Q3_GetFloat?3?5SET_VIDEO_FADE_IN?5n@ 2010028c     g_ICARUScb.obj
 0002:000102bc       ??_C@_0DB@IIFIFGEF@Q3_GetFloat?3?5SET_VIDEO_FADE_OUT?5@ 201002bc     g_ICARUScb.obj
 0002:000102f0       ??_C@_0DB@MAGBGPGB@Q3_GetVector?3?5SET_TELEPORT_DEST?5@ 201002f0     g_ICARUScb.obj
 0002:00010324       ??_C@_0CM@CDPIGBJF@Q3_GetString?3?5invalid?5ent?5?$CFs?5has@ 20100324     g_ICARUScb.obj
 0002:00010350       ??_C@_0DN@FAGBABBH@Q3_GetString?3?5SET_LOOK_TARGET?0?5N@ 20100350     g_ICARUScb.obj
 0002:00010390       ??_C@_0CL@PNEBOOOF@Q3_GetString?3?5SET_NAVGOAL?5not?5im@ 20100390     g_ICARUScb.obj
 0002:000103bc       ??_C@_0CO@GIAIICCI@Q3_GetString?3?5SET_VIEWTARGET?5not@ 201003bc     g_ICARUScb.obj
 0002:000103ec       ??_C@_0CO@PDPCBFNG@Q3_GetString?3?5SET_VIEWENTITY?5not@ 201003ec     g_ICARUScb.obj
 0002:0001041c       ??_C@_0DE@KHANCCBA@Q3_GetString?3?5SET_CAPTIONTEXTCOL@ 2010041c     g_ICARUScb.obj
 0002:00010450       ??_C@_0DD@PGFDFPBJ@Q3_GetString?3?5SET_CENTERTEXTCOLO@ 20100450     g_ICARUScb.obj
 0002:00010484       ??_C@_0DD@BGKFAPKD@Q3_GetString?3?5SET_SCROLLTEXTCOLO@ 20100484     g_ICARUScb.obj
 0002:000104b8       ??_C@_0CP@KIKCHBDJ@Q3_GetString?3?5SET_COPY_ORIGIN?5no@ 201004b8     g_ICARUScb.obj
 0002:000104e8       ??_C@_0CO@FHGHEBEE@Q3_GetString?3?5SET_VIDEO_PLAY?5not@ 201004e8     g_ICARUScb.obj
 0002:00010518       ??_C@_0CM@NPFJENKG@Q3_GetString?3?5SET_LOADGAME?5not?5i@ 20100518     g_ICARUScb.obj
 0002:00010544       ??_C@_0CL@HEMEGJFB@Q3_GetString?3?5SET_LOCKYAW?5not?5im@ 20100544     g_ICARUScb.obj
 0002:00010570       ??_C@_0CO@IACPECFJ@Q3_GetString?3?5SET_SCROLLTEXT?5not@ 20100570     g_ICARUScb.obj
 0002:000105a0       ??_C@_0CN@GCPIIOJN@Q3_GetString?3?5SET_LCARSTEXT?5not?5@ 201005a0     g_ICARUScb.obj
 0002:000105d0       ??_C@_0BK@EIGICDEP@Q3_SetOrigin?3?5bad?5ent?5?$CFd?6?$AA@ 201005d0     g_ICARUScb.obj
 0002:000105ec       ??_C@_0CF@CLCOBJDK@Q3_SetCopyOrigin?3?5ent?5?$CFs?5not?5fou@ 201005ec     g_ICARUScb.obj
 0002:00010614       ??_C@_0CB@HHAAENCN@Q3_SetVelocity?5invalid?5entID?5?$CFd?6@ 20100614     g_ICARUScb.obj
 0002:00010638       ??_C@_0CB@HMOFCFID@Q3_SetVelocity?3?5not?5a?5client?5?$CFd?6@ 20100638     g_ICARUScb.obj
 0002:0001065c       ??_C@_0BK@BBPCHLFN@Q3_SetAngles?3?5bad?5ent?5?$CFd?6?$AA@ 2010065c     g_ICARUScb.obj
 0002:00010678       ??_C@_0CC@EKKFAJJE@Q3_Lerp2Origin?3?5invalid?5entID?5?$CFd@ 20100678     g_ICARUScb.obj
 0002:0001069c       ??_C@_0CI@HPKHKLDB@Q3_Lerp2Origin?3?5ent?5?$CFd?5is?5NOT?5a?5@ 2010069c     g_ICARUScb.obj
 0002:000106c4       ??_C@_0CG@CHMNJDMD@Q3_SetOriginOffset?3?5invalid?5entI@ 201006c4     g_ICARUScb.obj
 0002:000106ec       ??_C@_0CM@ELAHCLFA@Q3_SetOriginOffset?3?5ent?5?$CFd?5is?5NO@ 201006ec     g_ICARUScb.obj
 0002:00010718       ??_C@_0CA@BMPEEEHM@SetLowerAnim?3?5invalid?5entID?5?$CFd?6?$AA@ 20100718     g_ICARUScb.obj
 0002:00010738       ??_C@_0CO@HFDAMJDC@SetLowerAnim?3?5ent?5?$CFd?5is?5NOT?5a?5pl@ 20100738     g_ICARUScb.obj
 0002:00010768       ??_C@_0CA@JHMLFJBC@SetUpperAnim?3?5invalid?5entID?5?$CFd?6?$AA@ 20100768     g_ICARUScb.obj
 0002:00010788       ??_C@_0DC@IDLJGGJG@Q3_SetAnimUpper?3?5unknown?5animati@ 20100788     g_ICARUScb.obj
 0002:000107bc       ??_C@_0DC@KMJCEHHP@Q3_SetAnimLower?3?5unknown?5animati@ 201007bc     g_ICARUScb.obj
 0002:000107f0       ??_C@_0DF@OEFLNJPL@Q3_SetAnimHoldTime?5is?5not?5curren@ 201007f0     g_ICARUScb.obj
 0002:00010828       ??_C@_0CA@FNEGPEPO@Q3_SetHealth?3?5invalid?5entID?5?$CFd?6?$AA@ 20100828     g_ICARUScb.obj
 0002:00010848       ??_C@_0BP@HOLDOMJL@Q3_SetArmor?3?5invalid?5entID?5?$CFd?6?$AA@ 20100848     g_ICARUScb.obj
 0002:00010868       ??_C@_0CA@DKMIJFEO@Q3_SetBState?3?5invalid?5entID?5?$CFd?6?$AA@ 20100868     g_ICARUScb.obj
 0002:00010888       ??_C@_0CC@KDIKBPJM@Q3_SetBState?3?5?8?$CFs?8?5is?5not?5an?5NPC@ 20100888     g_ICARUScb.obj
 0002:000108ac       ??_C@_0DP@FFFMEDFK@Q3_SetBState?3?5?8?$CFs?8?5is?5not?5in?5a?5v@ 201008ac     g_ICARUScb.obj
 0002:000108ec       ??_C@_0CE@BFFBLGPP@Q3_SetTempBState?3?5invalid?5entID?5@ 201008ec     g_ICARUScb.obj
 0002:00010910       ??_C@_0CG@PMDDNOIO@Q3_SetTempBState?3?5?8?$CFs?8?5is?5not?5an@ 20100910     g_ICARUScb.obj
 0002:00010938       ??_C@_0CH@ICHGEDKM@Q3_SetDefaultBState?3?5invalid?5ent@ 20100938     g_ICARUScb.obj
 0002:00010960       ??_C@_0CJ@KAHCEBKN@Q3_SetDefaultBState?3?5?8?$CFs?8?5is?5not@ 20100960     g_ICARUScb.obj
 0002:0001098c       ??_C@_0CD@DBMBHGOP@Q3_SetDPitch?3?5NOT?5SUPPORTED?5IN?5M@ 2010098c     g_ICARUScb.obj
 0002:000109b0       ??_C@_0CB@IIEEEJJE@Q3_SetDYaw?3?5NOT?5SUPPORTED?5IN?5MP?6@ 201009b0     g_ICARUScb.obj
 0002:000109d4       ??_C@_0CG@COAJPODC@Q3_SetShootDist?3?5NOT?5SUPPORTED?5I@ 201009d4     g_ICARUScb.obj
 0002:000109fc       ??_C@_0CF@NJMCBLPP@Q3_SetVisrange?3?5NOT?5SUPPORTED?5IN@ 201009fc     g_ICARUScb.obj
 0002:00010a24       ??_C@_0CE@FOGKHNNC@Q3_SetEarshot?3?5NOT?5SUPPORTED?5IN?5@ 20100a24     g_ICARUScb.obj
 0002:00010a48       ??_C@_0CG@NCOHJODP@Q3_SetVigilance?3?5NOT?5SUPPORTED?5I@ 20100a48     g_ICARUScb.obj
 0002:00010a70       ??_C@_0CB@KEJNPDDB@Q3_SetVFOV?3?5NOT?5SUPPORTED?5IN?5MP?6@ 20100a70     g_ICARUScb.obj
 0002:00010a94       ??_C@_0CB@IEDCNDCJ@Q3_SetHFOV?3?5NOT?5SUPPORTED?5IN?5MP?6@ 20100a94     g_ICARUScb.obj
 0002:00010ab8       ??_C@_0CC@POIGMPIA@Q3_SetWidth?3?5NOT?5SUPPORTED?5IN?5MP@ 20100ab8     g_ICARUScb.obj
 0002:00010adc       ??_C@_0CD@EMLIABEN@Q3_SetInvisible?3?5invalid?5entID?5?$CF@ 20100adc     g_ICARUScb.obj
 0002:00010b00       ??_C@_0CE@PIDDFBMB@Q3_SetVampire?3?5NOT?5SUPPORTED?5IN?5@ 20100b00     g_ICARUScb.obj
 0002:00010b24       ??_C@_0CI@KPHKNKLN@Q3_SetGreetAllies?3?5NOT?5SUPPORTED@ 20100b24     g_ICARUScb.obj
 0002:00010b4c       ??_C@_0CH@INAAALMA@Q3_SetViewTarget?3?5NOT?5SUPPORTED?5@ 20100b4c     g_ICARUScb.obj
 0002:00010b74       ??_C@_0CI@LIPGPGCM@Q3_SetWatchTarget?3?5NOT?5SUPPORTED@ 20100b74     g_ICARUScb.obj
 0002:00010b9c       ??_C@_04OKGDLNCL@NONE?$AA@ 20100b9c     g_ICARUScb.obj
 0002:00010ba4       ??_C@_0CO@MOCJHIOF@Q3_SetLoopSound?3?5can?8t?5find?5soun@ 20100ba4     g_ICARUScb.obj
 0002:00010bd4       ??_C@_0CE@GLDAHAGL@Q3_SetICARUSFreeze?3?5invalid?5ent?5@ 20100bd4     g_ICARUScb.obj
 0002:00010bf8       ??_C@_0ED@OFAFODDH@Q3_SetViewEntity?5currently?5unsup@ 20100bf8     g_ICARUScb.obj
 0002:00010c3c       ??_C@_0DP@IBANFFCB@Q3_SetWeapon?5currently?5unsupport@ 20100c3c     g_ICARUScb.obj
 0002:00010c7c       ??_C@_0CB@NNJOIHCJ@Q3_SetItem?3?5NOT?5SUPPORTED?5IN?5MP?6@ 20100c7c     g_ICARUScb.obj
 0002:00010ca0       ??_C@_0CG@LHOEEEFG@Q3_SetWalkSpeed?3?5NOT?5SUPPORTED?5I@ 20100ca0     g_ICARUScb.obj
 0002:00010cc8       ??_C@_0CF@PGPGIIFN@Q3_SetRunSpeed?3?5NOT?5SUPPORTED?5IN@ 20100cc8     g_ICARUScb.obj
 0002:00010cf0       ??_C@_0CF@FIJNNGAH@Q3_SetYawSpeed?3?5NOT?5SUPPORTED?5IN@ 20100cf0     g_ICARUScb.obj
 0002:00010d18       ??_C@_0CH@EJDBNFOA@Q3_SetAggression?3?5NOT?5SUPPORTED?5@ 20100d18     g_ICARUScb.obj
 0002:00010d40       ??_C@_0CA@LBAFHFII@Q3_SetAim?3?5NOT?5SUPPORTED?5IN?5MP?6?$AA@ 20100d40     g_ICARUScb.obj
 0002:00010d60       ??_C@_0CC@HHJNFGMO@Q3_SetFriction?3?5invalid?5entID?5?$CFd@ 20100d60     g_ICARUScb.obj
 0002:00010d84       ??_C@_0CM@LCLLLBGM@Q3_SetFriction?3?5?8?$CFs?8?5is?5not?5an?5N@ 20100d84     g_ICARUScb.obj
 0002:00010db0       ??_C@_0CM@GOJPPMOB@Q3_SetFriction?5currently?5unsuppo@ 20100db0     g_ICARUScb.obj
 0002:00010ddc       ??_C@_0CB@OPIFNKEA@Q3_SetGravity?3?5invalid?5entID?5?$CFd?6@ 20100ddc     g_ICARUScb.obj
 0002:00010e00       ??_C@_0CL@LJGPGJEA@Q3_SetGravity?3?5?8?$CFs?8?5is?5not?5an?5NP@ 20100e00     g_ICARUScb.obj
 0002:00010e2c       ??_C@_0BO@BMCEKENC@Q3_SetWait?3?5invalid?5entID?5?$CFd?6?$AA@ 20100e2c     g_ICARUScb.obj
 0002:00010e4c       ??_C@_0CI@IJICFEJG@Q3_SetShotSpacing?3?5NOT?5SUPPORTED@ 20100e4c     g_ICARUScb.obj
 0002:00010e74       ??_C@_0CH@CKIHENOM@Q3_SetFollowDist?3?5NOT?5SUPPORTED?5@ 20100e74     g_ICARUScb.obj
 0002:00010e9c       ??_C@_0BP@FDBCCMPD@Q3_SetScale?3?5invalid?5entID?5?$CFd?6?$AA@ 20100e9c     g_ICARUScb.obj
 0002:00010ebc       ??_C@_0BP@ELEONGFB@Q3_SetCount?3?5invalid?5entID?5?$CFd?6?$AA@ 20100ebc     g_ICARUScb.obj
 0002:00010edc       ??_C@_0CE@HIBIPDAC@Q3_SetTargetName?3?5invalid?5entID?5@ 20100edc     g_ICARUScb.obj
 0002:00010f00       ??_C@_0CA@OAANMDLB@Q3_SetTarget?3?5invalid?5entID?5?$CFd?6?$AA@ 20100f00     g_ICARUScb.obj
 0002:00010f20       ??_C@_0CE@OMLFNBIO@Q3_SetTarget2?5does?5not?5exist?5in?5@ 20100f20     g_ICARUScb.obj
 0002:00010f44       ??_C@_0CJ@OOLBMPHJ@Q3_SetRemoveTarget?3?5NOT?5SUPPORTE@ 20100f44     g_ICARUScb.obj
 0002:00010f70       ??_C@_0CH@OAGBHJHJ@Q3_SetPainTarget?3?5NOT?5SUPPORTED?5@ 20100f70     g_ICARUScb.obj
 0002:00010f98       ??_C@_0CC@HABEDPNL@Q3_SetFullName?3?5invalid?5entID?5?$CFd@ 20100f98     g_ICARUScb.obj
 0002:00010fbc       ??_C@_0CH@OJJINCFJ@Q3_SetMusicState?3?5NOT?5SUPPORTED?5@ 20100fbc     g_ICARUScb.obj
 0002:00010fe4       ??_C@_0CM@PPMHDHDE@Q3_SetForcePowerLevel?3?5NOT?5SUPPO@ 20100fe4     g_ICARUScb.obj
 0002:00011010       ??_C@_0BO@PFDMMKKA@Q3_SetParm?3?5invalid?5entID?5?$CFd?6?$AA@ 20101010     g_ICARUScb.obj
 0002:00011030       ??_C@_0CE@MFFGPCBD@SET_PARM?3?5parmNum?5?$CFd?5out?5of?5rang@ 20101030     g_ICARUScb.obj
 0002:00011054       ??_C@_02NJPGOMH@?$CFf?$AA@ 20101054     g_ICARUScb.obj
 0002:00011058       ??_C@_0DG@HLJOBMIH@SET_PARM?3?5parm?$CFd?5string?5too?5long@ 20101058     g_ICARUScb.obj
 0002:00011090       ??_C@_0CI@JCIHHKOI@Q3_SetCaptureGoal?3?5NOT?5SUPPORTED@ 20101090     g_ICARUScb.obj
 0002:000110b8       ??_C@_0EE@BIFFCCCD@Q3_SetEvent?3?5NOT?5SUPPORTED?5IN?5MP@ 201010b8     g_ICARUScb.obj
 0002:000110fc       ??_C@_0CH@ICLHNGBO@Q3_SetIgnorePain?3?5NOT?5SUPPORTED?5@ 201010fc     g_ICARUScb.obj
 0002:00011124       ??_C@_0CK@OJMAFGML@Q3_SetIgnoreEnemies?3?5NOT?5SUPPORT@ 20101124     g_ICARUScb.obj
 0002:00011150       ??_C@_0CJ@FGMDHFJH@Q3_SetIgnoreAlerts?3?5NOT?5SUPPORTE@ 20101150     g_ICARUScb.obj
 0002:0001117c       ??_C@_0CC@IEMHPFPH@Q3_SetNoTarget?3?5invalid?5entID?5?$CFd@ 2010117c     g_ICARUScb.obj
 0002:000111a0       ??_C@_0CG@IPONEALP@Q3_SetDontShoot?3?5NOT?5SUPPORTED?5I@ 201011a0     g_ICARUScb.obj
 0002:000111c8       ??_C@_0CF@KCOGGPA@Q3_SetDontFire?3?5NOT?5SUPPORTED?5IN@ 201011c8     g_ICARUScb.obj
 0002:000111f0       ??_C@_0CH@GOLBOGPB@Q3_SetFireWeapon?3?5NOT?5SUPPORTED?5@ 201011f0     g_ICARUScb.obj
 0002:00011218       ??_C@_0CC@IPNFPFEH@Q3_SetInactive?3?5invalid?5entID?5?$CFd@ 20101218     g_ICARUScb.obj
 0002:0001123c       ??_C@_0CL@HBFECKBP@Q3_SetFuncUsableVisible?3?5invalid@ 2010123c     g_ICARUScb.obj
 0002:00011268       ??_C@_0CI@GMJBPEBE@Q3_SetLockedEnemy?3?5NOT?5SUPPORTED@ 20101268     g_ICARUScb.obj
 0002:00011290       ??_C@_0DA@DMHBACPI@Q3_SetCinematicSkipScript?3?5NOT?5S@ 20101290     g_ICARUScb.obj
 0002:000112c0       ??_C@_0CI@KNAEIPGM@Q3_SetNoMindTrick?3?5NOT?5SUPPORTED@ 201012c0     g_ICARUScb.obj
 0002:000112e8       ??_C@_0CF@IGAJKLAN@Q3_SetCrouched?3?5NOT?5SUPPORTED?5IN@ 201012e8     g_ICARUScb.obj
 0002:00011310       ??_C@_0CE@LMBOCNOF@Q3_SetWalking?3?5NOT?5SUPPORTED?5IN?5@ 20101310     g_ICARUScb.obj
 0002:00011334       ??_C@_0CE@KMPNCHCH@Q3_SetRunning?3?5NOT?5SUPPORTED?5IN?5@ 20101334     g_ICARUScb.obj
 0002:00011358       ??_C@_0CI@JHLNEJPD@Q3_SetForcedMarch?3?5NOT?5SUPPORTED@ 20101358     g_ICARUScb.obj
 0002:00011380       ??_C@_0CJ@CILLKGPD@Q3_SetChaseEnemies?3?5NOT?5SUPPORTE@ 20101380     g_ICARUScb.obj
 0002:000113ac       ??_C@_0CL@PGJBAOFF@Q3_SetLookForEnemies?3?5NOT?5SUPPOR@ 201013ac     g_ICARUScb.obj
 0002:000113d8       ??_C@_0CI@MEGHIBIK@Q3_SetFaceMoveDir?3?5NOT?5SUPPORTED@ 201013d8     g_ICARUScb.obj
 0002:00011400       ??_C@_0CE@OOMJNOLB@Q3_SetAltFire?3?5NOT?5SUPPORTED?5IN?5@ 20101400     g_ICARUScb.obj
 0002:00011424       ??_C@_0CF@FBOAINHP@Q3_SetDontFlee?3?5NOT?5SUPPORTED?5IN@ 20101424     g_ICARUScb.obj
 0002:0001144c       ??_C@_0CH@GKOIIBNJ@Q3_SetNoResponse?3?5NOT?5SUPPORTED?5@ 2010144c     g_ICARUScb.obj
 0002:00011474       ??_C@_0CH@GIGAIKED@Q3_SetCombatTalk?3?5NOT?5SUPPORTED?5@ 20101474     g_ICARUScb.obj
 0002:0001149c       ??_C@_0CG@EBKPKPKF@Q3_SetAlertTalk?3?5NOT?5SUPPORTED?5I@ 2010149c     g_ICARUScb.obj
 0002:000114c4       ??_C@_0CJ@HJHMFGJG@Q3_SetUseCpNearest?3?5NOT?5SUPPORTE@ 201014c4     g_ICARUScb.obj
 0002:000114f0       ??_C@_0CE@IEJDNJD@Q3_SetNoForce?3?5NOT?5SUPPORTED?5IN?5@ 201014f0     g_ICARUScb.obj
 0002:00011514       ??_C@_0CJ@COKJHFNP@Q3_SetNoAcrobatics?3?5NOT?5SUPPORTE@ 20101514     g_ICARUScb.obj
 0002:00011540       ??_C@_0CJ@JNKJIPFF@Q3_SetUseSubtitles?3?5NOT?5SUPPORTE@ 20101540     g_ICARUScb.obj
 0002:0001156c       ??_C@_0CK@FIOEJGFG@Q3_SetNoFallToDeath?3?5NOT?5SUPPORT@ 2010156c     g_ICARUScb.obj
 0002:00011598       ??_C@_0CK@ODIJCGBB@Q3_SetDismemberable?3?5NOT?5SUPPORT@ 20101598     g_ICARUScb.obj
 0002:000115c4       ??_C@_0CG@CGPJILHN@Q3_SetMoreLight?3?5NOT?5SUPPORTED?5I@ 201015c4     g_ICARUScb.obj
 0002:000115ec       ??_C@_0CE@BGKGFCNF@Q3_SetUndying?3?5NOT?5SUPPORTED?5IN?5@ 201015ec     g_ICARUScb.obj
 0002:00011610       ??_C@_0CG@KGMGIKGG@Q3_SetInvicible?3?5NOT?5SUPPORTED?5I@ 20101610     g_ICARUScb.obj
 0002:00011638       ??_C@_0CL@INALFELI@Q3_SetForceInvicible?3?5NOT?5SUPPOR@ 20101638     g_ICARUScb.obj
 0002:00011664       ??_C@_0CE@PBIADOBO@Q3_SetNoAvoid?3?5NOT?5SUPPORTED?5IN?5@ 20101664     g_ICARUScb.obj
 0002:00011688       ??_C@_0BP@KHNMPCCN@Q3_SetSolid?3?5invalid?5entID?5?$CFd?6?$AA@ 20101688     g_ICARUScb.obj
 0002:000116a8       ??_C@_0CF@NEOMJHAB@Q3_SetForwardMove?3?5invalid?5entID@ 201016a8     g_ICARUScb.obj
 0002:000116d0       ??_C@_0CP@ICAKKLLG@Q3_SetForwardMove?3?5?8?$CFs?8?5is?5not?5a@ 201016d0     g_ICARUScb.obj
 0002:00011700       ??_C@_0CI@IPAEJHPL@Q3_SetForwardMove?3?5NOT?5SUPPORTED@ 20101700     g_ICARUScb.obj
 0002:00011728       ??_C@_0CD@OOLKPGHL@Q3_SetRightMove?3?5invalid?5entID?5?$CF@ 20101728     g_ICARUScb.obj
 0002:0001174c       ??_C@_0CN@LHCDCLFN@Q3_SetRightMove?3?5?8?$CFs?8?5is?5not?5an?5@ 2010174c     g_ICARUScb.obj
 0002:0001177c       ??_C@_0CG@CIIMNEGA@Q3_SetRightMove?3?5NOT?5SUPPORTED?5I@ 2010177c     g_ICARUScb.obj
 0002:000117a4       ??_C@_0CD@OPPPOEEE@Q3_SetLockAngle?3?5invalid?5entID?5?$CF@ 201017a4     g_ICARUScb.obj
 0002:000117c8       ??_C@_0CN@GLOHFPCC@Q3_SetLockAngle?3?5?8?$CFs?8?5is?5not?5an?5@ 201017c8     g_ICARUScb.obj
 0002:000117f8       ??_C@_0EI@GFNDNKFM@Q3_SetLockAngle?5is?5not?5currently@ 201017f8     g_ICARUScb.obj
 0002:00011840       ??_C@_0CF@OBEJFALN@Q3_CameraGroup?3?5NOT?5SUPPORTED?5IN@ 20101840     g_ICARUScb.obj
 0002:00011868       ??_C@_0CJ@CCHBEHGG@Q3_CameraGroupZOfs?3?5NOT?5SUPPORTE@ 20101868     g_ICARUScb.obj
 0002:00011894       ??_C@_0CI@MIMKGII@Q3_CameraGroupTag?3?5NOT?5SUPPORTED@ 20101894     g_ICARUScb.obj
 0002:000118bc       ??_C@_0CK@LLMPPIOA@Q3_RemoveRHandModel?3?5NOT?5SUPPORT@ 201018bc     g_ICARUScb.obj
 0002:000118e8       ??_C@_0CH@IJNLLMLF@Q3_AddRHandModel?3?5NOT?5SUPPORTED?5@ 201018e8     g_ICARUScb.obj
 0002:00011910       ??_C@_0CH@IKNKFMPE@Q3_AddLHandModel?3?5NOT?5SUPPORTED?5@ 20101910     g_ICARUScb.obj
 0002:00011938       ??_C@_0CK@LIMOBIKB@Q3_RemoveLHandModel?3?5NOT?5SUPPORT@ 20101938     g_ICARUScb.obj
 0002:00011964       ??_C@_0CE@EIAGOOIC@Q3_LookTarget?3?5NOT?5SUPPORTED?5IN?5@ 20101964     g_ICARUScb.obj
 0002:00011988       ??_C@_0BO@CHEGICOC@Q3_Face?3?5NOT?5SUPPORTED?5IN?5MP?6?$AA@ 20101988     g_ICARUScb.obj
 0002:000119a8       ??_C@_0CF@GECFLGFB@Q3_SetLocation?3?5NOT?5SUPPORTED?5IN@ 201019a8     g_ICARUScb.obj
 0002:000119d0       ??_C@_0CJ@LKJFHILP@Q3_SetPlayerLocked?3?5NOT?5SUPPORTE@ 201019d0     g_ICARUScb.obj
 0002:000119fc       ??_C@_0CO@BICOHEL@Q3_SetLockPlayerWeapons?3?5NOT?5SUP@ 201019fc     g_ICARUScb.obj
 0002:00011a2c       ??_C@_0CL@PGEGAKDL@Q3_SetNoImpactDamage?3?5NOT?5SUPPOR@ 20101a2c     g_ICARUScb.obj
 0002:00011a58       ??_C@_0CF@OCDMAOLC@Q3_SetBehaviorSet?3?5invalid?5entID@ 20101a58     g_ICARUScb.obj
 0002:00011a80       ??_C@_0CM@GKOONPBI@Q3_SetDelayScriptTime?3?5NOT?5SUPPO@ 20101a80     g_ICARUScb.obj
 0002:00011aac       ??_C@_0CG@JEJEKGMB@Q3_SetPlayerUsable?3?5invalid?5entI@ 20101aac     g_ICARUScb.obj
 0002:00011ad4       ??_C@_0CP@CCMNBJKE@Q3_SetDisableShaderAnims?3?5NOT?5SU@ 20101ad4     g_ICARUScb.obj
 0002:00011b04       ??_C@_0CH@KMFGFNGJ@Q3_SetShaderAnim?3?5NOT?5SUPPORTED?5@ 20101b04     g_ICARUScb.obj
 0002:00011b2c       ??_C@_0CH@OBJEEJAK@Q3_SetStartFrame?3?5NOT?5SUPPORTED?5@ 20101b2c     g_ICARUScb.obj
 0002:00011b54       ??_C@_0CF@BCEIGBPO@Q3_SetEndFrame?3?5NOT?5SUPPORTED?5IN@ 20101b54     g_ICARUScb.obj
 0002:00011b7c       ??_C@_0CG@KGGHNAPL@Q3_SetAnimFrame?3?5NOT?5SUPPORTED?5I@ 20101b7c     g_ICARUScb.obj
 0002:00011ba4       ??_C@_0CF@IBCLAOLM@Q3_SetLoopAnim?3?5NOT?5SUPPORTED?5IN@ 20101ba4     g_ICARUScb.obj
 0002:00011bcc       ??_C@_0CE@JOHGFLKG@Q3_SetShields?3?5NOT?5SUPPORTED?5IN?5@ 20101bcc     g_ICARUScb.obj
 0002:00011bf0       ??_C@_0CH@FMKKHNJF@Q3_SetSaberActive?3?5?$CFd?5is?5not?5a?5c@ 20101bf0     g_ICARUScb.obj
 0002:00011c18       ??_C@_0CF@DJKLPEAH@Q3_SetNoKnockback?3?5invalid?5entID@ 20101c18     g_ICARUScb.obj
 0002:00011c40       ??_C@_0CO@LDABFGLN@Q3_SetCleanDamagingEnts?3?5NOT?5SUP@ 20101c40     g_ICARUScb.obj
 0002:00011c70       ??_C@_0CD@JKPKENIC@SetTextColor?3?5NOT?5SUPPORTED?5IN?5M@ 20101c70     g_ICARUScb.obj
 0002:00011c94       ??_C@_0CE@HJDICHCA@Q3_ScrollText?3?5NOT?5SUPPORTED?5IN?5@ 20101c94     g_ICARUScb.obj
 0002:00011cb8       ??_C@_04FKOMJDGK@NPC_?$AA@ 20101cb8     g_ICARUScb.obj
 0002:00011cc0       ??_C@_0CC@PMKDDKLG@Q3_SetEnemy?3?5NOT?5SUPPORTED?5IN?5MP@ 20101cc0     g_ICARUScb.obj
 0002:00011ce4       ??_C@_0CD@MCMJKGIM@Q3_SetLeader?3?5NOT?5SUPPORTED?5IN?5M@ 20101ce4     g_ICARUScb.obj
 0002:00011d08       ??_C@_0CE@JFMDODLB@Q3_SetNavGoal?3?5NOT?5SUPPORTED?5IN?5@ 20101d08     g_ICARUScb.obj
 0002:00011d2c       ??_C@_0CM@NCFHKIBJ@Q3_SetAnimUpper?3?5?$CFs?5does?5not?5hav@ 20101d2c     g_ICARUScb.obj
 0002:00011d58       ??_C@_0CM@KBGGANFK@Q3_SetAnimLower?3?5?$CFs?5does?5not?5hav@ 20101d58     g_ICARUScb.obj
 0002:00011d88       ??_C@_0FG@LAAJKIOB@Q3_SetPlayerTeam?3?5Not?5in?5MP?5ATM?0@ 20101d88     g_ICARUScb.obj
 0002:00011de0       ??_C@_0CG@BFMBEJHK@Q3_SetEnemyTeam?3?5NOT?5SUPPORTED?5I@ 20101de0     g_ICARUScb.obj
 0002:00011e08       ??_C@_04LOAJBDKD@true?$AA@ 20101e08     g_ICARUScb.obj
 0002:00011e10       ??_C@_05LAPONLG@false?$AA@ 20101e10     g_ICARUScb.obj
 0002:00011e18       ??_C@_0BO@EICFGPMP@SET_LEAN?5NOT?5SUPPORTED?5IN?5MP?6?$AA@ 20101e18     g_ICARUScb.obj
 0002:00011e38       ??_C@_0CC@DOMMKNNO@Q3_SetDefendTarget?5unimplemented@ 20101e38     g_ICARUScb.obj
 0002:00011e5c       ??_C@_0CE@IBMFOANF@Q3_SetBehaviorSet?3?5Invalid?5bSet?5@ 20101e5c     g_ICARUScb.obj
 0002:00011e80       ??_C@_0CH@JCFAIGEJ@SET_TREASONED?5is?5disabled?0?5do?5no@ 20101e80     g_ICARUScb.obj
 0002:00011ea8       ??_C@_0CG@DNAENFCD@Q3_SetInterface?3?5NOT?5SUPPORTED?5I@ 20101ea8     g_ICARUScb.obj
 0002:00011ed0       ??_C@_0CO@NIABCKLL@Q3_SetAdjustAreaPortals?3?5NOT?5SUP@ 20101ed0     g_ICARUScb.obj
 0002:00011f00       ??_C@_0CP@JDMNMMLI@Q3_SetDmgByHeavyWeapOnly?3?5NOT?5SU@ 20101f00     g_ICARUScb.obj
 0002:00011f30       ??_C@_0CF@LNPIOICJ@Q3_SetShielded?3?5NOT?5SUPPORTED?5IN@ 20101f30     g_ICARUScb.obj
 0002:00011f58       ??_C@_0CF@OEGBIPBC@Q3_SetNoGroups?3?5NOT?5SUPPORTED?5IN@ 20101f58     g_ICARUScb.obj
 0002:00011f80       ??_C@_08KOCPJOKL@unlocked?$AA@ 20101f80     g_ICARUScb.obj
 0002:00011f8c       ??_C@_06KKBPGBGI@locked?$AA@ 20101f8c     g_ICARUScb.obj
 0002:00011f94       ??_C@_0CN@JHPKMNGP@SET_END_SCREENDISSOLVE?3?5NOT?5SUPP@ 20101f94     g_ICARUScb.obj
 0002:00011fc4       ??_C@_0DA@HIILJFBD@SET_MISSION_STATUS_SCREEN?3?5NOT?5S@ 20101fc4     g_ICARUScb.obj
 0002:00011ff4       ??_C@_0CF@DKBHEAEE@SET_VIDEO_PLAY?3?5NOT?5SUPPORTED?5IN@ 20101ff4     g_ICARUScb.obj
 0002:0001201c       ??_C@_0CI@HPODCNPE@SET_VIDEO_FADE_IN?3?5NOT?5SUPPORTED@ 2010201c     g_ICARUScb.obj
 0002:00012044       ??_C@_0CJ@PECCFIDD@SET_VIDEO_FADE_OUT?3?5NOT?5SUPPORTE@ 20102044     g_ICARUScb.obj
 0002:00012070       ??_C@_0CD@FAIDDGDB@SET_LOADGAME?3?5NOT?5SUPPORTED?5IN?5M@ 20102070     g_ICARUScb.obj
 0002:00012094       ??_C@_0CJ@GOAAPPFB@SET_OBJECTIVE_SHOW?3?5NOT?5SUPPORTE@ 20102094     g_ICARUScb.obj
 0002:000120c0       ??_C@_0CJ@BJMJJPAM@SET_OBJECTIVE_HIDE?3?5NOT?5SUPPORTE@ 201020c0     g_ICARUScb.obj
 0002:000120ec       ??_C@_0CO@HADCKACA@SET_OBJECTIVE_SUCCEEDED?3?5NOT?5SUP@ 201020ec     g_ICARUScb.obj
 0002:0001211c       ??_C@_0CL@IGHBAIB@SET_OBJECTIVE_FAILED?3?5NOT?5SUPPOR@ 2010211c     g_ICARUScb.obj
 0002:00012148       ??_C@_0CN@JPBDDHDN@SET_OBJECTIVE_CLEARALL?3?5NOT?5SUPP@ 20102148     g_ICARUScb.obj
 0002:00012178       ??_C@_0CI@HCDKOMIJ@SET_MISSIONFAILED?3?5NOT?5SUPPORTED@ 20102178     g_ICARUScb.obj
 0002:000121a0       ??_C@_0CM@KNDGBPPG@SET_MISSIONSTATUSTEXT?3?5NOT?5SUPPO@ 201021a0     g_ICARUScb.obj
 0002:000121cc       ??_C@_0CM@CKOEEDBF@SET_MISSIONSTATUSTIME?3?5NOT?5SUPPO@ 201021cc     g_ICARUScb.obj
 0002:000121f8       ??_C@_0CJ@NFLMPJMH@SET_CLOSINGCREDITS?3?5NOT?5SUPPORTE@ 201021f8     g_ICARUScb.obj
 0002:00012224       ??_C@_0BO@NEIEBHHA@SET_HUD?3?5NOT?5SUPPORTED?5IN?5MP?6?$AA@ 20102224     g_ICARUScb.obj
 0002:00012248       __real@3fc0000000000000    20102248     g_ICARUScb.obj
 0002:00012250       __real@408f400000000000    20102250     g_ICARUScb.obj
 0002:00012258       __real@bff0000000000000    20102258     g_ICARUScb.obj
 0002:00012260       ??_C@_0CF@LJNBJIDP@sound?1movers?1doors?1forcefield_lp@ 20102260     g_items.obj
 0002:00012288       ??_C@_0CA@IPNCHNFD@sound?1weapons?1detpack?1stick?4wav?$AA@ 20102288     g_items.obj
 0002:000122a8       ??_C@_0CF@LBOFOBEJ@sound?1movers?1doors?1forcefield_on@ 201022a8     g_items.obj
 0002:000122d0       ??_C@_0CG@PPCIBEMP@sound?1movers?1doors?1forcefield_of@ 201022d0     g_items.obj
 0002:000122f8       ??_C@_0BM@JFNNBAEN@sound?1effects?1bumpfield?4wav?$AA@ 201022f8     g_items.obj
 0002:00012314       ??_C@_0BM@MAPGBELF@sound?1chars?1turret?1ping?4wav?$AA@ 20102314     g_items.obj
 0002:00012330       ??_C@_0BP@OJENPHJJ@sound?1chars?1turret?1startup?4wav?$AA@ 20102330     g_items.obj
 0002:00012350       ??_C@_0CA@DICAJEGI@sound?1chars?1turret?1shutdown?4wav?$AA@ 20102350     g_items.obj
 0002:00012370       ??_C@_09NHBGIJCK@sentryGun?$AA@ 20102370     g_items.obj
 0002:0001237c       ??_C@_06IMIHEKN@remote?$AA@ 2010237c     g_items.obj
 0002:00012384       ??_C@_0BB@HABBMFAB@sound?1boba?1JETON?$AA@ 20102384     g_items.obj
 0002:00012398       ??_C@_0BG@OPKCOLIH@detpack?1explosion?4efx?$AA@ 20102398     g_items.obj
 0002:000123b0       ??_C@_0BI@PAKJOHBB@turret?1muzzle_flash?4efx?$AA@ 201023b0     g_items.obj
 0002:000123c8       ??_C@_0CJ@GLDMAFKL@WARNING?3?5E?9Web?5has?5no?5free?5bone?5@ 201023c8     g_items.obj
 0002:000123f4       ??_C@_0N@LEJMDHBI@generic_proj?$AA@ 201023f4     g_items.obj
 0002:00012404       ??_C@_0M@MCEEGKKK@cannon_Yrot?$AA@ 20102404     g_items.obj
 0002:00012410       ??_C@_0M@PPCEEDBK@cannon_Xrot?$AA@ 20102410     g_items.obj
 0002:0001241c       ??_C@_0N@MEJHFJDP@?$CKcannonflash?$AA@ 2010241c     g_items.obj
 0002:0001242c       ??_C@_0BM@BNLFEEPK@RespawnItem?3?5bad?5teammaster?$AA@ 2010242c     g_items.obj
 0002:00012448       ??_C@_0BF@GCEDHLNA@sound?1items?1respawn1?$AA@ 20102448     g_items.obj
 0002:00012460       ??_C@_0N@OCCHADDH@Item?3?5?$CFi?5?$CFs?6?$AA@ 20102460     g_items.obj
 0002:00012470       ??_C@_0CJ@EMOANFCC@FinishSpawningItem?3?5?$CFs?5startsoli@ 20102470     g_items.obj
 0002:0001249c       ??_C@_0CG@DNHJENHJ@?$FO3WARNING?3?5No?5team_CTF_redflag?5i@ 2010249c     g_items.obj
 0002:000124c4       ??_C@_0CH@HHMBIMLK@?$FO3WARNING?3?5No?5team_CTF_blueflag?5@ 201024c4     g_items.obj
 0002:000124ec       ??_C@_0BD@LOGEPNHD@RegisterItem?3?5NULL?$AA@ 201024ec     g_items.obj
 0002:00012500       ??_C@_0L@BHNPAADM@disable_?$CFs?$AA@ 20102500     g_items.obj
 0002:0001250c       ??_C@_04PNOAOIAG@wait?$AA@ 2010250c     g_items.obj
 0002:00012514       ??_C@_0O@MNEGCFDN@noglobalsound?$AA@ 20102514     g_items.obj
 0002:00012524       __real@38d1b717            20102524     g_items.obj
 0002:00012528       __real@3f666666            20102528     g_items.obj
 0002:00012530       __real@4000000000000000    20102530     g_items.obj
 0002:00012538       __real@4010000000000000    20102538     g_items.obj
 0002:00012540       __real@4020000000000000    20102540     g_items.obj
 0002:00012548       __real@4069000000000000    20102548     g_items.obj
 0002:00012550       __real@406f400000000000    20102550     g_items.obj
 0002:00012558       __real@409f400000000000    20102558     g_items.obj
 0002:00012560       __real@42400000            20102560     g_items.obj
 0002:00012564       __real@437e0000            20102564     g_items.obj
 0002:00012568       __real@491c4000            20102568     g_items.obj
 0002:0001256c       ??_C@_09CPHJPBDM@No?5Weapon?$AA@ 2010256c     g_log.obj
 0002:00012578       ??_C@_0L@IAAENFDO@Stun?5Baton?$AA@ 20102578     g_log.obj
 0002:00012584       ??_C@_05KCEPFHMP@Saber?$AA@ 20102584     g_log.obj
 0002:0001258c       ??_C@_0N@KFIALKIM@Bryar?5Pistol?$AA@ 2010258c     g_log.obj
 0002:0001259c       ??_C@_07HHOBKAAD@Blaster?$AA@ 2010259c     g_log.obj
 0002:000125a4       ??_C@_09DKCOIMMC@Disruptor?$AA@ 201025a4     g_log.obj
 0002:000125b0       ??_C@_09NDLJKDAE@Bowcaster?$AA@ 201025b0     g_log.obj
 0002:000125bc       ??_C@_08HKBCBJDF@Repeater?$AA@ 201025bc     g_log.obj
 0002:000125c8       ??_C@_05PLOLPNOE@Demp2?$AA@ 201025c8     g_log.obj
 0002:000125d0       ??_C@_09NIJHHNG@Flechette?$AA@ 201025d0     g_log.obj
 0002:000125dc       ??_C@_0BA@DJIGCIDL@Rocket?5Launcher?$AA@ 201025dc     g_log.obj
 0002:000125ec       ??_C@_07GBNCFIAM@Thermal?$AA@ 201025ec     g_log.obj
 0002:000125f4       ??_C@_08LAHOBLIM@Tripmine?$AA@ 201025f4     g_log.obj
 0002:00012600       ??_C@_07MIOHHHKI@Detpack?$AA@ 20102600     g_log.obj
 0002:00012608       ??_C@_0N@ECMOFALD@Emplaced?5gun?$AA@ 20102608     g_log.obj
 0002:00012618       ??_C@_06KJINBPNG@Turret?$AA@ 20102618     g_log.obj
 0002:00012620       ??_C@_09MGFHLAFE@?$DMUnknown?$DO?$AA@ 20102620     g_log.obj
 0002:0001262c       ??_C@_0CK@PKHINOIC@?$CK?$CK?$CK?$CK?$CK?$CK?$CK?$CK?$CK?$CK?$CK?$CK?$CK?$CK?$CK?$CK?$CK?$CK?$CK?$CK?$CK?$CK?$CK?$CK?$CK?$CK?$CK?$CK?$CKWea@ 2010262c     g_log.obj
 0002:00012658       ??_C@_0BG@ONGDBFEP@?6?$CK?$CK?$CK?$CKData?5by?5Weapon?3?6?$AA@ 20102658     g_log.obj
 0002:00012670       ??_C@_0DA@FNJFIEEP@?$CF15s?3?5?5Pickups?3?5?$CF4d?0?5?5Time?3?5?5?$CF5d@ 20102670     g_log.obj
 0002:000126a0       ??_C@_0BN@FIPOFFMM@?6?$CK?$CK?$CK?$CKCombat?5Data?5by?5Weapon?3?6?$AA@ 201026a0     g_log.obj
 0002:000126c0       ??_C@_0DE@JELLGPPF@?$CF15s?3?5?5Damage?3?5?$CF6d?0?5?5Kills?3?5?$CF5d?0@ 201026c0     g_log.obj
 0002:000126f4       ??_C@_0CC@IGLCDGIG@?6?$CK?$CK?$CK?$CKCombat?5Data?5By?5Damage?5Type?3@ 201026f4     g_log.obj
 0002:00012718       ??_C@_0CB@PAFHPFHO@?$CF25s?3?5?5Damage?3?5?$CF6d?0?5?5Kills?3?5?$CF5d?6@ 20102718     g_log.obj
 0002:0001273c       ??_C@_0BA@KOEEDGLD@?6?6?6Level?3?7?$CFs?6?6?6?$AA@ 2010273c     g_log.obj
 0002:0001274c       ??_C@_0BN@MEEADNMP@Weapon?5Pickups?5per?5Player?3?6?6?$AA@ 2010274c     g_log.obj
 0002:0001276c       ??_C@_06NPAAKFED@Player?$AA@ 2010276c     g_log.obj
 0002:00012774       ??_C@_03JJCHMBFH@?7?$CFs?$AA@ 20102774     g_log.obj
 0002:00012778       ??_C@_03JMKEEFMB@?7?$CFd?$AA@ 20102778     g_log.obj
 0002:0001277c       ??_C@_0L@MKEHHKLO@?6?$CK?$CK?$CKTOTAL?3?$AA@ 2010277c     g_log.obj
 0002:00012788       ??_C@_03EGHOKNNL@?6?6?6?$AA@ 20102788     g_log.obj
 0002:0001278c       ??_C@_0BL@CJNMLKAL@Weapon?5Shots?5per?5Player?3?6?6?$AA@ 2010278c     g_log.obj
 0002:000127a8       ??_C@_0BO@BFNFPBI@Weapon?5Use?5Time?5per?5Player?3?6?6?$AA@ 201027a8     g_log.obj
 0002:000127c8       ??_C@_0BM@KPDEJINI@Weapon?5Deaths?5per?5Player?3?6?6?$AA@ 201027c8     g_log.obj
 0002:000127e4       ??_C@_0BM@LIHNDKLG@Weapon?5Damage?5per?5Player?3?6?6?$AA@ 201027e4     g_log.obj
 0002:00012800       ??_C@_0BL@JIOEEMEF@Weapon?5Kills?5per?5Player?3?6?6?$AA@ 20102800     g_log.obj
 0002:0001281c       ??_C@_0BL@MFCNIKCL@Typed?5Damage?5per?5Player?3?6?6?$AA@ 2010281c     g_log.obj
 0002:00012838       ??_C@_0CB@FOMKLEFI@Damage?9Typed?5Kills?5per?5Player?3?6?6@ 20102838     g_log.obj
 0002:0001285c       ??_C@_09NFOPKLIK@sv_cheats?$AA@ 2010285c     g_main.obj
 0002:00012868       ??_C@_0N@HGBPBCI@g_debugMelee?$AA@ 20102868     g_main.obj
 0002:00012878       ??_C@_0P@HJKJKMBJ@g_stepSlideFix?$AA@ 20102878     g_main.obj
 0002:00012888       ??_C@_0N@NEBLEAPN@g_noSpecMove?$AA@ 20102888     g_main.obj
 0002:00012898       ??_C@_08HCPAIKAO@gamename?$AA@ 20102898     g_main.obj
 0002:000128a4       ??_C@_06MMNBMAAG@basejk?$AA@ 201028a4     g_main.obj
 0002:000128ac       ??_C@_08CLLHAKFA@gamedate?$AA@ 201028ac     g_main.obj
 0002:000128b8       ??_C@_0M@PDHKCANE@Aug?5?58?52016?$AA@ 201028b8     g_main.obj
 0002:000128c4       ??_C@_0M@GHMJJAD@g_restarted?$AA@ 201028c4     g_main.obj
 0002:000128d0       ??_C@_0L@DFBEGALI@sv_mapname?$AA@ 201028d0     g_main.obj
 0002:000128dc       ??_C@_0BD@LBOACHNB@g_MaxHolocronCarry?$AA@ 201028dc     g_main.obj
 0002:000128f0       ??_C@_01EKENIIDA@3?$AA@    201028f0     g_main.obj
 0002:000128f4       ??_C@_0O@OCOCOONB@sv_maxclients?$AA@ 201028f4     g_main.obj
 0002:00012904       ??_C@_0BB@JCLDAPBF@g_maxGameClients?$AA@ 20102904     g_main.obj
 0002:00012918       ??_C@_0BA@GEOGCBON@g_ff_objectives?$AA@ 20102918     g_main.obj
 0002:00012928       ??_C@_0P@FDDJNJFA@g_autoMapCycle?$AA@ 20102928     g_main.obj
 0002:00012938       ??_C@_07GMGCLCAP@dmflags?$AA@ 20102938     g_main.obj
 0002:00012940       ??_C@_0P@CHCANPBO@g_maxForceRank?$AA@ 20102940     g_main.obj
 0002:00012950       ??_C@_01DHDKHMHF@6?$AA@    20102950     g_main.obj
 0002:00012954       ??_C@_0BC@PJKMCDAC@g_forceBasedTeams?$AA@ 20102954     g_main.obj
 0002:00012968       ??_C@_0O@OPHIPHAF@g_privateDuel?$AA@ 20102968     g_main.obj
 0002:00012978       ??_C@_0L@FLLBIKMH@g_allowNPC?$AA@ 20102978     g_main.obj
 0002:00012984       ??_C@_0O@OEFDJDKM@g_armBreakage?$AA@ 20102984     g_main.obj
 0002:00012994       ??_C@_0P@JIPDIBPM@g_saberLocking?$AA@ 20102994     g_main.obj
 0002:000129a4       ??_C@_0BC@DNAOHNEC@g_saberLockFactor?$AA@ 201029a4     g_main.obj
 0002:000129b8       ??_C@_01FDFGLJHB@2?$AA@    201029b8     g_main.obj
 0002:000129bc       ??_C@_0BH@IJJCLPPE@g_saberTraceSaberFirst?$AA@ 201029bc     g_main.obj
 0002:000129d4       ??_C@_0BB@FAOLIGPD@d_saberKickTweak?$AA@ 201029d4     g_main.obj
 0002:000129e8       ??_C@_0BB@EELDEKFP@d_powerDuelPrint?$AA@ 201029e8     g_main.obj
 0002:000129fc       ??_C@_0BH@KMJFDBIB@d_saberGhoul2Collision?$AA@ 201029fc     g_main.obj
 0002:00012a14       ??_C@_0BC@DEOHEJDD@g_saberBladeFaces?$AA@ 20102a14     g_main.obj
 0002:00012a28       ??_C@_0BG@IBMMAMDL@d_saberAlwaysBoxTrace?$AA@ 20102a28     g_main.obj
 0002:00012a40       ??_C@_0BE@LEOJHBNF@d_saberBoxTraceSize?$AA@ 20102a40     g_main.obj
 0002:00012a54       ??_C@_0BB@GJBELIIP@d_siegeSeekerNPC?$AA@ 20102a54     g_main.obj
 0002:00012a68       ??_C@_0BC@JEKMGMLC@d_perPlayerGhoul2?$AA@ 20102a68     g_main.obj
 0002:00012a7c       ??_C@_0BM@EIHFLMHB@d_projectileGhoul2Collision?$AA@ 20102a7c     g_main.obj
 0002:00012a98       ??_C@_0N@HIGNPAIM@g_g2TraceLod?$AA@ 20102a98     g_main.obj
 0002:00012aa8       ??_C@_0BG@GJEJMBNO@g_locationBasedDamage?$AA@ 20102aa8     g_main.obj
 0002:00012ac0       ??_C@_0BH@OFEFINNB@g_allowHighPingDuelist?$AA@ 20102ac0     g_main.obj
 0002:00012ad8       ??_C@_0BA@FJCJHCLC@g_logClientInfo?$AA@ 20102ad8     g_main.obj
 0002:00012ae8       ??_C@_0BA@NNNILBMI@g_slowmoDuelEnd?$AA@ 20102ae8     g_main.obj
 0002:00012af8       ??_C@_0BD@LOLGKFFL@g_saberDamageScale?$AA@ 20102af8     g_main.obj
 0002:00012b0c       ??_C@_0BD@HEBIMMFC@g_useWhileThrowing?$AA@ 20102b0c     g_main.obj
 0002:00012b20       ??_C@_03HIMFCAJL@RMG?$AA@  20102b20     g_main.obj
 0002:00012b24       ??_C@_06JGIFLGEL@sv_fps?$AA@ 20102b24     g_main.obj
 0002:00012b2c       ??_C@_0BB@HEMNENJN@g_forceRegenTime?$AA@ 20102b2c     g_main.obj
 0002:00012b40       ??_C@_03HPLEMDKK@200?$AA@  20102b40     g_main.obj
 0002:00012b44       ??_C@_0BH@MODHAGDO@g_spawnInvulnerability?$AA@ 20102b44     g_main.obj
 0002:00012b5c       ??_C@_04NEFKOBHG@3000?$AA@ 20102b5c     g_main.obj
 0002:00012b64       ??_C@_0BE@EDCPOKDI@g_forcePowerDisable?$AA@ 20102b64     g_main.obj
 0002:00012b78       ??_C@_0BA@DKHOJHPN@g_weaponDisable?$AA@ 20102b78     g_main.obj
 0002:00012b88       ??_C@_0BE@OBOCPLPN@g_duelWeaponDisable?$AA@ 20102b88     g_main.obj
 0002:00012b9c       ??_C@_0BD@KCFCBDHK@g_allowDuelSuicide?$AA@ 20102b9c     g_main.obj
 0002:00012bb0       ??_C@_0BK@BMHLIDIL@g_fraglimitVoteCorrection?$AA@ 20102bb0     g_main.obj
 0002:00012bcc       ??_C@_0P@CFJBJECC@duel_fraglimit?$AA@ 20102bcc     g_main.obj
 0002:00012bdc       ??_C@_02PKFBJPLJ@10?$AA@   20102bdc     g_main.obj
 0002:00012be0       ??_C@_0N@FCAHJCDA@capturelimit?$AA@ 20102be0     g_main.obj
 0002:00012bf0       ??_C@_0BF@LICFCALK@g_synchronousClients?$AA@ 20102bf0     g_main.obj
 0002:00012c08       ??_C@_0BD@HEIAADBN@d_saberInterpolate?$AA@ 20102c08     g_main.obj
 0002:00012c1c       ??_C@_0P@IEOFAMLI@g_friendlyFire?$AA@ 20102c1c     g_main.obj
 0002:00012c2c       ??_C@_0BA@OLEFEKLA@g_friendlySaber?$AA@ 20102c2c     g_main.obj
 0002:00012c3c       ??_C@_0P@PONBNCIE@g_teamAutoJoin?$AA@ 20102c3c     g_main.obj
 0002:00012c4c       ??_C@_0BD@CLGJCDLA@g_teamForceBalance?$AA@ 20102c4c     g_main.obj
 0002:00012c60       ??_C@_08HAMOJLDA@g_warmup?$AA@ 20102c60     g_main.obj
 0002:00012c6c       ??_C@_05PJEIAAGC@g_log?$AA@ 20102c6c     g_main.obj
 0002:00012c74       ??_C@_09BNLGBMID@games?4log?$AA@ 20102c74     g_main.obj
 0002:00012c80       ??_C@_09IPDDEHO@g_logSync?$AA@ 20102c80     g_main.obj
 0002:00012c8c       ??_C@_09MPFCGIGE@g_statLog?$AA@ 20102c8c     g_main.obj
 0002:00012c98       ??_C@_0O@LJAMKCPN@g_statLogFile?$AA@ 20102c98     g_main.obj
 0002:00012ca8       ??_C@_0M@IDBCKIML@statlog?4log?$AA@ 20102ca8     g_main.obj
 0002:00012cb4       ??_C@_0L@GHAPAPFD@g_password?$AA@ 20102cb4     g_main.obj
 0002:00012cc0       ??_C@_08NKMDLNHL@g_banIPs?$AA@ 20102cc0     g_main.obj
 0002:00012ccc       ??_C@_0M@NIKBMNDP@g_filterBan?$AA@ 20102ccc     g_main.obj
 0002:00012cd8       ??_C@_0L@MLCEEGBP@g_needpass?$AA@ 20102cd8     g_main.obj
 0002:00012ce4       ??_C@_09BJOAODLF@dedicated?$AA@ 20102ce4     g_main.obj
 0002:00012cf0       ??_C@_09DNECJBKD@developer?$AA@ 20102cf0     g_main.obj
 0002:00012cfc       ??_C@_07KCHPCPJD@g_speed?$AA@ 20102cfc     g_main.obj
 0002:00012d04       ??_C@_03HJHPABEB@250?$AA@  20102d04     g_main.obj
 0002:00012d08       ??_C@_09HNGNBNKN@g_gravity?$AA@ 20102d08     g_main.obj
 0002:00012d14       ??_C@_03BAAJCDMO@800?$AA@  20102d14     g_main.obj
 0002:00012d18       ??_C@_0M@PDFGFIOM@g_knockback?$AA@ 20102d18     g_main.obj
 0002:00012d24       ??_C@_04KOJKLCBG@1000?$AA@ 20102d24     g_main.obj
 0002:00012d2c       ??_C@_0N@LCBCFAFA@g_quadfactor?$AA@ 20102d2c     g_main.obj
 0002:00012d3c       ??_C@_0BA@CMOCDPF@g_weaponrespawn?$AA@ 20102d3c     g_main.obj
 0002:00012d4c       ??_C@_01BMBHCPLG@5?$AA@    20102d4c     g_main.obj
 0002:00012d50       ??_C@_0BE@CNNPIPEC@g_weaponTeamRespawn?$AA@ 20102d50     g_main.obj
 0002:00012d64       ??_C@_0P@NICEABAK@g_adaptrespawn?$AA@ 20102d64     g_main.obj
 0002:00012d74       ??_C@_0P@JEPDGNEP@g_forcerespawn?$AA@ 20102d74     g_main.obj
 0002:00012d84       ??_C@_02PPBOIJDM@60?$AA@   20102d84     g_main.obj
 0002:00012d88       ??_C@_0P@KFLGMOAC@g_siegeRespawn?$AA@ 20102d88     g_main.obj
 0002:00012d98       ??_C@_0N@JGEKALLI@g_inactivity?$AA@ 20102d98     g_main.obj
 0002:00012da8       ??_C@_0M@EPOBGCBB@g_debugMove?$AA@ 20102da8     g_main.obj
 0002:00012db4       ??_C@_0O@JCLHDLKF@g_debugDamage?$AA@ 20102db4     g_main.obj
 0002:00012dc4       ??_C@_0N@CGHOHBHC@g_debugAlloc?$AA@ 20102dc4     g_main.obj
 0002:00012dd4       ??_C@_0BC@PBKDCGIC@g_debugServerSkel?$AA@ 20102dd4     g_main.obj
 0002:00012de8       ??_C@_06IBNENCEO@g_motd?$AA@ 20102de8     g_main.obj
 0002:00012df0       ??_C@_09DKNLLEN@com_blood?$AA@ 20102df0     g_main.obj
 0002:00012dfc       ??_C@_0N@CBICAJMD@g_podiumDist?$AA@ 20102dfc     g_main.obj
 0002:00012e0c       ??_C@_02PFIAKEDG@80?$AA@   20102e0c     g_main.obj
 0002:00012e10       ??_C@_0N@NHMKEGEN@g_podiumDrop?$AA@ 20102e10     g_main.obj
 0002:00012e20       ??_C@_0M@MECNLONK@g_allowVote?$AA@ 20102e20     g_main.obj
 0002:00012e2c       ??_C@_0N@JIFICDHI@g_listEntity?$AA@ 20102e2c     g_main.obj
 0002:00012e3c       ??_C@_06DAMJBNEB@Empire?$AA@ 20102e3c     g_main.obj
 0002:00012e44       ??_C@_09CBAPOGED@Rebellion?$AA@ 20102e44     g_main.obj
 0002:00012e50       ??_C@_0BG@JDIGCOKJ@ui_singlePlayerActive?$AA@ 20102e50     g_main.obj
 0002:00012e68       ??_C@_0N@CMGOADK@g_enableDust?$AA@ 20102e68     g_main.obj
 0002:00012e78       ??_C@_0P@INMNNPOJ@g_enableBreath?$AA@ 20102e78     g_main.obj
 0002:00012e88       ??_C@_0BA@EKPBHCCJ@g_smoothClients?$AA@ 20102e88     g_main.obj
 0002:00012e98       ??_C@_0M@HOGKGHBI@pmove_fixed?$AA@ 20102e98     g_main.obj
 0002:00012ea4       ??_C@_0L@NIHHPBKG@g_rankings?$AA@ 20102ea4     g_main.obj
 0002:00012eb0       ??_C@_0M@CIHFLNHE@g_dismember?$AA@ 20102eb0     g_main.obj
 0002:00012ebc       ??_C@_0N@GCCLAGDM@g_forceDodge?$AA@ 20102ebc     g_main.obj
 0002:00012ecc       ??_C@_0BA@GGPAFJBF@g_timeouttospec?$AA@ 20102ecc     g_main.obj
 0002:00012edc       ??_C@_0BI@GFPNDEOK@g_saberDmgVelocityScale?$AA@ 20102edc     g_main.obj
 0002:00012ef4       ??_C@_0BF@CAPOCMN@g_saberDmgDelay_Idle?$AA@ 20102ef4     g_main.obj
 0002:00012f0c       ??_C@_03MBMDGGCE@350?$AA@  20102f0c     g_main.obj
 0002:00012f10       ??_C@_0BG@ILAOLKEC@g_saberDmgDelay_Wound?$AA@ 20102f10     g_main.obj
 0002:00012f28       ??_C@_0BC@OACCCBHF@g_saberDebugPrint?$AA@ 20102f28     g_main.obj
 0002:00012f3c       ??_C@_0BC@FMBEGICA@g_debugSaberLocks?$AA@ 20102f3c     g_main.obj
 0002:00012f50       ??_C@_0BG@HDBKMGHE@g_saberLockRandomNess?$AA@ 20102f50     g_main.obj
 0002:00012f68       ??_C@_0BH@EKBEPDMH@g_saberWallDamageScale?$AA@ 20102f68     g_main.obj
 0002:00012f80       ??_C@_03KHGJEAFP@0?44?$AA@ 20102f80     g_main.obj
 0002:00012f84       ??_C@_0BD@FJOJPMLN@d_saberStanceDebug?$AA@ 20102f84     g_main.obj
 0002:00012f98       ??_C@_0BC@HHPGHHIK@g_siegeTeamSwitch?$AA@ 20102f98     g_main.obj
 0002:00012fac       ??_C@_0BF@KOOBPECE@bg_fighterAltControl?$AA@ 20102fac     g_main.obj
 0002:00012fc4       ??_C@_0BA@LNABJHJI@g_saberDebugBox?$AA@ 20102fc4     g_main.obj
 0002:00012fd4       ??_C@_0M@DKNJPLAK@d_altRoutes?$AA@ 20102fd4     g_main.obj
 0002:00012fe0       ??_C@_09BHDNFBCL@d_patched?$AA@ 20102fe0     g_main.obj
 0002:00012fec       ??_C@_0BH@LALHPAIJ@g_saberRealisticCombat?$AA@ 20102fec     g_main.obj
 0002:00013004       ??_C@_0BF@FJGJKEAP@g_saberRestrictForce?$AA@ 20103004     g_main.obj
 0002:0001301c       ??_C@_0BF@EEKIGGHA@d_saberSPStyleDamage?$AA@ 2010301c     g_main.obj
 0002:00013034       ??_C@_08MPEFLAKD@d_noroam?$AA@ 20103034     g_main.obj
 0002:00013040       ??_C@_0M@GIJCBOLH@d_npcaiming?$AA@ 20103040     g_main.obj
 0002:0001304c       ??_C@_07BOCLBODN@d_break?$AA@ 2010304c     g_main.obj
 0002:00013054       ??_C@_07EHELAHI@d_npcai?$AA@ 20103054     g_main.obj
 0002:0001305c       ??_C@_0M@JHJLEPDG@d_npcfreeze?$AA@ 2010305c     g_main.obj
 0002:00013068       ??_C@_08FGECBEPC@d_JediAI?$AA@ 20103068     g_main.obj
 0002:00013074       ??_C@_0M@KDCPFGFC@d_noGroupAI?$AA@ 20103074     g_main.obj
 0002:00013080       ??_C@_0BG@OHLJLMIG@d_asynchronousGroupAI?$AA@ 20103080     g_main.obj
 0002:00013098       ??_C@_0O@KBBKEPAG@d_slowmodeath?$AA@ 20103098     g_main.obj
 0002:000130a8       ??_C@_0O@EFILLAD@d_saberCombat?$AA@ 201030a8     g_main.obj
 0002:000130b8       ??_C@_0N@DPKJPEMM@g_npcspskill?$AA@ 201030b8     g_main.obj
 0002:000130c8       ??_C@_0N@FBIHMIDO@g_siegeTeam1?$AA@ 201030c8     g_main.obj
 0002:000130d8       ??_C@_0N@HKKKJLPN@g_siegeTeam2?$AA@ 201030d8     g_main.obj
 0002:000130e8       ??_C@_0BF@DPGGOCKB@d_noIntermissionWait?$AA@ 201030e8     g_main.obj
 0002:00013100       ??_C@_0L@DAEEHDAH@g_austrian?$AA@ 20103100     g_main.obj
 0002:0001310c       ??_C@_0BC@FPNNEGCD@g_showDuelHealths?$AA@ 2010310c     g_main.obj
 0002:00013120       ??_C@_0BH@CDIBHMCP@g_powerDuelStartHealth?$AA@ 20103120     g_main.obj
 0002:00013138       ??_C@_03GLMKKOKP@150?$AA@  20103138     g_main.obj
 0002:0001313c       ??_C@_0BF@HEMLOJBG@g_powerDuelEndHealth?$AA@ 2010313c     g_main.obj
 0002:00013154       ??_C@_0DA@HFHMPEPI@g_gametype?5?$CFi?5is?5out?5of?5range?0?5d@ 20103154     g_main.obj
 0002:00013184       ??_C@_0CB@JHOGEBHK@This?5gametype?5is?5not?5supported?4?6@ 20103184     g_main.obj
 0002:000131a8       ??_C@_0CC@FFJICNKE@print?5?$CCServer?3?5?$CFs?5changed?5to?5?$CFs?6@ 201031a8     g_main.obj
 0002:000131cc       ??_C@_0CF@FDKFKNJ@?9?9?9?9?9?9?9?5Game?5Initialization?5?9?9?9?9@ 201031cc     g_main.obj
 0002:000131f4       ??_C@_0O@MKINOKNK@gamename?3?5?$CFs?6?$AA@ 201031f4     g_main.obj
 0002:00013204       ??_C@_0O@LOFLFABD@gamedate?3?5?$CFs?6?$AA@ 20103204     g_main.obj
 0002:00013214       ??_C@_0BF@CCJLMEBG@sound?1player?1fry?4wav?$AA@ 20103214     g_main.obj
 0002:0001322c       ??_C@_0BJ@DBDHPGLO@sound?1player?1hacking?4wav?$AA@ 2010322c     g_main.obj
 0002:00013248       ??_C@_0BN@IDFEOAJB@sound?1player?1supp_healed?4wav?$AA@ 20103248     g_main.obj
 0002:00013268       ??_C@_0BP@GDOLHBDJ@sound?1player?1supp_supplied?4wav?$AA@ 20103268     g_main.obj
 0002:00013288       ??_C@_0CE@PLBPIHPI@WARNING?3?5Couldn?8t?5open?5logfile?3?5@ 20103288     g_main.obj
 0002:000132ac       ??_C@_0DO@BDNDJIG@?9?9?9?9?9?9?9?9?9?9?9?9?9?9?9?9?9?9?9?9?9?9?9?9?9?9?9?9?9?9?9?9@ 201032ac     g_main.obj
 0002:000132ec       ??_C@_0O@DEDEBKNJ@InitGame?3?5?$CFs?6?$AA@ 201032ec     g_main.obj
 0002:000132fc       ??_C@_0BG@MOMCCAKP@Not?5logging?5to?5disk?4?6?$AA@ 201032fc     g_main.obj
 0002:00013314       ??_C@_0P@HEEKJLPJ@sv_mapChecksum?$AA@ 20103314     g_main.obj
 0002:00013324       ??_C@_08PILFCNOC@?91?$HM?91?$HM?91?$AA@ 20103324     g_main.obj
 0002:00013330       ??_C@_05LOGPBEKH@?91?$HM?91?$AA@ 20103330     g_main.obj
 0002:00013338       ??_C@_07CKOIMEOL@?91?$HM?91?$HM?$CB?$AA@ 20103338     g_main.obj
 0002:00013340       ??_C@_0BA@MOHNLIKA@com_buildScript?$AA@ 20103340     g_main.obj
 0002:00013350       ??_C@_0CF@MDONDONI@models?1mapobjects?1podium?1podium4@ 20103350     g_main.obj
 0002:00013378       ??_C@_0DF@FAFFHIBP@Duel?5Tournament?5Begun?3?5kill?5limi@ 20103378     g_main.obj
 0002:000133b0       ??_C@_0P@OFNEJLIL@ShutdownGame?3?6?$AA@ 201033b0     g_main.obj
 0002:000133c0       ??_C@_01INIBCBCB@f?$AA@    201033c0     g_main.obj
 0002:000133c4       ??_C@_0BJ@LMMLDPE@info_player_intermission?$AA@ 201033c4     g_main.obj
 0002:000133e0       ??_C@_0P@BKKOFHJN@map_restart?50?6?$AA@ 201033e0     g_main.obj
 0002:000133f0       ??_C@_0O@PKDALKNK@vstr?5nextmap?6?$AA@ 201033f0     g_main.obj
 0002:00013400       ??_C@_09OHCHOIDO@?$CF3i?3?$CFi?$CFi?5?$AA@ 20103400     g_main.obj
 0002:0001340c       ??_C@_09KHIKBPEI@Exit?3?5?$CFs?6?$AA@ 2010340c     g_main.obj
 0002:00013418       ??_C@_0BB@HEGEAGAN@red?3?$CFi?5?5blue?3?$CFi?6?$AA@ 20103418     g_main.obj
 0002:0001342c       ??_C@_0CE@CGGOAMCD@score?3?5?$CFi?5?5ping?3?5?$CFi?5?5client?3?5?$CFi?5@ 2010342c     g_main.obj
 0002:00013450       ??_C@_0P@FABIANMM@Duel?5Results?3?6?$AA@ 20103450     g_main.obj
 0002:00013460       ??_C@_0CL@IEKFFIJI@winner?3?5?$CFs?0?5score?3?5?$CFd?0?5wins?1loss@ 20103460     g_main.obj
 0002:0001348c       ??_C@_0CK@CHOPCJFP@loser?3?5?$CFs?0?5score?3?5?$CFd?0?5wins?1losse@ 2010348c     g_main.obj
 0002:000134b8       ??_C@_0EJ@LFNPBAHC@Power?5Duel?5Initiated?3?5?$CFs?5?$CFd?1?$CFd?5v@ 201034b8     g_main.obj
 0002:00013504       ??_C@_0DG@GOFBMMHO@Duel?5Initiated?3?5?$CFs?5?$CFd?1?$CFd?5vs?5?$CFs?5?$CF@ 20103504     g_main.obj
 0002:0001353c       ??_C@_08FNOPOHAK@?$CFi?$HM?$CFi?$HM?$CFi?$AA@ 2010353c     g_main.obj
 0002:00013548       ??_C@_05CGCOJECE@?$CFi?$HM?$CFi?$AA@ 20103548     g_main.obj
 0002:00013550       ??_C@_0CP@EGEOEBCO@Duel?5Tournament?5Winner?3?5?$CFs?5wins?1@ 20103550     g_main.obj
 0002:00013580       ??_C@_0BD@HHDMPEOG@Escape?5time?5ended?4?$AA@ 20103580     g_main.obj
 0002:00013594       ??_C@_0BL@KBEMCIHA@Everyone?5failed?5to?5escape?4?$AA@ 20103594     g_main.obj
 0002:000135b0       ??_C@_0O@GEPEKDJM@TIMELIMIT_HIT?$AA@ 201035b0     g_main.obj
 0002:000135c0       ??_C@_0CM@GNFACJPE@POWERDUEL?5WIN?5CONDITION?3?5Timelim@ 201035c0     g_main.obj
 0002:000135ec       ??_C@_0P@EKMAOGJF@Timelimit?5hit?4?$AA@ 201035ec     g_main.obj
 0002:000135fc       ??_C@_0BB@JLAKCCFL@Powerduel?5ended?4?$AA@ 201035fc     g_main.obj
 0002:00013610       ??_C@_0BA@MEFBNHLF@Kill?5limit?5hit?4?$AA@ 20103610     g_main.obj
 0002:00013620       ??_C@_0BD@CFGAAGAF@HIT_THE_KILL_LIMIT?$AA@ 20103620     g_main.obj
 0002:00013634       ??_C@_0BA@DIGKOKKH@print?5?$CCRed?5?$CFs?6?$CC?$AA@ 20103634     g_main.obj
 0002:00013644       ??_C@_0CJ@CJHOHLNC@POWERDUEL?5WIN?5CONDITION?3?5Kill?5li@ 20103644     g_main.obj
 0002:00013670       ??_C@_0BB@FOABFMP@print?5?$CCBlue?5?$CFs?6?$CC?$AA@ 20103670     g_main.obj
 0002:00013684       ??_C@_0CJ@DLMLNEDM@POWERDUEL?5WIN?5CONDITION?3?5Kill?5li@ 20103684     g_main.obj
 0002:000136b0       ??_C@_0CN@JINBFCKB@POWERDUEL?5WIN?5CONDITION?3?5Duel?5li@ 201036b0     g_main.obj
 0002:000136e0       ??_C@_0BA@OFHKHJGE@Duel?5limit?5hit?4?$AA@ 201036e0     g_main.obj
 0002:000136f0       ??_C@_0CB@KHKBFEAC@print?5?$CC?$CFs?$FO7?5hit?5the?5win?5limit?4?6?$CC@ 201036f0     g_main.obj
 0002:00013714       ??_C@_0CJ@IDHHLDFJ@POWERDUEL?5WIN?5CONDITION?3?5Kill?5li@ 20103714     g_main.obj
 0002:00013740       ??_C@_0BC@NIPOHDO@print?5?$CC?$CFs?$FO7?5?$CFs?4?6?$CC?$AA@ 20103740     g_main.obj
 0002:00013754       ??_C@_0M@PNOKILNH@print?5?$CC?$CFs?5?$CC?$AA@ 20103754     g_main.obj
 0002:00013760       ??_C@_0BC@DEIMONOO@HIT_CAPTURE_LIMIT?$AA@ 20103760     g_main.obj
 0002:00013774       ??_C@_0BC@NGNDEIFJ@Capturelimit?5hit?4?$AA@ 20103774     g_main.obj
 0002:00013788       ??_C@_07NHPOBEAC@?$CFi?$HM?$CFi?$HM?$CB?$AA@ 20103788     g_main.obj
 0002:00013790       ??_C@_0P@DOJINDEF@DUELMORESINGLE?$AA@ 20103790     g_main.obj
 0002:000137a0       ??_C@_0P@CAAODKMG@DUELMOREPAIRED?$AA@ 201037a0     g_main.obj
 0002:000137b0       ??_C@_0ED@IOLPHHFO@Duel?5Initiated?3?5?$CFs?5?$CFd?1?$CFd?5vs?5?$CFs?5?$CF@ 201037b0     g_main.obj
 0002:000137f4       ??_C@_08FFAHPNKC@Warmup?3?6?$AA@ 201037f4     g_main.obj
 0002:00013800       ??_C@_07NKFJBOH@map?5?$CFs?6?$AA@ 20103800     g_main.obj
 0002:00013808       ??_C@_0N@PEEGBFIB@fraglimit?53?6?$AA@ 20103808     g_main.obj
 0002:00013818       ??_C@_0O@PBOEBKAK@fraglimit?520?6?$AA@ 20103818     g_main.obj
 0002:00013828       ??_C@_0L@KALLFILH@VOTEFAILED?$AA@ 20103828     g_main.obj
 0002:00013834       ??_C@_0L@IGJPDJKJ@VOTEPASSED?$AA@ 20103834     g_main.obj
 0002:00013840       ??_C@_0P@BDMHAMEB@TEAMVOTEFAILED?$AA@ 20103840     g_main.obj
 0002:00013850       ??_C@_0P@DFODGNFP@TEAMVOTEPASSED?$AA@ 20103850     g_main.obj
 0002:00013860       ??_C@_0DA@IKOPMEEN@?$FO1Not?5saving?5?4nav?5file?5due?5to?5fa@ 20103860     g_main.obj
 0002:00013890       ??_C@_0DM@GDLMFLCJ@Unable?5to?5save?5navigations?5data?5@ 20103890     g_main.obj
 0002:000138cc       ??_C@_04MOBPCLOP@0?41f?$AA@ 201038cc     g_main.obj
 0002:000138d4       ??_C@_0N@BMCJJOCA@?$CKchoke?$CFd?4wav?$AA@ 201038d4     g_main.obj
 0002:000138e4       ??_C@_08JBKNBCEM@?$CF4i?3?5?$CFs?6?$AA@ 201038e4     g_main.obj
 0002:000138f0       ??_C@_05LIBGPKHK@?$EA?$EA?$EA?$CFs?$AA@ 201038f0     g_main.obj
 0002:000138f8       __real@448fc000            201038f8     g_main.obj
 0002:00013900       __xmm@00000003000000020000000100000000 20103900     g_main.obj
 0002:00013910       __xmm@00001a5000001a5000001a5000001a50 20103910     g_main.obj
 0002:00013920       ??_C@_0BP@CMDJHEKJ@G_Alloc?5of?5?$CFi?5bytes?5?$CI?$CFi?5left?$CJ?6?$AA@ 20103920     g_mem.obj
 0002:00013940       ??_C@_0CL@HPAAECKJ@G_Alloc?3?5failed?5on?5allocation?5of@ 20103940     g_mem.obj
 0002:0001396c       ??_C@_0DC@GFNDCLPP@Game?5memory?5status?3?5?$CFi?5out?5of?5?$CFi@ 2010396c     g_mem.obj
 0002:000139a0       ??_C@_01MCMALHOG@a?$AA@    201039a0     g_misc.obj
 0002:000139a4       ??_C@_01GLPGHMHM@z?$AA@    201039a4     g_misc.obj
 0002:000139a8       ??_C@_05IAKJCFIM@style?$AA@ 201039a8     g_misc.obj
 0002:000139b0       ??_C@_0N@OLFKIPC@switch_style?$AA@ 201039b0     g_misc.obj
 0002:000139c0       ??_C@_09KNIPMNPE@style_off?$AA@ 201039c0     g_misc.obj
 0002:000139cc       ??_C@_0CO@BGNILIGB@Couldn?8t?5find?5target?5for?5misc_pa@ 201039cc     g_misc.obj
 0002:000139fc       ??_C@_04FBAPEKPH@roll?$AA@ 201039fc     g_misc.obj
 0002:00013a04       ??_C@_05FECBCJJD@angle?$AA@ 20103a04     g_misc.obj
 0002:00013a0c       ??_C@_08DJMMLFAH@bspmodel?$AA@ 20103a0c     g_misc.obj
 0002:00013a18       ??_C@_07GHILBEGP@spacing?$AA@ 20103a18     g_misc.obj
 0002:00013a20       ??_C@_07FOIKENOC@flatten?$AA@ 20103a20     g_misc.obj
 0002:00013a28       ??_C@_03FGKIIOAN@?$CD?$CFs?$AA@ 20103a28     g_misc.obj
 0002:00013a2c       ??_C@_03CGKDEGPM@?$CFd?9?$AA@ 20103a2c     g_misc.obj
 0002:00013a30       ??_C@_0L@MBKMBIKO@teamfilter?$AA@ 20103a30     g_misc.obj
 0002:00013a3c       ??_C@_08HGLJJOAO@RMG_seed?$AA@ 20103a3c     g_misc.obj
 0002:00013a48       ??_C@_0M@OEBAAE@RMG_mission?$AA@ 20103a48     g_misc.obj
 0002:00013a54       ??_C@_09OJHOCBK@heightmap?$AA@ 20103a54     g_misc.obj
 0002:00013a60       ??_C@_09KOKFENCE@heightMap?$AA@ 20103a60     g_misc.obj
 0002:00013a6c       ??_C@_03FKNPJMHG@400?$AA@  20103a6c     g_misc.obj
 0002:00013a70       ??_C@_0L@FALKLDJL@numpatches?$AA@ 20103a70     g_misc.obj
 0002:00013a7c       ??_C@_0L@KJMMNBMN@numPatches?$AA@ 20103a7c     g_misc.obj
 0002:00013a88       ??_C@_07KNCGMEDK@terxels?$AA@ 20103a88     g_misc.obj
 0002:00013a90       ??_C@_04MENKDCKE@seed?$AA@ 20103a90     g_misc.obj
 0002:00013a98       ??_C@_04LLPOBGED@minx?$AA@ 20103a98     g_misc.obj
 0002:00013aa0       ??_C@_04KCOFCHAC@miny?$AA@ 20103aa0     g_misc.obj
 0002:00013aa8       ??_C@_04IJMIHEMB@minz?$AA@ 20103aa8     g_misc.obj
 0002:00013ab0       ??_C@_04GGOBOBGO@maxx?$AA@ 20103ab0     g_misc.obj
 0002:00013ab8       ??_C@_04HPPKNACP@maxy?$AA@ 20103ab8     g_misc.obj
 0002:00013ac0       ??_C@_04FENHIDOM@maxz?$AA@ 20103ac0     g_misc.obj
 0002:00013ac8       ??_C@_0L@OJKNJKNO@modelIndex?$AA@ 20103ac8     g_misc.obj
 0002:00013ad4       ??_C@_0M@JGCAAMDB@grassyhills?$AA@ 20103ad4     g_misc.obj
 0002:00013ae0       ??_C@_0L@DAKKKILJ@terraindef?$AA@ 20103ae0     g_misc.obj
 0002:00013aec       ??_C@_0L@JAJIAHIH@terrainDef?$AA@ 20103aec     g_misc.obj
 0002:00013af8       ??_C@_0M@FCMHMJJP@instancedef?$AA@ 20103af8     g_misc.obj
 0002:00013b04       ??_C@_0M@PCPFGGKB@instanceDef?$AA@ 20103b04     g_misc.obj
 0002:00013b10       ??_C@_0L@JLFNAMAH@miscentdef?$AA@ 20103b10     g_misc.obj
 0002:00013b1c       ??_C@_0L@DLGPKDDJ@miscentDef?$AA@ 20103b1c     g_misc.obj
 0002:00013b28       ??_C@_0M@NKGFKFFJ@missionType?$AA@ 20103b28     g_misc.obj
 0002:00013b34       ??_C@_0P@IBKAIJOE@RMG_instance?$CFd?$AA@ 20103b34     g_misc.obj
 0002:00013b44       ??_C@_06CLHLMAOB@inst?$CFd?$AA@ 20103b44     g_misc.obj
 0002:00013b4c       ??_C@_0L@CAPMJLLI@densitymap?$AA@ 20103b4c     g_misc.obj
 0002:00013b58       ??_C@_0L@IAMODEIG@densityMap?$AA@ 20103b58     g_misc.obj
 0002:00013b64       ??_C@_06BILHELBG@shader?$AA@ 20103b64     g_misc.obj
 0002:00013b6c       ??_C@_05ECMHBHBD@0?4005?$AA@ 20103b6c     g_misc.obj
 0002:00013b74       ??_C@_0N@IFECBOCE@texturescale?$AA@ 20103b74     g_misc.obj
 0002:00013b84       ??_C@_09JCAIHAHA@terrainId?$AA@ 20103b84     g_misc.obj
 0002:00013b90       ??_C@_03PKBINKFB@fov?$AA@  20103b90     g_misc.obj
 0002:00013b94       ??_C@_05JMKGPOEH@0?50?50?$AA@ 20103b94     g_misc.obj
 0002:00013b9c       ??_C@_08MLCFJBLJ@fogcolor?$AA@ 20103b9c     g_misc.obj
 0002:00013ba8       ??_C@_07JKLAPODK@fognear?$AA@ 20103ba8     g_misc.obj
 0002:00013bb0       ??_C@_03MHAIKEMP@300?$AA@  20103bb0     g_misc.obj
 0002:00013bb4       ??_C@_06BCBEFNDA@fogfar?$AA@ 20103bb4     g_misc.obj
 0002:00013bbc       ??_C@_0CM@OPFLPLP@?$CF?42f?5?$CF?42f?5?$CF?42f?5?$CF?41f?5?$CFi?5?$CF?42f?5?$CF?42f@ 20103bbc     g_misc.obj
 0002:00013be8       ??_C@_0DC@HIFLOKNA@SP_misc_holocron?3?5misc_holocron?5@ 20103be8     g_misc.obj
 0002:00013c1c       ??_C@_05IOMEMJEC@count?$AA@ 20103c1c     g_misc.obj
 0002:00013c24       ??_C@_0L@GHMBGJIB@chargerate?$AA@ 20103c24     g_misc.obj
 0002:00013c30       ??_C@_0BO@PJFNOBJK@sound?1interface?1shieldcon_run?$AA@ 20103c30     g_misc.obj
 0002:00013c50       ??_C@_0BM@BCBOHMNG@sound?1interface?1ammocon_run?$AA@ 20103c50     g_misc.obj
 0002:00013c6c       ??_C@_0BO@NNFBIBGP@sound?1interface?1ammocon_empty?$AA@ 20103c6c     g_misc.obj
 0002:00013c90       ??_C@_0EA@CCCBBJND@SP_misc_ammo_floor_unit?3?5misc_am@ 20103c90     g_misc.obj
 0002:00013cd0       ??_C@_0CC@JJMJDHFJ@?1models?1items?1a_pwr_converter?4md@ 20103cd0     g_misc.obj
 0002:00013cf4       ??_C@_07NNHHGBA@nodrain?$AA@ 20103cf4     g_misc.obj
 0002:00013cfc       ??_C@_0BN@KHCMCDKG@sound?1interface?1ammocon_done?$AA@ 20103cfc     g_misc.obj
 0002:00013d1c       ??_C@_0CJ@LLCHHHPE@gfx?1mp?1siegeicons?1desert?1weapon_@ 20103d1c     g_misc.obj
 0002:00013d48       ??_C@_0EE@BKJKMIFF@SP_misc_shield_floor_unit?3?5misc_@ 20103d48     g_misc.obj
 0002:00013d8c       ??_C@_0CF@IGHKGCOE@?1models?1items?1a_shield_converter@ 20103d8c     g_misc.obj
 0002:00013db4       ??_C@_0BP@NIKNGNIA@sound?1interface?1shieldcon_done?$AA@ 20103db4     g_misc.obj
 0002:00013dd4       ??_C@_0CJ@JMFIMIPE@gfx?1mp?1siegeicons?1desert?1shield_@ 20103dd4     g_misc.obj
 0002:00013e00       ??_C@_0BK@BLFMLFFL@?1models?1items?1psd_big?4md3?$AA@ 20103e00     g_misc.obj
 0002:00013e1c       ??_C@_0BP@OLGGMFAH@gfx?1mp?1siegeicons?1desert?1bacta?$AA@ 20103e1c     g_misc.obj
 0002:00013e3c       ??_C@_0DE@CHPCANJH@fx_runner_link?3?5target?5specified@ 20103e3c     g_misc.obj
 0002:00013e70       ??_C@_0BN@MFEBONBP@?5?5?9assuming?5UP?5orientation?4?6?$AA@ 20103e70     g_misc.obj
 0002:00013e90       ??_C@_0DM@GFMELJKG@fx_runner_link?3?5target2?5was?5spec@ 20103e90     g_misc.obj
 0002:00013ecc       ??_C@_06KFFOGODE@fxFile?$AA@ 20103ecc     g_misc.obj
 0002:00013ed4       ??_C@_05EKJCMADO@delay?$AA@ 20103ed4     g_misc.obj
 0002:00013edc       ??_C@_02KMALDIDP@16?$AA@   20103edc     g_misc.obj
 0002:00013ee0       ??_C@_0DF@PKCCJONM@?$FO1ERROR?3?5fx_runner?5?$CFs?5at?5?$CFs?5has?5@ 20103ee0     g_misc.obj
 0002:00013f18       ??_C@_0O@OOIDBEND@?$CKspacedust?5?$CFi?$AA@ 20103f18     g_misc.obj
 0002:00013f28       ??_C@_05KOHEABAP@?$CKsnow?$AA@ 20103f28     g_misc.obj
 0002:00013f30       ??_C@_04MFNGOGOF@?$CKfog?$AA@ 20103f30     g_misc.obj
 0002:00013f38       ??_C@_0BN@HJNHHLJJ@?$CKconstantwind?5?$CI100?5100?5?9100?$CJ?$AA@ 20103f38     g_misc.obj
 0002:00013f58       ??_C@_0O@CDABLMGA@?$CKrain?5init?5?$CFi?$AA@ 20103f58     g_misc.obj
 0002:00013f68       ??_C@_09DDBFFAKC@intensity?$AA@ 20103f68     g_misc.obj
 0002:00013f74       ??_C@_08LGBPINEC@duration?$AA@ 20103f74     g_misc.obj
 0002:00013f80       ??_C@_0M@HLGGKACF@globalshake?$AA@ 20103f80     g_misc.obj
 0002:00013f8c       ??_C@_08OALBCAAM@Escaped?$CB?$AA@ 20103f8c     g_misc.obj
 0002:00013f98       ??_C@_05DGDJCJKI@60000?$AA@ 20103f98     g_misc.obj
 0002:00013fa0       ??_C@_0L@HHICCAGD@escapetime?$AA@ 20103fa0     g_misc.obj
 0002:00013fac       ??_C@_0L@KNHBNAMA@escapegoal?$AA@ 20103fac     g_misc.obj
 0002:00013fb8       ??_C@_0CP@LKLHIHFL@models?1map_objects?1imp_detention@ 20103fb8     g_misc.obj
 0002:00013fe8       ??_C@_0BC@LLJIEADM@maglock?1explosion?$AA@ 20103fe8     g_misc.obj
 0002:00013ffc       ??_C@_0BN@BGAEPABA@misc_maglock?5at?5?$CFs?5in?5solid?6?$AA@ 20103ffc     g_misc.obj
 0002:0001401c       ??_C@_09KJCKJKEG@func_door?$AA@ 2010401c     g_misc.obj
 0002:00014028       ??_C@_0CD@OKKHHCPL@sound?1chars?1stofficer1?1misc?1pain@ 20104028     g_misc.obj
 0002:0001404c       ??_C@_0CD@JCJPJADL@sound?1chars?1stofficer1?1misc?1pain@ 2010404c     g_misc.obj
 0002:00014070       ??_C@_0CD@OMGMLABA@sound?1chars?1stofficer1?1misc?1pain@ 20104070     g_misc.obj
 0002:00014094       ??_C@_0BH@JOAOCHE@sound?1player?1fallsplat?$AA@ 20104094     g_misc.obj
 0002:000140ac       ??_C@_0CF@FBGDNLPI@sound?1chars?1stofficer1?1misc?1fall@ 201040ac     g_misc.obj
 0002:000140d4       ??_C@_0CG@CLCLECHC@models?1players?1stormtrooper?1mode@ 201040d4     g_misc.obj
 0002:000140fc       ??_C@_03OCGDPLBD@500?$AA@  201040fc     g_misc.obj
 0002:00014100       ??_C@_08CBFCMNKF@interval?$AA@ 20104100     g_misc.obj
 0002:0001410c       ??_C@_0M@PLLGOAGO@fudgefactor?$AA@ 2010410c     g_misc.obj
 0002:00014118       ??_C@_0DA@JECPINAN@WARNING?3?5MAX_TAG_OWNERS?5?$CI?$CFi?$CJ?5REF@ 20104118     g_misc.obj
 0002:00014148       ??_C@_0CK@BNOEMFOC@WARNING?3?5MAX_TAGS?5?$CI?$CFi?$CJ?5REF?5TAG?5L@ 20104148     g_misc.obj
 0002:00014174       ??_C@_09IGNBMAGM@__WORLD__?$AA@ 20104174     g_misc.obj
 0002:00014180       ??_C@_0BL@HHGOOPCF@?$FO1Duplicate?5tag?5name?5?$CC?$CFs?$CC?6?$AA@ 20104180     g_misc.obj
 0002:0001419c       ??_C@_0CP@OOOANILP@?$FO1ERROR?3?5Nameless?5ref_tag?5found?5@ 2010419c     g_misc.obj
 0002:000141cc       ??_C@_0CO@JILGMFMG@?$FO1ERROR?3?5ref_tag?5?$CI?$CFs?$CJ?5has?5invali@ 201041cc     g_misc.obj
 0002:000141fc       ??_C@_0CL@HIFLCEHM@No?5free?5shooter?5clients?5?9?5hit?5MA@ 201041fc     g_misc.obj
 0002:00014228       ??_C@_06GEPNGEJI@weapon?$AA@ 20104228     g_misc.obj
 0002:00014230       ??_C@_0CD@DFAKCMJE@sound?1weapons?1thermal?1bounce?$CFi?4w@ 20104230     g_missile.obj
 0002:00014254       ??_C@_0CB@KIOLPEIM@sound?1weapons?1saber?1bounce?$CFi?4wav@ 20104254     g_missile.obj
 0002:00014278       ??_C@_0BC@DONAAMN@bowcaster?1deflect?$AA@ 20104278     g_missile.obj
 0002:0001428c       ??_C@_0BA@BHMDGDMI@blaster?1deflect?$AA@ 2010428c     g_missile.obj
 0002:0001429c       ??_C@_0N@LPAPAPOG@vehicle_proj?$AA@ 2010429c     g_missile.obj
 0002:000142b0       __real@3fe4cccccccccccd    201042b0     g_missile.obj
 0002:000142b8       __real@46000000            201042b8     g_missile.obj
 0002:000142bc       ??_C@_0CC@FGLHJPEN@pushed_p?5?$DO?5?$CGpushed?$FLMAX_GENTITIES@ 201042bc     g_mover.obj
 0002:000142e0       ??_C@_0CE@HFNOCNBN@Reached_BinaryMover?3?5bad?5moverSt@ 201042e0     g_mover.obj
 0002:00014304       ??_C@_04HAEDHBJD@?4glm?$AA@ 20104304     g_mover.obj
 0002:0001430c       ??_C@_03GNABGMEE@100?$AA@  2010430c     g_mover.obj
 0002:00014310       ??_C@_05OEPGNJB@light?$AA@ 20104310     g_mover.obj
 0002:00014318       ??_C@_05PGFNHLMG@1?51?51?$AA@ 20104318     g_mover.obj
 0002:00014320       ??_C@_05PEENBMOG@color?$AA@ 20104320     g_mover.obj
 0002:00014328       ??_C@_0N@CNEGJPJD@trigger_door?$AA@ 20104328     g_mover.obj
 0002:00014338       ??_C@_0BB@LKHFHPEP@trigger_multiple?$AA@ 20104338     g_mover.obj
 0002:0001434c       ??_C@_07IPEFJBG@vehopen?$AA@ 2010434c     g_mover.obj
 0002:00014354       ??_C@_03MHHCOBAB@lip?$AA@  20104354     g_mover.obj
 0002:00014358       ??_C@_03EMOFKE@dmg?$AA@    20104358     g_mover.obj
 0002:0001435c       ??_C@_09MOGMJGKE@teamallow?$AA@ 2010435c     g_mover.obj
 0002:00014368       ??_C@_0CJ@BMOHOFCP@func_train?5at?5?$CFs?5with?5an?5unfound@ 20104368     g_mover.obj
 0002:00014394       ??_C@_0M@ONCHNMHP@path_corner?$AA@ 20104394     g_mover.obj
 0002:000143a0       ??_C@_0CG@DHHNMBFP@path_corner?5with?5no?5targetname?5a@ 201043a0     g_mover.obj
 0002:000143c8       ??_C@_0CD@BNKPEMCB@func_train?5without?5a?5target?5at?5?$CF@ 201043c8     g_mover.obj
 0002:000143ec       ??_C@_0M@OECBINE@model2scale?$AA@ 201043ec     g_mover.obj
 0002:000143f8       ??_C@_0L@MCIJNOGJ@hyperspace?$AA@ 201043f8     g_mover.obj
 0002:00014404       ??_C@_0L@DPIDJDGM@spinangles?$AA@ 20104404     g_mover.obj
 0002:00014410       ??_C@_02MLODCJFF@32?$AA@   20104410     g_mover.obj
 0002:00014414       ??_C@_05CBPKLGJM@phase?$AA@ 20104414     g_mover.obj
 0002:0001441c       ??_C@_02PJNFELNH@30?$AA@   2010441c     g_mover.obj
 0002:00014420       ??_C@_0BC@KHOJEJFN@chunks?1glassbreak?$AA@ 20104420     g_mover.obj
 0002:00014434       ??_C@_0BE@PFGIPPAI@chunks?1metalexplode?$AA@ 20104434     g_mover.obj
 0002:00014448       ??_C@_0BE@FIGLPACF@chunks?1sparkexplode?$AA@ 20104448     g_mover.obj
 0002:0001445c       ??_C@_0BE@FDCAJCD@chunks?1grateexplode?$AA@ 2010445c     g_mover.obj
 0002:00014470       ??_C@_0BD@HHBLDKKA@chunks?1rockbreaklg?$AA@ 20104470     g_mover.obj
 0002:00014484       ??_C@_0BE@GMAIKFHK@chunks?1rockbreakmed?$AA@ 20104484     g_mover.obj
 0002:00014498       ??_C@_0BB@IAFIADNA@chunks?1ropebreak?$AA@ 20104498     g_mover.obj
 0002:000144ac       ??_C@_0CK@JCJGCOH@sound?1weapons?1explosions?1cargoex@ 201044ac     g_mover.obj
 0002:000144d8       ??_C@_06OIBEMKAM@playfx?$AA@ 201044d8     g_mover.obj
 0002:000144e0       ??_C@_0L@NPNJEDJH@showhealth?$AA@ 201044e0     g_mover.obj
 0002:000144ec       ??_C@_06KGHINEPG@radius?$AA@ 201044ec     g_mover.obj
 0002:000144f4       ??_C@_08KNOEMJMM@material?$AA@ 201044f4     g_mover.obj
 0002:00014500       ??_C@_0CA@BAMHFMAG@func_breakable?5with?5NULL?5model?6?$AA@ 20104500     g_mover.obj
 0002:00014520       ??_C@_0P@NGDPBEAP@func_breakable?$AA@ 20104520     g_mover.obj
 0002:00014530       ??_C@_0BF@COHBPBHI@misc_model_breakable?$AA@ 20104530     g_mover.obj
 0002:00014548       ??_C@_0N@HMJFCHDH@misc_maglock?$AA@ 20104548     g_mover.obj
 0002:00014558       ??_C@_09BLEODPCJ@maxshards?$AA@ 20104558     g_mover.obj
 0002:00014564       ??_C@_0M@LFCKCKDB@func_usable?$AA@ 20104564     g_mover.obj
 0002:00014570       ??_C@_08DDDKPNNK@endframe?$AA@ 20104570     g_mover.obj
 0002:00014580       __real@3fc45f3060000000    20104580     g_mover.obj
 0002:00014588       __real@3ffc000000000000    20104588     g_mover.obj
 0002:00014590       __real@40c00000            20104590     g_mover.obj
 0002:00014594       __real@42040000            20104594     g_mover.obj
 0002:00014598       __real@42f00000            20104598     g_mover.obj
 0002:0001459c       __real@43c30000            2010459c     g_mover.obj
 0002:000145a0       ??_C@_08LHPBHPJM@waypoint?$AA@ 201045a0     g_nav.obj
 0002:000145ac       ??_C@_0CG@CJDGEOME@?$FO1ERROR?3?5Waypoint?5?$CFs?5at?5?$CFs?5in?5so@ 201045ac     g_nav.obj
 0002:000145d4       ??_C@_0CM@NPFEIGCH@?$FO1ERROR?3?5Waypoint_small?5?$CFs?5at?5?$CFs@ 201045d4     g_nav.obj
 0002:00014600       ??_C@_0CO@GGLLKCAI@?$FO1ERROR?3?5Waypoint_navgoal?5?$CFs?5at?5@ 20104600     g_nav.obj
 0002:00014630       ??_C@_07GHAMPCCG@navgoal?$AA@ 20104630     g_nav.obj
 0002:00014638       ??_C@_0DA@BIGAKHFJ@?$FO1ERROR?3?5Waypoint_navgoal_8?5?$CFs?5a@ 20104638     g_nav.obj
 0002:00014668       ??_C@_0DA@PNICBCFJ@?$FO1ERROR?3?5Waypoint_navgoal_4?5?$CFs?5a@ 20104668     g_nav.obj
 0002:00014698       ??_C@_0DA@IPHDEINJ@?$FO1ERROR?3?5Waypoint_navgoal_2?5?$CFs?5a@ 20104698     g_nav.obj
 0002:000146c8       ??_C@_0DA@LGALOFJJ@?$FO1ERROR?3?5Waypoint_navgoal_1?5?$CFs?5a@ 201046c8     g_nav.obj
 0002:000146f8       ??_C@_0BH@BKKFFJF@?$CFs?$CFd?5FATAL?5NAV?5ERRORS?6?$AA@ 201046f8     g_nav.obj
 0002:00014710       __real@4048000000000000    20104710     g_nav.obj
 0002:00014718       __real@41b40000            20104718     g_nav.obj
 0002:0001471c       __real@43070000            2010471c     g_nav.obj
 0002:00014720       __real@beb33333            20104720     g_nav.obj
 0002:00014728       __real@3ff3333333333333    20104728     g_navnew.obj
 0002:00014730       __real@3f79999a            20104730     g_object.obj
 0002:00014738       __real@bfe6666666666666    20104738     g_object.obj
 0002:00014740       __real@c2200000            20104740     g_object.obj
 0002:00014744       ??_C@_0P@LMGIBMLB@maps?1?$CFs?4siege?$AA?$AA@ 20104744     g_saga.obj
 0002:00014754       ??_C@_0P@HBABJABJ@preround_state?$AA@ 20104754     g_saga.obj
 0002:00014764       ??_C@_05EPHHAOKA@Teams?$AA@ 20104764     g_saga.obj
 0002:0001476c       ??_C@_05IKJECGBB@team1?$AA@ 2010476c     g_saga.obj
 0002:00014774       ??_C@_05KBLJHFNC@team2?$AA@ 20104774     g_saga.obj
 0002:0001477c       ??_C@_0BI@IFMEDMFB@Siege?5teams?5not?5defined?$AA@ 2010477c     g_saga.obj
 0002:00014794       ??_C@_08PDGNKGMA@TeamIcon?$AA@ 20104794     g_saga.obj
 0002:000147a0       ??_C@_0L@CKNLAJGH@team2_icon?$AA@ 201047a0     g_saga.obj
 0002:000147ac       ??_C@_0BD@DGKBHCDJ@RequiredObjectives?$AA@ 201047ac     g_saga.obj
 0002:000147c0       ??_C@_05MLMBIJDH@Timed?$AA@ 201047c0     g_saga.obj
 0002:000147c8       ??_C@_09LFNJBILH@attackers?$AA@ 201047c8     g_saga.obj
 0002:000147d4       ??_C@_0L@BLDDBDPK@team1_icon?$AA@ 201047d4     g_saga.obj
 0002:000147e0       ??_C@_0HA@DNEPCKAI@Tried?5to?5set?5imperial?5time?5limit@ 201047e0     g_saga.obj
 0002:00014850       ??_C@_0CL@BBGLILIJ@Couldn?8t?5find?5any?5player?5classes@ 20104850     g_saga.obj
 0002:0001487c       ??_C@_0CJ@KLKCMJCL@Couldn?8t?5find?5any?5player?5teams?5f@ 2010487c     g_saga.obj
 0002:000148a8       ??_C@_07FKIPFDKM@UseTeam?$AA@ 201048a8     g_saga.obj
 0002:000148b0       ??_C@_0M@IHDPCFPD@Objective?$CFi?$AA@ 201048b0     g_saga.obj
 0002:000148bc       ??_C@_02JFBLOBND@t1?$AA@   201048bc     g_saga.obj
 0002:000148c0       ??_C@_02OPGNMFKN@?90?$AA@  201048c0     g_saga.obj
 0002:000148c4       ??_C@_03EBNKKLDK@?$HMt2?$AA@ 201048c4     g_saga.obj
 0002:000148c8       ??_C@_02LODGLCBA@t2?$AA@   201048c8     g_saga.obj
 0002:000148cc       ??_C@_0BO@JIDGNOMJ@WARNING?3?5Entity?5used?5itself?4?6?$AA@ 201048cc     g_saga.obj
 0002:000148ec       ??_C@_0CI@HMPHOHE@entity?5was?5removed?5while?5using?5t@ 201048ec     g_saga.obj
 0002:00014914       ??_C@_04HEAMIBHF@3?$HM?$CFi?$AA@ 20104914     g_saga.obj
 0002:0001491c       ??_C@_0BB@FPALPLCC@roundover_target?$AA@ 2010491c     g_saga.obj
 0002:00014930       ??_C@_0BF@KGIIIJMI@Objectives?5completed?$AA@ 20104930     g_saga.obj
 0002:00014948       ??_C@_01OGPIMHDM@?$DP?$AA@ 20104948     g_saga.obj
 0002:0001494c       ??_C@_0BC@BHPLBKLC@roundbegin_target?$AA@ 2010494c     g_saga.obj
 0002:00014960       ??_C@_04DDKMPLKF@0?$HM?$CFi?$AA@ 20104960     g_saga.obj
 0002:00014968       ??_C@_04EJGMKIMF@2?$HM?$CFi?$AA@ 20104968     g_saga.obj
 0002:00014970       ??_C@_05FPBGKCKL@final?$AA@ 20104970     g_saga.obj
 0002:00014978       ??_C@_06JJLAMBGK@target?$AA@ 20104978     g_saga.obj
 0002:00014980       ??_C@_09FKEDLGBF@objective?$AA@ 20104980     g_saga.obj
 0002:0001498c       ??_C@_04JGNFNGGK@side?$AA@ 2010498c     g_saga.obj
 0002:00014998       ??_C@_0EA@HAPCOFBD@ERROR?3?5info_siege_objective?5with@ 20104998     g_saga.obj
 0002:000149d8       ??_C@_04DMJJIPAH@icon?$AA@ 201049d8     g_saga.obj
 0002:000149e0       ??_C@_0CF@KJAMHCKK@misc_siege_radaricon?5without?5an?5@ 201049e0     g_saga.obj
 0002:00014a08       ??_C@_0EL@CMBBGNJG@ERROR?3?5info_siege_objective_deco@ 20104a08     g_saga.obj
 0002:00014a54       ??_C@_0M@NGJIMDD@Round?5ended?$AA@ 20104a54     g_saga.obj
 0002:00014a60       ??_C@_0DE@NEDCFPJM@You?5must?5specify?5a?5model?5for?5mis@ 20104a60     g_saga.obj
 0002:00014a94       ??_C@_09CEPPCPPP@canpickup?$AA@ 20104a94     g_saga.obj
 0002:00014aa0       ??_C@_0L@JOHMPIBD@usephysics?$AA@ 20104aa0     g_saga.obj
 0002:00014aac       ??_C@_07CAKCIGBD@noradar?$AA@ 20104aac     g_saga.obj
 0002:00014ab4       ??_C@_0P@CLDOFPDB@pickuponlyonce?$AA@ 20104ab4     g_saga.obj
 0002:00014ac4       ??_C@_0M@JJPGFFGK@teamnotouch?$AA@ 20104ac4     g_saga.obj
 0002:00014ad0       ??_C@_0P@HNIKMDOM@teamnocomplete?$AA@ 20104ad0     g_saga.obj
 0002:00014ae0       ??_C@_04PCPOAAED@0?409?$AA@ 20104ae0     g_saga.obj
 0002:00014ae8       ??_C@_03NBLACKLF@3?40?$AA@ 20104ae8     g_saga.obj
 0002:00014aec       ??_C@_03FAJELBPN@1?43?$AA@ 20104aec     g_saga.obj
 0002:00014af0       ??_C@_06DPMIMFNG@bounce?$AA@ 20104af0     g_saga.obj
 0002:00014af8       ??_C@_0M@OOCKHINI@pickupsound?$AA@ 20104af8     g_saga.obj
 0002:00014b04       ??_C@_07INCGOMOF@deathfx?$AA@ 20104b04     g_saga.obj
 0002:00014b0c       ??_C@_09MOJFGEOD@respawnfx?$AA@ 20104b0c     g_saga.obj
 0002:00014b18       ??_C@_0M@LNFEKALJ@?916?5?916?5?924?$AA@ 20104b18     g_saga.obj
 0002:00014b24       ??_C@_04FIAKMPII@mins?$AA@ 20104b24     g_saga.obj
 0002:00014b2c       ??_C@_08CGILGFAO@16?516?532?$AA@ 20104b2c     g_saga.obj
 0002:00014b38       ??_C@_04IFBFDIKF@maxs?$AA@ 20104b38     g_saga.obj
 0002:00014b40       ??_C@_0L@HLEHNLEC@forcelimit?$AA@ 20104b40     g_saga.obj
 0002:00014b4c       ??_C@_0BB@HEHNKNJK@health_chargeamt?$AA@ 20104b4c     g_saga.obj
 0002:00014b60       ??_C@_0BC@GFLCMKPP@health_chargerate?$AA@ 20104b60     g_saga.obj
 0002:00014b74       ??_C@_04PDHOFNNA@sxd?5?$AA@ 20104b74     g_saga.obj
 0002:00014b7c       ??_C@_0M@IHENFEII@?$CFi?$HM?$CFi?$HM?$CFi?$HM?$CFi?$AA@ 20104b7c     g_saga.obj
 0002:00014b88       ??_C@_0CN@FFHOIJHH@?$CFi?5?$CFi?5?$CFi?5?$CFi?5?$CFi?5?$CFi?5?$CFi?5?$CFi?5?$CFi?5?$CFi?5?$CFi@ 20104b88     g_session.obj
 0002:00014bb8       ??_C@_09INHJFLOH@session?$CFi?$AA@ 20104bb8     g_session.obj
 0002:00014bc4       ??_C@_07KMJDECGK@session?$AA@ 20104bc4     g_session.obj
 0002:00014bcc       ??_C@_0CK@FAAHDCAM@Gametype?5changed?0?5clearing?5sessi@ 20104bcc     g_session.obj
 0002:00014bf8       ??_C@_09JKDEPOJF@NPC_Rebel?$AA@ 20104bf8     g_spawn.obj
 0002:00014c04       ??_C@_0BB@MOIFDEOP@NPC_Stormtrooper?$AA@ 20104c04     g_spawn.obj
 0002:00014c18       ??_C@_0BI@KNEFCPCF@NPC_StormtrooperOfficer?$AA@ 20104c18     g_spawn.obj
 0002:00014c30       ??_C@_0BA@PEGNBFNM@NPC_Snowtrooper?$AA@ 20104c30     g_spawn.obj
 0002:00014c40       ??_C@_0O@ONHKBMAJ@NPC_Tie_Pilot?$AA@ 20104c40     g_spawn.obj
 0002:00014c50       ??_C@_0N@OMLABMPC@NPC_Ugnaught?$AA@ 20104c50     g_spawn.obj
 0002:00014c60       ??_C@_08GODKOBHJ@NPC_Jawa?$AA@ 20104c60     g_spawn.obj
 0002:00014c6c       ??_C@_08ELDFBOLE@NPC_Gran?$AA@ 20104c6c     g_spawn.obj
 0002:00014c78       ??_C@_0L@BHFEOPDB@NPC_Rodian?$AA@ 20104c78     g_spawn.obj
 0002:00014c84       ??_C@_0M@MEPEPFD@NPC_Weequay?$AA@ 20104c84     g_spawn.obj
 0002:00014c90       ??_C@_0P@KGHFMHEM@NPC_Trandoshan?$AA@ 20104c90     g_spawn.obj
 0002:00014ca0       ??_C@_0L@KJAJNADD@NPC_Tusken?$AA@ 20104ca0     g_spawn.obj
 0002:00014cac       ??_C@_0L@BJBHIPNA@NPC_Noghri?$AA@ 20104cac     g_spawn.obj
 0002:00014cb8       ??_C@_0BB@JJDBNAAM@NPC_SwampTrooper?$AA@ 20104cb8     g_spawn.obj
 0002:00014ccc       ??_C@_0N@EEMBBMCP@NPC_Imperial?$AA@ 20104ccc     g_spawn.obj
 0002:00014cdc       ??_C@_0O@EBHEDPHH@NPC_ImpWorker?$AA@ 20104cdc     g_spawn.obj
 0002:00014cec       ??_C@_0O@KPLHJPHC@NPC_BespinCop?$AA@ 20104cec     g_spawn.obj
 0002:00014cfc       ??_C@_0L@CIEHLAC@NPC_Reborn?$AA@ 20104cfc     g_spawn.obj
 0002:00014d08       ??_C@_0BC@DEMLMLDC@NPC_ShadowTrooper?$AA@ 20104d08     g_spawn.obj
 0002:00014d1c       ??_C@_0BC@JOLJPFCL@NPC_Monster_Murjj?$AA@ 20104d1c     g_spawn.obj
 0002:00014d30       ??_C@_0BC@CKGLNBIP@NPC_Monster_Swamp?$AA@ 20104d30     g_spawn.obj
 0002:00014d44       ??_C@_0BD@KHIJMCAK@NPC_Monster_Howler?$AA@ 20104d44     g_spawn.obj
 0002:00014d58       ??_C@_0BA@CICOLEFN@NPC_MineMonster?$AA@ 20104d58     g_spawn.obj
 0002:00014d68       ??_C@_0BB@DCKNHAA@NPC_Monster_Claw?$AA@ 20104d68     g_spawn.obj
 0002:00014d7c       ??_C@_0BD@MNDBMBEB@NPC_Monster_Glider?$AA@ 20104d7c     g_spawn.obj
 0002:00014d90       ??_C@_0BD@DKOKFHGA@NPC_Monster_Flier2?$AA@ 20104d90     g_spawn.obj
 0002:00014da4       ??_C@_0BD@IKJEBJEK@NPC_Monster_Lizard?$AA@ 20104da4     g_spawn.obj
 0002:00014db8       ??_C@_0BB@COOMNBMC@NPC_Monster_Fish?$AA@ 20104db8     g_spawn.obj
 0002:00014dcc       ??_C@_0BC@FDKLFNDA@NPC_Monster_Wampa?$AA@ 20104dcc     g_spawn.obj
 0002:00014de0       ??_C@_0BD@GGCJAAIJ@NPC_Monster_Rancor?$AA@ 20104de0     g_spawn.obj
 0002:00014df4       ??_C@_0BH@GELBMCCG@NPC_Droid_Interrogator?$AA@ 20104df4     g_spawn.obj
 0002:00014e0c       ??_C@_0BA@PLDIIEKG@NPC_Droid_Probe?$AA@ 20104e0c     g_spawn.obj
 0002:00014e1c       ??_C@_0BA@BAEFFECM@NPC_Droid_Mark1?$AA@ 20104e1c     g_spawn.obj
 0002:00014e2c       ??_C@_0BA@DLGIAHOP@NPC_Droid_Mark2?$AA@ 20104e2c     g_spawn.obj
 0002:00014e3c       ??_C@_0P@KNKEJFNJ@NPC_Droid_ATST?$AA@ 20104e3c     g_spawn.obj
 0002:00014e4c       ??_C@_0BB@DKMEFKLI@NPC_Droid_Seeker?$AA@ 20104e4c     g_spawn.obj
 0002:00014e60       ??_C@_0BB@DLMGMAEL@NPC_Droid_Remote?$AA@ 20104e60     g_spawn.obj
 0002:00014e74       ??_C@_0BB@LPPDEAFO@NPC_Droid_Sentry?$AA@ 20104e74     g_spawn.obj
 0002:00014e88       ??_C@_0P@HBKDEDCG@NPC_Droid_Gonk?$AA@ 20104e88     g_spawn.obj
 0002:00014e98       ??_C@_0BA@POEALIGM@NPC_Droid_Mouse?$AA@ 20104e98     g_spawn.obj
 0002:00014ea8       ??_C@_0P@LOGHKJIA@NPC_Droid_R2D2?$AA@ 20104ea8     g_spawn.obj
 0002:00014eb8       ??_C@_0P@CDLAJBDJ@NPC_Droid_R5D2?$AA@ 20104eb8     g_spawn.obj
 0002:00014ec8       ??_C@_0BD@JGHHMNIE@NPC_Droid_Protocol?$AA@ 20104ec8     g_spawn.obj
 0002:00014edc       ??_C@_0P@KMKGOCLH@NPC_Reborn_New?$AA@ 20104edc     g_spawn.obj
 0002:00014eec       ??_C@_0M@MMEMNDIA@NPC_Cultist?$AA@ 20104eec     g_spawn.obj
 0002:00014ef8       ??_C@_0BC@KAHNAJDN@NPC_Cultist_Saber?$AA@ 20104ef8     g_spawn.obj
 0002:00014f0c       ??_C@_0BJ@OAIOLAJG@NPC_Cultist_Saber_Powers?$AA@ 20104f0c     g_spawn.obj
 0002:00014f28       ??_C@_0BG@PGLBMPMH@NPC_Cultist_Destroyer?$AA@ 20104f28     g_spawn.obj
 0002:00014f40       ??_C@_0BF@CBJGBLJK@NPC_Cultist_Commando?$AA@ 20104f40     g_spawn.obj
 0002:00014f58       ??_C@_0BG@LABGLKEM@NPC_Colombian_Soldier?$AA@ 20104f58     g_spawn.obj
 0002:00014f70       ??_C@_0BE@OOJHPNK@NPC_Colombian_Rebel?$AA@ 20104f70     g_spawn.obj
 0002:00014f84       ??_C@_0BN@DKBPHJLE@NPC_Colombian_EmplacedGunner?$AA@ 20104f84     g_spawn.obj
 0002:00014fa4       ??_C@_0BH@LMHGHDKM@NPC_Manuel_Vergara_RMG?$AA@ 20104fa4     g_spawn.obj
 0002:00014fbc       ??_C@_0P@NNHLOLDF@waypoint_small?$AA@ 20104fbc     g_spawn.obj
 0002:00014fcc       ??_C@_0BB@EOBMEDND@waypoint_navgoal?$AA@ 20104fcc     g_spawn.obj
 0002:00014fe0       ??_C@_0BD@DFLPBNJM@waypoint_navgoal_8?$AA@ 20104fe0     g_spawn.obj
 0002:00014ff4       ??_C@_0BD@JJAKFCJA@waypoint_navgoal_4?$AA@ 20104ff4     g_spawn.obj
 0002:00015008       ??_C@_0BD@MPFAPFBG@waypoint_navgoal_2?$AA@ 20105008     g_spawn.obj
 0002:0001501c       ??_C@_0BD@OEHNKGNF@waypoint_navgoal_1?$AA@ 2010501c     g_spawn.obj
 0002:00015030       ??_C@_0N@KJNBBMDE@fx_spacedust?$AA@ 20105030     g_spawn.obj
 0002:00015040       ??_C@_07BCPGDIIL@fx_rain?$AA@ 20105040     g_spawn.obj
 0002:00015048       ??_C@_07OIHINEMH@fx_snow?$AA@ 20105048     g_spawn.obj
 0002:00015050       ??_C@_0N@GEHAKDCL@point_combat?$AA@ 20105050     g_spawn.obj
 0002:00015060       ??_C@_0O@LCGNHCAP@misc_holocron?$AA@ 20105060     g_spawn.obj
 0002:00015070       ??_C@_0BA@NGEFLHKB@shooter_blaster?$AA@ 20105070     g_spawn.obj
 0002:00015080       ??_C@_0BD@KLANHAKB@team_CTF_redplayer?$AA@ 20105080     g_spawn.obj
 0002:00015094       ??_C@_0BE@COKGGHPD@team_CTF_blueplayer?$AA@ 20105094     g_spawn.obj
 0002:000150a8       ??_C@_0BC@KIKIBEND@team_CTF_redspawn?$AA@ 201050a8     g_spawn.obj
 0002:000150bc       ??_C@_0BD@GGIPJOIB@team_CTF_bluespawn?$AA@ 201050bc     g_spawn.obj
 0002:000150d0       ??_C@_0N@PAECNMEH@item_botroam?$AA@ 201050d0     g_spawn.obj
 0002:000150e0       ??_C@_0N@IKDCGMFI@emplaced_gun?$AA@ 201050e0     g_spawn.obj
 0002:000150f0       ??_C@_0M@OJHLJIJA@misc_turret?$AA@ 201050f0     g_spawn.obj
 0002:000150fc       ??_C@_0O@BHDALHCD@misc_turretG2?$AA@ 201050fc     g_spawn.obj
 0002:0001510c       ??_C@_09CNJINBGN@classname?$AA@ 2010510c     g_spawn.obj
 0002:00015118       ??_C@_09PEGILAHB@teamnodmg?$AA@ 20105118     g_spawn.obj
 0002:00015124       ??_C@_09DJLPOIFP@teamowner?$AA@ 20105124     g_spawn.obj
 0002:00015130       ??_C@_08KOLEPOPA@teamuser?$AA@ 20105130     g_spawn.obj
 0002:0001513c       ??_C@_0L@KJMMNOPM@alliedTeam?$AA@ 2010513c     g_spawn.obj
 0002:00015148       ??_C@_08FLOLJFG@roffname?$AA@ 20105148     g_spawn.obj
 0002:00015154       ??_C@_0L@NAAEEKCF@rofftarget?$AA@ 20105154     g_spawn.obj
 0002:00015160       ??_C@_0N@DGCGHKKP@healingclass?$AA@ 20105160     g_spawn.obj
 0002:00015170       ??_C@_0N@LMFGHGJJ@healingsound?$AA@ 20105170     g_spawn.obj
 0002:00015180       ??_C@_0M@EFKDMLIP@healingrate?$AA@ 20105180     g_spawn.obj
 0002:0001518c       ??_C@_09PEDIFLC@ownername?$AA@ 2010518c     g_spawn.obj
 0002:00015198       ??_C@_06NHCMNMEH@origin?$AA@ 20105198     g_spawn.obj
 0002:000151a0       ??_C@_06LNKHAAKC@model2?$AA@ 201051a0     g_spawn.obj
 0002:000151a8       ??_C@_0L@HLIKNEFC@spawnflags?$AA@ 201051a8     g_spawn.obj
 0002:000151b4       ??_C@_07EAIOGMPG@target2?$AA@ 201051b4     g_spawn.obj
 0002:000151bc       ??_C@_07FJJFFNLH@target3?$AA@ 201051bc     g_spawn.obj
 0002:000151c4       ??_C@_07BGNEMLHA@target4?$AA@ 201051c4     g_spawn.obj
 0002:000151cc       ??_C@_07PMPPKDB@target5?$AA@ 201051cc     g_spawn.obj
 0002:000151d4       ??_C@_07CEOCKJPC@target6?$AA@ 201051d4     g_spawn.obj
 0002:000151dc       ??_C@_0P@KGICNCBF@NPC_targetname?$AA@ 201051dc     g_spawn.obj
 0002:000151ec       ??_C@_0L@DJGIMFPB@NPC_target?$AA@ 201051ec     g_spawn.obj
 0002:000151f8       ??_C@_0M@CHPDPODO@NPC_target2?$AA@ 201051f8     g_spawn.obj
 0002:00015204       ??_C@_0M@HBKJFJLI@NPC_target4?$AA@ 20105204     g_spawn.obj
 0002:00015210       ??_C@_08IEKFELGP@NPC_type?$AA@ 20105210     g_spawn.obj
 0002:0001521c       ??_C@_0L@FEPNPAJD@targetname?$AA@ 2010521c     g_spawn.obj
 0002:00015228       ??_C@_07ONPBMBOP@message?$AA@ 20105228     g_spawn.obj
 0002:00015230       ??_C@_06GNEAMJOC@angles?$AA@ 20105230     g_spawn.obj
 0002:00015238       ??_C@_0BB@FKLCNMKK@targetShaderName?$AA@ 20105238     g_spawn.obj
 0002:0001524c       ??_C@_0BE@OHABMMFD@targetShaderNewName?$AA@ 2010524c     g_spawn.obj
 0002:00015260       ??_C@_06HPJICMPM@linear?$AA@ 20105260     g_spawn.obj
 0002:00015268       ??_C@_0M@LMCGMEO@closetarget?$AA@ 20105268     g_spawn.obj
 0002:00015274       ??_C@_0L@IJKLDOPM@opentarget?$AA@ 20105274     g_spawn.obj
 0002:00015280       ??_C@_0L@JKPNBHDD@paintarget?$AA@ 20105280     g_spawn.obj
 0002:0001528c       ??_C@_0L@PKAEFDKN@goaltarget?$AA@ 2010528c     g_spawn.obj
 0002:00015298       ??_C@_0L@CCNDILBJ@idealclass?$AA@ 20105298     g_spawn.obj
 0002:000152a4       ??_C@_0M@MPCECDHK@spawnscript?$AA@ 201052a4     g_spawn.obj
 0002:000152b0       ??_C@_09NEEOOAFM@usescript?$AA@ 201052b0     g_spawn.obj
 0002:000152bc       ??_C@_0M@BBKCOIKJ@awakescript?$AA@ 201052bc     g_spawn.obj
 0002:000152c8       ??_C@_0M@HHLLIBAA@angerscript?$AA@ 201052c8     g_spawn.obj
 0002:000152d4       ??_C@_0N@BFGNCHFI@attackscript?$AA@ 201052d4     g_spawn.obj
 0002:000152e4       ??_C@_0O@GAGAGHCH@victoryscript?$AA@ 201052e4     g_spawn.obj
 0002:000152f4       ??_C@_0BA@GFACABIL@lostenemyscript?$AA@ 201052f4     g_spawn.obj
 0002:00015304       ??_C@_0L@OIKAJOBO@painscript?$AA@ 20105304     g_spawn.obj
 0002:00015310       ??_C@_0L@OAEDPEGE@fleescript?$AA@ 20105310     g_spawn.obj
 0002:0001531c       ??_C@_0M@JHOHHKMC@deathscript?$AA@ 2010531c     g_spawn.obj
 0002:00015328       ??_C@_0M@DEFPMHPJ@delayscript?$AA@ 20105328     g_spawn.obj
 0002:00015334       ??_C@_0BA@GBOAFFNB@delayscripttime?$AA@ 20105334     g_spawn.obj
 0002:00015344       ??_C@_0O@KGGCFALC@blockedscript?$AA@ 20105344     g_spawn.obj
 0002:00015354       ??_C@_0M@BJPGKOPD@ffirescript?$AA@ 20105354     g_spawn.obj
 0002:00015360       ??_C@_0O@OHIAAEHG@ffdeathscript?$AA@ 20105360     g_spawn.obj
 0002:00015370       ??_C@_0BA@FDOOFENA@mindtrickscript?$AA@ 20105370     g_spawn.obj
 0002:00015380       ??_C@_0BC@OJLHGPEO@script_targetname?$AA@ 20105380     g_spawn.obj
 0002:00015394       ??_C@_08NNMDNEOE@fullName?$AA@ 20105394     g_spawn.obj
 0002:000153a0       ??_C@_08OFPIPDAI@soundSet?$AA@ 201053a0     g_spawn.obj
 0002:000153ac       ??_C@_09NGCDKKIO@numchunks?$AA@ 201053ac     g_spawn.obj
 0002:000153b8       ??_C@_09CFKEAMGB@chunksize?$AA@ 201053b8     g_spawn.obj
 0002:000153c4       ??_C@_05KGCJDKLG@parm1?$AA@ 201053c4     g_spawn.obj
 0002:000153cc       ??_C@_05INAEGJHF@parm2?$AA@ 201053cc     g_spawn.obj
 0002:000153d4       ??_C@_05JEBPFIDE@parm3?$AA@ 201053d4     g_spawn.obj
 0002:000153dc       ??_C@_05NLFOMOPD@parm4?$AA@ 201053dc     g_spawn.obj
 0002:000153e4       ??_C@_05MCEFPPLC@parm5?$AA@ 201053e4     g_spawn.obj
 0002:000153ec       ??_C@_05OJGIKMHB@parm6?$AA@ 201053ec     g_spawn.obj
 0002:000153f4       ??_C@_05PAHDJNDA@parm7?$AA@ 201053f4     g_spawn.obj
 0002:000153fc       ??_C@_05HHOLIBPP@parm8?$AA@ 201053fc     g_spawn.obj
 0002:00015404       ??_C@_05GOPALALO@parm9?$AA@ 20105404     g_spawn.obj
 0002:0001540c       ??_C@_06PNOCAJHA@parm10?$AA@ 2010540c     g_spawn.obj
 0002:00015414       ??_C@_06OEPJDIDB@parm11?$AA@ 20105414     g_spawn.obj
 0002:0001541c       ??_C@_06MPNEGLPC@parm12?$AA@ 2010541c     g_spawn.obj
 0002:00015424       ??_C@_06NGMPFKLD@parm13?$AA@ 20105424     g_spawn.obj
 0002:0001542c       ??_C@_06JJIOMMHE@parm14?$AA@ 2010542c     g_spawn.obj
 0002:00015434       ??_C@_06IAJFPNDF@parm15?$AA@ 20105434     g_spawn.obj
 0002:0001543c       ??_C@_06KLLIKOPG@parm16?$AA@ 2010543c     g_spawn.obj
 0002:00015444       ??_C@_0BH@IMOHPMGA@info_player_siegeteam1?$AA@ 20105444     g_spawn.obj
 0002:0001545c       ??_C@_0BH@KHMKKPKD@info_player_siegeteam2?$AA@ 2010545c     g_spawn.obj
 0002:00015474       ??_C@_0BG@FDPJFBIC@info_jedimaster_start?$AA@ 20105474     g_spawn.obj
 0002:0001548c       ??_C@_09MBOCECHK@info_null?$AA@ 2010548c     g_spawn.obj
 0002:00015498       ??_C@_0N@FHKCBFMD@info_notnull?$AA@ 20105498     g_spawn.obj
 0002:000154a8       ??_C@_09BLMHBGJ@info_camp?$AA@ 201054a8     g_spawn.obj
 0002:000154b4       ??_C@_0BF@FLLGAJCG@info_siege_radaricon?$AA@ 201054b4     g_spawn.obj
 0002:000154cc       ??_C@_0BG@LNIMJDHI@info_siege_decomplete?$AA@ 201054cc     g_spawn.obj
 0002:000154e4       ??_C@_0BB@LIGHBDID@target_siege_end?$AA@ 201054e4     g_spawn.obj
 0002:000154f8       ??_C@_0BA@DAFFFNDM@misc_siege_item?$AA@ 201054f8     g_spawn.obj
 0002:00015508       ??_C@_09HCDLIOGG@func_plat?$AA@ 20105508     g_spawn.obj
 0002:00015514       ??_C@_0M@PNMKBMEP@func_button?$AA@ 20105514     g_spawn.obj
 0002:00015520       ??_C@_0M@OOBMECJN@func_static?$AA@ 20105520     g_spawn.obj
 0002:0001552c       ??_C@_0N@BAMIHEIF@func_bobbing?$AA@ 2010552c     g_spawn.obj
 0002:0001553c       ??_C@_0O@FPCFJAHB@func_pendulum?$AA@ 2010553c     g_spawn.obj
 0002:0001554c       ??_C@_0L@PGCOCBM@func_train?$AA@ 2010554c     g_spawn.obj
 0002:00015558       ??_C@_0L@KLICIANB@func_group?$AA@ 20105558     g_spawn.obj
 0002:00015564       ??_C@_0L@LNOJFPAO@func_timer?$AA@ 20105564     g_spawn.obj
 0002:00015570       ??_C@_0L@LLCNPBHA@func_glass?$AA@ 20105570     g_spawn.obj
 0002:0001557c       ??_C@_09LILCIBKB@func_wall?$AA@ 2010557c     g_spawn.obj
 0002:00015588       ??_C@_0BI@MBNCDCLD@trigger_lightningstrike?$AA@ 20105588     g_spawn.obj
 0002:000155a0       ??_C@_0P@KDHOHKJL@trigger_always?$AA@ 201055a0     g_spawn.obj
 0002:000155b0       ??_C@_0N@OOLDLEBF@trigger_once?$AA@ 201055b0     g_spawn.obj
 0002:000155c0       ??_C@_0N@CCJDLJOF@trigger_push?$AA@ 201055c0     g_spawn.obj
 0002:000155d0       ??_C@_0BB@COMMHECA@trigger_teleport?$AA@ 201055d0     g_spawn.obj
 0002:000155e4       ??_C@_0N@JFLGFCMM@trigger_hurt?$AA@ 201055e4     g_spawn.obj
 0002:000155f4       ??_C@_0O@HAPJJHIH@trigger_space?$AA@ 201055f4     g_spawn.obj
 0002:00015604       ??_C@_0BF@LICDFBIJ@trigger_shipboundary?$AA@ 20105604     g_spawn.obj
 0002:0001561c       ??_C@_0BD@LNPBPENL@trigger_hyperspace?$AA@ 2010561c     g_spawn.obj
 0002:00015630       ??_C@_0M@KALMALDK@target_give?$AA@ 20105630     g_spawn.obj
 0002:0001563c       ??_C@_0BH@FJADHEOA@target_remove_powerups?$AA@ 2010563c     g_spawn.obj
 0002:00015654       ??_C@_0N@EDJICHIO@target_delay?$AA@ 20105654     g_spawn.obj
 0002:00015664       ??_C@_0P@MNJIBEAO@target_speaker?$AA@ 20105664     g_spawn.obj
 0002:00015674       ??_C@_0N@IADDOFND@target_print?$AA@ 20105674     g_spawn.obj
 0002:00015684       ??_C@_0N@LGMMDFPN@target_laser?$AA@ 20105684     g_spawn.obj
 0002:00015694       ??_C@_0N@DIKJAPJH@target_score?$AA@ 20105694     g_spawn.obj
 0002:000156a4       ??_C@_0BC@GJLLMIEM@target_teleporter?$AA@ 201056a4     g_spawn.obj
 0002:000156b8       ??_C@_0N@JGBHMGAI@target_relay?$AA@ 201056b8     g_spawn.obj
 0002:000156c8       ??_C@_0M@KFDPHLNE@target_kill?$AA@ 201056c8     g_spawn.obj
 0002:000156d4       ??_C@_0BA@NENIEICJ@target_position?$AA@ 201056d4     g_spawn.obj
 0002:000156e4       ??_C@_0BA@BFKBOHOP@target_location?$AA@ 201056e4     g_spawn.obj
 0002:000156f4       ??_C@_0P@KJEJBLIB@target_counter?$AA@ 201056f4     g_spawn.obj
 0002:00015704       ??_C@_0O@BADKLEJI@target_random?$AA@ 20105704     g_spawn.obj
 0002:00015714       ??_C@_0BA@MKPDKILP@target_interest?$AA@ 20105714     g_spawn.obj
 0002:00015724       ??_C@_0BA@LBJINLAP@target_activate?$AA@ 20105724     g_spawn.obj
 0002:00015734       ??_C@_0BC@FIFLGJOF@target_deactivate?$AA@ 20105734     g_spawn.obj
 0002:00015748       ??_C@_0BE@KLPHHBOK@target_level_change?$AA@ 20105748     g_spawn.obj
 0002:0001575c       ??_C@_0BC@POCFIFJE@target_play_music?$AA@ 2010575c     g_spawn.obj
 0002:00015770       ??_C@_0M@NLNGBECJ@target_push?$AA@ 20105770     g_spawn.obj
 0002:0001577c       ??_C@_0BF@OMPOACGH@misc_teleporter_dest?$AA@ 2010577c     g_spawn.obj
 0002:00015794       ??_C@_0L@PMAFMKKM@misc_model?$AA@ 20105794     g_spawn.obj
 0002:000157a0       ??_C@_0BC@LMMEGHFB@misc_model_static?$AA@ 201057a0     g_spawn.obj
 0002:000157b4       ??_C@_0N@HMOIJOEB@misc_G2model?$AA@ 201057b4     g_spawn.obj
 0002:000157c4       ??_C@_0BE@FCJPPDGO@misc_portal_surface?$AA@ 201057c4     g_spawn.obj
 0002:000157d8       ??_C@_0BD@OJADMBDB@misc_portal_camera?$AA@ 201057d8     g_spawn.obj
 0002:000157ec       ??_C@_0BC@CAFACOKO@misc_weather_zone?$AA@ 201057ec     g_spawn.obj
 0002:00015800       ??_C@_08HKHKEJBN@misc_bsp?$AA@ 20105800     g_spawn.obj
 0002:0001580c       ??_C@_0BG@DHHABGNA@misc_skyportal_orient?$AA@ 2010580c     g_spawn.obj
 0002:00015824       ??_C@_0P@IFKMPLOL@misc_skyportal?$AA@ 20105824     g_spawn.obj
 0002:00015834       ??_C@_0O@EGNLNBNM@gametype_item?$AA@ 20105834     g_spawn.obj
 0002:00015844       ??_C@_0BF@BELDLOJO@misc_ammo_floor_unit?$AA@ 20105844     g_spawn.obj
 0002:0001585c       ??_C@_0BH@KPPIOPIE@misc_shield_floor_unit?$AA@ 2010585c     g_spawn.obj
 0002:00015874       ??_C@_0CC@PJPAGJL@misc_model_shield_power_converte@ 20105874     g_spawn.obj
 0002:00015898       ??_C@_0CA@CMDGGLOH@misc_model_ammo_power_converter?$AA@ 20105898     g_spawn.obj
 0002:000158b8       ??_C@_0CC@FBCPJAAL@misc_model_health_power_converte@ 201058b8     g_spawn.obj
 0002:000158dc       ??_C@_09IJAHGFMK@fx_runner?$AA@ 201058dc     g_spawn.obj
 0002:000158e8       ??_C@_0BD@KCDGCJHD@target_screenshake?$AA@ 201058e8     g_spawn.obj
 0002:000158fc       ??_C@_0BC@ECJPHFKJ@target_escapetrig?$AA@ 201058fc     g_spawn.obj
 0002:00015910       ??_C@_0M@LIDBPLDD@misc_faller?$AA@ 20105910     g_spawn.obj
 0002:0001591c       ??_C@_07EODMAKNI@ref_tag?$AA@ 2010591c     g_spawn.obj
 0002:00015924       ??_C@_0N@MINKDOME@ref_tag_huge?$AA@ 20105924     g_spawn.obj
 0002:00015934       ??_C@_0BE@JFHJPNAM@misc_weapon_shooter?$AA@ 20105934     g_spawn.obj
 0002:00015948       ??_C@_0M@DDKBIGKJ@NPC_spawner?$AA@ 20105948     g_spawn.obj
 0002:00015954       ??_C@_0M@LHDGEGBN@NPC_Vehicle?$AA@ 20105954     g_spawn.obj
 0002:00015960       ??_C@_08LCOIDOCM@NPC_Kyle?$AA@ 20105960     g_spawn.obj
 0002:0001596c       ??_C@_09DGFBLNPC@NPC_Lando?$AA@ 2010596c     g_spawn.obj
 0002:00015978       ??_C@_07PAFCGGEB@NPC_Jan?$AA@ 20105978     g_spawn.obj
 0002:00015980       ??_C@_08EPFBELAB@NPC_Luke?$AA@ 20105980     g_spawn.obj
 0002:0001598c       ??_C@_0O@DOPPBNHG@NPC_MonMothma?$AA@ 2010598c     g_spawn.obj
 0002:0001599c       ??_C@_0L@FODAFCJD@NPC_Tavion?$AA@ 2010599c     g_spawn.obj
 0002:000159a8       ??_C@_0P@HMLCGPHK@NPC_Tavion_New?$AA@ 201059a8     g_spawn.obj
 0002:000159b8       ??_C@_09EMMLPPLE@NPC_Alora?$AA@ 201059b8     g_spawn.obj
 0002:000159c4       ??_C@_09CDBPKOGA@NPC_Reelo?$AA@ 201059c4     g_spawn.obj
 0002:000159d0       ??_C@_09JEDIICFF@NPC_Galak?$AA@ 201059d0     g_spawn.obj
 0002:000159dc       ??_C@_0L@KOOJEBOD@NPC_Desann?$AA@ 201059dc     g_spawn.obj
 0002:000159e8       ??_C@_0O@LPDIFKFL@NPC_Bartender?$AA@ 201059e8     g_spawn.obj
 0002:000159f8       ??_C@_0BB@FFDODFNA@NPC_MorganKatarn?$AA@ 201059f8     g_spawn.obj
 0002:00015a0c       ??_C@_08DHOBOBAP@NPC_Jedi?$AA@ 20105a0c     g_spawn.obj
 0002:00015a18       ??_C@_0N@BABPAPJA@NPC_Prisoner?$AA@ 20105a18     g_spawn.obj
 0002:00015a28       ??_C@_04DNPGJOMD@flag?$AA@ 20105a28     g_spawn.obj
 0002:00015a30       ??_C@_08NJKCOKCI@red_flag?$AA@ 20105a30     g_spawn.obj
 0002:00015a3c       ??_C@_09LHPNOBMB@blue_flag?$AA@ 20105a3c     g_spawn.obj
 0002:00015a48       ??_C@_0BN@EMEGOFNC@G_CallSpawn?3?5NULL?5classname?6?$AA@ 20105a48     g_spawn.obj
 0002:00015a68       ??_C@_0CC@JNJOINHG@?$CFs?5doesn?8t?5have?5a?5spawn?5function@ 20105a68     g_spawn.obj
 0002:00015a8c       ??_C@_09FDFEENEB@notsingle?$AA@ 20105a8c     g_spawn.obj
 0002:00015a98       ??_C@_07CLBNBEAH@notteam?$AA@ 20105a98     g_spawn.obj
 0002:00015aa0       ??_C@_07DDCDJNBH@notfree?$AA@ 20105aa0     g_spawn.obj
 0002:00015aa8       ??_C@_05KMOCHNEL@notta?$AA@ 20105aa8     g_spawn.obj
 0002:00015ab0       ??_C@_08NJPDEKHO@gametype?$AA@ 20105ab0     g_spawn.obj
 0002:00015abc       ??_C@_0CE@JHGDANIP@G_AddSpawnVarToken?3?5MAX_SPAWN_CH@ 20105abc     g_spawn.obj
 0002:00015ae0       ??_C@_07GACLGDNA@novalue?$AA@ 20105ae0     g_spawn.obj
 0002:00015ae8       ??_C@_0BC@ILNELINF@?$CF0?40f?5?$CF0?40f?5?$CF0?40f?$AA@ 20105ae8     g_spawn.obj
 0002:00015afc       ??_C@_05OPFMIDOD@?$CF0?40f?$AA@ 20105afc     g_spawn.obj
 0002:00015b04       ??_C@_09HPKLLIJF@direction?$AA@ 20105b04     g_spawn.obj
 0002:00015b10       ??_C@_0O@KDLMNIJN@BSPInstanceID?$AA@ 20105b10     g_spawn.obj
 0002:00015b20       ??_C@_04HDOCAJNK@?$CFs?$CFs?$AA@ 20105b20     g_spawn.obj
 0002:00015b28       ??_C@_0L@MEPFGHK@killtarget?$AA@ 20105b28     g_spawn.obj
 0002:00015b34       ??_C@_0M@JFHNMIGF@brushparent?$AA@ 20105b34     g_spawn.obj
 0002:00015b40       ??_C@_0L@GPJOEDDC@brushchild?$AA@ 20105b40     g_spawn.obj
 0002:00015b4c       ??_C@_0L@JEPABELH@ICARUSname?$AA@ 20105b4c     g_spawn.obj
 0002:00015b58       ??_C@_0CM@CKLLJIGA@G_ParseSpawnVars?3?5found?5?$CFs?5when?5@ 20105b58     g_spawn.obj
 0002:00015b84       ??_C@_0CM@DONEEOIH@G_ParseSpawnVars?3?5EOF?5without?5cl@ 20105b84     g_spawn.obj
 0002:00015bb0       ??_C@_0CN@NMMGIHBC@G_ParseSpawnVars?3?5closing?5brace?5@ 20105bb0     g_spawn.obj
 0002:00015be0       ??_C@_0CB@JFPBODJK@G_ParseSpawnVars?3?5MAX_SPAWN_VARS@ 20105be0     g_spawn.obj
 0002:00015c04       ??_C@_0BI@OMKFAIJM@mmnmmommommnonmmonqnmmo?$AA@ 20105c04     g_spawn.obj
 0002:00015c1c       ??_C@_0DD@HBPKOMNE@abcdefghijklmnopqrstuvwxyzyxwvut@ 20105c1c     g_spawn.obj
 0002:00015c50       ??_C@_0CD@OIDFFBDA@mmmmmaaaaammmmmaaaaaabcdefgabcde@ 20105c50     g_spawn.obj
 0002:00015c74       ??_C@_0N@OJLDIBEI@mamamamamama?$AA@ 20105c74     g_spawn.obj
 0002:00015c84       ??_C@_0CC@NMKOOBOD@jklmnopqrstuvwxyzyxwvutsrqponmlk@ 20105c84     g_spawn.obj
 0002:00015ca8       ??_C@_0BC@KJNLDMIN@nmonqnmomnmomomno?$AA@ 20105ca8     g_spawn.obj
 0002:00015cbc       ??_C@_0BN@HIBFHKHI@mmmaaaabcdefgmmmmaaaammmaamm?$AA@ 20105cbc     g_spawn.obj
 0002:00015cdc       ??_C@_0CL@JNLLPDGN@mmmaaammmaaammmabcdefaaaammmmabc@ 20105cdc     g_spawn.obj
 0002:00015d08       ??_C@_0BB@PBGKNKPK@aaaaaaaazzzzzzzz?$AA@ 20105d08     g_spawn.obj
 0002:00015d1c       ??_C@_0BK@KOPHNNOA@mmamammmmammamamaaamammma?$AA@ 20105d1c     g_spawn.obj
 0002:00015d38       ??_C@_0CF@FDHINAPJ@abcdefghijklmnopqrrqponmlkjihgfe@ 20105d38     g_spawn.obj
 0002:00015d60       ??_C@_08EKIHCNP@mkigegik?$AA@ 20105d60     g_spawn.obj
 0002:00015d6c       ??_C@_0BI@IAMDFHLB@abcdefghijklmqrstuvwxyz?$AA@ 20105d6c     g_spawn.obj
 0002:00015d84       ??_C@_0BI@PHOCBKID@zyxwvutsrqmlkjihgfedcba?$AA@ 20105d84     g_spawn.obj
 0002:00015d9c       ??_C@_0BI@GHBCNHII@aammbbzzccllcckkffyyggp?$AA@ 20105d9c     g_spawn.obj
 0002:00015db4       ??_C@_06BBMFKKHK@6000?40?$AA@ 20105db4     g_spawn.obj
 0002:00015dbc       ??_C@_0N@LEHBMFBL@distanceCull?$AA@ 20105dbc     g_spawn.obj
 0002:00015dcc       ??_C@_0L@BIFLFHPF@worldspawn?$AA@ 20105dcc     g_spawn.obj
 0002:00015dd8       ??_C@_0DD@EBBCPGHA@SP_worldspawn?3?5The?5first?5entity?5@ 20105dd8     g_spawn.obj
 0002:00015e0c       ??_C@_08DLPGHLOG@basejk?91?$AA@ 20105e0c     g_spawn.obj
 0002:00015e18       ??_C@_05LLDJOKNO@music?$AA@ 20105e18     g_spawn.obj
 0002:00015e20       ??_C@_0L@FLFKAOCP@enableDust?$AA@ 20105e20     g_spawn.obj
 0002:00015e2c       ??_C@_0N@PNMKKPBO@enableBreath?$AA@ 20105e2c     g_spawn.obj
 0002:00015e3c       ??_C@_06NMELAGOB@ls_?$CFdr?$AA@ 20105e3c     g_spawn.obj
 0002:00015e44       ??_C@_06OLPOOAPF@ls_?$CFdg?$AA@ 20105e44     g_spawn.obj
 0002:00015e4c       ??_C@_06JGIJBELA@ls_?$CFdb?$AA@ 20105e4c     g_spawn.obj
 0002:00015e54       ??_C@_0DE@IBCLMDHM@Style?5?$CFd?5has?5inconsistent?5length@ 20105e54     g_spawn.obj
 0002:00015e88       ??_C@_0DF@GMCLPLCB@MAX_AMBIENT_SETS?5was?5exceeded?$CB?5?$CI@ 20105e88     g_spawn.obj
 0002:00015ec0       ??_C@_0BL@HLOLFMOK@SpawnEntities?3?5no?5entities?$AA@ 20105ec0     g_spawn.obj
 0002:00015edc       ??_C@_0BI@DIECJMKD@Bad?5filter?5address?3?5?$CFs?6?$AA@ 20105edc     g_svcmds.obj
 0002:00015ef4       ??_C@_0N@DGCGOBB@?$CFi?4?$CFi?4?$CFi?4?$CFi?5?$AA@ 20105ef4     g_svcmds.obj
 0002:00015f04       ??_C@_0BI@LMFPAHLD@IP?5filter?5list?5is?5full?6?$AA@ 20105f04     g_svcmds.obj
 0002:00015f1c       ??_C@_0BJ@LEBLJMPE@Usage?3?5?5addip?5?$DMip?9mask?$DO?6?$AA@ 20105f1c     g_svcmds.obj
 0002:00015f38       ??_C@_0BP@OJMGJOKB@Usage?3?5?5sv?5removeip?5?$DMip?9mask?$DO?6?$AA@ 20105f38     g_svcmds.obj
 0002:00015f58       ??_C@_09HBKBHJKE@Removed?4?6?$AA@ 20105f58     g_svcmds.obj
 0002:00015f64       ??_C@_0BB@DFCHPNBP@Didn?8t?5find?5?$CFs?4?6?$AA@ 20105f64     g_svcmds.obj
 0002:00015f78       ??_C@_04LAMNNBAP@?$CF3i?3?$AA@ 20105f78     g_svcmds.obj
 0002:00015f80       ??_C@_0BF@GBIOGILC@ET_GENERAL?5?5?5?5?5?5?5?5?5?5?$AA@ 20105f80     g_svcmds.obj
 0002:00015f98       ??_C@_0BF@GHCCJGLD@ET_PLAYER?5?5?5?5?5?5?5?5?5?5?5?$AA@ 20105f98     g_svcmds.obj
 0002:00015fb0       ??_C@_0BF@IIDKJKIF@ET_ITEM?5?5?5?5?5?5?5?5?5?5?5?5?5?$AA@ 20105fb0     g_svcmds.obj
 0002:00015fc8       ??_C@_0BF@JMOJKPHI@ET_MISSILE?5?5?5?5?5?5?5?5?5?5?$AA@ 20105fc8     g_svcmds.obj
 0002:00015fe0       ??_C@_0BF@CKCOPBOH@ET_MOVER?5?5?5?5?5?5?5?5?5?5?5?5?$AA@ 20105fe0     g_svcmds.obj
 0002:00015ff8       ??_C@_0BF@DBCLPHFC@ET_BEAM?5?5?5?5?5?5?5?5?5?5?5?5?5?$AA@ 20105ff8     g_svcmds.obj
 0002:00016010       ??_C@_0BF@FABEBACG@ET_PORTAL?5?5?5?5?5?5?5?5?5?5?5?$AA@ 20106010     g_svcmds.obj
 0002:00016028       ??_C@_0BF@JKKJEPNL@ET_SPEAKER?5?5?5?5?5?5?5?5?5?5?$AA@ 20106028     g_svcmds.obj
 0002:00016040       ??_C@_0BF@JCJGMGAM@ET_PUSH_TRIGGER?5?5?5?5?5?$AA@ 20106040     g_svcmds.obj
 0002:00016058       ??_C@_0BF@KNGJOHIC@ET_TELEPORT_TRIGGER?5?$AA@ 20106058     g_svcmds.obj
 0002:00016070       ??_C@_0BF@FONFEMNK@ET_INVISIBLE?5?5?5?5?5?5?5?5?$AA@ 20106070     g_svcmds.obj
 0002:00016088       ??_C@_0BF@PHLNOJCF@ET_NPC?5?5?5?5?5?5?5?5?5?5?5?5?5?5?$AA@ 20106088     g_svcmds.obj
 0002:000160a0       ??_C@_0BF@HIBFLMFA@?$CF3i?5?5?5?5?5?5?5?5?5?5?5?5?5?5?5?5?5?$AA@ 201060a0     g_svcmds.obj
 0002:000160b8       ??_C@_0BF@BEBENGBA@Bad?5client?5slot?3?5?$CFi?6?$AA@ 201060b8     g_svcmds.obj
 0002:000160d0       ??_C@_0BM@KMBENOOM@Client?5?$CFi?5is?5not?5connected?6?$AA@ 201060d0     g_svcmds.obj
 0002:000160ec       ??_C@_0BO@DPIFHGAP@User?5?$CFs?5is?5not?5on?5the?5server?6?$AA@ 201060ec     g_svcmds.obj
 0002:0001610c       ??_C@_0L@CLDMIJOM@entitylist?$AA@ 2010610c     g_svcmds.obj
 0002:00016118       ??_C@_09NGKIAGHE@forceteam?$AA@ 20106118     g_svcmds.obj
 0002:00016124       ??_C@_0M@OOGGMGEK@game_memory?$AA@ 20106124     g_svcmds.obj
 0002:00016130       ??_C@_07OCFGLMLF@botlist?$AA@ 20106130     g_svcmds.obj
 0002:00016138       ??_C@_05DNFKLKCD@addip?$AA@ 20106138     g_svcmds.obj
 0002:00016140       ??_C@_08FODIKFHA@removeip?$AA@ 20106140     g_svcmds.obj
 0002:0001614c       ??_C@_06DDGIHMAP@listip?$AA@ 2010614c     g_svcmds.obj
 0002:00016154       ??_C@_09DNOCIDID@g_banIPs?6?$AA@ 20106154     g_svcmds.obj
 0002:00016160       ??_C@_0BE@HCGFEOLO@print?5?$CCserver?3?5?$CFs?6?$CC?$AA@ 20106160     g_svcmds.obj
 0002:00016174       ??_C@_0BM@LDIGOCCP@Bad?5ent?5in?5Use_Target_Print?$AA@ 20106174     g_target.obj
 0002:00016190       ??_C@_0CC@IHNNPBAC@Bad?5activator?5in?5Use_Target_Prin@ 20106190     g_target.obj
 0002:000161b4       ??_C@_0BG@MGNCCOLA@TARGET?5PRINT?5ERRORS?3?6?$AA@ 201061b4     g_target.obj
 0002:000161cc       ??_C@_0BJ@DKPJMBIN@activator?5classname?3?5?$CFs?6?$AA@ 201061cc     g_target.obj
 0002:000161e8       ??_C@_0BG@BLCBENPA@activator?5target?3?5?$CFs?6?$AA@ 201061e8     g_target.obj
 0002:00016200       ??_C@_0BK@IBLBNMMH@activator?5targetname?3?5?$CFs?6?$AA@ 20106200     g_target.obj
 0002:0001621c       ??_C@_0BG@ILAIMDEL@print?5targetname?3?5?$CFs?6?$AA@ 2010621c     g_target.obj
 0002:00016238       ??_C@_0EM@PLFLHHFE@target_print?5used?5in?5quick?5succe@ 20106238     g_target.obj
 0002:00016284       ??_C@_08NHIMLLGB@cps?5?$CC?$CFs?$CC?$AA@ 20106284     g_target.obj
 0002:00016290       ??_C@_07PCJFOBJC@cp?5?$CC?$CFs?$CC?$AA@ 20106290     g_target.obj
 0002:00016298       ??_C@_07FGPCJFED@NOSOUND?$AA@ 20106298     g_target.obj
 0002:000162a0       ??_C@_05GPLCCBII@noise?$AA@ 201062a0     g_target.obj
 0002:000162a8       ??_C@_0CJ@MCNLAIAG@target_speaker?5without?5a?5noise?5k@ 201062a8     g_target.obj
 0002:000162d4       ??_C@_0BO@JBAPADMO@?$CFs?5at?5?$CFs?3?5?$CFs?5is?5a?5bad?5target?6?$AA@ 201062d4     g_target.obj
 0002:000162f4       ??_C@_0CG@NCOEMBAJ@Couldn?8t?5find?5teleporter?5destina@ 201062f4     g_target.obj
 0002:0001631c       ??_C@_0BF@CCKDOAMJ@untargeted?5?$CFs?5at?5?$CFs?6?$AA@ 2010631c     g_target.obj
 0002:00016334       ??_C@_07CIFAGBMG@unknown?$AA@ 20106334     g_target.obj
 0002:0001633c       ??_C@_0CG@LDLAEJKF@target_counter?5?$CFs?5used?5by?5?$CFs?5?$CI?$CFd@ 2010633c     g_target.obj
 0002:00016364       ??_C@_0DF@KFOAMLJM@target_scriptrunner?5tried?5to?5run@ 20106364     g_target.obj
 0002:0001639c       ??_C@_0P@CKACIMOP@newICARUSEnt?$CFd?$AA@ 2010639c     g_target.obj
 0002:000163ac       ??_C@_0DP@NLGPHMHC@target_scriptrunner?5tried?5to?5run@ 201063ac     g_target.obj
 0002:000163ec       ??_C@_0DA@BDLIPFDN@target_scriptrunner?5running?5?$CFs?5o@ 201063ec     g_target.obj
 0002:0001641c       ??_C@_05GFOLEBJA@?$CFs?1?$CFs?$AA@ 2010641c     g_target.obj
 0002:00016424       ??_C@_0CD@NFAEDMPK@target_scriptrunner?5?$CFs?5used?5by?5?$CF@ 20106424     g_target.obj
 0002:00016448       ??_C@_0CG@NEPDKPME@target_level_change?5with?5no?5mapn@ 20106448     g_target.obj
 0002:00016470       ??_C@_0CM@HGIEKODL@target_play_music?5without?5a?5musi@ 20106470     g_target.obj
 0002:0001649c       ??_C@_03FNPLCCOA@RED?$AA@  2010649c     g_team.obj
 0002:000164a0       ??_C@_04CNFFLDFF@BLUE?$AA@ 201064a0     g_team.obj
 0002:000164a8       ??_C@_09GNDCBOBP@SPECTATOR?$AA@ 201064a8     g_team.obj
 0002:000164b4       ??_C@_04HEDFJGEJ@FREE?$AA@ 201064b4     g_team.obj
 0002:000164bc       ??_C@_02KAMBCCOF@?$FO1?$AA@ 201064bc     g_team.obj
 0002:000164c0       ??_C@_02JCPHEAGH@?$FO3?$AA@ 201064c0     g_team.obj
 0002:000164c4       ??_C@_02PGJLIFGD@?$FO7?$AA@ 201064c4     g_team.obj
 0002:000164c8       ??_C@_0CP@OBNDLAL@Warning?3?5?5NULL?5passed?5to?5Team_Re@ 201064c8     g_team.obj
 0002:000164f8       ??_C@_0CN@EPFNCNCH@Warning?3?5?5NULL?5passed?5to?5Team_Ta@ 201064f8     g_team.obj
 0002:00016528       ??_C@_08BKJPOMKC@?$CFc?$CFc?$CFs?$FO7?$AA@ 20106528     g_team.obj
 0002:00016534       ??_C@_0BD@FAPFLCHD@?5?$CFi?5?$CFi?5?$CFi?5?$CFi?5?$CFi?5?$CFi?$AA@ 20106534     g_team.obj
 0002:00016548       ??_C@_0M@PHDLOMHJ@tinfo?5?$CFi?5?$CFs?$AA@ 20106548     g_team.obj
 0002:00016554       __real@45fa0000            20106554     g_team.obj
 0002:00016558       __real@461c4000            20106558     g_team.obj
 0002:0001655c       __real@4d400000            2010655c     g_team.obj
 0002:00016560       ??_C@_07OJCNNCCK@usetime?$AA@ 20106560     g_trigger.obj
 0002:00016568       ??_C@_09NPDGPPGH@siegetrig?$AA@ 20106568     g_trigger.obj
 0002:00016574       ??_C@_0M@PMGFKLDM@teambalance?$AA@ 20106574     g_trigger.obj
 0002:00016580       ??_C@_0CH@MAEBPCMP@?$FO3trigger_multiple?5has?5random?5?$DO?$DN@ 20106580     g_trigger.obj
 0002:000165a8       ??_C@_0M@KBEMDIKL@lightningfx?$AA@ 201065a8     g_trigger.obj
 0002:000165b4       ??_C@_0CM@IPHKKKLE@trigger_lightningstrike?5with?5no?5@ 201065b4     g_trigger.obj
 0002:000165e0       ??_C@_0BN@EAECLFCC@sound?1weapons?1force?1jump?4wav?$AA@ 201065e0     g_trigger.obj
 0002:00016600       ??_C@_0BO@CMLBKDJG@sound?1weapons?1force?1speed?4wav?$AA@ 20106600     g_trigger.obj
 0002:00016620       ??_C@_0O@LBBMLEKM@?$CKfalling1?4wav?$AA@ 20106620     g_trigger.obj
 0002:00016630       ??_C@_0CO@FDMPBMNJ@trigger_shipboundary?5has?5invalid@ 20106630     g_trigger.obj
 0002:00016660       ??_C@_0CH@COEEOLBB@trigger_shipboundary?5without?5a?5t@ 20106660     g_trigger.obj
 0002:00016688       ??_C@_0L@LNFJKCED@traveltime?$AA@ 20106688     g_trigger.obj
 0002:00016694       ??_C@_0CJ@DBHHLEEI@trigger_shipboundary?5without?5tra@ 20106694     g_trigger.obj
 0002:000166c0       ??_C@_0CM@NCOMPPEO@trigger_hyperspace?5has?5invalid?5t@ 201066c0     g_trigger.obj
 0002:000166ec       ??_C@_0CN@BOABLGBM@trigger_hyperspace?5has?5invalid?5t@ 201066ec     g_trigger.obj
 0002:0001671c       ??_C@_0CD@GJLJCDPF@sound?1vehicles?1common?1hyperend?4w@ 2010671c     g_trigger.obj
 0002:00016740       ??_C@_0CF@PPLMAHAM@trigger_hyperspace?5without?5a?5tar@ 20106740     g_trigger.obj
 0002:00016768       ??_C@_0CG@BHHCKDBE@trigger_hyperspace?5without?5a?5tar@ 20106768     g_trigger.obj
 0002:00016790       ??_C@_0CF@GJKCPHON@func_timer?5at?5?$CFs?5has?5random?5?$DO?$DN?5w@ 20106790     g_trigger.obj
 0002:000167b8       ??_C@_0P@HPANKGOE@turret?1explode?$AA@ 201067b8     g_turret.obj
 0002:000167c8       ??_C@_0M@JJHDKEHB@turret_proj?$AA@ 201067c8     g_turret.obj
 0002:000167d4       ??_C@_0CM@MNFHOKJB@sound?1vehicles?1weapons?1hoth_turr@ 201067d4     g_turret.obj
 0002:00016800       ??_C@_0N@ICMLAJIP@atst_vehicle?$AA@ 20106800     g_turret.obj
 0002:00016810       ??_C@_0CK@JGPPFGHG@models?1map_objects?1hoth?1turret_b@ 20106810     g_turret.obj
 0002:0001683c       ??_C@_0CI@CJAAEABA@models?1map_objects?1hoth?1turret_b@ 2010683c     g_turret.obj
 0002:00016864       ??_C@_0CL@HIJNPIJH@models?1map_objects?1hoth?1turret_t@ 20106864     g_turret.obj
 0002:00016890       ??_C@_0CH@FGIPLGKH@models?1map_objects?1hoth?1turret_t@ 20106890     g_turret.obj
 0002:000168b8       ??_C@_0BH@HKDCPBHI@sparks?1spark_exp_nosnd?$AA@ 201068b8     g_turret.obj
 0002:000168d0       ??_C@_0BJ@GCKNMIDL@turret?1hoth_muzzle_flash?$AA@ 201068d0     g_turret.obj
 0002:000168ec       ??_C@_04BGCGNFHD@1100?$AA@ 201068ec     g_turret.obj
 0002:000168f4       ??_C@_09MAENPDHI@shotspeed?$AA@ 201068f4     g_turret.obj
 0002:00016900       ??_C@_0BB@GEPFGFNE@turret?1hoth_shot?$AA@ 20106900     g_turret.obj
 0002:00016914       ??_C@_0BD@MPFKMNHP@turret?1hoth_impact?$AA@ 20106914     g_turret.obj
 0002:00016928       __real@425c0000            20106928     g_turret.obj
 0002:0001692c       __real@460ca000            2010692c     g_turret.obj
 0002:00016930       ??_C@_0CH@IDECJJOL@WARNING?3?5NPC?5has?5no?5free?5bone?5in@ 20106930     g_turret_G2.obj
 0002:00016958       ??_C@_0CO@JLDHGONF@models?1map_objects?1imp_mine?1turr@ 20106958     g_turret_G2.obj
 0002:00016988       ??_C@_0CN@OOCAJNEI@models?1map_objects?1imp_mine?1turr@ 20106988     g_turret_G2.obj
 0002:000169b8       ??_C@_0DA@NMCABBKJ@models?1map_objects?1wedge?1laser_c@ 201069b8     g_turret_G2.obj
 0002:000169e8       ??_C@_05NCNFOFLM@pitch?$AA@ 201069e8     g_turret_G2.obj
 0002:000169f0       ??_C@_08BLPNDJIB@?$CKmuzzle1?$AA@ 201069f0     g_turret_G2.obj
 0002:000169fc       ??_C@_08DANAGKEC@?$CKmuzzle2?$AA@ 201069fc     g_turret_G2.obj
 0002:00016a08       ??_C@_09NFEDAHLD@Bone_body?$AA@ 20106a08     g_turret_G2.obj
 0002:00016a14       ??_C@_08HPDHFGN@?$CKflash03?$AA@ 20106a14     g_turret_G2.obj
 0002:00016a20       ??_C@_0BF@DOFNBELO@blaster?1muzzle_flash?$AA@ 20106a20     g_turret_G2.obj
 0002:00016a38       ??_C@_0CL@EAHPLHKD@sound?1vehicles?1weapons?1turbolase@ 20106a38     g_turret_G2.obj
 0002:00016a64       ??_C@_0BM@ECOPMLLG@sound?1chars?1turret?1move?4wav?$AA@ 20106a64     g_turret_G2.obj
 0002:00016a80       ??_C@_08BNPJAPFJ@painwait?$AA@ 20106a80     g_turret_G2.obj
 0002:00016a8c       ??_C@_0M@IOPBAFJL@customscale?$AA@ 20106a8c     g_turret_G2.obj
 0002:00016a98       ??_C@_0BJ@EBBELPPP@turret?1turb_muzzle_flash?$AA@ 20106a98     g_turret_G2.obj
 0002:00016ab4       ??_C@_0BB@CJGJKJE@turret?1turb_shot?$AA@ 20106ab4     g_turret_G2.obj
 0002:00016ac8       ??_C@_0BD@BCCBALJE@turret?1turb_impact?$AA@ 20106ac8     g_turret_G2.obj
 0002:00016adc       __real@41600000            20106adc     g_turret_G2.obj
 0002:00016ae0       __real@41b00000            20106ae0     g_turret_G2.obj
 0002:00016ae4       ??_C@_0N@MLGFLFEI@?$CFs?$DN?$CFs?3?$CF5?42f?$EA?$AA@ 20106ae4     g_utils.obj
 0002:00016af4       ??_C@_0CC@KBENIHEG@G_FindConfigstringIndex?3?5overflo@ 20106af4     g_utils.obj
 0002:00016b18       ??_C@_0BP@HAPKODAI@Ran?5out?5of?5vehicle?5pool?5slots?4?$AA@ 20106b18     g_utils.obj
 0002:00016b38       ??_C@_0CK@JOENGKNM@G_PickTarget?5called?5with?5NULL?5ta@ 20106b38     g_utils.obj
 0002:00016b64       ??_C@_0CD@HHFHMIIH@G_PickTarget?3?5target?5?$CFs?5not?5foun@ 20106b64     g_utils.obj
 0002:00016b88       ??_C@_0L@OPPGOKFJ@?$CI?$CFi?5?$CFi?5?$CFi?$CJ?$AA@ 20106b88     g_utils.obj
 0002:00016b94       ??_C@_07CBNPCFPB@noclass?$AA@ 20106b94     g_utils.obj
 0002:00016b9c       ??_C@_0M@OIBBKJFL@entspew?4txt?$AA@ 20106b9c     g_utils.obj
 0002:00016ba8       ??_C@_0BE@LFKGKLNA@TEMPENT?5?$CF4i?3?5EV?5?$CFi?6?$AA@ 20106ba8     g_utils.obj
 0002:00016bbc       ??_C@_07NBCGADJA@Unknown?$AA@ 20106bbc     g_utils.obj
 0002:00016bc4       ??_C@_0BH@PKCNJLPB@ENT?5?$CF4i?3?5Classname?5?$CFs?6?$AA@ 20106bc4     g_utils.obj
 0002:00016be0       ??_C@_0EF@PEPCENHC@TempEnt?5count?3?5?$CFi?6TempEnt?5ST?3?5?$CFi@ 20106be0     g_utils.obj
 0002:00016c28       ??_C@_0BK@OECJBIJE@G_Spawn?3?5no?5free?5entities?$AA@ 20106c28     g_utils.obj
 0002:00016c44       ??_C@_03JCHENJDF@kg2?$AA@  20106c44     g_utils.obj
 0002:00016c48       ??_C@_03PEDANLDI@?5?$CFi?$AA@ 20106c48     g_utils.obj
 0002:00016c4c       ??_C@_06PLJBHEB@kg2?5?$CFi?$AA@ 20106c4c     g_utils.obj
 0002:00016c54       ??_C@_09ILIPMPDD@kls?5?$CFi?5?$CFi?$AA@ 20106c54     g_utils.obj
 0002:00016c60       ??_C@_0L@CPIFJPHE@tempEntity?$AA@ 20106c60     g_utils.obj
 0002:00016c6c       ??_C@_0CM@MOJHPIKM@G_AddEvent?3?5zero?5event?5added?5for@ 20106c6c     g_utils.obj
 0002:00016c98       ??_C@_04GKOOIABA@loop?$AA@ 20106c98     g_utils.obj
 0002:00016ca0       __real@3f50624de0000000    20106ca0     g_utils.obj
 0002:00016ca8       __real@4b800000            20106ca8     g_utils.obj
 0002:00016cac       ??_C@_06ENLPFHD@f_gear?$AA@ 20106cac     g_vehicles.obj
 0002:00016cb4       ??_C@_05NGDBJHKI@glass?$AA@ 20106cb4     g_vehicles.obj
 0002:00016cbc       ??_C@_04IEJGKNJ@body?$AA@  20106cbc     g_vehicles.obj
 0002:00016cc4       __real@3e0f5c29            20106cc4     g_vehicles.obj
 0002:00016cc8       __real@3f28f5c3            20106cc8     g_vehicles.obj
 0002:00016ccc       __real@3f7d70a4            20106ccc     g_vehicles.obj
 0002:00016cd0       __real@43020000            20106cd0     g_vehicles.obj
 0002:00016cd4       __real@c3020000            20106cd4     g_vehicles.obj
 0002:00016cd8       ??_C@_0L@EMGPBNCM@bryar_proj?$AA@ 20106cd8     g_weapon.obj
 0002:00016ce4       ??_C@_0N@GIEOEAEM@blaster_proj?$AA@ 20106ce4     g_weapon.obj
 0002:00016cf4       ??_C@_0L@OCCDGMON@turbo_proj?$AA@ 20106cf4     g_weapon.obj
 0002:00016d00       ??_C@_0BC@IGLFLAEE@emplaced_gun_proj?$AA@ 20106d00     g_weapon.obj
 0002:00016d14       ??_C@_0P@FLKEEADM@bowcaster_proj?$AA@ 20106d14     g_weapon.obj
 0002:00016d24       ??_C@_0BD@PLCMJHKB@bowcaster_alt_proj?$AA@ 20106d24     g_weapon.obj
 0002:00016d38       ??_C@_0O@FKGDIMJD@repeater_proj?$AA@ 20106d38     g_weapon.obj
 0002:00016d48       ??_C@_0BC@IFCNIAMJ@repeater_alt_proj?$AA@ 20106d48     g_weapon.obj
 0002:00016d5c       ??_C@_0L@GEJOBKEP@demp2_proj?$AA@ 20106d5c     g_weapon.obj
 0002:00016d68       ??_C@_0P@HAECMAPB@demp2_alt_proj?$AA@ 20106d68     g_weapon.obj
 0002:00016d78       ??_C@_0L@OKOKKGN@flech_proj?$AA@ 20106d78     g_weapon.obj
 0002:00016d84       ??_C@_09IPGOKCFE@flech_alt?$AA@ 20106d84     g_weapon.obj
 0002:00016d90       ??_C@_0M@PCBIIDCC@rocket_proj?$AA@ 20106d90     g_weapon.obj
 0002:00016d9c       ??_C@_0CC@LCFKGMMC@sound?1weapons?1thermal?1warning?4wa@ 20106d9c     g_weapon.obj
 0002:00016dc0       ??_C@_0BC@LLCAPHPA@thermal_detonator?$AA@ 20106dc0     g_weapon.obj
 0002:00016dd4       ??_C@_0CE@MDLOFNAP@sound?1weapons?1thermal?1thermloop?4@ 20106dd4     g_weapon.obj
 0002:00016df8       ??_C@_0CF@GJBNPGFB@sound?1weapons?1laser_trap?1warning@ 20106df8     g_weapon.obj
 0002:00016e20       ??_C@_0CD@IHPKAHHF@sound?1weapons?1laser_trap?1stick?4w@ 20106e20     g_weapon.obj
 0002:00016e44       ??_C@_09ELICGGJG@laserTrap?$AA@ 20106e44     g_weapon.obj
 0002:00016e50       ??_C@_0CC@BKBDOFHP@sound?1weapons?1detpack?1warning?4wa@ 20106e50     g_weapon.obj
 0002:00016e74       ??_C@_09MDOFLPLE@conc_proj?$AA@ 20106e74     g_weapon.obj
 0002:00016e80       ??_C@_0CH@IBMOCCDE@models?1map_objects?1mp?1turret_cha@ 20106e80     g_weapon.obj
 0002:00016ea8       ??_C@_03PANGFEPN@600?$AA@  20106ea8     g_weapon.obj
 0002:00016eac       ??_C@_0L@HOHHMJMM@constraint?$AA@ 20106eac     g_weapon.obj
 0002:00016eb8       __real@3d800000            20106eb8     g_weapon.obj
 0002:00016ebc       __real@3e19999a            20106ebc     g_weapon.obj
 0002:00016ec0       __real@3fd3333340000000    20106ec0     g_weapon.obj
 0002:00016ec8       __real@3ff6666660000000    20106ec8     g_weapon.obj
 0002:00016ed0       __real@3ff99999a0000000    20106ed0     g_weapon.obj
 0002:00016ed8       __real@407f400000000000    20106ed8     g_weapon.obj
 0002:00016ee0       __real@4094500000000000    20106ee0     g_weapon.obj
 0002:00016ee8       __real@42380000            20106ee8     g_weapon.obj
 0002:00016eec       __real@44610000            20106eec     g_weapon.obj
 0002:00016ef0       __real@45160000            20106ef0     g_weapon.obj
 0002:00016ef4       __real@469c4000            20106ef4     g_weapon.obj
 0002:00016ef8       __real@47000000            20106ef8     g_weapon.obj
 0002:00016efc       __real@be4ccccd            20106efc     g_weapon.obj
 0002:00016f00       __real@bfe8000000000000    20106f00     g_weapon.obj
 0002:00016f08       __real@c2a00000            20106f08     g_weapon.obj
 0002:00016f0c       __real@c32a0000            20106f0c     g_weapon.obj
 0002:00016f10       ??_C@_0M@HDDDNBEJ@patrolNoise?$AA@ 20106f10     NPC.obj
 0002:00016f1c       ??_C@_0CG@PCBOBOAM@sound?1chars?1r2d2?1misc?1r2d2talk0?$CF@ 20106f1c     NPC.obj
 0002:00016f44       ??_C@_0CD@DFIOFAKO@sound?1chars?1r5d2?1misc?1r5talk?$CFd?4w@ 20106f44     NPC.obj
 0002:00016f68       ??_C@_0CH@JLGOINMA@sound?1chars?1probe?1misc?1probetalk@ 20106f68     NPC.obj
 0002:00016f90       ??_C@_0CF@BEBBBAMD@sound?1chars?1mouse?1misc?1mousego?$CFd@ 20106f90     NPC.obj
 0002:00016fb8       ??_C@_0CF@LECIDPIL@sound?1chars?1gonk?1misc?1gonktalk?$CFd@ 20106fb8     NPC.obj
 0002:00016fe0       ??_C@_0BP@EJEGICHK@sound?1chars?1atst?1atst_damaged1?$AA@ 20106fe0     NPC_AI_Atst.obj
 0002:00017000       ??_C@_0BP@GCGLNBLJ@sound?1chars?1atst?1atst_damaged2?$AA@ 20107000     NPC_AI_Atst.obj
 0002:00017020       ??_C@_0BB@LAKHBJGN@env?1med_explode2?$AA@ 20107020     NPC_AI_Atst.obj
 0002:00017034       ??_C@_0BF@BPNBJBAC@blaster?1smoke_bolton?$AA@ 20107034     NPC_AI_Atst.obj
 0002:0001704c       ??_C@_08PAEGGCJH@atkDelay?$AA@ 2010704c     NPC_AI_Atst.obj
 0002:00017058       __real@48c80000            20107058     NPC_AI_Atst.obj
 0002:0001705c       ??_C@_08GGJAFNBH@eyeDelay?$AA@ 2010705c     NPC_AI_Droid.obj
 0002:00017068       ??_C@_05GFIBCBAN@f_eye?$AA@ 20107068     NPC_AI_Droid.obj
 0002:00017070       ??_C@_05JNGEMOLJ@smoke?$AA@ 20107070     NPC_AI_Droid.obj
 0002:00017078       ??_C@_0BA@FDEIJFFN@droidsmoketotal?$AA@ 20107078     NPC_AI_Droid.obj
 0002:00017088       ??_C@_0BH@HKILEND@volumetric?1droid_smoke?$AA@ 20107088     NPC_AI_Droid.obj
 0002:000170a0       ??_C@_0L@JDMMGCIL@droidspark?$AA@ 201070a0     NPC_AI_Droid.obj
 0002:000170ac       ??_C@_0N@FDIHPFHF@sparks?1spark?$AA@ 201070ac     NPC_AI_Droid.obj
 0002:000170bc       ??_C@_04EAMMOIOF@roam?$AA@ 201070bc     NPC_AI_Droid.obj
 0002:000170c4       ??_C@_0N@NJDKMADJ@small_chunks?$AA@ 201070c4     NPC_AI_Droid.obj
 0002:000170d4       ??_C@_0BA@FMPIOHMH@chunks?1r5d2head?$AA@ 201070d4     NPC_AI_Droid.obj
 0002:000170e4       ??_C@_0BA@FGDNOONO@chunks?1r2d2head?$AA@ 201070e4     NPC_AI_Droid.obj
 0002:000170f4       ??_C@_09FIJMOIJC@droidpain?$AA@ 201070f4     NPC_AI_Droid.obj
 0002:00017100       ??_C@_0CE@LLMOHDOM@sound?1chars?1gonk?1misc?1gonktalk1?4@ 20107100     NPC_AI_Droid.obj
 0002:00017124       ??_C@_0CE@DNFKABEC@sound?1chars?1gonk?1misc?1gonktalk2?4@ 20107124     NPC_AI_Droid.obj
 0002:00017148       ??_C@_0CB@NKLFCNFC@sound?1chars?1gonk?1misc?1death1?4wav@ 20107148     NPC_AI_Droid.obj
 0002:0001716c       ??_C@_0CB@FMCBFPPM@sound?1chars?1gonk?1misc?1death2?4wav@ 2010716c     NPC_AI_Droid.obj
 0002:00017190       ??_C@_0CB@JHHNIMFJ@sound?1chars?1gonk?1misc?1death3?4wav@ 20107190     NPC_AI_Droid.obj
 0002:000171b8       __real@4039000000000000    201071b8     NPC_AI_Droid.obj
 0002:000171c0       __real@4050000000000000    201071c0     NPC_AI_Droid.obj
 0002:000171c8       __real@44098000            201071c8     NPC_AI_Droid.obj
 0002:000171cc       ??_C@_0CC@DBMKMJF@sound?1weapons?1galak?1skewerhit?4wa@ 201071cc     NPC_AI_GalakMech.obj
 0002:000171f0       ??_C@_0CE@DBBCCCDO@sound?1weapons?1galak?1lasercharge?4@ 201071f0     NPC_AI_GalakMech.obj
 0002:00017214       ??_C@_0CF@JAIGGHD@sound?1weapons?1galak?1lasercutting@ 20107214     NPC_AI_GalakMech.obj
 0002:0001723c       ??_C@_0CE@PADMNJKL@sound?1weapons?1galak?1laserdamage?4@ 2010723c     NPC_AI_GalakMech.obj
 0002:00017260       ??_C@_0BB@JMOJJCNH@galak?1trace_beam?$AA@ 20107260     NPC_AI_GalakMech.obj
 0002:00017274       ??_C@_0BC@HPNGNJNH@galak?1beam_warmup?$AA@ 20107274     NPC_AI_GalakMech.obj
 0002:00017288       ??_C@_0BD@OCPNKGIK@env?1small_explode2?$AA@ 20107288     NPC_AI_GalakMech.obj
 0002:0001729c       ??_C@_0O@PIABMGNL@galak?1explode?$AA@ 2010729c     NPC_AI_GalakMech.obj
 0002:000172ac       ??_C@_0M@BJEKKMJA@attackDelay?$AA@ 201072ac     NPC_AI_GalakMech.obj
 0002:000172b8       ??_C@_04IMJFEJN@flee?$AA@  201072b8     NPC_AI_GalakMech.obj
 0002:000172c0       ??_C@_09LLDDNADG@smackTime?$AA@ 201072c0     NPC_AI_GalakMech.obj
 0002:000172cc       ??_C@_09CKLAJBHL@beamDelay?$AA@ 201072cc     NPC_AI_GalakMech.obj
 0002:000172d8       ??_C@_05KCCDLCFH@noLob?$AA@ 201072d8     NPC_AI_GalakMech.obj
 0002:000172e0       ??_C@_07OKPOKHIC@noRapid?$AA@ 201072e0     NPC_AI_GalakMech.obj
 0002:000172e8       ??_C@_0N@MNGGNPD@talkDebounce?$AA@ 201072e8     NPC_AI_GalakMech.obj
 0002:000172f8       ??_C@_0BA@MEHMAPLB@torso_galakface?$AA@ 201072f8     NPC_AI_GalakMech.obj
 0002:00017308       ??_C@_0BA@OOLBMDKI@torso_galakhead?$AA@ 20107308     NPC_AI_GalakMech.obj
 0002:00017318       ??_C@_0BB@OODOIIN@torso_eyes_mouth?$AA@ 20107318     NPC_AI_GalakMech.obj
 0002:0001732c       ??_C@_0P@PPBIDDID@dyingExplosion?$AA@ 2010732c     NPC_AI_GalakMech.obj
 0002:0001733c       ??_C@_07ICMBHJAH@?$CKflasha?$AA@ 2010733c     NPC_AI_GalakMech.obj
 0002:00017344       ??_C@_0N@GCCLEBMD@r_arm_middle?$AA@ 20107344     NPC_AI_GalakMech.obj
 0002:00017354       ??_C@_0N@JCLPFCAP@?$CKr_arm_elbow?$AA@ 20107354     NPC_AI_GalakMech.obj
 0002:00017364       ??_C@_07LAPHBLIF@?$CKflashc?$AA@ 20107364     NPC_AI_GalakMech.obj
 0002:0001736c       ??_C@_0M@PCMIMFHG@l_arm_wrist?$AA@ 2010736c     NPC_AI_GalakMech.obj
 0002:00017378       ??_C@_0N@CMMKOLKJ@l_arm_middle?$AA@ 20107378     NPC_AI_GalakMech.obj
 0002:00017388       ??_C@_0O@OJHNDOBE@l_arm_augment?$AA@ 20107388     NPC_AI_GalakMech.obj
 0002:00017398       ??_C@_0N@HHJGGMON@?$CKl_arm_elbow?$AA@ 20107398     NPC_AI_GalakMech.obj
 0002:000173a8       ??_C@_07FOCGFBMF@?$CKhip_fr?$AA@ 201073a8     NPC_AI_GalakMech.obj
 0002:000173b0       ??_C@_08OILFEMAA@?$CKshldr_l?$AA@ 201073b0     NPC_AI_GalakMech.obj
 0002:000173bc       ??_C@_09GAPMGGBE@?$CKuchest_r?$AA@ 201073bc     NPC_AI_GalakMech.obj
 0002:000173c8       ??_C@_0M@JGOFJHFA@?$CKl_leg_knee?$AA@ 201073c8     NPC_AI_GalakMech.obj
 0002:000173d4       ??_C@_0M@GKGFHIJN@?$CKr_leg_knee?$AA@ 201073d4     NPC_AI_GalakMech.obj
 0002:000173e0       ??_C@_03PFHIMGCB@PAS?$AA@  201073e0     NPC_AI_GalakMech.obj
 0002:000173e4       ??_C@_09CLNBPHAJ@standTime?$AA@ 201073e4     NPC_AI_GalakMech.obj
 0002:000173f0       __real@48440000            201073f0     NPC_AI_GalakMech.obj
 0002:000173f4       __real@48800000            201073f4     NPC_AI_GalakMech.obj
 0002:000173f8       ??_C@_07EFCDKMI@chatter?$AA@ 201073f8     NPC_AI_Grenadier.obj
 0002:00017400       ??_C@_04MFBGEONE@duck?$AA@ 20107400     NPC_AI_Grenadier.obj
 0002:00017408       ??_C@_05PJLLPND@stand?$AA@ 20107408     NPC_AI_Grenadier.obj
 0002:00017410       ??_C@_0M@NDGDKMEM@shuffleTime?$AA@ 20107410     NPC_AI_Grenadier.obj
 0002:0001741c       ??_C@_09CCMDANON@sleepTime?$AA@ 2010741c     NPC_AI_Grenadier.obj
 0002:00017428       ??_C@_0BB@JHPOKIFL@enemyLastVisible?$AA@ 20107428     NPC_AI_Grenadier.obj
 0002:0001743c       ??_C@_08IEPLPPND@roamTime?$AA@ 2010743c     NPC_AI_Grenadier.obj
 0002:00017448       ??_C@_08MFBBJDHB@hideTime?$AA@ 20107448     NPC_AI_Grenadier.obj
 0002:00017454       ??_C@_05EFGPBIKA@stick?$AA@ 20107454     NPC_AI_Grenadier.obj
 0002:0001745c       ??_C@_09JAPFAACM@scoutTime?$AA@ 2010745c     NPC_AI_Grenadier.obj
 0002:00017468       __real@49800000            20107468     NPC_AI_Grenadier.obj
 0002:0001746c       ??_C@_0L@MGLFJCKE@patrolTime?$AA@ 2010746c     NPC_AI_Howler.obj
 0002:00017478       ??_C@_09MEJNCKEO@attacking?$AA@ 20107478     NPC_AI_Howler.obj
 0002:00017484       ??_C@_0L@PHFHCEEJ@attack_dmg?$AA@ 20107484     NPC_AI_Howler.obj
 0002:00017490       ??_C@_0L@DMLNEFLE@takingPain?$AA@ 20107490     NPC_AI_Howler.obj
 0002:000174a0       __real@40b3880000000000    201074a0     NPC_AI_Howler.obj
 0002:000174a8       __real@45364000            201074a8     NPC_AI_Howler.obj
 0002:000174ac       ??_C@_0CD@BCANMJPJ@sound?1chars?1probe?1misc?1probetalk@ 201074ac     NPC_AI_ImperialProbe.obj
 0002:000174d0       ??_C@_0BO@BFBIJCPA@sound?1chars?1probe?1misc?1anger1?$AA@ 201074d0     NPC_AI_ImperialProbe.obj
 0002:000174f0       ??_C@_0BM@ODFHGPKP@sound?1chars?1probe?1misc?1fire?$AA@ 201074f0     NPC_AI_ImperialProbe.obj
 0002:0001750c       ??_C@_0BB@JNDMIJG@chunks?1probehead?$AA@ 2010750c     NPC_AI_ImperialProbe.obj
 0002:00017520       ??_C@_0BD@FEAFGDCF@bryar?1muzzle_flash?$AA@ 20107520     NPC_AI_ImperialProbe.obj
 0002:00017534       ??_C@_0L@DHNBMKHK@angerNoise?$AA@ 20107534     NPC_AI_ImperialProbe.obj
 0002:00017540       __real@4030000000000000    20107540     NPC_AI_ImperialProbe.obj
 0002:00017548       __real@41c80000            20107548     NPC_AI_ImperialProbe.obj
 0002:0001754c       ??_C@_0CP@CLMJNOCH@sound?1chars?1interrogator?1misc?1to@ 2010754c     NPC_AI_Interrogator.obj
 0002:0001757c       ??_C@_0CB@IINIPGNE@sound?1chars?1mark1?1misc?1anger?4wav@ 2010757c     NPC_AI_Interrogator.obj
 0002:000175a0       ??_C@_0BM@LEPICAFG@sound?1chars?1probe?1misc?1talk?$AA@ 201075a0     NPC_AI_Interrogator.obj
 0002:000175bc       ??_C@_0DD@LJCKPHOA@sound?1chars?1interrogator?1misc?1to@ 201075bc     NPC_AI_Interrogator.obj
 0002:000175f0       ??_C@_0N@FBOINNFI@syringeDelay?$AA@ 201075f0     NPC_AI_Interrogator.obj
 0002:00017600       ??_C@_08PNIAGAJO@left_arm?$AA@ 20107600     NPC_AI_Interrogator.obj
 0002:0001760c       ??_C@_0N@NFEFGKAG@scalpelDelay?$AA@ 2010760c     NPC_AI_Interrogator.obj
 0002:0001761c       ??_C@_09FCDCHAIM@right_arm?$AA@ 2010761c     NPC_AI_Interrogator.obj
 0002:00017628       ??_C@_04LPNEADOC@claw?$AA@ 20107628     NPC_AI_Interrogator.obj
 0002:00017630       ??_C@_0DH@KMAFFALG@sound?1chars?1interrogator?1misc?1to@ 20107630     NPC_AI_Interrogator.obj
 0002:00017668       ??_C@_0CA@HOCLHMJJ@sound?1chars?1probe?1misc?1talk?4wav?$AA@ 20107668     NPC_AI_Interrogator.obj
 0002:00017688       ??_C@_0CE@MCDJNJED@sound?1chars?1shadowtrooper?1cloak?4@ 20107688     NPC_AI_Jedi.obj
 0002:000176ac       ??_C@_0CG@NAIPHKEM@sound?1chars?1shadowtrooper?1decloa@ 201076ac     NPC_AI_Jedi.obj
 0002:000176d4       ??_C@_0L@OIKDEKFK@strafeLeft?$AA@ 201076d4     NPC_AI_Jedi.obj
 0002:000176e0       ??_C@_0M@JBKJBEMJ@strafeRight?$AA@ 201076e0     NPC_AI_Jedi.obj
 0002:000176ec       ??_C@_08FCEKLEDE@noStrafe?$AA@ 201076ec     NPC_AI_Jedi.obj
 0002:000176f8       ??_C@_07KOIGNFPA@walking?$AA@ 201076f8     NPC_AI_Jedi.obj
 0002:00017700       ??_C@_08GNPKNMH@taunting?$AA@ 20107700     NPC_AI_Jedi.obj
 0002:0001770c       ??_C@_09MLLDJKAD@parryTime?$AA@ 2010770c     NPC_AI_Jedi.obj
 0002:00017718       ??_C@_0BA@KCKBOFLK@parryReCalcTime?$AA@ 20107718     NPC_AI_Jedi.obj
 0002:00017728       ??_C@_0BB@NFABGDOB@forceJumpChasing?$AA@ 20107728     NPC_AI_Jedi.obj
 0002:0001773c       ??_C@_0BC@HBIBDNL@jumpChaseDebounce?$AA@ 2010773c     NPC_AI_Jedi.obj
 0002:00017750       ??_C@_0M@KPEEIAGC@moveforward?$AA@ 20107750     NPC_AI_Jedi.obj
 0002:0001775c       ??_C@_08MGGADHBD@moveback?$AA@ 2010775c     NPC_AI_Jedi.obj
 0002:00017768       ??_C@_08HFBEBDPM@movenone?$AA@ 20107768     NPC_AI_Jedi.obj
 0002:00017774       ??_C@_09HBKJPNEP@moveright?$AA@ 20107774     NPC_AI_Jedi.obj
 0002:00017780       ??_C@_08DNKDNCFA@moveleft?$AA@ 20107780     NPC_AI_Jedi.obj
 0002:0001778c       ??_C@_0L@EHELPKJI@movecenter?$AA@ 2010778c     NPC_AI_Jedi.obj
 0002:00017798       ??_C@_0BD@KDHMHPFJ@saberLevelDebounce?$AA@ 20107798     NPC_AI_Jedi.obj
 0002:000177ac       ??_C@_09IDBDJMGK@noRetreat?$AA@ 201077ac     NPC_AI_Jedi.obj
 0002:000177b8       ??_C@_0O@PLENICLG@holdLightning?$AA@ 201077b8     NPC_AI_Jedi.obj
 0002:000177c8       ??_C@_08NIENGCK@gripping?$AA@ 201077c8     NPC_AI_Jedi.obj
 0002:000177d4       ??_C@_08PMOPNODI@draining?$AA@ 201077d4     NPC_AI_Jedi.obj
 0002:000177e0       ??_C@_06LMAAEGAA@noturn?$AA@ 201077e0     NPC_AI_Jedi.obj
 0002:000177e8       ??_C@_0BF@GIKGMIEK@sound?1boba?1jeton?4wav?$AA@ 201077e8     NPC_AI_Jedi.obj
 0002:00017800       ??_C@_0BI@IJAHCKDG@sound?1boba?1jethover?4wav?$AA@ 20107800     NPC_AI_Jedi.obj
 0002:00017818       ??_C@_0BO@KHOMDAEH@sound?1effects?1combustfire?4mp3?$AA@ 20107818     NPC_AI_Jedi.obj
 0002:00017838       ??_C@_08KPGMGLNM@boba?1jet?$AA@ 20107838     NPC_AI_Jedi.obj
 0002:00017844       ??_C@_0L@PAGLFIMO@boba?1fthrw?$AA@ 20107844     NPC_AI_Jedi.obj
 0002:00017850       ??_C@_0BJ@EFMFEOAN@sound?1weapons?1change?4wav?$AA@ 20107850     NPC_AI_Jedi.obj
 0002:0001786c       ??_C@_04FMKDHLBH@Yoda?$AA@ 2010786c     NPC_AI_Jedi.obj
 0002:00017874       ??_C@_0M@DCEOMKKM@jetRecharge?$AA@ 20107874     NPC_AI_Jedi.obj
 0002:00017880       ??_C@_0BA@FNBEMBHH@nextAttackDelay?$AA@ 20107880     NPC_AI_Jedi.obj
 0002:00017890       ??_C@_09HPKJEPE@flameTime?$AA@ 20107890     NPC_AI_Jedi.obj
 0002:0001789c       ??_C@_0BN@IAFLFNJO@?$FO2?$CFs?5Saber?5Attack?5Set?3?5fast?6?$AA@ 2010789c     NPC_AI_Jedi.obj
 0002:000178bc       ??_C@_0BP@GAECLAOI@?$FO3?$CFs?5Saber?5Attack?5Set?3?5medium?6?$AA@ 201078bc     NPC_AI_Jedi.obj
 0002:000178dc       ??_C@_0BP@GAFLIDPF@?$FO1?$CFs?5Saber?5Attack?5Set?3?5strong?6?$AA@ 201078dc     NPC_AI_Jedi.obj
 0002:00017900       ??_C@_0EG@MMHBGCDK@?$CI?$CFd?$CJ?5evading?5attack?5from?5height?5@ 20107900     NPC_AI_Jedi.obj
 0002:00017948       ??_C@_05BEPPCECB@duck?5?$AA@ 20107948     NPC_AI_Jedi.obj
 0002:00017950       ??_C@_09JBJDHPE@UR?5block?6?$AA@ 20107950     NPC_AI_Jedi.obj
 0002:0001795c       ??_C@_09GNBLKOBH@UL?5block?6?$AA@ 2010795c     NPC_AI_Jedi.obj
 0002:00017968       ??_C@_0L@FHAJHJGP@TOP?5block?6?$AA@ 20107968     NPC_AI_Jedi.obj
 0002:00017974       ??_C@_0O@OPDFJMCG@mid?9UR?5block?6?$AA@ 20107974     NPC_AI_Jedi.obj
 0002:00017984       ??_C@_0O@ILDHAFMF@mid?9UL?5block?6?$AA@ 20107984     NPC_AI_Jedi.obj
 0002:00017994       ??_C@_0P@DPDCOGDM@mid?9TOP?5block?6?$AA@ 20107994     NPC_AI_Jedi.obj
 0002:000179a4       ??_C@_08MLDDMFEK@legs?5up?6?$AA@ 201079a4     NPC_AI_Jedi.obj
 0002:000179b0       ??_C@_09NCKCJNNG@LR?5block?6?$AA@ 201079b0     NPC_AI_Jedi.obj
 0002:000179bc       ??_C@_09LGKAAEDF@LL?5block?6?$AA@ 201079bc     NPC_AI_Jedi.obj
 0002:000179c8       ??_C@_0O@HEMNHCCA@force?5jump?5?$CL?5?$AA@ 201079c8     NPC_AI_Jedi.obj
 0002:000179d8       ??_C@_07CJLALNLP@jump?5?$CL?5?$AA@ 201079d8     NPC_AI_Jedi.obj
 0002:000179e0       ??_C@_0BL@ILNCDPPM@?$FO1enemy?5saber?5dist?3?5?$CF4?42f?6?$AA@ 201079e0     NPC_AI_Jedi.obj
 0002:000179fc       ??_C@_0BL@HJIFNCAE@?$FO2enemy?5saber?5dist?3?5?$CF4?42f?6?$AA@ 201079fc     NPC_AI_Jedi.obj
 0002:00017a18       ??_C@_0BN@HOHFLCCE@Keep?5parry?5choice?5until?3?5?$CFd?6?$AA@ 20107a18     NPC_AI_Jedi.obj
 0002:00017a38       ??_C@_0M@KCALHLOL@def?5strafe?6?$AA@ 20107a38     NPC_AI_Jedi.obj
 0002:00017a44       ??_C@_0M@EKHLLJOE@off?5strafe?6?$AA@ 20107a44     NPC_AI_Jedi.obj
 0002:00017a50       ??_C@_0CH@KGNADGGI@?$CI?$CFd?$CJ?5PARRY?3?5agg?5?$CFd?0?5no?5parry?5unt@ 20107a50     NPC_AI_Jedi.obj
 0002:00017a78       ??_C@_0BC@NODIPFA@?$CI?$CFd?$CJ?5HIT?3?5agg?5?$CFd?6?$AA@ 20107a78     NPC_AI_Jedi.obj
 0002:00017a8c       ??_C@_0BM@CGIALMNN@?$CI?$CFd?$CJ?5KNOCK?9BLOCKED?3?5agg?5?$CFd?6?$AA@ 20107a8c     NPC_AI_Jedi.obj
 0002:00017aa8       ??_C@_0BG@NGIMKIFC@?$CI?$CFd?$CJ?5BLOCKED?3?5agg?5?$CFd?6?$AA@ 20107aa8     NPC_AI_Jedi.obj
 0002:00017ac0       ??_C@_0CG@BFCCBJHF@?$CI?$CFd?$CJ?5PAIN?3?5agg?5?$CFd?0?5no?5parry?5unti@ 20107ac0     NPC_AI_Jedi.obj
 0002:00017ae8       ??_C@_0DP@KBJHMDIA@?$CI?$CFd?$CJ?5saber?5hit?5at?5height?5?$CF4?42f?0?5@ 20107ae8     NPC_AI_Jedi.obj
 0002:00017b28       ??_C@_09OGCDMOLJ@watchTime?$AA@ 20107b28     NPC_AI_Jedi.obj
 0002:00017b34       __real@42920000            20107b34     NPC_AI_Jedi.obj
 0002:00017b38       __real@43c00000            20107b38     NPC_AI_Jedi.obj
 0002:00017b3c       __real@473d1000            20107b3c     NPC_AI_Jedi.obj
 0002:00017b40       __real@47d4b200            20107b40     NPC_AI_Jedi.obj
 0002:00017b44       __real@48100000            20107b44     NPC_AI_Jedi.obj
 0002:00017b48       __real@483d1000            20107b48     NPC_AI_Jedi.obj
 0002:00017b4c       __real@4893b480            20107b4c     NPC_AI_Jedi.obj
 0002:00017b50       __real@c1300000            20107b50     NPC_AI_Jedi.obj
 0002:00017b54       __real@c1400000            20107b54     NPC_AI_Jedi.obj
 0002:00017b58       __real@c1b00000            20107b58     NPC_AI_Jedi.obj
 0002:00017b5c       __real@c2300000            20107b5c     NPC_AI_Jedi.obj
 0002:00017b60       __real@c2920000            20107b60     NPC_AI_Jedi.obj
 0002:00017b64       __real@c3c80000            20107b64     NPC_AI_Jedi.obj
 0002:00017b68       ??_C@_0CE@HEANGIK@sound?1chars?1mark1?1misc?1mark1_wak@ 20107b68     NPC_AI_Mark1.obj
 0002:00017b8c       ??_C@_0CA@FOMIJIMN@sound?1chars?1mark1?1misc?1shutdown?$AA@ 20107b8c     NPC_AI_Mark1.obj
 0002:00017bac       ??_C@_0BM@CAIKPENL@sound?1chars?1mark1?1misc?1walk?$AA@ 20107bac     NPC_AI_Mark1.obj
 0002:00017bc8       ??_C@_0BL@CBNGEJLJ@sound?1chars?1mark1?1misc?1run?$AA@ 20107bc8     NPC_AI_Mark1.obj
 0002:00017be4       ??_C@_0BO@GFMINAEM@sound?1chars?1mark1?1misc?1death1?$AA@ 20107be4     NPC_AI_Mark1.obj
 0002:00017c04       ??_C@_0BO@EOOFIDIP@sound?1chars?1mark1?1misc?1death2?$AA@ 20107c04     NPC_AI_Mark1.obj
 0002:00017c24       ??_C@_0BN@IGGIEGIA@sound?1chars?1mark1?1misc?1anger?$AA@ 20107c24     NPC_AI_Mark1.obj
 0002:00017c44       ??_C@_0CC@LLNAACBO@sound?1chars?1mark1?1misc?1mark1_fir@ 20107c44     NPC_AI_Mark1.obj
 0002:00017c68       ??_C@_0CC@GCEDNNIJ@sound?1chars?1mark1?1misc?1mark1_pai@ 20107c68     NPC_AI_Mark1.obj
 0002:00017c8c       ??_C@_07FMBGOBFH@?$CKflash5?$AA@ 20107c8c     NPC_AI_Mark1.obj
 0002:00017c94       ??_C@_07DIHKCEFD@?$CKflash1?$AA@ 20107c94     NPC_AI_Mark1.obj
 0002:00017c9c       ??_C@_08OIOENPGF@?$CKflash?$CFd?$AA@ 20107c9c     NPC_AI_Mark1.obj
 0002:00017ca8       ??_C@_0O@DGKFNKFI@?$CKtorso_tube?$CFd?$AA@ 20107ca8     NPC_AI_Mark1.obj
 0002:00017cb8       ??_C@_0N@PHDJEHFO@torso_tube?$CFd?$AA@ 20107cb8     NPC_AI_Mark1.obj
 0002:00017cc8       ??_C@_07KEMEGNB@?$CKflash3?$AA@ 20107cc8     NPC_AI_Mark1.obj
 0002:00017cd0       ??_C@_07EFANNABG@?$CKflash4?$AA@ 20107cd0     NPC_AI_Mark1.obj
 0002:00017cd8       ??_C@_07BDFHHHJA@?$CKflash2?$AA@ 20107cd8     NPC_AI_Mark1.obj
 0002:00017ce0       ??_C@_0N@BNGGINJJ@attackDelay2?$AA@ 20107ce0     NPC_AI_Mark1.obj
 0002:00017cf0       __real@47c80000            20107cf0     NPC_AI_Mark1.obj
 0002:00017cf4       ??_C@_0CC@LJCNBKHG@sound?1chars?1mark2?1misc?1mark2_pai@ 20107cf4     NPC_AI_Mark2.obj
 0002:00017d18       ??_C@_0CC@GALOMFOB@sound?1chars?1mark2?1misc?1mark2_fir@ 20107d18     NPC_AI_Mark2.obj
 0002:00017d3c       ??_C@_0BB@IHGJHLME@torso_canister?$CFd?$AA@ 20107d3c     NPC_AI_Mark2.obj
 0002:00017d50       ??_C@_08NJLLBPHC@downTime?$AA@ 20107d50     NPC_AI_Mark2.obj
 0002:00017d5c       ??_C@_07CLDODBMO@runTime?$AA@ 20107d5c     NPC_AI_Mark2.obj
 0002:00017d64       __real@44100000            20107d64     NPC_AI_Mark2.obj
 0002:00017d68       ??_C@_0CB@OHEDCIGA@sound?1chars?1mine?1misc?1bite?$CFi?4wav@ 20107d68     NPC_AI_MineMonster.obj
 0002:00017d8c       ??_C@_0CB@KKAOIJMD@sound?1chars?1mine?1misc?1miss?$CFi?4wav@ 20107d8c     NPC_AI_MineMonster.obj
 0002:00017db0       ??_C@_0M@DHEPAMDP@attack2_dmg?$AA@ 20107db0     NPC_AI_MineMonster.obj
 0002:00017dbc       ??_C@_0M@LBNLHOJB@attack1_dmg?$AA@ 20107dbc     NPC_AI_MineMonster.obj
 0002:00017dc8       ??_C@_0P@NJIDNJMO@attacking1_dmg?$AA@ 20107dc8     NPC_AI_MineMonster.obj
 0002:00017dd8       ??_C@_0P@FPBHKLGA@attacking2_dmg?$AA@ 20107dd8     NPC_AI_MineMonster.obj
 0002:00017de8       __real@44dac000            20107de8     NPC_AI_MineMonster.obj
 0002:00017dec       ??_C@_0L@LHAEFPAL@?$CKhead_eyes?$AA@ 20107dec     NPC_AI_Rancor.obj
 0002:00017df8       ??_C@_0CA@KAGLKFLL@sound?1chars?1rancor?1snort_?$CFd?4wav?$AA@ 20107df8     NPC_AI_Rancor.obj
 0002:00017e18       ??_C@_0CA@GJFEHJGI@sound?1chars?1rancor?1swipehit?4wav?$AA@ 20107e18     NPC_AI_Rancor.obj
 0002:00017e38       ??_C@_0BN@KEGAIKPC@sound?1chars?1rancor?1chomp?4wav?$AA@ 20107e38     NPC_AI_Rancor.obj
 0002:00017e58       ??_C@_08BOPCFKLG@rageTime?$AA@ 20107e58     NPC_AI_Rancor.obj
 0002:00017e64       ??_C@_0BA@CKCFEABD@lookForNewEnemy?$AA@ 20107e64     NPC_AI_Rancor.obj
 0002:00017e74       ??_C@_0N@JEOPKMH@clearGrabbed?$AA@ 20107e74     NPC_AI_Rancor.obj
 0002:00017e84       ??_C@_0M@OCIHPKGB@attack_dmg2?$AA@ 20107e84     NPC_AI_Rancor.obj
 0002:00017e90       ??_C@_0O@MHOPHFP@rancorInfight?$AA@ 20107e90     NPC_AI_Rancor.obj
 0002:00017ea0       ??_C@_0L@EEAEKDIE@angrynoise?$AA@ 20107ea0     NPC_AI_Rancor.obj
 0002:00017eac       ??_C@_0CE@ELKIGKLI@sound?1chars?1rancor?1misc?1anger?$CFd?4@ 20107eac     NPC_AI_Rancor.obj
 0002:00017ed0       ??_C@_09EPENMBPJ@idlenoise?$AA@ 20107ed0     NPC_AI_Rancor.obj
 0002:00017edc       __real@45f20000            20107edc     NPC_AI_Rancor.obj
 0002:00017ee0       ??_C@_0CB@FONMMLKG@sound?1chars?1remote?1misc?1fire?4wav@ 20107ee0     NPC_AI_Remote.obj
 0002:00017f04       ??_C@_0CB@OFOGPKAG@sound?1chars?1remote?1misc?1hiss?4wav@ 20107f04     NPC_AI_Remote.obj
 0002:00017f28       ??_C@_0N@HIHENOGN@heightChange?$AA@ 20107f28     NPC_AI_Remote.obj
 0002:00017f38       ??_C@_05JKCBEBEI@briar?$AA@ 20107f38     NPC_AI_Remote.obj
 0002:00017f40       ??_C@_04FAOIIEOH@spin?$AA@ 20107f40     NPC_AI_Remote.obj
 0002:00017f48       ??_C@_0CB@EICGBGGO@sound?1chars?1seeker?1misc?1fire?4wav@ 20107f48     NPC_AI_Seeker.obj
 0002:00017f6c       ??_C@_0CB@PDBMCHMO@sound?1chars?1seeker?1misc?1hiss?4wav@ 20107f6c     NPC_AI_Seeker.obj
 0002:00017f90       ??_C@_0BN@KKOEBMCN@sound?1chars?1seeker?1misc?1hiss?$AA@ 20107f90     NPC_AI_Seeker.obj
 0002:00017fb0       ??_C@_07IOJHMCFF@blaster?$AA@ 20107fb0     NPC_AI_Seeker.obj
 0002:00017fb8       ??_C@_0L@HNKOHKGC@seekerhiss?$AA@ 20107fb8     NPC_AI_Seeker.obj
 0002:00017fc8       __real@404c000000000000    20107fc8     NPC_AI_Seeker.obj
 0002:00017fd0       __real@40c9999a            20107fd0     NPC_AI_Seeker.obj
 0002:00017fd4       __real@49800008            20107fd4     NPC_AI_Seeker.obj
 0002:00017fd8       ??_C@_0CE@GEIPEBGG@sound?1chars?1sentry?1misc?1sentry_p@ 20107fd8     NPC_AI_Sentry.obj
 0002:00017ffc       ??_C@_0CL@OFEMPNGL@sound?1chars?1sentry?1misc?1sentry_s@ 20107ffc     NPC_AI_Sentry.obj
 0002:00018028       ??_C@_0CM@GLJOABHA@sound?1chars?1sentry?1misc?1sentry_s@ 20108028     NPC_AI_Sentry.obj
 0002:00018054       ??_C@_0CK@ICMHGCLE@sound?1chars?1sentry?1misc?1sentry_h@ 20108054     NPC_AI_Sentry.obj
 0002:00018080       ??_C@_0CK@MFGHBIGE@sound?1chars?1sentry?1misc?1sentry_h@ 20108080     NPC_AI_Sentry.obj
 0002:000180ac       ??_C@_0BP@HNBAGLBO@sound?1chars?1sentry?1misc?1talk?$CFd?$AA@ 201080ac     NPC_AI_Sentry.obj
 0002:000180cc       ??_C@_07LALFPDBE@powerup?$AA@ 201080cc     NPC_AI_Sentry.obj
 0002:000180d4       ??_C@_05PPKAJOMF@watch?$AA@ 201080d4     NPC_AI_Sniper.obj
 0002:000180dc       ??_C@_0P@CGPPOACB@sound?1null?4wav?$AA@ 201080dc     NPC_AI_Sniper.obj
 0002:000180ec       ??_C@_0O@HEAHOHPH@interrogating?$AA@ 201080ec     NPC_AI_Stormtrooper.obj
 0002:000180fc       ??_C@_08JOGKGDHH@verifyCP?$AA@ 201080fc     NPC_AI_Stormtrooper.obj
 0002:00018108       ??_C@_0L@MBDMJDLO@attakDelay?$AA@ 20108108     NPC_AI_Stormtrooper.obj
 0002:00018114       ??_C@_05GHDFNNLC@scout?$AA@ 20108114     NPC_AI_Stormtrooper.obj
 0002:0001811c       __real@3d99999a            2010811c     NPC_AI_Stormtrooper.obj
 0002:00018120       __real@3eaccccd            20108120     NPC_AI_Stormtrooper.obj
 0002:00018124       __real@3ee66667            20108124     NPC_AI_Stormtrooper.obj
 0002:00018128       __real@3fa00000            20108128     NPC_AI_Stormtrooper.obj
 0002:0001812c       ??_C@_0M@DLFOHBLP@lower_spine?$AA@ 2010812c     NPC_AI_Wampa.obj
 0002:00018138       ??_C@_09LICHGHHC@rear_bone?$AA@ 20108138     NPC_AI_Wampa.obj
 0002:00018144       ??_C@_06CONIKGGB@runfar?$AA@ 20108144     NPC_AI_Wampa.obj
 0002:0001814c       ??_C@_08HEAOBEI@runclose?$AA@ 2010814c     NPC_AI_Wampa.obj
 0002:00018158       ??_C@_04DGHBCEHD@walk?$AA@ 20108158     NPC_AI_Wampa.obj
 0002:00018160       ??_C@_0N@KOFINGFD@wampaInfight?$AA@ 20108160     NPC_AI_Wampa.obj
 0002:00018170       ??_C@_0CD@DPCEAIB@sound?1chars?1wampa?1misc?1anger?$CFd?4w@ 20108170     NPC_AI_Wampa.obj
 0002:00018194       ??_C@_0CC@JBCFODJJ@sound?1chars?1wampa?1misc?1anger3?4wa@ 20108194     NPC_AI_Wampa.obj
 0002:000181b8       __real@43d70000            201081b8     NPC_AI_Wampa.obj
 0002:000181bc       ??_C@_05DDGCEFJL@panic?$AA@ 201081bc     NPC_behavior.obj
 0002:000181c4       __real@3c23d70a            201081c4     NPC_behavior.obj
 0002:000181c8       __real@3fea8f5c28f5c28f    201081c8     NPC_behavior.obj
 0002:000181d0       __real@3ff547ae147ae148    201081d0     NPC_behavior.obj
 0002:000181d8       __real@42c00000            201081d8     NPC_behavior.obj
 0002:000181dc       ??_C@_09OJDABIIE@desperado?$AA@ 201081dc     NPC_combat.obj
 0002:000181e8       ??_C@_07MIBELBFJ@paladin?$AA@ 201081e8     NPC_combat.obj
 0002:000181f0       ??_C@_0DN@OHLGJAGA@?$CFs?5saw?5?$CFs?5trying?5to?5hide?5?9?5hidde@ 201081f0     NPC_combat.obj
 0002:00018230       ??_C@_0CK@FFEMJCCJ@?$CFs?5saw?5?$CFs?5trying?5to?5hide?5?9?5hidde@ 20108230     NPC_combat.obj
 0002:0001825c       ??_C@_0CP@LLGHEFAD@?$FO1ERROR?3?5?5Too?5many?5combat?5points@ 2010825c     NPC_combat.obj
 0002:0001828c       ??_C@_0CH@KPPACC@?$FO1ERROR?3?5combat?5point?5at?5?$CFs?5in?5s@ 2010828c     NPC_combat.obj
 0002:000182b4       ??_C@_0CO@NPCHBMGL@?$FO1ERROR?3?5Combat?5Point?5at?5?$CFs?5has?5@ 201082b4     NPC_combat.obj
 0002:000182e4       ??_C@_0M@HOHDCHAJ@aimDebounce?$AA@ 201082e4     NPC_combat.obj
 0002:000182f0       __real@45100000            201082f0     NPC_combat.obj
 0002:000182f4       __real@50800000            201082f4     NPC_combat.obj
 0002:000182f8       ??_C@_08LFNJJCM@?$CFs?$CF5i?3?$CFs?$AA@ 201082f8     NPC_misc.obj
 0002:00018304       __real@c2800000            20108304     NPC_move.obj
 0002:00018308       __real@c2fe0000            20108308     NPC_move.obj
 0002:0001830c       ??_C@_09FNPKPLMP@bespincop?$AA@ 2010830c     NPC_reactions.obj
 0002:00018318       __real@3f8ccccd            20108318     NPC_reactions.obj
 0002:0001831c       ??_C@_0CP@OEEGCBOD@ERROR?3?5?5Too?5many?5interest?5points@ 2010831c     NPC_senses.obj
 0002:0001834c       ??_C@_0BA@KONLBJEH@head_hatchcover?$AA@ 2010834c     NPC_spawn.obj
 0002:0001835c       ??_C@_05BNBDCALA@wampa?$AA@ 2010835c     NPC_spawn.obj
 0002:00018364       ??_C@_07CNPDKJOO@emperor?$AA@ 20108364     NPC_spawn.obj
 0002:0001836c       ??_C@_04LFMKBAKM@gonk?$AA@ 2010836c     NPC_spawn.obj
 0002:00018374       ??_C@_0N@MHIACDCF@stofficeralt?$AA@ 20108374     NPC_spawn.obj
 0002:00018384       ??_C@_07CCLCPADK@rodian2?$AA@ 20108384     NPC_spawn.obj
 0002:0001838c       ??_C@_0L@ILCCPCFF@galak_mech?$AA@ 2010838c     NPC_spawn.obj
 0002:00018398       ??_C@_06GNOBEGAF@reborn?$AA@ 20108398     NPC_spawn.obj
 0002:000183a0       ??_C@_0O@ICGJJMPB@shadowtrooper?$AA@ 201083a0     NPC_spawn.obj
 0002:000183b0       ??_C@_09HNOAEDCK@stofficer?$AA@ 201083b0     NPC_spawn.obj
 0002:000183bc       ??_C@_0M@IDHLEFJE@stcommander?$AA@ 201083bc     NPC_spawn.obj
 0002:000183c8       ??_C@_0N@GLIAHFPJ@swamptrooper?$AA@ 201083c8     NPC_spawn.obj
 0002:000183d8       ??_C@_0O@CJHKJOLM@swamptrooper2?$AA@ 201083d8     NPC_spawn.obj
 0002:000183e8       ??_C@_0O@DDHJLNIK@rockettrooper?$AA@ 201083e8     NPC_spawn.obj
 0002:000183f8       ??_C@_08FDOIKJJM@imperial?$AA@ 201083f8     NPC_spawn.obj
 0002:00018404       ??_C@_09NMLGMNGI@impworker?$AA@ 20108404     NPC_spawn.obj
 0002:00018410       ??_C@_0L@GNPMMKBH@stormpilot?$AA@ 20108410     NPC_spawn.obj
 0002:0001841c       ??_C@_05EBHCGEID@galak?$AA@ 2010841c     NPC_spawn.obj
 0002:00018424       ??_C@_08PLJJKJEB@ugnaught?$AA@ 20108424     NPC_spawn.obj
 0002:00018430       ??_C@_0M@BLCEIOML@granshooter?$AA@ 20108430     NPC_spawn.obj
 0002:0001843c       ??_C@_09JFBDCAEP@granboxer?$AA@ 2010843c     NPC_spawn.obj
 0002:00018448       ??_C@_04GBJCCMJG@gran?$AA@ 20108448     NPC_spawn.obj
 0002:00018450       ??_C@_06HIDBNCDG@rodian?$AA@ 20108450     NPC_spawn.obj
 0002:00018458       ??_C@_0N@IHBJLIJH@interrogator?$AA@ 20108458     NPC_spawn.obj
 0002:00018468       ??_C@_06IMPNPELI@sentry?$AA@ 20108468     NPC_spawn.obj
 0002:00018470       ??_C@_08FCFPNNHF@protocol?$AA@ 20108470     NPC_spawn.obj
 0002:0001847c       ??_C@_07JCEELPMN@weequay?$AA@ 2010847c     NPC_spawn.obj
 0002:00018484       ??_C@_0L@LKPPNCFK@impofficer?$AA@ 20108484     NPC_spawn.obj
 0002:00018490       ??_C@_0N@CLEMFIKP@impcommander?$AA@ 20108490     NPC_spawn.obj
 0002:000184a0       ??_C@_05PGJBIHML@probe?$AA@ 201084a0     NPC_spawn.obj
 0002:000184a8       ??_C@_06JMKOOFO@seeker?$AA@ 201084a8     NPC_spawn.obj
 0002:000184b0       ??_C@_0L@NCJGGKBN@trandoshan?$AA@ 201084b0     NPC_spawn.obj
 0002:000184bc       ??_C@_04GEDGALCP@atst?$AA@ 201084bc     NPC_spawn.obj
 0002:000184c4       ??_C@_05BNOMFHEB@mark1?$AA@ 201084c4     NPC_spawn.obj
 0002:000184cc       ??_C@_05DGMBAEIC@mark2?$AA@ 201084cc     NPC_spawn.obj
 0002:000184d4       ??_C@_0M@MNEAFEME@minemonster?$AA@ 201084d4     NPC_spawn.obj
 0002:000184e0       ??_C@_06EKHPPJFH@howler?$AA@ 201084e0     NPC_spawn.obj
 0002:000184e8       ??_C@_04BNEGNDCN@jedi?$AA@ 201084e8     NPC_spawn.obj
 0002:000184f0       ??_C@_04GFPGHJCD@luke?$AA@ 201084f0     NPC_spawn.obj
 0002:000184f8       ??_C@_08HDGLKCD@prisoner?$AA@ 201084f8     NPC_spawn.obj
 0002:00018504       ??_C@_09CDNNNFCF@MonMothma?$AA@ 20108504     NPC_spawn.obj
 0002:00018510       ??_C@_09ONEHJBNI@bartender?$AA@ 20108510     NPC_spawn.obj
 0002:0001851c       ??_C@_0N@JBEEMLOP@morgankatarn?$AA@ 2010851c     NPC_spawn.obj
 0002:0001852c       ??_C@_0DP@MOPJAGED@NPC?5?$CFs?5could?5not?5spawn?0?5firing?5t@ 2010852c     NPC_spawn.obj
 0002:0001856c       ??_C@_0DI@GBOMBMDO@NPC?5?$CFs?5could?5not?5spawn?0?5waiting?5@ 2010856c     NPC_spawn.obj
 0002:000185a4       ??_C@_04ECEDLMOK@r2d2?$AA@ 201085a4     NPC_spawn.obj
 0002:000185ac       ??_C@_04NPJEIEFD@r5d2?$AA@ 201085ac     NPC_spawn.obj
 0002:000185b4       ??_C@_0BN@IDPAOFEL@?$FO1ERROR?3?5NPC?5G_Spawn?5failed?6?$AA@ 201085b4     NPC_spawn.obj
 0002:000185d4       ??_C@_0CB@DPIIEAEG@?$FO1ERROR?3?5NPC?5G_Alloc?5NPC?5failed?6@ 201085d4     NPC_spawn.obj
 0002:000185f8       ??_C@_08BKLBNMHA@NPC_goal?$AA@ 201085f8     NPC_spawn.obj
 0002:00018604       ??_C@_0CF@FCKDKPPL@?$FO1ERROR?3?5NPC?5BG_Alloc?5client?5fai@ 20108604     NPC_spawn.obj
 0002:0001862c       ??_C@_0CA@BKIFPACP@?$FO1ERROR?3?5Couldn?8t?5spawn?5NPC?5?$CFs?6?$AA@ 2010862c     NPC_spawn.obj
 0002:0001864c       ??_C@_04CEJDCDCH@test?$AA@ 2010864c     NPC_spawn.obj
 0002:00018654       ??_C@_0BC@KPMOJIBM@Humanoid?5Lifeform?$AA@ 20108654     NPC_spawn.obj
 0002:00018668       ??_C@_03MLHPLGLE@$?$CFs?$AA@ 20108668     NPC_spawn.obj
 0002:0001866c       ??_C@_05IHIIAPFC@swoop?$AA@ 2010866c     NPC_spawn.obj
 0002:00018674       ??_C@_08FDOIIKMK@dropTime?$AA@ 20108674     NPC_spawn.obj
 0002:00018680       ??_C@_05OELHFOBC@Lando?$AA@ 20108680     NPC_spawn.obj
 0002:00018688       ??_C@_03JIHJHPIE@Jan?$AA@  20108688     NPC_spawn.obj
 0002:0001868c       ??_C@_04KEDHFGCH@Luke?$AA@ 2010868c     NPC_spawn.obj
 0002:00018694       ??_C@_06POOIFGAI@Tavion?$AA@ 20108694     NPC_spawn.obj
 0002:0001869c       ??_C@_0P@DFPPJLIL@tavion_scepter?$AA@ 2010869c     NPC_spawn.obj
 0002:000186ac       ??_C@_0BC@LEGEFCDF@tavion_sith_sword?$AA@ 201086ac     NPC_spawn.obj
 0002:000186c0       ??_C@_0L@KIGDGNBF@tavion_new?$AA@ 201086c0     NPC_spawn.obj
 0002:000186cc       ??_C@_0L@MDEBMCGB@alora_dual?$AA@ 201086cc     NPC_spawn.obj
 0002:000186d8       ??_C@_05JJIBBJGC@alora?$AA@ 201086d8     NPC_spawn.obj
 0002:000186e0       ??_C@_0N@PBFPAPIK@reborn_dual2?$AA@ 201086e0     NPC_spawn.obj
 0002:000186f0       ??_C@_0O@INMBHGKN@reborn_staff2?$AA@ 201086f0     NPC_spawn.obj
 0002:00018700       ??_C@_0M@GFAAHJHH@reborn_new2?$AA@ 20108700     NPC_spawn.obj
 0002:0001870c       ??_C@_0M@EDDKJJFB@reborn_dual?$AA@ 2010870c     NPC_spawn.obj
 0002:00018718       ??_C@_0N@BKMAJJP@reborn_staff?$AA@ 20108718     NPC_spawn.obj
 0002:00018728       ??_C@_0L@HIHHOANI@reborn_new?$AA@ 20108728     NPC_spawn.obj
 0002:00018734       ??_C@_0BI@KGPKAFHB@cultist_saber_med_throw?$AA@ 20108734     NPC_spawn.obj
 0002:0001874c       ??_C@_0BC@JJABAGCL@cultist_saber_med?$AA@ 2010874c     NPC_spawn.obj
 0002:00018760       ??_C@_0BL@KFAGBBOA@cultist_saber_strong_throw?$AA@ 20108760     NPC_spawn.obj
 0002:0001877c       ??_C@_0BF@ODOJGBI@cultist_saber_strong?$AA@ 2010877c     NPC_spawn.obj
 0002:00018794       ??_C@_0BE@BFNNDNNA@cultist_saber_throw?$AA@ 20108794     NPC_spawn.obj
 0002:000187a8       ??_C@_0O@OIAFDJJO@cultist_saber?$AA@ 201087a8     NPC_spawn.obj
 0002:000187b8       ??_C@_0BJ@MKNEOPNO@cultist_saber_med_throw2?$AA@ 201087b8     NPC_spawn.obj
 0002:000187d4       ??_C@_0BD@EBFFKMDH@cultist_saber_med2?$AA@ 201087d4     NPC_spawn.obj
 0002:000187e8       ??_C@_0BM@ENNPLABI@cultist_saber_strong_throw2?$AA@ 201087e8     NPC_spawn.obj
 0002:00018804       ??_C@_0BG@POBCPCLB@cultist_saber_strong2?$AA@ 20108804     NPC_spawn.obj
 0002:0001881c       ??_C@_0P@PKCPOPAL@cultist_saber2?$AA@ 2010881c     NPC_spawn.obj
 0002:0001882c       ??_C@_0N@OPMKHNJB@cultist_grip?$AA@ 2010882c     NPC_spawn.obj
 0002:0001883c       ??_C@_0BC@DPEJEIKM@cultist_lightning?$AA@ 2010883c     NPC_spawn.obj
 0002:00018850       ??_C@_0O@CMEOONDI@cultist_drain?$AA@ 20108850     NPC_spawn.obj
 0002:00018860       ??_C@_07FCEHCDBO@cultist?$AA@ 20108860     NPC_spawn.obj
 0002:00018868       ??_C@_0BA@CHNEFCOJ@cultistcommando?$AA@ 20108868     NPC_spawn.obj
 0002:00018878       ??_C@_05PBPJENIA@Reelo?$AA@ 20108878     NPC_spawn.obj
 0002:00018880       ??_C@_0L@MMHPFCIG@Galak_Mech?$AA@ 20108880     NPC_spawn.obj
 0002:0001888c       ??_C@_05EGNOGBLF@Galak?$AA@ 2010888c     NPC_spawn.obj
 0002:00018894       ??_C@_06ODBEFHI@Desann?$AA@ 20108894     NPC_spawn.obj
 0002:0001889c       ??_C@_09KCBKJCAI@Bartender?$AA@ 2010889c     NPC_spawn.obj
 0002:000188a8       ??_C@_0N@ONIHLJIG@MorganKatarn?$AA@ 201088a8     NPC_spawn.obj
 0002:000188b8       ??_C@_0M@MDILBBFC@jeditrainer?$AA@ 201088b8     NPC_spawn.obj
 0002:000188c4       ??_C@_04NMIHPMCJ@Jedi?$AA@ 201088c4     NPC_spawn.obj
 0002:000188cc       ??_C@_05KPBOELOB@Jedi2?$AA@ 201088cc     NPC_spawn.obj
 0002:000188d4       ??_C@_08IFMHDIIA@Prisoner?$AA@ 201088d4     NPC_spawn.obj
 0002:000188e0       ??_C@_09ENBAGJ@Prisoner2?$AA@ 201088e0     NPC_spawn.obj
 0002:000188ec       ??_C@_05EINCBNHF@Rebel?$AA@ 201088ec     NPC_spawn.obj
 0002:000188f4       ??_C@_06MNFHADNP@Rebel2?$AA@ 201088f4     NPC_spawn.obj
 0002:000188fc       ??_C@_0N@IPEKNKOP@StormTrooper?$AA@ 201088fc     NPC_spawn.obj
 0002:0001890c       ??_C@_0O@NNEKOBEC@StormTrooper2?$AA@ 2010890c     NPC_spawn.obj
 0002:0001891c       ??_C@_0M@OIHFJHBD@snowtrooper?$AA@ 2010891c     NPC_spawn.obj
 0002:00018928       ??_C@_08HJGICLOC@Ugnaught?$AA@ 20108928     NPC_spawn.obj
 0002:00018934       ??_C@_09KDANLPAO@Ugnaught2?$AA@ 20108934     NPC_spawn.obj
 0002:00018940       ??_C@_0L@IDEDJPGA@jawa_armed?$AA@ 20108940     NPC_spawn.obj
 0002:0001894c       ??_C@_04EEJNNDFL@jawa?$AA@ 2010894c     NPC_spawn.obj
 0002:00018954       ??_C@_05PEHNPACM@gran2?$AA@ 20108954     NPC_spawn.obj
 0002:0001895c       ??_C@_07GLDCNNJL@Weequay?$AA@ 2010895c     NPC_spawn.obj
 0002:00018964       ??_C@_08IKMGCMGA@Weequay2?$AA@ 20108964     NPC_spawn.obj
 0002:00018970       ??_C@_08JDNNBNCB@Weequay3?$AA@ 20108970     NPC_spawn.obj
 0002:0001897c       ??_C@_08NMJMILOG@Weequay4?$AA@ 2010897c     NPC_spawn.obj
 0002:00018988       ??_C@_0L@FEAKOFMK@Trandoshan?$AA@ 20108988     NPC_spawn.obj
 0002:00018994       ??_C@_0N@OIALOHBP@tuskensniper?$AA@ 20108994     NPC_spawn.obj
 0002:000189a4       ??_C@_06MGGMONDE@tusken?$AA@ 201089a4     NPC_spawn.obj
 0002:000189ac       ??_C@_06HGHCLCNH@noghri?$AA@ 201089ac     NPC_spawn.obj
 0002:000189b4       ??_C@_0O@GGOPGEMH@SwampTrooper2?$AA@ 201089b4     NPC_spawn.obj
 0002:000189c4       ??_C@_0N@CBIIFMFK@SwampTrooper?$AA@ 201089c4     NPC_spawn.obj
 0002:000189d4       ??_C@_0L@MFBFDPNL@ImpOfficer?$AA@ 201089d4     NPC_spawn.obj
 0002:000189e0       ??_C@_0N@NHGPBAIK@ImpCommander?$AA@ 201089e0     NPC_spawn.obj
 0002:000189f0       ??_C@_08NBBJCLDP@Imperial?$AA@ 201089f0     NPC_spawn.obj
 0002:000189fc       ??_C@_09FMFGPHCE@ImpWorker?$AA@ 201089fc     NPC_spawn.obj
 0002:00018a08       ??_C@_0L@NBCPOGFH@ImpWorker2?$AA@ 20108a08     NPC_spawn.obj
 0002:00018a14       ??_C@_0L@MIDENHBG@ImpWorker3?$AA@ 20108a14     NPC_spawn.obj
 0002:00018a20       ??_C@_09LCJFFHCB@BespinCop?$AA@ 20108a20     NPC_spawn.obj
 0002:00018a2c       ??_C@_0L@KBKLNBHI@BespinCop2?$AA@ 20108a2c     NPC_spawn.obj
 0002:00018a38       ??_C@_0BA@PMEECJEO@rebornforceuser?$AA@ 20108a38     NPC_spawn.obj
 0002:00018a48       ??_C@_0N@EFGJCGDM@rebornfencer?$AA@ 20108a48     NPC_spawn.obj
 0002:00018a58       ??_C@_0O@DPDPJPAB@rebornacrobat?$AA@ 20108a58     NPC_spawn.obj
 0002:00018a68       ??_C@_0L@OFLNOBEM@rebornboss?$AA@ 20108a68     NPC_spawn.obj
 0002:00018a74       ??_C@_0O@LGHLIGHP@ShadowTrooper?$AA@ 20108a74     NPC_spawn.obj
 0002:00018a84       ??_C@_0P@CNHMEDFK@ShadowTrooper2?$AA@ 20108a84     NPC_spawn.obj
 0002:00018a94       ??_C@_05NHKNINJN@Murjj?$AA@ 20108a94     NPC_spawn.obj
 0002:00018a9c       ??_C@_05GDHPKJDJ@Swamp?$AA@ 20108a9c     NPC_spawn.obj
 0002:00018aa4       ??_C@_04HOBFCMOG@Claw?$AA@ 20108aa4     NPC_spawn.obj
 0002:00018aac       ??_C@_06OPHKMDIA@Glider?$AA@ 20108aac     NPC_spawn.obj
 0002:00018ab4       ??_C@_06BIKBFFKB@Flier2?$AA@ 20108ab4     NPC_spawn.obj
 0002:00018abc       ??_C@_06KINPBLIL@Lizard?$AA@ 20108abc     NPC_spawn.obj
 0002:00018ac4       ??_C@_04FDNDCKCE@Fish?$AA@ 20108ac4     NPC_spawn.obj
 0002:00018acc       ??_C@_06ILNPDLNE@rancor?$AA@ 20108acc     NPC_spawn.obj
 0002:00018ad4       ??_C@_05PDOJLLAB@mouse?$AA@ 20108ad4     NPC_spawn.obj
 0002:00018adc       ??_C@_08KFFNFLEE@r2d2_imp?$AA@ 20108adc     NPC_spawn.obj
 0002:00018ae8       ??_C@_08KPJIFCFN@r5d2_imp?$AA@ 20108ae8     NPC_spawn.obj
 0002:00018af4       ??_C@_0N@PCKLEGJI@protocol_imp?$AA@ 20108af4     NPC_spawn.obj
 0002:00018b04       ??_C@_0CF@NONOBMJD@?$FO1NPC_Spawn?5Error?3?5Out?5of?5entiti@ 20108b04     NPC_spawn.obj
 0002:00018b30       ??_C@_0HP@KDMKPKB@?$FO1Error?0?5expected?5one?5of?3?6?$FO7?5NPC@ 20108b30     NPC_spawn.obj
 0002:00018bb0       ??_C@_07CJDNLGID@vehicle?$AA@ 20108bb0     NPC_spawn.obj
 0002:00018bb8       ??_C@_0BE@HCPCPMII@?$FO1Error?0?5Expected?3?6?$AA@ 20108bb8     NPC_spawn.obj
 0002:00018bd0       ??_C@_0EE@NIIFCKKF@?$FO1NPC?5kill?5?8?$FLNPC?5targetname?$FN?8?5?9?5@ 20108bd0     NPC_spawn.obj
 0002:00018c14       ??_C@_05CKCHBFAM@?$FO1or?6?$AA@ 20108c14     NPC_spawn.obj
 0002:00018c1c       ??_C@_0CD@ODAIDCPI@?$FO1NPC?5kill?5?8all?8?5?9?5kills?5all?5NPC@ 20108c1c     NPC_spawn.obj
 0002:00018c40       ??_C@_0FP@DAEKHNH@?$FO1NPC?5team?5?8?$FLteamname?$FN?8?5?9?5kills?5@ 20108c40     NPC_spawn.obj
 0002:00018ca0       ??_C@_0DJ@POFBCLII@?$FO1NPC_Kill?5Error?3?5?8npc?5kill?5team@ 20108ca0     NPC_spawn.obj
 0002:00018cdc       ??_C@_0BJ@GFCOFIJB@?$FO1Valid?5team?5names?5are?3?6?$AA@ 20108cdc     NPC_spawn.obj
 0002:00018cf8       ??_C@_05NPEMMHGC@?$FO1?$CFs?6?$AA@ 20108cf8     NPC_spawn.obj
 0002:00018d00       ??_C@_0CK@HNIGPLKA@?$FO1nonally?5?9?5kills?5all?5but?5your?5t@ 20108d00     NPC_spawn.obj
 0002:00018d2c       ??_C@_07HKCOCGIE@nonally?$AA@ 20108d2c     NPC_spawn.obj
 0002:00018d34       ??_C@_0CM@DJNKALCF@?$FO1NPC_Kill?5Error?3?5team?5?8?$CFs?8?5not?5@ 20108d34     NPC_spawn.obj
 0002:00018d60       ??_C@_0BL@ILNLAKGN@?$FO2Killing?5NPC?5?$CFs?5named?5?$CFs?6?$AA@ 20108d60     NPC_spawn.obj
 0002:00018d7c       ??_C@_0O@FNAIFGLM@NPC_starfleet?$AA@ 20108d7c     NPC_spawn.obj
 0002:00018d8c       ??_C@_0CN@DMDFGIBB@?$FO2Removing?5NPC?5spawner?5?$CFs?5with?5N@ 20108d8c     NPC_spawn.obj
 0002:00018dbc       ??_C@_07LADGFJKH@?$CFs?3?5?$CFd?6?$AA@ 20108dbc     NPC_spawn.obj
 0002:00018dc4       ??_C@_0BJ@EIPKMKHA@Valid?5NPC?5commands?5are?3?6?$AA@ 20108dc4     NPC_spawn.obj
 0002:00018de0       ??_C@_0CE@CIEJHCCF@?5spawn?5?$FLNPC?5type?5?$CIfrom?5NCPCs?4cfg@ 20108de0     NPC_spawn.obj
 0002:00018e08       ??_C@_0EG@NFADECGL@?5kill?5?$FLNPC?5targetname?$FN?5or?5?$FLall?$CIk@ 20108e08     NPC_spawn.obj
 0002:00018e50       ??_C@_0DC@PMEAEODL@?5showbounds?5?$CIdraws?5exact?5boundin@ 20108e50     NPC_spawn.obj
 0002:00018e84       ??_C@_0DK@DDALJKPC@?5score?5?$FLNPC?5targetname?$FN?5?$CIprints?5@ 20108e84     NPC_spawn.obj
 0002:00018ec0       ??_C@_05BDADGJGG@spawn?$AA@ 20108ec0     NPC_spawn.obj
 0002:00018ec8       ??_C@_0L@FAELKOJM@showbounds?$AA@ 20108ec8     NPC_spawn.obj
 0002:00018ed4       ??_C@_0N@NFCHPJAL@SCORE?5LIST?3?6?$AA@ 20108ed4     NPC_spawn.obj
 0002:00018ee4       ??_C@_0CD@OCNOHPOF@ERROR?3?5NPC?5score?5?9?5no?5such?5NPC?5?$CF@ 20108ee4     NPC_spawn.obj
 0002:00018f08       ??_C@_0N@JABAJDLN@NPCTEAM_FREE?$AA@ 20108f08     NPC_stats.obj
 0002:00018f18       ??_C@_0P@BECMHGBO@NPCTEAM_PLAYER?$AA@ 20108f18     NPC_stats.obj
 0002:00018f28       ??_C@_0O@PDKOGACK@NPCTEAM_ENEMY?$AA@ 20108f28     NPC_stats.obj
 0002:00018f38       ??_C@_0BA@OJAHIBOF@NPCTEAM_NEUTRAL?$AA@ 20108f38     NPC_stats.obj
 0002:00018f48       ??_C@_0L@HBEPMJHD@CLASS_NONE?$AA@ 20108f48     NPC_stats.obj
 0002:00018f54       ??_C@_0L@DDCAJNAP@CLASS_ATST?$AA@ 20108f54     NPC_stats.obj
 0002:00018f60       ??_C@_0BA@JCGKPDLL@CLASS_BARTENDER?$AA@ 20108f60     NPC_stats.obj
 0002:00018f70       ??_C@_0BB@JNEFEEHI@CLASS_BESPIN_COP?$AA@ 20108f70     NPC_stats.obj
 0002:00018f84       ??_C@_0L@OIMCJFMC@CLASS_CLAW?$AA@ 20108f84     NPC_stats.obj
 0002:00018f90       ??_C@_0P@IFMJOHFL@CLASS_COMMANDO?$AA@ 20108f90     NPC_stats.obj
 0002:00018fa0       ??_C@_0N@OAKNFLGD@CLASS_DESANN?$AA@ 20108fa0     NPC_stats.obj
 0002:00018fb0       ??_C@_0L@MFAEJDAA@CLASS_FISH?$AA@ 20108fb0     NPC_stats.obj
 0002:00018fbc       ??_C@_0N@GDLJGPBI@CLASS_FLIER2?$AA@ 20108fbc     NPC_stats.obj
 0002:00018fcc       ??_C@_0M@OPMPHGHP@CLASS_GALAK?$AA@ 20108fcc     NPC_stats.obj
 0002:00018fd8       ??_C@_0N@BOGNNJL@CLASS_GLIDER?$AA@ 20108fd8     NPC_stats.obj
 0002:00018fe8       ??_C@_0L@OCNMIGIM@CLASS_GONK?$AA@ 20108fe8     NPC_stats.obj
 0002:00018ff4       ??_C@_0L@DGIELKLG@CLASS_GRAN?$AA@ 20108ff4     NPC_stats.obj
 0002:00019000       ??_C@_0N@GLFONONA@CLASS_HOWLER?$AA@ 20109000     NPC_stats.obj
 0002:00019010       ??_C@_0P@CPOJFBBI@CLASS_IMPERIAL?$AA@ 20109010     NPC_stats.obj
 0002:00019020       ??_C@_0BA@KDJLKPAL@CLASS_IMPWORKER?$AA@ 20109020     NPC_stats.obj
 0002:00019030       ??_C@_0BD@NCGHFFLN@CLASS_INTERROGATOR?$AA@ 20109030     NPC_stats.obj
 0002:00019044       ??_C@_09HNAGPFAG@CLASS_JAN?$AA@ 20109044     NPC_stats.obj
 0002:00019050       ??_C@_0L@EKFAEFAN@CLASS_JEDI?$AA@ 20109050     NPC_stats.obj
 0002:0001905c       ??_C@_0L@MPFJJKCO@CLASS_KYLE?$AA@ 2010905c     NPC_stats.obj
 0002:00019068       ??_C@_0M@ENKGEJNI@CLASS_LANDO?$AA@ 20109068     NPC_stats.obj
 0002:00019074       ??_C@_0N@EGEDAFJA@CLASS_LIZARD?$AA@ 20109074     NPC_stats.obj
 0002:00019084       ??_C@_0L@DCOAOPAD@CLASS_LUKE?$AA@ 20109084     NPC_stats.obj
 0002:00019090       ??_C@_0M@CGNFGBBP@CLASS_MARK1?$AA@ 20109090     NPC_stats.obj
 0002:0001909c       ??_C@_0M@NPIDCNM@CLASS_MARK2?$AA@ 2010909c     NPC_stats.obj
 0002:000190a8       ??_C@_0BA@FJCCFCCD@CLASS_GALAKMECH?$AA@ 201090a8     NPC_stats.obj
 0002:000190b8       ??_C@_0BC@INOFHBLL@CLASS_MINEMONSTER?$AA@ 201090b8     NPC_stats.obj
 0002:000190cc       ??_C@_0P@GLOOPLCE@CLASS_MONMOTHA?$AA@ 201090cc     NPC_stats.obj
 0002:000190dc       ??_C@_0BD@MEDKCGMF@CLASS_MORGANKATARN?$AA@ 201090dc     NPC_stats.obj
 0002:000190f0       ??_C@_0M@FNFEKJPN@CLASS_MOUSE?$AA@ 201090f0     NPC_stats.obj
 0002:000190fc       ??_C@_0M@HOLMJKFH@CLASS_MURJJ?$AA@ 201090fc     NPC_stats.obj
 0002:00019108       ??_C@_0P@HLDHECKH@CLASS_PRISONER?$AA@ 20109108     NPC_stats.obj
 0002:00019118       ??_C@_0M@FICMJFDH@CLASS_PROBE?$AA@ 20109118     NPC_stats.obj
 0002:00019124       ??_C@_0P@COFOCFPB@CLASS_PROTOCOL?$AA@ 20109124     NPC_stats.obj
 0002:00019134       ??_C@_0L@CAODKBFG@CLASS_R2D2?$AA@ 20109134     NPC_stats.obj
 0002:00019140       ??_C@_0L@LNDEJJOP@CLASS_R5D2?$AA@ 20109140     NPC_stats.obj
 0002:0001914c       ??_C@_0M@OBMDAKLP@CLASS_REBEL?$AA@ 2010914c     NPC_stats.obj
 0002:00019158       ??_C@_0N@EMMAGBIC@CLASS_REBORN?$AA@ 20109158     NPC_stats.obj
 0002:00019168       ??_C@_0M@FIOIFKEK@CLASS_REELO?$AA@ 20109168     NPC_stats.obj
 0002:00019174       ??_C@_0N@CJOJFDCK@CLASS_REMOTE?$AA@ 20109174     NPC_stats.obj
 0002:00019184       ??_C@_0N@FJBAPFLB@CLASS_RODIAN?$AA@ 20109184     NPC_stats.obj
 0002:00019194       ??_C@_0N@CIOLMJNJ@CLASS_SEEKER?$AA@ 20109194     NPC_stats.obj
 0002:000191a4       ??_C@_0N@KNNMNDDP@CLASS_SENTRY?$AA@ 201091a4     NPC_stats.obj
 0002:000191b4       ??_C@_0BE@MMADAPGI@CLASS_SHADOWTROOPER?$AA@ 201091b4     NPC_stats.obj
 0002:000191c8       ??_C@_0BD@JADMBOGG@CLASS_STORMTROOPER?$AA@ 201091c8     NPC_stats.obj
 0002:000191dc       ??_C@_0M@MKGOLOPD@CLASS_SWAMP?$AA@ 201091dc     NPC_stats.obj
 0002:000191e8       ??_C@_0BD@DOPOJIND@CLASS_SWAMPTROOPER?$AA@ 201091e8     NPC_stats.obj
 0002:000191fc       ??_C@_0N@BAHEEIBD@CLASS_TAVION?$AA@ 201091fc     NPC_stats.obj
 0002:0001920c       ??_C@_0BB@JDNGFDDP@CLASS_TRANDOSHAN?$AA@ 2010920c     NPC_stats.obj
 0002:00019220       ??_C@_0P@IHJIFBMF@CLASS_UGNAUGHT?$AA@ 20109220     NPC_stats.obj
 0002:00019230       ??_C@_0L@BDILEFHL@CLASS_JAWA?$AA@ 20109230     NPC_stats.obj
 0002:0001923c       ??_C@_0O@HEDNKMML@CLASS_WEEQUAY?$AA@ 2010923c     NPC_stats.obj
 0002:0001924c       ??_C@_0P@MDAJHAHB@CLASS_BOBAFETT?$AA@ 2010924c     NPC_stats.obj
 0002:0001925c       ??_C@_0O@MPEEKFIF@CLASS_VEHICLE?$AA@ 2010925c     NPC_stats.obj
 0002:0001926c       ??_C@_0N@KKPOBMFD@CLASS_RANCOR?$AA@ 2010926c     NPC_stats.obj
 0002:0001927c       ??_C@_0M@LDKODCEM@CLASS_WAMPA?$AA@ 2010927c     NPC_stats.obj
 0002:00019288       ??_C@_0L@LJGGEAPE@BS_DEFAULT?$AA@ 20109288     NPC_stats.obj
 0002:00019294       ??_C@_0BB@BIBLNONC@BS_ADVANCE_FIGHT?$AA@ 20109294     NPC_stats.obj
 0002:000192a8       ??_C@_08JAJPNIMK@BS_SLEEP?$AA@ 201092a8     NPC_stats.obj
 0002:000192b4       ??_C@_0BB@OINEPCIM@BS_FOLLOW_LEADER?$AA@ 201092b4     NPC_stats.obj
 0002:000192c8       ??_C@_07DCOJFALB@BS_JUMP?$AA@ 201092c8     NPC_stats.obj
 0002:000192d0       ??_C@_09ECKAPEHM@BS_SEARCH?$AA@ 201092d0     NPC_stats.obj
 0002:000192dc       ??_C@_09GOPMILIC@BS_WANDER?$AA@ 201092dc     NPC_stats.obj
 0002:000192e8       ??_C@_09KALIEEFH@BS_NOCLIP?$AA@ 201092e8     NPC_stats.obj
 0002:000192f4       ??_C@_09CMBHICFN@BS_REMOVE?$AA@ 201092f4     NPC_stats.obj
 0002:00019300       ??_C@_0N@JGEEOFEK@BS_CINEMATIC?$AA@ 20109300     NPC_stats.obj
 0002:00019310       ??_C@_0L@EOCDCBCI@BSET_SPAWN?$AA@ 20109310     NPC_stats.obj
 0002:0001931c       ??_C@_08BGHDKIOJ@BSET_USE?$AA@ 2010931c     NPC_stats.obj
 0002:00019328       ??_C@_0L@EENFNNHH@BSET_AWAKE?$AA@ 20109328     NPC_stats.obj
 0002:00019334       ??_C@_0L@DFDNOME@BSET_ANGER?$AA@ 20109334     NPC_stats.obj
 0002:00019340       ??_C@_0M@JIAMFBAG@BSET_ATTACK?$AA@ 20109340     NPC_stats.obj
 0002:0001934c       ??_C@_0N@BNAHIHND@BSET_VICTORY?$AA@ 2010934c     NPC_stats.obj
 0002:0001935c       ??_C@_0P@OLJLINJE@BSET_LOSTENEMY?$AA@ 2010935c     NPC_stats.obj
 0002:0001936c       ??_C@_09IMNAKCPP@BSET_PAIN?$AA@ 2010936c     NPC_stats.obj
 0002:00019378       ??_C@_09HLPEDIKP@BSET_FLEE?$AA@ 20109378     NPC_stats.obj
 0002:00019384       ??_C@_0L@KMOMBCCG@BSET_DEATH?$AA@ 20109384     NPC_stats.obj
 0002:00019390       ??_C@_0N@COBIKAHM@BSET_DELAYED?$AA@ 20109390     NPC_stats.obj
 0002:000193a0       ??_C@_0N@HLKLFCPC@BSET_BLOCKED?$AA@ 201093a0     NPC_stats.obj
 0002:000193b0       ??_C@_0M@GEPIDNEK@BSET_BUMPED?$AA@ 201093b0     NPC_stats.obj
 0002:000193bc       ??_C@_0L@CIALIMJ@BSET_STUCK?$AA@ 201093bc     NPC_stats.obj
 0002:000193c8       ??_C@_0L@NCBDODON@BSET_FFIRE?$AA@ 201093c8     NPC_stats.obj
 0002:000193d4       ??_C@_0N@GAPKGAAK@BSET_FFDEATH?$AA@ 201093d4     NPC_stats.obj
 0002:000193e4       ??_C@_0N@HLIKJOGD@BSET_INVALID?$AA@ 201093e4     NPC_stats.obj
 0002:000193f4       ??_C@_07JAOEMGIL@neutral?$AA@ 201093f4     NPC_stats.obj
 0002:000193fc       ??_C@_0L@BNMEFCFO@bespin_cop?$AA@ 201093fc     NPC_stats.obj
 0002:00019408       ??_C@_08PJMIBPNP@commando?$AA@ 20109408     NPC_stats.obj
 0002:00019414       ??_C@_04JCBCAFCA@fish?$AA@ 20109414     NPC_stats.obj
 0002:0001941c       ??_C@_06NHBMGMDN@flier2?$AA@ 2010941c     NPC_stats.obj
 0002:00019424       ??_C@_06CAMHPKBM@glider?$AA@ 20109424     NPC_stats.obj
 0002:0001942c       ??_C@_03DIELNALK@jan?$AA@  2010942c     NPC_stats.obj
 0002:00019430       ??_C@_05ODBLFLCE@lando?$AA@ 20109430     NPC_stats.obj
 0002:00019438       ??_C@_06GHGCCCBH@lizard?$AA@ 20109438     NPC_stats.obj
 0002:00019440       ??_C@_08BHOPADKA@monmotha?$AA@ 20109440     NPC_stats.obj
 0002:0001944c       ??_C@_05NAABIIKL@murjj?$AA@ 2010944c     NPC_stats.obj
 0002:00019454       ??_C@_05EPHOBIED@rebel?$AA@ 20109454     NPC_stats.obj
 0002:0001945c       ??_C@_05PGFFEILG@reelo?$AA@ 2010945c     NPC_stats.obj
 0002:00019464       ??_C@_0N@MFECPDEM@stormtrooper?$AA@ 20109464     NPC_stats.obj
 0002:00019474       ??_C@_05GENDKMAP@swamp?$AA@ 20109474     NPC_stats.obj
 0002:0001947c       ??_C@_08LPAIIIPF@bobafett?$AA@ 2010947c     NPC_stats.obj
 0002:00019488       ??_C@_08LLHIJDNI@civilian?$AA@ 20109488     NPC_stats.obj
 0002:00019494       ??_C@_07NHKCCMBK@crewman?$AA@ 20109494     NPC_stats.obj
 0002:0001949c       ??_C@_06MHFJJEPD@ensign?$AA@ 2010949c     NPC_stats.obj
 0002:000194a4       ??_C@_04OOLOBGPD@ltjg?$AA@ 201094a4     NPC_stats.obj
 0002:000194ac       ??_C@_02KCAKIFL@lt?$AA@    201094ac     NPC_stats.obj
 0002:000194b0       ??_C@_06JDLNOOJG@ltcomm?$AA@ 201094b0     NPC_stats.obj
 0002:000194b8       ??_C@_09GALJJPI@commander?$AA@ 201094b8     NPC_stats.obj
 0002:000194c4       ??_C@_07NBOKKNLB@captain?$AA@ 201094c4     NPC_stats.obj
 0002:000194cc       ??_C@_09DHBBGOBJ@headmodel?$AA@ 201094cc     NPC_stats.obj
 0002:000194d8       ??_C@_0L@OHADMAJP@torsomodel?$AA@ 201094d8     NPC_stats.obj
 0002:000194e4       ??_C@_09FKOMGFKE@legsmodel?$AA@ 201094e4     NPC_stats.obj
 0002:000194f0       ??_C@_0M@OAMDHNJM@playerModel?$AA@ 201094f0     NPC_stats.obj
 0002:000194fc       ??_C@_0L@JOMPPCAN@playerTeam?$AA@ 201094fc     NPC_stats.obj
 0002:00019508       ??_C@_05PAEJKDGG@NPC?$CFs?$AA@ 20109508     NPC_stats.obj
 0002:00019510       ??_C@_03OEOJGHBI@snd?$AA@  20109510     NPC_stats.obj
 0002:00019514       ??_C@_01KMDKNFGN@?1?$AA@   20109514     NPC_stats.obj
 0002:00019518       ??_C@_04KHGIKJBA@?$CK$?$CFs?$AA@ 20109518     NPC_stats.obj
 0002:00019520       ??_C@_09HADMCHAD@sndcombat?$AA@ 20109520     NPC_stats.obj
 0002:0001952c       ??_C@_08DEBFCKMK@sndextra?$AA@ 2010952c     NPC_stats.obj
 0002:00019538       ??_C@_07NEHFBHNO@sndjedi?$AA@ 20109538     NPC_stats.obj
 0002:00019540       ??_C@_0CO@NELKOFK@MD3?5model?5using?5NPCs?5are?5not?5sup@ 20109540     NPC_stats.obj
 0002:00019570       ??_C@_0CA@DJJNGADE@RANDOM?5NPC?5NOT?5SUPPORTED?5IN?5MP?6?$AA@ 20109570     NPC_stats.obj
 0002:00019590       ??_C@_0L@LLOCGLMB@customRGBA?$AA@ 20109590     NPC_stats.obj
 0002:0001959c       ??_C@_07OKEAFEJG@surfOff?$AA@ 2010959c     NPC_stats.obj
 0002:000195a4       ??_C@_01IHBHIGKO@?0?$AA@   201095a4     NPC_stats.obj
 0002:000195a8       ??_C@_06PJBLOBOB@surfOn?$AA@ 201095a8     NPC_stats.obj
 0002:000195b0       ??_C@_0BB@NHPKKGHE@headYawRangeLeft?$AA@ 201095b0     NPC_stats.obj
 0002:000195c4       ??_C@_0BP@ODGDBKLE@?$FO3WARNING?3?5bad?5?$CFs?5in?5NPC?5?8?$CFs?8?6?$AA@ 201095c4     NPC_stats.obj
 0002:000195e4       ??_C@_0BC@ENEAEAOK@headYawRangeRight?$AA@ 201095e4     NPC_stats.obj
 0002:000195f8       ??_C@_0BB@MLDGOACN@headPitchRangeUp?$AA@ 201095f8     NPC_stats.obj
 0002:0001960c       ??_C@_0BD@HPBKLCKG@headPitchRangeDown?$AA@ 2010960c     NPC_stats.obj
 0002:00019620       ??_C@_0BC@CDFOHEFJ@torsoYawRangeLeft?$AA@ 20109620     NPC_stats.obj
 0002:00019634       ??_C@_0BD@IGLLIEN@torsoYawRangeRight?$AA@ 20109634     NPC_stats.obj
 0002:00019648       ??_C@_0BC@DPJCDCAA@torsoPitchRangeUp?$AA@ 20109648     NPC_stats.obj
 0002:0001965c       ??_C@_0BE@DHONKPBF@torsoPitchRangeDown?$AA@ 2010965c     NPC_stats.obj
 0002:00019670       ??_C@_05MHMEBBGO@scale?$AA@ 20109670     NPC_stats.obj
 0002:00019678       ??_C@_0BE@CFJFPDKK@bad?5?$CFs?5in?5NPC?5?8?$CFs?8?6?$AA@ 20109678     NPC_stats.obj
 0002:0001968c       ??_C@_0DK@BMGPDJDH@WARNING?3?5MP?5does?5not?5support?5sca@ 2010968c     NPC_stats.obj
 0002:000196c8       ??_C@_06NIKPFPBC@scaleX?$AA@ 201096c8     NPC_stats.obj
 0002:000196d0       ??_C@_0CO@KDDBPNCP@MP?5doesn?8t?5support?5xyz?5scaling?0?5@ 201096d0     NPC_stats.obj
 0002:00019700       ??_C@_06MBLEGOFD@scaleY?$AA@ 20109700     NPC_stats.obj
 0002:00019708       ??_C@_06OKJJDNJA@scaleZ?$AA@ 20109708     NPC_stats.obj
 0002:00019710       ??_C@_0L@PEPPJGON@aggression?$AA@ 20109710     NPC_stats.obj
 0002:0001971c       ??_C@_03MKHEFFMA@aim?$AA@  2010971c     NPC_stats.obj
 0002:00019720       ??_C@_07CBMFBAMO@earshot?$AA@ 20109720     NPC_stats.obj
 0002:00019728       ??_C@_07OGPFPAF@evasion?$AA@ 20109728     NPC_stats.obj
 0002:00019730       ??_C@_04LEDMMONM@hfov?$AA@ 20109730     NPC_stats.obj
 0002:00019738       ??_C@_0N@CPEHFLJO@intelligence?$AA@ 20109738     NPC_stats.obj
 0002:00019748       ??_C@_04HDMMNHEL@move?$AA@ 20109748     NPC_stats.obj
 0002:00019750       ??_C@_09HPKNIBDL@reactions?$AA@ 20109750     NPC_stats.obj
 0002:0001975c       ??_C@_0O@KGKLPFFM@shootDistance?$AA@ 2010975c     NPC_stats.obj
 0002:0001976c       ??_C@_04GLOMOHDP@vfov?$AA@ 2010976c     NPC_stats.obj
 0002:00019774       ??_C@_09IBGEAOEK@vigilance?$AA@ 20109774     NPC_stats.obj
 0002:00019780       ??_C@_08OEDIBAGI@visrange?$AA@ 20109780     NPC_stats.obj
 0002:0001978c       ??_C@_04PNBFHPGN@rank?$AA@ 2010978c     NPC_stats.obj
 0002:00019794       ??_C@_09LJHAAHLP@enemyTeam?$AA@ 20109794     NPC_stats.obj
 0002:000197a0       ??_C@_05ENKANFLO@class?$AA@ 201097a0     NPC_stats.obj
 0002:000197a8       ??_C@_0IN@NCFFJIJE@?$FO1ERROR?3?5Tried?5to?5spawn?5a?5vehicl@ 201097a8     NPC_stats.obj
 0002:00019838       ??_C@_0BC@PAKHFENE@dismemberProbHead?$AA@ 20109838     NPC_stats.obj
 0002:0001984c       ??_C@_0BC@DMOACEHB@dismemberProbArms?$AA@ 2010984c     NPC_stats.obj
 0002:00019860       ??_C@_0BD@CILPCNDK@dismemberProbHands?$AA@ 20109860     NPC_stats.obj
 0002:00019874       ??_C@_0BD@BBMAIGPP@dismemberProbWaist?$AA@ 20109874     NPC_stats.obj
 0002:00019888       ??_C@_0BC@ECJAKDA@dismemberProbLegs?$AA@ 20109888     NPC_stats.obj
 0002:0001989c       ??_C@_0N@OBELFKEM@crouchheight?$AA@ 2010989c     NPC_stats.obj
 0002:000198ac       ??_C@_08DMIOBKOG@movetype?$AA@ 201098ac     NPC_stats.obj
 0002:000198b8       ??_C@_07DDKNBEEN@flyswim?$AA@ 201098b8     NPC_stats.obj
 0002:000198c0       ??_C@_08EAMFOKJA@yawSpeed?$AA@ 201098c0     NPC_stats.obj
 0002:000198cc       ??_C@_09HNLAALKL@walkSpeed?$AA@ 201098cc     NPC_stats.obj
 0002:000198d8       ??_C@_08MICHJCIB@runSpeed?$AA@ 201098d8     NPC_stats.obj
 0002:000198e4       ??_C@_08OGKHAIFO@behavior?$AA@ 201098e4     NPC_stats.obj
 0002:000198f0       ??_C@_07IEFLNPEJ@altFire?$AA@ 201098f0     NPC_stats.obj
 0002:000198f8       ??_C@_0O@LKBIPCB@forcePowerMax?$AA@ 201098f8     NPC_stats.obj
 0002:00019908       ??_C@_0P@CGDGHOGM@forceRegenRate?$AA@ 20109908     NPC_stats.obj
 0002:00019918       ??_C@_0BB@BBDCLDFK@forceRegenAmount?$AA@ 20109918     NPC_stats.obj
 0002:0001992c       ??_C@_05KFODFCPJ@saber?$AA@ 2010992c     NPC_stats.obj
 0002:00019934       ??_C@_03HPDLNGOA@?$EA?$CFs?$AA@ 20109934     NPC_stats.obj
 0002:00019938       ??_C@_0M@GCPEOCBK@saberColor2?$AA@ 20109938     NPC_stats.obj
 0002:00019944       ??_C@_0M@HLOPNDFL@saberColor3?$AA@ 20109944     NPC_stats.obj
 0002:00019950       ??_C@_0M@DEKOEFJM@saberColor4?$AA@ 20109950     NPC_stats.obj
 0002:0001995c       ??_C@_0M@CNLFHENN@saberColor5?$AA@ 2010995c     NPC_stats.obj
 0002:00019968       ??_C@_0M@GJICHBO@saberColor6?$AA@ 20109968     NPC_stats.obj
 0002:00019974       ??_C@_0M@BPIDBGFP@saberColor7?$AA@ 20109974     NPC_stats.obj
 0002:00019980       ??_C@_0M@JIBLAKJA@saberColor8?$AA@ 20109980     NPC_stats.obj
 0002:0001998c       ??_C@_0M@OJBHFGNA@saber2Color?$AA@ 2010998c     NPC_stats.obj
 0002:00019998       ??_C@_0N@GLEKJBPD@saber2Color2?$AA@ 20109998     NPC_stats.obj
 0002:000199a8       ??_C@_0N@HCFBKALC@saber2Color3?$AA@ 201099a8     NPC_stats.obj
 0002:000199b8       ??_C@_0N@DNBADGHF@saber2Color4?$AA@ 201099b8     NPC_stats.obj
 0002:000199c8       ??_C@_0N@CEALAHDE@saber2Color5?$AA@ 201099c8     NPC_stats.obj
 0002:000199d8       ??_C@_0N@PCGFEPH@saber2Color6?$AA@ 201099d8     NPC_stats.obj
 0002:000199e8       ??_C@_0N@BGDNGFLG@saber2Color7?$AA@ 201099e8     NPC_stats.obj
 0002:000199f8       ??_C@_0N@JBKFHJHJ@saber2Color8?$AA@ 201099f8     NPC_stats.obj
 0002:00019a08       ??_C@_0N@FENIAKHL@saberLength2?$AA@ 20109a08     NPC_stats.obj
 0002:00019a18       ??_C@_0N@ENMDDLDK@saberLength3?$AA@ 20109a18     NPC_stats.obj
 0002:00019a28       ??_C@_0N@CICKNPN@saberLength4?$AA@ 20109a28     NPC_stats.obj
 0002:00019a38       ??_C@_0N@BLJJJMLM@saberLength5?$AA@ 20109a38     NPC_stats.obj
 0002:00019a48       ??_C@_0N@DALEMPHP@saberLength6?$AA@ 20109a48     NPC_stats.obj
 0002:00019a58       ??_C@_0N@CJKPPODO@saberLength7?$AA@ 20109a58     NPC_stats.obj
 0002:00019a68       ??_C@_0N@KODHOCPB@saberLength8?$AA@ 20109a68     NPC_stats.obj
 0002:00019a78       ??_C@_0N@MHDEHAJP@saber2Length?$AA@ 20109a78     NPC_stats.obj
 0002:00019a88       ??_C@_0O@INAHOONE@saber2Length2?$AA@ 20109a88     NPC_stats.obj
 0002:00019a98       ??_C@_0O@JEBMNPJF@saber2Length3?$AA@ 20109a98     NPC_stats.obj
 0002:00019aa8       ??_C@_0O@NLFNEJFC@saber2Length4?$AA@ 20109aa8     NPC_stats.obj
 0002:00019ab8       ??_C@_0O@MCEGHIBD@saber2Length5?$AA@ 20109ab8     NPC_stats.obj
 0002:00019ac8       ??_C@_0O@OJGLCLNA@saber2Length6?$AA@ 20109ac8     NPC_stats.obj
 0002:00019ad8       ??_C@_0O@PAHABKJB@saber2Length7?$AA@ 20109ad8     NPC_stats.obj
 0002:00019ae8       ??_C@_0O@HHOIAGFO@saber2Length8?$AA@ 20109ae8     NPC_stats.obj
 0002:00019af8       ??_C@_0N@HPMCLLIC@saberRadius2?$AA@ 20109af8     NPC_stats.obj
 0002:00019b08       ??_C@_0N@GGNJIKMD@saberRadius3?$AA@ 20109b08     NPC_stats.obj
 0002:00019b18       ??_C@_0N@CJJIBMAE@saberRadius4?$AA@ 20109b18     NPC_stats.obj
 0002:00019b28       ??_C@_0N@DAIDCNEF@saberRadius5?$AA@ 20109b28     NPC_stats.obj
 0002:00019b38       ??_C@_0N@BLKOHOIG@saberRadius6?$AA@ 20109b38     NPC_stats.obj
 0002:00019b48       ??_C@_0N@CLFEPMH@saberRadius7?$AA@ 20109b48     NPC_stats.obj
 0002:00019b58       ??_C@_0N@IFCNFDAI@saberRadius8?$AA@ 20109b58     NPC_stats.obj
 0002:00019b68       ??_C@_0N@GJNPBLCF@saber2Radius?$AA@ 20109b68     NPC_stats.obj
 0002:00019b78       ??_C@_0O@KGBNFPCN@saber2Radius2?$AA@ 20109b78     NPC_stats.obj
 0002:00019b88       ??_C@_0O@LPAGGOGM@saber2Radius3?$AA@ 20109b88     NPC_stats.obj
 0002:00019b98       ??_C@_0O@PAEHPIKL@saber2Radius4?$AA@ 20109b98     NPC_stats.obj
 0002:00019ba8       ??_C@_0O@OJFMMJOK@saber2Radius5?$AA@ 20109ba8     NPC_stats.obj
 0002:00019bb8       ??_C@_0O@MCHBJKCJ@saber2Radius6?$AA@ 20109bb8     NPC_stats.obj
 0002:00019bc8       ??_C@_0O@NLGKKLGI@saber2Radius7?$AA@ 20109bc8     NPC_stats.obj
 0002:00019bd8       ??_C@_0O@FMPCLHKH@saber2Radius8?$AA@ 20109bd8     NPC_stats.obj
 0002:00019be8       ??_C@_0DC@JABLILA@WARNING?3?5unknown?5keyword?5?8?$CFs?8?5wh@ 20109be8     NPC_stats.obj
 0002:00019c1c       ??_C@_05CBDGHPNI@?$EAKyle?$AA@ 20109c1c     NPC_stats.obj
 0002:00019c24       ??_C@_0CK@IPKODJIK@MD3?5MODEL?5NPC?8S?5ARE?5NOT?5SUPPORTE@ 20109c24     NPC_stats.obj
 0002:00019c50       ??_C@_04IGPEEJID@?4npc?$AA@ 20109c50     NPC_stats.obj
 0002:00019c58       ??_C@_0O@DAPCPFOP@ext_data?1NPCs?$AA@ 20109c58     NPC_stats.obj
 0002:00019c68       ??_C@_0BB@FKADAADD@ext_data?1NPCs?1?$CFs?$AA@ 20109c68     NPC_stats.obj
 0002:00019c7c       ??_C@_0CF@DKBCCIFJ@NPC?5extensions?5?$CI?$CK?4npc?$CJ?5are?5too?5l@ 20109c7c     NPC_stats.obj
 0002:00019ca8       ??_C@_0FB@NCABOAHE@WARNING?3?5Tried?5to?5toggle?5NPC?5sur@ 20109ca8     NPC_utils.obj
 0002:00019cfc       __real@3b83126f            20109cfc     NPC_utils.obj
 0002:00019d00       __real@3f847ae140000000    20109d00     NPC_utils.obj
 0002:00019d08       __real@401c000000000000    20109d08     NPC_utils.obj
 0002:00019d10       __real@404e000000000000    20109d10     NPC_utils.obj
 0002:00019d18       __real@41e00000            20109d18     NPC_utils.obj
 0002:00019d1c       __real@37800000            20109d1c     q_math.obj
 0002:00019d20       __real@38000000            20109d20     q_math.obj
 0002:00019d24       __real@3c8efa35            20109d24     q_math.obj
 0002:00019d28       __real@4066c16c16c16c17    20109d28     q_math.obj
 0002:00019d30       ??_C@_0BG@EKAPNPCH@Q_strncpyz?3?5NULL?5dest?$AA@ 20109d30     q_shared.obj
 0002:00019d48       ??_C@_0BF@BJHHBLMD@Q_strncpyz?3?5NULL?5src?$AA@ 20109d48     q_shared.obj
 0002:00019d60       ??_C@_0BJ@OLBOPICM@Q_strncpyz?3?5destsize?5?$DM?51?$AA@ 20109d60     q_shared.obj
 0002:00019d7c       ??_C@_0BN@EFOOAHFL@Q_strcat?3?5already?5overflowed?$AA@ 20109d7c     q_shared.obj
 0002:00019d9c       ??_C@_0CC@GMEFDOKA@Com_sprintf?3?5overflowed?5bigbuffe@ 20109d9c     q_shared.obj
 0002:00019dc0       ??_C@_0CD@GIPJKOOD@Com_sprintf?3?5overflow?5of?5?$CFi?5in?5?$CF@ 20109dc0     q_shared.obj
 0002:00019de4       ??_C@_0CG@FLHABLN@Info_ValueForKey?3?5oversize?5infos@ 20109de4     q_shared.obj
 0002:00019e0c       ??_C@_0CE@HMPLGKDK@Info_RemoveKey?3?5oversize?5infostr@ 20109e0c     q_shared.obj
 0002:00019e30       ??_C@_0CJ@CEEBDGNA@Info_SetValueForKey?3?5oversize?5in@ 20109e30     q_shared.obj
 0002:00019e5c       ??_C@_0CD@JIDDAEOO@Can?8t?5use?5keys?5or?5values?5with?5a?5@ 20109e5c     q_shared.obj
 0002:00019e80       ??_C@_0CL@JCFAGLFD@Can?8t?5use?5keys?5or?5values?5with?5a?5@ 20109e80     q_shared.obj
 0002:00019eac       ??_C@_0CD@MGFMEBLE@Can?8t?5use?5keys?5or?5values?5with?5a?5@ 20109eac     q_shared.obj
 0002:00019ed0       ??_C@_06NELKLDPM@?2?$CFs?2?$CFs?$AA@ 20109ed0     q_shared.obj
 0002:00019ed8       ??_C@_0BN@CAOBGKLE@Info?5string?5length?5exceeded?6?$AA@ 20109ed8     q_shared.obj
 0002:00019ef8       __real@3eb0c6f7a0b5ed8d    20109ef8     tri_coll_test.obj
 0002:00019f00       __real@bc9374bc            20109f00     WalkerNPC.obj
 0002:00019f08       _forcePowerMinRank         20109f08     w_force.obj
 0002:0001a028       _mindTrickTime             2010a028     w_force.obj
 0002:0001a038       ??_C@_0CC@ONCGEBCD@sound?1weapons?1force?1speedloop?4wa@ 2010a038     w_force.obj
 0002:0001a05c       ??_C@_0CB@NODKGJDN@sound?1weapons?1force?1rageloop?4wav@ 2010a05c     w_force.obj
 0002:0001a080       ??_C@_0CD@NBAPFJGI@sound?1weapons?1force?1absorbloop?4w@ 2010a080     w_force.obj
 0002:0001a0a4       ??_C@_0CE@GDIJAPPN@sound?1weapons?1force?1protectloop?4@ 2010a0a4     w_force.obj
 0002:0001a0c8       ??_C@_0CA@OLLKKIBE@sound?1weapons?1force?1seeloop?4wav?$AA@ 2010a0c8     w_force.obj
 0002:0001a0e8       ??_C@_0BN@NJMEAIMF@sound?1player?1nullifyloop?4wav?$AA@ 2010a0e8     w_force.obj
 0002:0001a108       ??_C@_03CEOIHOED@scl?$AA@  2010a108     w_force.obj
 0002:0001a10c       ??_C@_0CD@GFHJFGGI@forcepowers?27?91?93330030003130031@ 2010a10c     w_force.obj
 0002:0001a130       ??_C@_03LNBAHPKF@spc?$AA@  2010a130     w_force.obj
 0002:0001a134       ??_C@_0N@LFFHBBL@nfr?5?$CFi?5?$CFi?5?$CFi?$AA@ 2010a134     w_force.obj
 0002:0001a144       ??_C@_0BN@KBLLAEBL@sound?1weapons?1force?1heal?4wav?$AA@ 2010a144     w_force.obj
 0002:0001a164       ??_C@_0BM@OAKPMOJG@sound?1weapons?1force?1see?4wav?$AA@ 2010a164     w_force.obj
 0002:0001a180       ??_C@_0BN@FIMAKGPM@sound?1weapons?1force?1rage?4wav?$AA@ 2010a180     w_force.obj
 0002:0001a1a0       ??_C@_0BO@GKODPFDH@sound?1weapons?1force?1lightning?$AA@ 2010a1a0     w_force.obj
 0002:0001a1c0       ??_C@_0CD@IIGOJEPC@sound?1weapons?1force?1lightninghit@ 2010a1c0     w_force.obj
 0002:0001a1e4       ??_C@_0BO@CFEEFGGJ@sound?1weapons?1force?1drain?4wav?$AA@ 2010a1e4     w_force.obj
 0002:0001a204       ??_C@_0CC@IDPNPIJB@sound?1weapons?1force?1jumpbuild?4wa@ 2010a204     w_force.obj
 0002:0001a228       ??_C@_0BC@LNMDPJLI@force?1force_touch?$AA@ 2010a228     w_force.obj
 0002:0001a23c       ??_C@_0CB@DHCOJIOI@sound?1weapons?1force?1distract?4wav@ 2010a23c     w_force.obj
 0002:0001a260       ??_C@_0BN@KBMIBKKI@sound?1weapons?1force?1push?4wav?$AA@ 2010a260     w_force.obj
 0002:0001a280       ??_C@_0BN@KLMPLEJJ@sound?1weapons?1force?1pull?4wav?$AA@ 2010a280     w_force.obj
 0002:0001a2a0       ??_C@_04DEPFHLHB@limb?$AA@ 2010a2a0     w_force.obj
 0002:0001a2a8       ??_C@_0CF@GAOMGDBJ@sound?1weapons?1force?1distractstop@ 2010a2a8     w_force.obj
 0002:0001a2d0       ??_C@_09OICPJII@?$CKgasp?4wav?$AA@ 2010a2d0     w_force.obj
 0002:0001a2dc       ??_C@_0BN@JIOEMEHN@sound?1weapons?1bryar?1fire?4wav?$AA@ 2010a2dc     w_force.obj
 0002:0001a300       __real@3f9999999999999a    2010a300     w_force.obj
 0002:0001a308       __real@40c90fdb            2010a308     w_force.obj
 0002:0001a30c       __real@43848000            2010a30c     w_force.obj
 0002:0001a310       __real@4cbebc20            2010a310     w_force.obj
 0002:0001a314       ??_C@_0BI@DNOBGLOF@Client?5?$CFi?3?5ATT?5STR?3?5?$CFi?6?$AA@ 2010a314     w_saber.obj
 0002:0001a32c       ??_C@_0CI@FCGJBHMO@Client?5?$CFi?5in?5broken?5parry?0?5saber@ 2010a32c     w_saber.obj
 0002:0001a354       ??_C@_0CC@JLAJJOPN@sound?1weapons?1saber?1saberspin?4wa@ 2010a354     w_saber.obj
 0002:0001a378       ??_C@_0L@EAMMMNDF@lookAround?$AA@ 2010a378     w_saber.obj
 0002:0001a384       ??_C@_0CG@CJBFJNH@attack?5?$CFs?5vs?4?5parry?5?$CFs?5bounced?5t@ 2010a384     w_saber.obj
 0002:0001a3ac       ??_C@_0CI@KMBLLENK@attack?5?$CFs?5vs?4?5parry?5?$CFs?5deflected@ 2010a3ac     w_saber.obj
 0002:0001a3d4       ??_C@_0BF@OKDNPGCJ@CL?5?$CFi?5SABER?5DMG?3?5?$CFi?6?$AA@ 2010a3d4     w_saber.obj
 0002:0001a3f0       ??_C@_0ED@LAHMFKOJ@Client?5?$CFi?5sent?5client?5?$CFi?5into?5a?5@ 2010a3f0     w_saber.obj
 0002:0001a434       ??_C@_0CO@HBPPNIEB@Client?5?$CFi?5sent?5client?5?$CFi?5into?5a?5@ 2010a434     w_saber.obj
 0002:0001a464       ??_C@_0CM@BIIAMCFG@Client?5?$CFi?5bounced?5off?5of?5client?5@ 2010a464     w_saber.obj
 0002:0001a490       ??_C@_0DM@PHPPFDJF@Client?5?$CFi?5and?5client?5?$CFi?5bounced?5@ 2010a490     w_saber.obj
 0002:0001a4d0       ??_C@_0EH@GEMHJAML@Client?5?$CFi?5forced?5client?5?$CFi?5into?5@ 2010a4d0     w_saber.obj
 0002:0001a518       ??_C@_0DM@IMKACJOI@Equal?5attack?5level?5bounce?1deflec@ 2010a518     w_saber.obj
 0002:0001a558       ??_C@_0EL@JLOPMBII@Client?5?$CFi?5hit?5client?5?$CFi?8s?5strong@ 2010a558     w_saber.obj
 0002:0001a5a8       ??_C@_0EG@KBNONNGI@Client?5?$CFi?5broke?5through?5?$CFi?8s?5par@ 2010a5a8     w_saber.obj
 0002:0001a5f0       ??_C@_09FKOLDDBO@deadsaber?$AA@ 2010a5f0     w_saber.obj
 0002:0001a5fc       ??_C@_0CE@CFCKGBNH@sound?1weapons?1saber?1saber_catch?4@ 2010a5fc     w_saber.obj
 0002:0001a620       ??_C@_0CA@CHBAPCJN@sound?1movers?1objects?1saber_slam?$AA@ 2010a620     w_saber.obj
 0002:0001a640       __real@3ea8f5c3            2010a640     w_saber.obj
 0002:0001a644       __real@3fcccccd            2010a644     w_saber.obj
 0002:0001a648       __real@3fe570a3c0000000    2010a648     w_saber.obj
 0002:0001a650       __real@40d00000            2010a650     w_saber.obj
 0002:0001a654       __real@42080000            2010a654     w_saber.obj
 0002:0001a658       __real@44548000            2010a658     w_saber.obj
 0002:0001a65c       __real@44834000            2010a65c     w_saber.obj
 0002:0001a660       __real@44898000            2010a660     w_saber.obj
 0002:0001a664       __real@bf666666            2010a664     w_saber.obj
 0002:0001a668       __real@c28c0000            2010a668     w_saber.obj
 0002:0001a670       __xmm@000003ff000003ff000003ff000003ff 2010a670     w_saber.obj
 0002:0001a704       __pDefaultRawDllMain       2010a704     LIBCMT:dll_dllmain.obj
 0002:0001a704       __pRawDllMain              2010a704     LIBCMT:dll_dllmain.obj
 0002:0001a710       __Microsoft_CRTProvider    2010a710     libvcruntime:telemetry.obj
 0002:0001a714       ??_C@_11LOCGONAA@?$AA?$AA@ 2010a714     libvcruntime:telemetry.obj
 0002:0001a718       ??_C@_0O@JEOPJOMI@Main?5Invoked?4?$AA@ 2010a718     libvcruntime:telemetry.obj
 0002:0001a728       ??_C@_0P@NEAEIBDO@Main?5Returned?4?$AA@ 2010a728     libvcruntime:telemetry.obj
 0002:0001a748       ??_C@_1BC@DNHGCMLG@?$AAa?$AAd?$AAv?$AAa?$AAp?$AAi?$AA3?$AA2?$AA?$AA@ 2010a748     libvcruntime:winapi_downlevel.obj
 0002:0001a75c       ??_C@_1DM@KHCHBNEB@?$AAa?$AAp?$AAi?$AA?9?$AAm?$AAs?$AA?9?$AAw?$AAi?$AAn?$AA?9?$AAc?$AAo?$AAr?$AAe?$AA?9?$AAf?$AAi?$AAb?$AAe?$AAr?$AAs?$AA?9?$AAl?$AA1?$AA?9?$AA1?$AA?9?$AA1?$AA?$AA@ 2010a75c     libvcruntime:winapi_downlevel.obj
 0002:0001a798       ??_C@_1DK@LPPGFMPP@?$AAa?$AAp?$AAi?$AA?9?$AAm?$AAs?$AA?9?$AAw?$AAi?$AAn?$AA?9?$AAc?$AAo?$AAr?$AAe?$AA?9?$AAs?$AAy?$AAn?$AAc?$AAh?$AA?9?$AAl?$AA1?$AA?9?$AA2?$AA?9?$AA0?$AA?$AA@ 2010a798     libvcruntime:winapi_downlevel.obj
 0002:0001a7d4       ??_C@_1BC@GDMECMAK@?$AAk?$AAe?$AAr?$AAn?$AAe?$AAl?$AA3?$AA2?$AA?$AA@ 2010a7d4     libvcruntime:winapi_downlevel.obj
 0002:0001a7ec       ??_C@_0O@BAMBGLIE@EventRegister?$AA@ 2010a7ec     libvcruntime:winapi_downlevel.obj
 0002:0001a800       ??_C@_0BE@BJEEGHGK@EventSetInformation?$AA@ 2010a800     libvcruntime:winapi_downlevel.obj
 0002:0001a818       ??_C@_0BA@FAKLIPIC@EventUnregister?$AA@ 2010a818     libvcruntime:winapi_downlevel.obj
 0002:0001a82c       ??_C@_0BD@PKLHJPHD@EventWriteTransfer?$AA@ 2010a82c     libvcruntime:winapi_downlevel.obj
 0002:0001a848       ??_C@_08KNHFBNJ@FlsAlloc?$AA@ 2010a848     libvcruntime:winapi_downlevel.obj
 0002:0001a85c       ??_C@_07PEJMOBNF@FlsFree?$AA@ 2010a85c     libvcruntime:winapi_downlevel.obj
 0002:0001a86c       ??_C@_0M@GDNOONDI@FlsGetValue?$AA@ 2010a86c     libvcruntime:winapi_downlevel.obj
 0002:0001a880       ??_C@_0M@JCPCPOEF@FlsSetValue?$AA@ 2010a880     libvcruntime:winapi_downlevel.obj
 0002:0001a894       ??_C@_0BM@HCFOFFN@InitializeCriticalSectionEx?$AA@ 2010a894     libvcruntime:winapi_downlevel.obj
 0002:0001aa40       ??_C@_08EHJDFFNH@__based?$CI?$AA@ 2010aa40     libvcruntime:undname.obj
 0002:0001aa4c       ??_C@_07KOLFKCDI@__cdecl?$AA@ 2010aa4c     libvcruntime:undname.obj
 0002:0001aa54       ??_C@_08GHMPAG@__pascal?$AA@ 2010aa54     libvcruntime:undname.obj
 0002:0001aa60       ??_C@_09IFJBGAPI@__stdcall?$AA@ 2010aa60     libvcruntime:undname.obj
 0002:0001aa6c       ??_C@_0L@NPHFGOKO@__thiscall?$AA@ 2010aa6c     libvcruntime:undname.obj
 0002:0001aa78       ??_C@_0L@JMKHOMEK@__fastcall?$AA@ 2010aa78     libvcruntime:undname.obj
 0002:0001aa84       ??_C@_0N@BCKKPABJ@__vectorcall?$AA@ 2010aa84     libvcruntime:undname.obj
 0002:0001aa94       ??_C@_09HIJEGCPM@__clrcall?$AA@ 2010aa94     libvcruntime:undname.obj
 0002:0001aaa0       ??_C@_06GHPCKEAG@__eabi?$AA@ 2010aaa0     libvcruntime:undname.obj
 0002:0001aaa8       ??_C@_07JOMMBBKO@__ptr64?$AA@ 2010aaa8     libvcruntime:undname.obj
 0002:0001aab0       ??_C@_0L@PILCLIHE@__restrict?$AA@ 2010aab0     libvcruntime:undname.obj
 0002:0001aabc       ??_C@_0M@GFIIJFMG@__unaligned?$AA@ 2010aabc     libvcruntime:undname.obj
 0002:0001aac8       ??_C@_09DHDLOLLB@restrict?$CI?$AA@ 2010aac8     libvcruntime:undname.obj
 0002:0001aad4       ??_C@_04NIHEBCM@?5new?$AA@ 2010aad4     libvcruntime:undname.obj
 0002:0001aadc       ??_C@_07FPCDHGMM@?5delete?$AA@ 2010aadc     libvcruntime:undname.obj
 0002:0001aae4       ??_C@_01NEMOKFLO@?$DN?$AA@ 2010aae4     libvcruntime:undname.obj
 0002:0001aae8       ??_C@_02GPIOPFAK@?$DO?$DO?$AA@ 2010aae8     libvcruntime:undname.obj
 0002:0001aaec       ??_C@_02FODMEDOG@?$DM?$DM?$AA@ 2010aaec     libvcruntime:undname.obj
 0002:0001aaf0       ??_C@_01DCLJPIOD@?$CB?$AA@ 2010aaf0     libvcruntime:undname.obj
 0002:0001aaf4       ??_C@_02EGOFBIJA@?$DN?$DN?$AA@ 2010aaf4     libvcruntime:undname.obj
 0002:0001aaf8       ??_C@_02FDNJECIE@?$CB?$DN?$AA@ 2010aaf8     libvcruntime:undname.obj
 0002:0001aafc       ??_C@_02GPECMEKF@?$FL?$FN?$AA@ 2010aafc     libvcruntime:undname.obj
 0002:0001ab00       ??_C@_08LHJFAFGD@operator?$AA@ 2010ab00     libvcruntime:undname.obj
 0002:0001ab0c       ??_C@_02HBOOOICD@?9?$DO?$AA@ 2010ab0c     libvcruntime:undname.obj
 0002:0001ab10       ??_C@_01NBENCBCI@?$CK?$AA@ 2010ab10     libvcruntime:undname.obj
 0002:0001ab14       ??_C@_02ECNGHCIF@?$CL?$CL?$AA@ 2010ab14     libvcruntime:undname.obj
 0002:0001ab18       ??_C@_02BAABKJLB@?9?9?$AA@ 2010ab18     libvcruntime:undname.obj
 0002:0001ab1c       ??_C@_01JOAMLHOP@?9?$AA@   2010ab1c     libvcruntime:undname.obj
 0002:0001ab20       ??_C@_01MIFGBAGJ@?$CL?$AA@ 2010ab20     libvcruntime:undname.obj
 0002:0001ab24       ??_C@_01HNPIGOCE@?$CG?$AA@ 2010ab24     libvcruntime:undname.obj
 0002:0001ab28       ??_C@_03MNHNFDLC@?9?$DO?$CK?$AA@ 2010ab28     libvcruntime:undname.obj
 0002:0001ab2c       ??_C@_01FGNFDNOH@?$CF?$AA@ 2010ab2c     libvcruntime:undname.obj
 0002:0001ab30       ??_C@_01MNNFJEPP@?$DM?$AA@ 2010ab30     libvcruntime:undname.obj
 0002:0001ab34       ??_C@_02EHCHHCKH@?$DM?$DN?$AA@ 2010ab34     libvcruntime:undname.obj
 0002:0001ab38       ??_C@_01PPODPGHN@?$DO?$AA@ 2010ab38     libvcruntime:undname.obj
 0002:0001ab3c       ??_C@_02EEKDKGMJ@?$DO?$DN?$AA@ 2010ab3c     libvcruntime:undname.obj
 0002:0001ab40       ??_C@_02HCKGKOFO@?$CI?$CJ?$AA@ 2010ab40     libvcruntime:undname.obj
 0002:0001ab44       ??_C@_01PJKLJHI@?$HO?$AA@  2010ab44     libvcruntime:undname.obj
 0002:0001ab48       ??_C@_01JKBOJNNK@?$FO?$AA@ 2010ab48     libvcruntime:undname.obj
 0002:0001ab4c       ??_C@_01DNKMNLPK@?$HM?$AA@ 2010ab4c     libvcruntime:undname.obj
 0002:0001ab50       ??_C@_02PPKAJPJL@?$CG?$CG?$AA@ 2010ab50     libvcruntime:undname.obj
 0002:0001ab54       ??_C@_02NONPIBCD@?$HM?$HM?$AA@ 2010ab54     libvcruntime:undname.obj
 0002:0001ab58       ??_C@_02FPIMKNGF@?$CK?$DN?$AA@ 2010ab58     libvcruntime:undname.obj
 0002:0001ab5c       ??_C@_02FOEOMHFC@?$CL?$DN?$AA@ 2010ab5c     libvcruntime:undname.obj
 0002:0001ab60       ??_C@_02FKMDLLOA@?9?$DN?$AA@ 2010ab60     libvcruntime:undname.obj
 0002:0001ab64       ??_C@_02FJEHGPIO@?1?$DN?$AA@ 2010ab64     libvcruntime:undname.obj
 0002:0001ab68       ??_C@_02FENAOKFI@?$CF?$DN?$AA@ 2010ab68     libvcruntime:undname.obj
 0002:0001ab6c       ??_C@_03IKFCCPFF@?$DO?$DO?$DN?$AA@ 2010ab6c     libvcruntime:undname.obj
 0002:0001ab70       ??_C@_03CDNPDDLA@?$DM?$DM?$DN?$AA@ 2010ab70     libvcruntime:undname.obj
 0002:0001ab74       ??_C@_02FGJGFEAB@?$CG?$DN?$AA@ 2010ab74     libvcruntime:undname.obj
 0002:0001ab78       ??_C@_02DHLNPPGH@?$HM?$DN?$AA@ 2010ab78     libvcruntime:undname.obj
 0002:0001ab7c       ??_C@_02MHEGNOJ@?$FO?$DN?$AA@ 2010ab7c     libvcruntime:undname.obj
 0002:0001ab80       ??_C@_09IFPLHPGF@?$GAvftable?8?$AA@ 2010ab80     libvcruntime:undname.obj
 0002:0001ab8c       ??_C@_09BLBHBJP@?$GAvbtable?8?$AA@ 2010ab8c     libvcruntime:undname.obj
 0002:0001ab98       ??_C@_07FEEIOKP@?$GAvcall?8?$AA@ 2010ab98     libvcruntime:undname.obj
 0002:0001aba0       ??_C@_08LLFFHHDJ@?$GAtypeof?8?$AA@ 2010aba0     libvcruntime:undname.obj
 0002:0001abac       ??_C@_0BF@KDPPACIK@?$GAlocal?5static?5guard?8?$AA@ 2010abac     libvcruntime:undname.obj
 0002:0001abc4       ??_C@_08OBABFOLI@?$GAstring?8?$AA@ 2010abc4     libvcruntime:undname.obj
 0002:0001abd0       ??_C@_0BD@JDLKDPAB@?$GAvbase?5destructor?8?$AA@ 2010abd0     libvcruntime:undname.obj
 0002:0001abe4       ??_C@_0BN@DEGPLNFK@?$GAvector?5deleting?5destructor?8?$AA@ 2010abe4     libvcruntime:undname.obj
 0002:0001ac04       ??_C@_0BO@OBMKPJIG@?$GAdefault?5constructor?5closure?8?$AA@ 2010ac04     libvcruntime:undname.obj
 0002:0001ac24       ??_C@_0BN@IMDCHIKM@?$GAscalar?5deleting?5destructor?8?$AA@ 2010ac24     libvcruntime:undname.obj
 0002:0001ac44       ??_C@_0BO@PFGOCPJJ@?$GAvector?5constructor?5iterator?8?$AA@ 2010ac44     libvcruntime:undname.obj
 0002:0001ac64       ??_C@_0BN@LFPFMEDL@?$GAvector?5destructor?5iterator?8?$AA@ 2010ac64     libvcruntime:undname.obj
 0002:0001ac84       ??_C@_0CE@IKBNEHA@?$GAvector?5vbase?5constructor?5iterat@ 2010ac84     libvcruntime:undname.obj
 0002:0001aca8       ??_C@_0BL@NILFHHPC@?$GAvirtual?5displacement?5map?8?$AA@ 2010aca8     libvcruntime:undname.obj
 0002:0001acc4       ??_C@_0CB@JONCMFFK@?$GAeh?5vector?5constructor?5iterator?8@ 2010acc4     libvcruntime:undname.obj
 0002:0001ace8       ??_C@_0CA@GCEOPDGL@?$GAeh?5vector?5destructor?5iterator?8?$AA@ 2010ace8     libvcruntime:undname.obj
 0002:0001ad08       ??_C@_0CH@OOJPLCPH@?$GAeh?5vector?5vbase?5constructor?5ite@ 2010ad08     libvcruntime:undname.obj
 0002:0001ad30       ??_C@_0BL@LLKPOHJI@?$GAcopy?5constructor?5closure?8?$AA@ 2010ad30     libvcruntime:undname.obj
 0002:0001ad4c       ??_C@_0BA@KBCDOMBN@?$GAudt?5returning?8?$AA@ 2010ad4c     libvcruntime:undname.obj
 0002:0001ad5c       ??_C@_03KLGMFNMG@?$GAEH?$AA@ 2010ad5c     libvcruntime:undname.obj
 0002:0001ad60       ??_C@_05KHLCHHI@?$GARTTI?$AA@ 2010ad60     libvcruntime:undname.obj
 0002:0001ad68       ??_C@_0BA@KKLDJDLB@?$GAlocal?5vftable?8?$AA@ 2010ad68     libvcruntime:undname.obj
 0002:0001ad78       ??_C@_0CE@IIHCMGGL@?$GAlocal?5vftable?5constructor?5closu@ 2010ad78     libvcruntime:undname.obj
 0002:0001ad9c       ??_C@_06FHBGPFGH@?5new?$FL?$FN?$AA@ 2010ad9c     libvcruntime:undname.obj
 0002:0001ada4       ??_C@_09LBNFPBCA@?5delete?$FL?$FN?$AA@ 2010ada4     libvcruntime:undname.obj
 0002:0001adb0       ??_C@_0P@HJKNJFNN@?$GAomni?5callsig?8?$AA@ 2010adb0     libvcruntime:undname.obj
 0002:0001adc0       ??_C@_0BL@CNOONJFP@?$GAplacement?5delete?5closure?8?$AA@ 2010adc0     libvcruntime:undname.obj
 0002:0001addc       ??_C@_0BN@CKNJLHMB@?$GAplacement?5delete?$FL?$FN?5closure?8?$AA@ 2010addc     libvcruntime:undname.obj
 0002:0001adfc       ??_C@_0CG@CFDHKGGD@?$GAmanaged?5vector?5constructor?5iter@ 2010adfc     libvcruntime:undname.obj
 0002:0001ae24       ??_C@_0CF@IMGKMJNO@?$GAmanaged?5vector?5destructor?5itera@ 2010ae24     libvcruntime:undname.obj
 0002:0001ae4c       ??_C@_0CG@HLDDJMAG@?$GAeh?5vector?5copy?5constructor?5iter@ 2010ae4c     libvcruntime:undname.obj
 0002:0001ae74       ??_C@_0CM@FCBBDIGB@?$GAeh?5vector?5vbase?5copy?5constructo@ 2010ae74     libvcruntime:undname.obj
 0002:0001aea0       ??_C@_0BL@CLIPGLGB@?$GAdynamic?5initializer?5for?5?8?$AA@ 2010aea0     libvcruntime:undname.obj
 0002:0001aebc       ??_C@_0CB@PDBIFEP@?$GAdynamic?5atexit?5destructor?5for?5?8@ 2010aebc     libvcruntime:undname.obj
 0002:0001aee0       ??_C@_0CD@CGAJBKEJ@?$GAvector?5copy?5constructor?5iterato@ 2010aee0     libvcruntime:undname.obj
 0002:0001af04       ??_C@_0CJ@GJELGAMM@?$GAvector?5vbase?5copy?5constructor?5i@ 2010af04     libvcruntime:undname.obj
 0002:0001af30       ??_C@_0CL@FGIJHLCE@?$GAmanaged?5vector?5copy?5constructor@ 2010af30     libvcruntime:undname.obj
 0002:0001af5c       ??_C@_0BM@PMGGMLDN@?$GAlocal?5static?5thread?5guard?8?$AA@ 2010af5c     libvcruntime:undname.obj
 0002:0001af78       ??_C@_0N@BDNMDMOL@operator?5?$CC?$CC?5?$AA@ 2010af78     libvcruntime:undname.obj
 0002:0001af88       ??_C@_0BC@DAFEJGAK@?5Type?5Descriptor?8?$AA@ 2010af88     libvcruntime:undname.obj
 0002:0001af9c       ??_C@_0BM@LDKODKLH@?5Base?5Class?5Descriptor?5at?5?$CI?$AA@ 2010af9c     libvcruntime:undname.obj
 0002:0001afb8       ??_C@_0BD@LGICGFMM@?5Base?5Class?5Array?8?$AA@ 2010afb8     libvcruntime:undname.obj
 0002:0001afcc       ??_C@_0BN@MECKDCOJ@?5Class?5Hierarchy?5Descriptor?8?$AA@ 2010afcc     libvcruntime:undname.obj
 0002:0001afec       ??_C@_0BK@CFCOFLF@?5Complete?5Object?5Locator?8?$AA@ 2010afec     libvcruntime:undname.obj
 0002:0001b008       ?large_power_data@?1??multiply_by_power_of_ten@__crt_strtox@@YA_NAAUbig_integer@2@I@Z@4QBIB 2010b008     libucrt:atof.obj
 0002:0001b910       ?large_power_indices@?1??multiply_by_power_of_ten@__crt_strtox@@YA_NAAUbig_integer@2@I@Z@4QBUunpack_index@?1??12@YA_N0I@Z@B 2010b910     libucrt:atof.obj
 0002:0001b9a8       ?small_powers_of_ten@?6??multiply_by_power_of_ten@__crt_strtox@@YA_NAAUbig_integer@2@I@Z@4QBIB 2010b9a8     libucrt:atof.obj
 0002:0001b9d0       ??_C@_1GE@DPGDJKLM@?$AAm?$AAi?$AAn?$AAk?$AAe?$AAr?$AAn?$AAe?$AAl?$AA?2?$AAc?$AAr?$AAt?$AAs?$AA?2?$AAu?$AAc?$AAr?$AAt?$AA?2?$AAi?$AAn?$AAc?$AA?2?$AAc?$AAo?$AAr?$AAe?$AAc?$AAr?$AAt?$AA_@ 2010b9d0     libucrt:atof.obj
 0002:0001ba38       ??_C@_1FM@FELNCOBF@?$AA_?$AA_?$AAc?$AAr?$AAt?$AA_?$AAs?$AAt?$AAr?$AAt?$AAo?$AAx?$AA?3?$AA?3?$AAf?$AAl?$AAo?$AAa?$AAt?$AAi?$AAn?$AAg?$AA_?$AAp?$AAo?$AAi?$AAn?$AAt?$AA_?$AAv?$AAa?$AAl@ 2010ba38     libucrt:atof.obj
 0002:0001ba94       ??_C@_1BG@GEMHBGAF@?$AA_?$AAi?$AAs?$AA_?$AAd?$AAo?$AAu?$AAb?$AAl?$AAe?$AA?$AA@ 2010ba94     libucrt:atof.obj
 0002:0001bab0       ??_C@_1FK@JOJELFFO@?$AA_?$AA_?$AAc?$AAr?$AAt?$AA_?$AAs?$AAt?$AAr?$AAt?$AAo?$AAx?$AA?3?$AA?3?$AAf?$AAl?$AAo?$AAa?$AAt?$AAi?$AAn?$AAg?$AA_?$AAp?$AAo?$AAi?$AAn?$AAt?$AA_?$AAv?$AAa?$AAl@ 2010bab0     libucrt:atof.obj
 0002:0001bb0c       ??_C@_1BI@BANMPGJI@?$AA?$CB?$AA_?$AAi?$AAs?$AA_?$AAd?$AAo?$AAu?$AAb?$AAl?$AAe?$AA?$AA@ 2010bb0c     libucrt:atof.obj
 0002:0001bb24       ?inf_uppercase@?2???$parse_floating_point_possible_infinity@DV?$c_string_character_source@D@__crt_strtox@@PBD@__crt_strtox@@YA?AW4floating_point_parse_result@1@AADAAV?$c_string_character_source@D@1@PBD@Z@4QBDB 2010bb24     libucrt:atof.obj
 0002:0001bb28       ?inf_lowercase@?2???$parse_floating_point_possible_infinity@DV?$c_string_character_source@D@__crt_strtox@@PBD@__crt_strtox@@YA?AW4floating_point_parse_result@1@AADAAV?$c_string_character_source@D@1@PBD@Z@4QBDB 2010bb28     libucrt:atof.obj
 0002:0001bb2c       ?inity_uppercase@?5???$parse_floating_point_possible_infinity@DV?$c_string_character_source@D@__crt_strtox@@PBD@__crt_strtox@@YA?AW4floating_point_parse_result@1@AADAAV?$c_string_character_source@D@1@PBD@Z@4QBDB 2010bb2c     libucrt:atof.obj
 0002:0001bb34       ?inity_lowercase@?5???$parse_floating_point_possible_infinity@DV?$c_string_character_source@D@__crt_strtox@@PBD@__crt_strtox@@YA?AW4floating_point_parse_result@1@AADAAV?$c_string_character_source@D@1@PBD@Z@4QBDB 2010bb34     libucrt:atof.obj
 0002:0001bb3c       ?uppercase@?2???$parse_floating_point_possible_nan@DV?$c_string_character_source@D@__crt_strtox@@PBD@__crt_strtox@@YA?AW4floating_point_parse_result@1@AADAAV?$c_string_character_source@D@1@PBD@Z@4QBDB 2010bb3c     libucrt:atof.obj
 0002:0001bb40       ?lowercase@?2???$parse_floating_point_possible_nan@DV?$c_string_character_source@D@__crt_strtox@@PBD@__crt_strtox@@YA?AW4floating_point_parse_result@1@AADAAV?$c_string_character_source@D@1@PBD@Z@4QBDB 2010bb40     libucrt:atof.obj
 0002:0001bb44       ?uppercase@?1???$parse_floating_point_possible_nan_is_snan@DV?$c_string_character_source@D@__crt_strtox@@@__crt_strtox@@YA_NAADAAV?$c_string_character_source@D@1@@Z@4QBDB 2010bb44     libucrt:atof.obj
 0002:0001bb4c       ?lowercase@?1???$parse_floating_point_possible_nan_is_snan@DV?$c_string_character_source@D@__crt_strtox@@@__crt_strtox@@YA_NAADAAV?$c_string_character_source@D@1@@Z@4QBDB 2010bb4c     libucrt:atof.obj
 0002:0001bb54       ?uppercase@?1???$parse_floating_point_possible_nan_is_ind@DV?$c_string_character_source@D@__crt_strtox@@@__crt_strtox@@YA_NAADAAV?$c_string_character_source@D@1@@Z@4QBDB 2010bb54     libucrt:atof.obj
 0002:0001bb58       ?lowercase@?1???$parse_floating_point_possible_nan_is_ind@DV?$c_string_character_source@D@__crt_strtox@@@__crt_strtox@@YA_NAADAAV?$c_string_character_source@D@1@@Z@4QBDB 2010bb58     libucrt:atof.obj
 0002:0001bb60       ?constraints@?1??is_length_valid@__crt_stdio_input@@YA_NW4conversion_mode@2@W4length_modifier@2@@Z@4QAY0M@$$CBEA 2010bb60     libucrt:input.obj
 0002:0001bbd8       ?inf_uppercase@?2???$parse_floating_point_possible_infinity@DV?$input_adapter_character_source@V?$string_input_adapter@D@__crt_stdio_input@@@__crt_strtox@@_K@__crt_strtox@@YA?AW4floating_point_parse_result@1@AADAAV?$input_adapter_character_source@V?$string_input_adapter@D@__crt_stdio_input@@@1@_K@Z@4QBDB 2010bbd8     libucrt:input.obj
 0002:0001bbdc       ?inf_lowercase@?2???$parse_floating_point_possible_infinity@DV?$input_adapter_character_source@V?$string_input_adapter@D@__crt_stdio_input@@@__crt_strtox@@_K@__crt_strtox@@YA?AW4floating_point_parse_result@1@AADAAV?$input_adapter_character_source@V?$string_input_adapter@D@__crt_stdio_input@@@1@_K@Z@4QBDB 2010bbdc     libucrt:input.obj
 0002:0001bbe0       ?inity_uppercase@?5???$parse_floating_point_possible_infinity@DV?$input_adapter_character_source@V?$string_input_adapter@D@__crt_stdio_input@@@__crt_strtox@@_K@__crt_strtox@@YA?AW4floating_point_parse_result@1@AADAAV?$input_adapter_character_source@V?$string_input_adapter@D@__crt_stdio_input@@@1@_K@Z@4QBDB 2010bbe0     libucrt:input.obj
 0002:0001bbe8       ?inity_lowercase@?5???$parse_floating_point_possible_infinity@DV?$input_adapter_character_source@V?$string_input_adapter@D@__crt_stdio_input@@@__crt_strtox@@_K@__crt_strtox@@YA?AW4floating_point_parse_result@1@AADAAV?$input_adapter_character_source@V?$string_input_adapter@D@__crt_stdio_input@@@1@_K@Z@4QBDB 2010bbe8     libucrt:input.obj
 0002:0001bbf0       ?uppercase@?2???$parse_floating_point_possible_nan@DV?$input_adapter_character_source@V?$string_input_adapter@D@__crt_stdio_input@@@__crt_strtox@@_K@__crt_strtox@@YA?AW4floating_point_parse_result@1@AADAAV?$input_adapter_character_source@V?$string_input_adapter@D@__crt_stdio_input@@@1@_K@Z@4QBDB 2010bbf0     libucrt:input.obj
 0002:0001bbf4       ?lowercase@?2???$parse_floating_point_possible_nan@DV?$input_adapter_character_source@V?$string_input_adapter@D@__crt_stdio_input@@@__crt_strtox@@_K@__crt_strtox@@YA?AW4floating_point_parse_result@1@AADAAV?$input_adapter_character_source@V?$string_input_adapter@D@__crt_stdio_input@@@1@_K@Z@4QBDB 2010bbf4     libucrt:input.obj
 0002:0001bbf8       ?uppercase@?1???$parse_floating_point_possible_nan_is_snan@DV?$input_adapter_character_source@V?$string_input_adapter@D@__crt_stdio_input@@@__crt_strtox@@@__crt_strtox@@YA_NAADAAV?$input_adapter_character_source@V?$string_input_adapter@D@__crt_stdio_input@@@1@@Z@4QBDB 2010bbf8     libucrt:input.obj
 0002:0001bc00       ?lowercase@?1???$parse_floating_point_possible_nan_is_snan@DV?$input_adapter_character_source@V?$string_input_adapter@D@__crt_stdio_input@@@__crt_strtox@@@__crt_strtox@@YA_NAADAAV?$input_adapter_character_source@V?$string_input_adapter@D@__crt_stdio_input@@@1@@Z@4QBDB 2010bc00     libucrt:input.obj
 0002:0001bc08       ?uppercase@?1???$parse_floating_point_possible_nan_is_ind@DV?$input_adapter_character_source@V?$string_input_adapter@D@__crt_stdio_input@@@__crt_strtox@@@__crt_strtox@@YA_NAADAAV?$input_adapter_character_source@V?$string_input_adapter@D@__crt_stdio_input@@@1@@Z@4QBDB 2010bc08     libucrt:input.obj
 0002:0001bc0c       ?lowercase@?1???$parse_floating_point_possible_nan_is_ind@DV?$input_adapter_character_source@V?$string_input_adapter@D@__crt_stdio_input@@@__crt_strtox@@@__crt_strtox@@YA_NAADAAV?$input_adapter_character_source@V?$string_input_adapter@D@__crt_stdio_input@@@1@@Z@4QBDB 2010bc0c     libucrt:input.obj
 0002:0001be00       _standard_lookup_table     2010be00     libucrt:output.obj
 0002:0001be5c       ??_C@_06OJHGLDPL@?$CInull?$CJ?$AA@ 2010be5c     libucrt:output.obj
 0002:0001be64       ??_C@_1O@CEDCILHN@?$AA?$CI?$AAn?$AAu?$AAl?$AAl?$AA?$CJ?$AA?$AA@ 2010be64     libucrt:output.obj
 0002:0001bfa0       __OP_FMODjmptab            2010bfa0     libucrt:87fmod.obj
 0002:0001bff0       ??_C@_04FJHINJAO@tanh?$AA@ 2010bff0     libucrt:fpexcept.obj
 0002:0001bff8       ??_C@_04FIHNOPOL@asin?$AA@ 2010bff8     libucrt:fpexcept.obj
 0002:0001c000       ??_C@_04PDIFKINK@acos?$AA@ 2010c000     libucrt:fpexcept.obj
 0002:0001c008       ??_C@_04MLLJIGOK@atan?$AA@ 2010c008     libucrt:fpexcept.obj
 0002:0001c010       ??_C@_05KNGEOGJB@atan2?$AA@ 2010c010     libucrt:fpexcept.obj
 0002:0001c018       ??_C@_04EIAKFFMI@sqrt?$AA@ 2010c018     libucrt:fpexcept.obj
 0002:0001c020       ??_C@_03BLEJJJBH@sin?$AA@  2010c020     libucrt:fpexcept.obj
 0002:0001c024       ??_C@_03LALBNOCG@cos?$AA@  2010c024     libucrt:fpexcept.obj
 0002:0001c028       ??_C@_03IIINPABG@tan?$AA@  2010c028     libucrt:fpexcept.obj
 0002:0001c02c       ??_C@_04GFPJNGEK@ceil?$AA@ 2010c02c     libucrt:fpexcept.obj
 0002:0001c034       ??_C@_05PBJFFIGL@floor?$AA@ 2010c034     libucrt:fpexcept.obj
 0002:0001c03c       ??_C@_04ODHECPBC@fabs?$AA@ 2010c03c     libucrt:fpexcept.obj
 0002:0001c044       ??_C@_04EHEDPDJG@modf?$AA@ 2010c044     libucrt:fpexcept.obj
 0002:0001c04c       ??_C@_05CEJMAHNP@ldexp?$AA@ 2010c04c     libucrt:fpexcept.obj
 0002:0001c054       ??_C@_05KBKMEMPO@_cabs?$AA@ 2010c054     libucrt:fpexcept.obj
 0002:0001c05c       ??_C@_06MEIMCGCF@_hypot?$AA@ 2010c05c     libucrt:fpexcept.obj
 0002:0001c064       ??_C@_04KEPJIHGP@fmod?$AA@ 2010c064     libucrt:fpexcept.obj
 0002:0001c06c       ??_C@_05GKKHEGJL@frexp?$AA@ 2010c06c     libucrt:fpexcept.obj
 0002:0001c074       ??_C@_03MJLDFKDL@_y0?$AA@  2010c074     libucrt:fpexcept.obj
 0002:0001c078       ??_C@_03NAKIGLHK@_y1?$AA@  2010c078     libucrt:fpexcept.obj
 0002:0001c07c       ??_C@_03ONILCKOB@_yn?$AA@  2010c07c     libucrt:fpexcept.obj
 0002:0001c080       ??_C@_05JGDBENOH@_logb?$AA@ 2010c080     libucrt:fpexcept.obj
 0002:0001c088       ??_C@_0L@KDOEJCKC@_nextafter?$AA@ 2010c088     libucrt:fpexcept.obj
 0002:0001c180       ??_C@_03KHJOGHMM@exp?$AA@  2010c180     libucrt:fpexcept.obj
 0002:0001c184       ??_C@_03JGHBODFD@pow?$AA@  2010c184     libucrt:fpexcept.obj
 0002:0001c188       ??_C@_03MGHMBJCF@log?$AA@  2010c188     libucrt:fpexcept.obj
 0002:0001c18c       ??_C@_05HGHHAHAP@log10?$AA@ 2010c18c     libucrt:fpexcept.obj
 0002:0001c194       ??_C@_04COOMCNPB@sinh?$AA@ 2010c194     libucrt:fpexcept.obj
 0002:0001c19c       ??_C@_04HPJJNFIM@cosh?$AA@ 2010c19c     libucrt:fpexcept.obj
 0002:0001c1a8       ___acrt_exception_action_table 2010c1a8     libucrt:exception_filter.obj
 0002:0001c238       ___acrt_signal_action_table_count 2010c238     libucrt:exception_filter.obj
 0002:0001c23c       ___acrt_signal_action_first_fpe_index 2010c23c     libucrt:exception_filter.obj
 0002:0001c240       ___acrt_signal_action_fpe_count 2010c240     libucrt:exception_filter.obj
 0002:0001c244       ??_C@_1BI@BGOHAHKC@?$AAm?$AAs?$AAc?$AAo?$AAr?$AAe?$AAe?$AA?4?$AAd?$AAl?$AAl?$AA?$AA@ 2010c244     libucrt:exit.obj
 0002:0001c25c       ??_C@_0P@MIGLKIOC@CorExitProcess?$AA@ 2010c25c     libucrt:exit.obj
 0002:0001c460       ___newctype                2010c460     libucrt:ctype.obj
 0002:0001c760       ___newclmap                2010c760     libucrt:ctype.obj
 0002:0001c8e0       ___newcumap                2010c8e0     libucrt:ctype.obj
 0002:0001ca60       ??_C@_03KOEHGMDN@Sun?$AA@  2010ca60     libucrt:nlsdata.obj
 0002:0001ca64       ??_C@_03PDAGKDH@Mon?$AA@   2010ca64     libucrt:nlsdata.obj
 0002:0001ca68       ??_C@_03NAGEINEP@Tue?$AA@  2010ca68     libucrt:nlsdata.obj
 0002:0001ca6c       ??_C@_03MHOMLAJA@Wed?$AA@  2010ca6c     libucrt:nlsdata.obj
 0002:0001ca70       ??_C@_03IOFIKPDN@Thu?$AA@  2010ca70     libucrt:nlsdata.obj
 0002:0001ca74       ??_C@_03IDIOELNC@Fri?$AA@  2010ca74     libucrt:nlsdata.obj
 0002:0001ca78       ??_C@_03FEFJNEK@Sat?$AA@   2010ca78     libucrt:nlsdata.obj
 0002:0001ca7c       ??_C@_06OOPIFAJ@Sunday?$AA@ 2010ca7c     libucrt:nlsdata.obj
 0002:0001ca84       ??_C@_06JLEDEDGH@Monday?$AA@ 2010ca84     libucrt:nlsdata.obj
 0002:0001ca8c       ??_C@_07BAAGCFCM@Tuesday?$AA@ 2010ca8c     libucrt:nlsdata.obj
 0002:0001ca94       ??_C@_09DLIGFAKA@Wednesday?$AA@ 2010ca94     libucrt:nlsdata.obj
 0002:0001caa0       ??_C@_08HACCIKIA@Thursday?$AA@ 2010caa0     libucrt:nlsdata.obj
 0002:0001caac       ??_C@_06JECMNKMI@Friday?$AA@ 2010caac     libucrt:nlsdata.obj
 0002:0001cab4       ??_C@_08INBOOONO@Saturday?$AA@ 2010cab4     libucrt:nlsdata.obj
 0002:0001cac0       ??_C@_03HJBDCHOM@Feb?$AA@  2010cac0     libucrt:nlsdata.obj
 0002:0001cac4       ??_C@_03ODNJBKGA@Mar?$AA@  2010cac4     libucrt:nlsdata.obj
 0002:0001cac8       ??_C@_03LEOLGMJP@Apr?$AA@  2010cac8     libucrt:nlsdata.obj
 0002:0001cacc       ??_C@_03CNMDKL@May?$AA@    2010cacc     libucrt:nlsdata.obj
 0002:0001cad0       ??_C@_03IDFGHECI@Jun?$AA@  2010cad0     libucrt:nlsdata.obj
 0002:0001cad4       ??_C@_03LBGABGKK@Jul?$AA@  2010cad4     libucrt:nlsdata.obj
 0002:0001cad8       ??_C@_03IFJFEIGA@Aug?$AA@  2010cad8     libucrt:nlsdata.obj
 0002:0001cadc       ??_C@_03GGCAPAJC@Sep?$AA@  2010cadc     libucrt:nlsdata.obj
 0002:0001cae0       ??_C@_03BMAOKBAD@Oct?$AA@  2010cae0     libucrt:nlsdata.obj
 0002:0001cae4       ??_C@_03JPJOFNIA@Nov?$AA@  2010cae4     libucrt:nlsdata.obj
 0002:0001cae8       ??_C@_03MKABNOCG@Dec?$AA@  2010cae8     libucrt:nlsdata.obj
 0002:0001caec       ??_C@_07CGJPFGJA@January?$AA@ 2010caec     libucrt:nlsdata.obj
 0002:0001caf4       ??_C@_08GNJGEPFN@February?$AA@ 2010caf4     libucrt:nlsdata.obj
 0002:0001cb00       ??_C@_05HPCKOFNC@March?$AA@ 2010cb00     libucrt:nlsdata.obj
 0002:0001cb08       ??_C@_05DMJDNLEJ@April?$AA@ 2010cb08     libucrt:nlsdata.obj
 0002:0001cb10       ??_C@_04CNLMGBGM@June?$AA@ 2010cb10     libucrt:nlsdata.obj
 0002:0001cb18       ??_C@_04MIEPOIFP@July?$AA@ 2010cb18     libucrt:nlsdata.obj
 0002:0001cb20       ??_C@_06LBBHFDDG@August?$AA@ 2010cb20     libucrt:nlsdata.obj
 0002:0001cb28       ??_C@_09BHHEALKD@September?$AA@ 2010cb28     libucrt:nlsdata.obj
 0002:0001cb34       ??_C@_07JJNFCEND@October?$AA@ 2010cb34     libucrt:nlsdata.obj
 0002:0001cb3c       ??_C@_08HCHEGEOA@November?$AA@ 2010cb3c     libucrt:nlsdata.obj
 0002:0001cb48       ??_C@_08EDHMEBNP@December?$AA@ 2010cb48     libucrt:nlsdata.obj
 0002:0001cb54       ??_C@_02DEDBPAFC@AM?$AA@   2010cb54     libucrt:nlsdata.obj
 0002:0001cb58       ??_C@_02CJNFDJBF@PM?$AA@   2010cb58     libucrt:nlsdata.obj
 0002:0001cb5c       ??_C@_08BPBNCDIB@MM?1dd?1yy?$AA@ 2010cb5c     libucrt:nlsdata.obj
 0002:0001cb68       ??_C@_0BE@CKGJFCPC@dddd?0?5MMMM?5dd?0?5yyyy?$AA@ 2010cb68     libucrt:nlsdata.obj
 0002:0001cb7c       ??_C@_08JCCMCCIL@HH?3mm?3ss?$AA@ 2010cb7c     libucrt:nlsdata.obj
 0002:0001cb88       ??_C@_17MBGCMIPB@?$AAS?$AAu?$AAn?$AA?$AA@ 2010cb88     libucrt:nlsdata.obj
 0002:0001cb90       ??_C@_17KBOMKBF@?$AAM?$AAo?$AAn?$AA?$AA@ 2010cb90     libucrt:nlsdata.obj
 0002:0001cb98       ??_C@_17BMKGEGOJ@?$AAT?$AAu?$AAe?$AA?$AA@ 2010cb98     libucrt:nlsdata.obj
 0002:0001cba0       ??_C@_17CJEDCEPE@?$AAW?$AAe?$AAd?$AA?$AA@ 2010cba0     libucrt:nlsdata.obj
 0002:0001cba8       ??_C@_17PDPHAADD@?$AAT?$AAh?$AAu?$AA?$AA@ 2010cba8     libucrt:nlsdata.obj
 0002:0001cbb0       ??_C@_17HFOLPPLP@?$AAF?$AAr?$AAi?$AA?$AA@ 2010cbb0     libucrt:nlsdata.obj
 0002:0001cbb8       ??_C@_17GGIBDPIH@?$AAS?$AAa?$AAt?$AA?$AA@ 2010cbb8     libucrt:nlsdata.obj
 0002:0001cbc0       ??_C@_1O@IHNHDHPB@?$AAS?$AAu?$AAn?$AAd?$AAa?$AAy?$AA?$AA@ 2010cbc0     libucrt:nlsdata.obj
 0002:0001cbd0       ??_C@_1O@MMNBFLIA@?$AAM?$AAo?$AAn?$AAd?$AAa?$AAy?$AA?$AA@ 2010cbd0     libucrt:nlsdata.obj
 0002:0001cbe0       ??_C@_1BA@ENFBFFEK@?$AAT?$AAu?$AAe?$AAs?$AAd?$AAa?$AAy?$AA?$AA@ 2010cbe0     libucrt:nlsdata.obj
 0002:0001cbf0       ??_C@_1BE@EBOGMDOH@?$AAW?$AAe?$AAd?$AAn?$AAe?$AAs?$AAd?$AAa?$AAy?$AA?$AA@ 2010cbf0     libucrt:nlsdata.obj
 0002:0001cc04       ??_C@_1BC@HHMNLIHE@?$AAT?$AAh?$AAu?$AAr?$AAs?$AAd?$AAa?$AAy?$AA?$AA@ 2010cc04     libucrt:nlsdata.obj
 0002:0001cc18       ??_C@_1O@PDICJHAG@?$AAF?$AAr?$AAi?$AAd?$AAa?$AAy?$AA?$AA@ 2010cc18     libucrt:nlsdata.obj
 0002:0001cc28       ??_C@_1BC@ENMNNPAJ@?$AAS?$AAa?$AAt?$AAu?$AAr?$AAd?$AAa?$AAy?$AA?$AA@ 2010cc28     libucrt:nlsdata.obj
 0002:0001cc3c       ??_C@_17DKNBKCHM@?$AAJ?$AAa?$AAn?$AA?$AA@ 2010cc3c     libucrt:nlsdata.obj
 0002:0001cc44       ??_C@_17LMDJEKJN@?$AAF?$AAe?$AAb?$AA?$AA@ 2010cc44     libucrt:nlsdata.obj
 0002:0001cc4c       ??_C@_17CKNLEDEC@?$AAM?$AAa?$AAr?$AA?$AA@ 2010cc4c     libucrt:nlsdata.obj
 0002:0001cc54       ??_C@_17LFPOIHDD@?$AAA?$AAp?$AAr?$AA?$AA@ 2010cc54     libucrt:nlsdata.obj
 0002:0001cc5c       ??_C@_17PNNKMEED@?$AAM?$AAa?$AAy?$AA?$AA@ 2010cc5c     libucrt:nlsdata.obj
 0002:0001cc64       ??_C@_17KCJGOCPB@?$AAJ?$AAu?$AAn?$AA?$AA@ 2010cc64     libucrt:nlsdata.obj
 0002:0001cc6c       ??_C@_17IJPCKHK@?$AAJ?$AAu?$AAl?$AA?$AA@ 2010cc6c     libucrt:nlsdata.obj
 0002:0001cc74       ??_C@_17ICPELBCN@?$AAA?$AAu?$AAg?$AA?$AA@ 2010cc74     libucrt:nlsdata.obj
 0002:0001cc7c       ??_C@_17HCHCOKMG@?$AAS?$AAe?$AAp?$AA?$AA@ 2010cc7c     libucrt:nlsdata.obj
 0002:0001cc84       ??_C@_17FNLKOI@?$AAO?$AAc?$AAt?$AA?$AA@ 2010cc84     libucrt:nlsdata.obj
 0002:0001cc8c       ??_C@_17BBDMLCIG@?$AAN?$AAo?$AAv?$AA?$AA@ 2010cc8c     libucrt:nlsdata.obj
 0002:0001cc94       ??_C@_17EGKACKIF@?$AAD?$AAe?$AAc?$AA?$AA@ 2010cc94     libucrt:nlsdata.obj
 0002:0001cc9c       ??_C@_1BA@EFMEIEBA@?$AAJ?$AAa?$AAn?$AAu?$AAa?$AAr?$AAy?$AA?$AA@ 2010cc9c     libucrt:nlsdata.obj
 0002:0001ccac       ??_C@_1BC@JGDDFFAM@?$AAF?$AAe?$AAb?$AAr?$AAu?$AAa?$AAr?$AAy?$AA?$AA@ 2010ccac     libucrt:nlsdata.obj
 0002:0001ccc0       ??_C@_1M@IKEENEDF@?$AAM?$AAa?$AAr?$AAc?$AAh?$AA?$AA@ 2010ccc0     libucrt:nlsdata.obj
 0002:0001cccc       ??_C@_1M@GJNLMHFD@?$AAA?$AAp?$AAr?$AAi?$AAl?$AA?$AA@ 2010cccc     libucrt:nlsdata.obj
 0002:0001ccd8       ??_C@_19EPFLPGAP@?$AAJ?$AAu?$AAn?$AAe?$AA?$AA@ 2010ccd8     libucrt:nlsdata.obj
 0002:0001cce4       ??_C@_19BIFMLPCD@?$AAJ?$AAu?$AAl?$AAy?$AA?$AA@ 2010cce4     libucrt:nlsdata.obj
 0002:0001ccf0       ??_C@_1O@PAHLKOAC@?$AAA?$AAu?$AAg?$AAu?$AAs?$AAt?$AA?$AA@ 2010ccf0     libucrt:nlsdata.obj
 0002:0001cd00       ??_C@_1BE@DKAAMBJL@?$AAS?$AAe?$AAp?$AAt?$AAe?$AAm?$AAb?$AAe?$AAr?$AA?$AA@ 2010cd00     libucrt:nlsdata.obj
 0002:0001cd14       ??_C@_1BA@EPANDLNG@?$AAO?$AAc?$AAt?$AAo?$AAb?$AAe?$AAr?$AA?$AA@ 2010cd14     libucrt:nlsdata.obj
 0002:0001cd24       ??_C@_1BC@BGLIFPF@?$AAN?$AAo?$AAv?$AAe?$AAm?$AAb?$AAe?$AAr?$AA?$AA@ 2010cd24     libucrt:nlsdata.obj
 0002:0001cd38       ??_C@_1BC@FEMKIFH@?$AAD?$AAe?$AAc?$AAe?$AAm?$AAb?$AAe?$AAr?$AA?$AA@ 2010cd38     libucrt:nlsdata.obj
 0002:0001cd4c       ??_C@_15ODEHAHHF@?$AAA?$AAM?$AA?$AA@ 2010cd4c     libucrt:nlsdata.obj
 0002:0001cd54       ??_C@_15CLMNNGEL@?$AAP?$AAM?$AA?$AA@ 2010cd54     libucrt:nlsdata.obj
 0002:0001cd5c       ??_C@_1BC@IEBCMHCM@?$AAM?$AAM?$AA?1?$AAd?$AAd?$AA?1?$AAy?$AAy?$AA?$AA@ 2010cd5c     libucrt:nlsdata.obj
 0002:0001cd70       ??_C@_1CI@KNAKOEBC@?$AAd?$AAd?$AAd?$AAd?$AA?0?$AA?5?$AAM?$AAM?$AAM?$AAM?$AA?5?$AAd?$AAd?$AA?0?$AA?5?$AAy?$AAy?$AAy?$AAy?$AA?$AA@ 2010cd70     libucrt:nlsdata.obj
 0002:0001cd98       ??_C@_1BC@GDGBMEMK@?$AAH?$AAH?$AA?3?$AAm?$AAm?$AA?3?$AAs?$AAs?$AA?$AA@ 2010cd98     libucrt:nlsdata.obj
 0002:0001cdac       ??_C@_1M@BMHNFIME@?$AAe?$AAn?$AA?9?$AAU?$AAS?$AA?$AA@ 2010cdac     libucrt:nlsdata.obj
 0002:0001cdb8       ___lc_time_c               2010cdb8     libucrt:nlsdata.obj
 0002:0001cf20       __OP_ATAN2jmptab           2010cf20     libucrt:87triga.obj
 0002:0001cfb0       ___acrt_cos_sin_ctable     2010cfb0     libucrt:cos_sin_ctable.obj
 0002:0001d7b8       ??_C@_03OEIAHPBN@INF?$AA@  2010d7b8     libucrt:cvt.obj
 0002:0001d7bc       ??_C@_03OJHLLCGB@inf?$AA@  2010d7bc     libucrt:cvt.obj
 0002:0001d7c0       ??_C@_03LKNCIKJB@NAN?$AA@  2010d7c0     libucrt:cvt.obj
 0002:0001d7c4       ??_C@_03LHCJEHON@nan?$AA@  2010d7c4     libucrt:cvt.obj
 0002:0001d7c8       ??_C@_09OFJJIMPC@NAN?$CISNAN?$CJ?$AA@ 2010d7c8     libucrt:cvt.obj
 0002:0001d7d4       ??_C@_09IPFBKMDL@nan?$CIsnan?$CJ?$AA@ 2010d7d4     libucrt:cvt.obj
 0002:0001d7e0       ??_C@_08IKHNHAJ@NAN?$CIIND?$CJ?$AA@ 2010d7e0     libucrt:cvt.obj
 0002:0001d7ec       ??_C@_08OFCDMILK@nan?$CIind?$CJ?$AA@ 2010d7ec     libucrt:cvt.obj
 0002:0001d7f8       ??_C@_05KLBDPFGC@e?$CL000?$AA@ 2010d7f8     libucrt:cvt.obj
 0002:0001d810       ___acrt_acos_asin_tbl_addr 2010d810     libucrt:acos_asin_tbl_addr.obj
 0002:0001e710       ___acrt_acos_asin_t_table  2010e710     libucrt:acos_asin_t_table.obj
 0002:0001ef10       __indefinite               2010ef10     libucrt:87disp.obj
 0002:0001ef1a       __piby2                    2010ef1a     libucrt:87disp.obj
 0002:0001ef24       __piby4                    2010ef24     libucrt:87disp.obj
 0002:0001ef50       __d_inf                    2010ef50     libucrt:util.obj
 0002:0001ef58       __d_max                    2010ef58     libucrt:util.obj
 0002:0001ef60       __d_mzero                  2010ef60     libucrt:util.obj
 0002:0001efd0       ??_C@_1EG@CNNIPFIM@?$AAa?$AAp?$AAi?$AA?9?$AAm?$AAs?$AA?9?$AAw?$AAi?$AAn?$AA?9?$AAa?$AAp?$AAp?$AAm?$AAo?$AAd?$AAe?$AAl?$AA?9?$AAr?$AAu?$AAn?$AAt?$AAi?$AAm?$AAe?$AA?9?$AAl?$AA1?$AA?9?$AA1@ 2010efd0     libucrt:winapi_thunks.obj
 0002:0001f018       ??_C@_1EA@JGEFHKEI@?$AAa?$AAp?$AAi?$AA?9?$AAm?$AAs?$AA?9?$AAw?$AAi?$AAn?$AA?9?$AAc?$AAo?$AAr?$AAe?$AA?9?$AAd?$AAa?$AAt?$AAe?$AAt?$AAi?$AAm?$AAe?$AA?9?$AAl?$AA1?$AA?9?$AA1?$AA?9?$AA1?$AA?$AA@ 2010f018     libucrt:winapi_thunks.obj
 0002:0001f058       ??_C@_1DI@GCIAAENM@?$AAa?$AAp?$AAi?$AA?9?$AAm?$AAs?$AA?9?$AAw?$AAi?$AAn?$AA?9?$AAc?$AAo?$AAr?$AAe?$AA?9?$AAf?$AAi?$AAl?$AAe?$AA?9?$AAl?$AA2?$AA?9?$AA1?$AA?9?$AA1?$AA?$AA@ 2010f058     libucrt:winapi_thunks.obj
 0002:0001f090       ??_C@_1EI@MPIAOHOC@?$AAa?$AAp?$AAi?$AA?9?$AAm?$AAs?$AA?9?$AAw?$AAi?$AAn?$AA?9?$AAc?$AAo?$AAr?$AAe?$AA?9?$AAl?$AAo?$AAc?$AAa?$AAl?$AAi?$AAz?$AAa?$AAt?$AAi?$AAo?$AAn?$AA?9?$AAl?$AA1?$AA?9@ 2010f090     libucrt:winapi_thunks.obj
 0002:0001f0d8       ??_C@_1FK@FPHCKFIE@?$AAa?$AAp?$AAi?$AA?9?$AAm?$AAs?$AA?9?$AAw?$AAi?$AAn?$AA?9?$AAc?$AAo?$AAr?$AAe?$AA?9?$AAl?$AAo?$AAc?$AAa?$AAl?$AAi?$AAz?$AAa?$AAt?$AAi?$AAo?$AAn?$AA?9?$AAo?$AAb?$AAs@ 2010f0d8     libucrt:winapi_thunks.obj
 0002:0001f138       ??_C@_1EM@DILCGIIO@?$AAa?$AAp?$AAi?$AA?9?$AAm?$AAs?$AA?9?$AAw?$AAi?$AAn?$AA?9?$AAc?$AAo?$AAr?$AAe?$AA?9?$AAp?$AAr?$AAo?$AAc?$AAe?$AAs?$AAs?$AAt?$AAh?$AAr?$AAe?$AAa?$AAd?$AAs?$AA?9?$AAl@ 2010f138     libucrt:winapi_thunks.obj
 0002:0001f184       ??_C@_1DM@LNCGDDPN@?$AAa?$AAp?$AAi?$AA?9?$AAm?$AAs?$AA?9?$AAw?$AAi?$AAn?$AA?9?$AAc?$AAo?$AAr?$AAe?$AA?9?$AAs?$AAt?$AAr?$AAi?$AAn?$AAg?$AA?9?$AAl?$AA1?$AA?9?$AA1?$AA?9?$AA0?$AA?$AA@ 2010f184     libucrt:winapi_thunks.obj
 0002:0001f1c0       ??_C@_1DO@FPAPJEMD@?$AAa?$AAp?$AAi?$AA?9?$AAm?$AAs?$AA?9?$AAw?$AAi?$AAn?$AA?9?$AAc?$AAo?$AAr?$AAe?$AA?9?$AAs?$AAy?$AAs?$AAi?$AAn?$AAf?$AAo?$AA?9?$AAl?$AA1?$AA?9?$AA2?$AA?9?$AA1?$AA?$AA@ 2010f1c0     libucrt:winapi_thunks.obj
 0002:0001f200       ??_C@_1DK@NDHNAHIO@?$AAa?$AAp?$AAi?$AA?9?$AAm?$AAs?$AA?9?$AAw?$AAi?$AAn?$AA?9?$AAc?$AAo?$AAr?$AAe?$AA?9?$AAw?$AAi?$AAn?$AAr?$AAt?$AA?9?$AAl?$AA1?$AA?9?$AA1?$AA?9?$AA0?$AA?$AA@ 2010f200     libucrt:winapi_thunks.obj
 0002:0001f23c       ??_C@_1DM@KGHDGBCM@?$AAa?$AAp?$AAi?$AA?9?$AAm?$AAs?$AA?9?$AAw?$AAi?$AAn?$AA?9?$AAc?$AAo?$AAr?$AAe?$AA?9?$AAx?$AAs?$AAt?$AAa?$AAt?$AAe?$AA?9?$AAl?$AA2?$AA?9?$AA1?$AA?9?$AA0?$AA?$AA@ 2010f23c     libucrt:winapi_thunks.obj
 0002:0001f278       ??_C@_1EO@IJIOEFOH@?$AAa?$AAp?$AAi?$AA?9?$AAm?$AAs?$AA?9?$AAw?$AAi?$AAn?$AA?9?$AAr?$AAt?$AAc?$AAo?$AAr?$AAe?$AA?9?$AAn?$AAt?$AAu?$AAs?$AAe?$AAr?$AA?9?$AAw?$AAi?$AAn?$AAd?$AAo?$AAw?$AA?9@ 2010f278     libucrt:winapi_thunks.obj
 0002:0001f2c8       ??_C@_1FG@HHGEKANL@?$AAa?$AAp?$AAi?$AA?9?$AAm?$AAs?$AA?9?$AAw?$AAi?$AAn?$AA?9?$AAs?$AAe?$AAc?$AAu?$AAr?$AAi?$AAt?$AAy?$AA?9?$AAs?$AAy?$AAs?$AAt?$AAe?$AAm?$AAf?$AAu?$AAn?$AAc?$AAt?$AAi@ 2010f2c8     libucrt:winapi_thunks.obj
 0002:0001f320       ??_C@_1FG@NCKKOLKO@?$AAe?$AAx?$AAt?$AA?9?$AAm?$AAs?$AA?9?$AAw?$AAi?$AAn?$AA?9?$AAk?$AAe?$AAr?$AAn?$AAe?$AAl?$AA3?$AA2?$AA?9?$AAp?$AAa?$AAc?$AAk?$AAa?$AAg?$AAe?$AA?9?$AAc?$AAu?$AAr?$AAr@ 2010f320     libucrt:winapi_thunks.obj
 0002:0001f378       ??_C@_1EG@DBIOJECG@?$AAe?$AAx?$AAt?$AA?9?$AAm?$AAs?$AA?9?$AAw?$AAi?$AAn?$AA?9?$AAn?$AAt?$AAu?$AAs?$AAe?$AAr?$AA?9?$AAd?$AAi?$AAa?$AAl?$AAo?$AAg?$AAb?$AAo?$AAx?$AA?9?$AAl?$AA1?$AA?9?$AA1@ 2010f378     libucrt:winapi_thunks.obj
 0002:0001f3c0       ??_C@_1EO@FIHMJCLF@?$AAe?$AAx?$AAt?$AA?9?$AAm?$AAs?$AA?9?$AAw?$AAi?$AAn?$AA?9?$AAn?$AAt?$AAu?$AAs?$AAe?$AAr?$AA?9?$AAw?$AAi?$AAn?$AAd?$AAo?$AAw?$AAs?$AAt?$AAa?$AAt?$AAi?$AAo?$AAn?$AA?9@ 2010f3c0     libucrt:winapi_thunks.obj
 0002:0001f410       ??_C@_1O@BCCLBEOE@?$AAu?$AAs?$AAe?$AAr?$AA3?$AA2?$AA?$AA@ 2010f410     libucrt:winapi_thunks.obj
 0002:0001f448       ??_C@_0BE@JOGNEJCI@GetCurrentPackageId?$AA@ 2010f448     libucrt:winapi_thunks.obj
 0002:0001f46c       ??_C@_0O@KKBNKAPF@LCMapStringEx?$AA@ 2010f46c     libucrt:winapi_thunks.obj
 0002:0001f484       ??_C@_0BB@HBDEELFH@LocaleNameToLCID?$AA@ 2010f484     libucrt:winapi_thunks.obj
 0002:0001f4a8       ??_C@_1M@HPNHIDJI@?$AAj?$AAa?$AA?9?$AAJ?$AAP?$AA?$AA@ 2010f4a8     libucrt:mbctype.obj
 0002:0001f4b4       ??_C@_1M@BIBDDEMK@?$AAz?$AAh?$AA?9?$AAC?$AAN?$AA?$AA@ 2010f4b4     libucrt:mbctype.obj
 0002:0001f4c0       ??_C@_1M@JLOOOEGK@?$AAk?$AAo?$AA?9?$AAK?$AAR?$AA?$AA@ 2010f4c0     libucrt:mbctype.obj
 0002:0001f4cc       ??_C@_1M@CLNBBOPM@?$AAz?$AAh?$AA?9?$AAT?$AAW?$AA?$AA@ 2010f4cc     libucrt:mbctype.obj
 0002:0001f4e8       __DEFAULT_CW_in_mem        2010f4e8     libucrt:common.obj
 0002:0001f4ea       __pi_by_2_to_61            2010f4ea     libucrt:common.obj
 0002:0001f524       ??_C@_15PJPFLCCM@?$AAu?$AAk?$AA?$AA@ 2010f524     libucrt:get_qualified_locale.obj
 0002:0001f680       ??_C@_05DNEBIAHO@1?$CDINF?$AA@ 2010f680     libucrt:cfout.obj
 0002:0001f688       ??_C@_06IMKFLFPG@1?$CDQNAN?$AA@ 2010f688     libucrt:cfout.obj
 0002:0001f690       ??_C@_06PGGFOGJG@1?$CDSNAN?$AA@ 2010f690     libucrt:cfout.obj
 0002:0001f698       ??_C@_05PHHOCPM@1?$CDIND?$AA@ 2010f698     libucrt:cfout.obj
 0002:0001fee0       ??_C@_15EMKDOKLE@?$AAa?$AAr?$AA?$AA@ 2010fee0     libucrt:lcidtoname_downlevel.obj
 0002:0001fee8       ??_C@_15KNPADPLH@?$AAb?$AAg?$AA?$AA@ 2010fee8     libucrt:lcidtoname_downlevel.obj
 0002:0001fef0       ??_C@_15EDMHLDMO@?$AAc?$AAa?$AA?$AA@ 2010fef0     libucrt:lcidtoname_downlevel.obj
 0002:0001fef8       ??_C@_1O@BPEAJADD@?$AAz?$AAh?$AA?9?$AAC?$AAH?$AAS?$AA?$AA@ 2010fef8     libucrt:lcidtoname_downlevel.obj
 0002:0001ff08       ??_C@_15LJNHCMNK@?$AAc?$AAs?$AA?$AA@ 2010ff08     libucrt:lcidtoname_downlevel.obj
 0002:0001ff10       ??_C@_15FOMCIDHG@?$AAd?$AAa?$AA?$AA@ 2010ff10     libucrt:lcidtoname_downlevel.obj
 0002:0001ff18       ??_C@_15NBKABECB@?$AAd?$AAe?$AA?$AA@ 2010ff18     libucrt:lcidtoname_downlevel.obj
 0002:0001ff20       ??_C@_15GHPEIIAO@?$AAe?$AAl?$AA?$AA@ 2010ff20     libucrt:lcidtoname_downlevel.obj
 0002:0001ff28       ??_C@_15MNPNEAIF@?$AAe?$AAn?$AA?$AA@ 2010ff28     libucrt:lcidtoname_downlevel.obj
 0002:0001ff30       ??_C@_15GPIOMPMH@?$AAe?$AAs?$AA?$AA@ 2010ff30     libucrt:lcidtoname_downlevel.obj
 0002:0001ff38       ??_C@_15NGLOAKJC@?$AAf?$AAi?$AA?$AA@ 2010ff38     libucrt:lcidtoname_downlevel.obj
 0002:0001ff40       ??_C@_15FBKGNKAM@?$AAf?$AAr?$AA?$AA@ 2010ff40     libucrt:lcidtoname_downlevel.obj
 0002:0001ff48       ??_C@_15KGGCNEFK@?$AAh?$AAe?$AA?$AA@ 2010ff48     libucrt:lcidtoname_downlevel.obj
 0002:0001ff50       ??_C@_15PGHLIDMF@?$AAh?$AAu?$AA?$AA@ 2010ff50     libucrt:lcidtoname_downlevel.obj
 0002:0001ff58       ??_C@_15BIEMAPLM@?$AAi?$AAs?$AA?$AA@ 2010ff58     libucrt:lcidtoname_downlevel.obj
 0002:0001ff60       ??_C@_15IFJLDHAF@?$AAi?$AAt?$AA?$AA@ 2010ff60     libucrt:lcidtoname_downlevel.obj
 0002:0001ff68       ??_C@_15GEMIOCAG@?$AAj?$AAa?$AA?$AA@ 2010ff68     libucrt:lcidtoname_downlevel.obj
 0002:0001ff70       ??_C@_15EPELEGJA@?$AAk?$AAo?$AA?$AA@ 2010ff70     libucrt:lcidtoname_downlevel.obj
 0002:0001ff78       ??_C@_15NDDHIMN@?$AAn?$AAl?$AA?$AA@ 2010ff78     libucrt:lcidtoname_downlevel.obj
 0002:0001ff80       ??_C@_15BPIGNHCD@?$AAn?$AAo?$AA?$AA@ 2010ff80     libucrt:lcidtoname_downlevel.obj
 0002:0001ff88       ??_C@_15DEOPBLCG@?$AAp?$AAl?$AA?$AA@ 2010ff88     libucrt:lcidtoname_downlevel.obj
 0002:0001ff90       ??_C@_15KBECGEFG@?$AAp?$AAt?$AA?$AA@ 2010ff90     libucrt:lcidtoname_downlevel.obj
 0002:0001ff98       ??_C@_15GLJCBFMD@?$AAr?$AAo?$AA?$AA@ 2010ff98     libucrt:lcidtoname_downlevel.obj
 0002:0001ffa0       ??_C@_15FEDGKCDI@?$AAr?$AAu?$AA?$AA@ 2010ffa0     libucrt:lcidtoname_downlevel.obj
 0002:0001ffa8       ??_C@_15GLKMLLHM@?$AAh?$AAr?$AA?$AA@ 2010ffa8     libucrt:lcidtoname_downlevel.obj
 0002:0001ffb0       ??_C@_15CPKMFBDB@?$AAs?$AAk?$AA?$AA@ 2010ffb0     libucrt:lcidtoname_downlevel.obj
 0002:0001ffb8       ??_C@_15BAAIOGMK@?$AAs?$AAq?$AA?$AA@ 2010ffb8     libucrt:lcidtoname_downlevel.obj
 0002:0001ffc0       ??_C@_15INNPNOHD@?$AAs?$AAv?$AA?$AA@ 2010ffc0     libucrt:lcidtoname_downlevel.obj
 0002:0001ffc8       ??_C@_15CABMMOGH@?$AAt?$AAh?$AA?$AA@ 2010ffc8     libucrt:lcidtoname_downlevel.obj
 0002:0001ffd0       ??_C@_15BPLIHJJM@?$AAt?$AAr?$AA?$AA@ 2010ffd0     libucrt:lcidtoname_downlevel.obj
 0002:0001ffd8       ??_C@_15NEOEKKDJ@?$AAu?$AAr?$AA?$AA@ 2010ffd8     libucrt:lcidtoname_downlevel.obj
 0002:0001ffe0       ??_C@_15NFICGAJK@?$AAi?$AAd?$AA?$AA@ 2010ffe0     libucrt:lcidtoname_downlevel.obj
 0002:0001ffe8       ??_C@_15HPJPHDM@?$AAb?$AAe?$AA?$AA@ 2010ffe8     libucrt:lcidtoname_downlevel.obj
 0002:0001fff0       ??_C@_15LCHLGJII@?$AAs?$AAl?$AA?$AA@ 2010fff0     libucrt:lcidtoname_downlevel.obj
 0002:0001fff8       ??_C@_15PCFJPHHO@?$AAe?$AAt?$AA?$AA@ 2010fff8     libucrt:lcidtoname_downlevel.obj
 0002:00020000       ??_C@_15HPFPGODN@?$AAl?$AAv?$AA?$AA@ 20110000     libucrt:lcidtoname_downlevel.obj
 0002:00020008       ??_C@_15NFFGKGLG@?$AAl?$AAt?$AA?$AA@ 20110008     libucrt:lcidtoname_downlevel.obj
 0002:00020010       ??_C@_15BDAKCCHN@?$AAf?$AAa?$AA?$AA@ 20110010     libucrt:lcidtoname_downlevel.obj
 0002:00020018       ??_C@_15NFGIAIAJ@?$AAv?$AAi?$AA?$AA@ 20110018     libucrt:lcidtoname_downlevel.obj
 0002:00020020       ??_C@_15LMKNDMHN@?$AAh?$AAy?$AA?$AA@ 20110020     libucrt:lcidtoname_downlevel.obj
 0002:00020028       ??_C@_15IJBHMCFL@?$AAa?$AAz?$AA?$AA@ 20110028     libucrt:lcidtoname_downlevel.obj
 0002:00020030       ??_C@_15EKOFJABL@?$AAe?$AAu?$AA?$AA@ 20110030     libucrt:lcidtoname_downlevel.obj
 0002:00020038       ??_C@_15BGHADCNK@?$AAm?$AAk?$AA?$AA@ 20110038     libucrt:lcidtoname_downlevel.obj
 0002:00020040       ??_C@_15JDNICKHM@?$AAa?$AAf?$AA?$AA@ 20110040     libucrt:lcidtoname_downlevel.obj
 0002:00020048       ??_C@_15KPJEDBKD@?$AAk?$AAa?$AA?$AA@ 20110048     libucrt:lcidtoname_downlevel.obj
 0002:00020050       ??_C@_15PDNFFFEO@?$AAf?$AAo?$AA?$AA@ 20110050     libucrt:lcidtoname_downlevel.obj
 0002:00020058       ??_C@_15OMLEGLOC@?$AAh?$AAi?$AA?$AA@ 20110058     libucrt:lcidtoname_downlevel.obj
 0002:00020060       ??_C@_15IDNNENKK@?$AAm?$AAs?$AA?$AA@ 20110060     libucrt:lcidtoname_downlevel.obj
 0002:00020068       ??_C@_15MACJNBMH@?$AAk?$AAk?$AA?$AA@ 20110068     libucrt:lcidtoname_downlevel.obj
 0002:00020070       ??_C@_15DKDJEOND@?$AAk?$AAy?$AA?$AA@ 20110070     libucrt:lcidtoname_downlevel.obj
 0002:00020078       ??_C@_15DFGDLJBG@?$AAs?$AAw?$AA?$AA@ 20110078     libucrt:lcidtoname_downlevel.obj
 0002:00020080       ??_C@_15BBFAICNG@?$AAu?$AAz?$AA?$AA@ 20110080     libucrt:lcidtoname_downlevel.obj
 0002:00020088       ??_C@_15DKNDCGEA@?$AAt?$AAt?$AA?$AA@ 20110088     libucrt:lcidtoname_downlevel.obj
 0002:00020090       ??_C@_15MGIFMDPL@?$AAp?$AAa?$AA?$AA@ 20110090     libucrt:lcidtoname_downlevel.obj
 0002:00020098       ??_C@_15HCNDBBA@?$AAg?$AAu?$AA?$AA@ 20110098     libucrt:lcidtoname_downlevel.obj
 0002:000200a0       ??_C@_15FNBEIBON@?$AAt?$AAa?$AA?$AA@ 201100a0     libucrt:lcidtoname_downlevel.obj
 0002:000200a8       ??_C@_15NCHGBGLK@?$AAt?$AAe?$AA?$AA@ 201100a8     libucrt:lcidtoname_downlevel.obj
 0002:000200b0       ??_C@_15PHPHCBPF@?$AAk?$AAn?$AA?$AA@ 201100b0     libucrt:lcidtoname_downlevel.obj
 0002:000200b8       ??_C@_15DLGBCKMP@?$AAm?$AAr?$AA?$AA@ 201100b8     libucrt:lcidtoname_downlevel.obj
 0002:000200c0       ??_C@_15EABBLBFF@?$AAs?$AAa?$AA?$AA@ 201100c0     libucrt:lcidtoname_downlevel.obj
 0002:000200c8       ??_C@_15CBKOMCOI@?$AAm?$AAn?$AA?$AA@ 201100c8     libucrt:lcidtoname_downlevel.obj
 0002:000200d0       ??_C@_15CKDMCJAF@?$AAg?$AAl?$AA?$AA@ 201100d0     libucrt:lcidtoname_downlevel.obj
 0002:000200d8       ??_C@_17CNJFBPG@?$AAk?$AAo?$AAk?$AA?$AA@ 201100d8     libucrt:lcidtoname_downlevel.obj
 0002:000200e0       ??_C@_17FFBJICPL@?$AAs?$AAy?$AAr?$AA?$AA@ 201100e0     libucrt:lcidtoname_downlevel.obj
 0002:000200e8       ??_C@_17KPNDCPAF@?$AAd?$AAi?$AAv?$AA?$AA@ 201100e8     libucrt:lcidtoname_downlevel.obj
 0002:000200f0       ??_C@_1M@OKAHONE@?$AAa?$AAr?$AA?9?$AAS?$AAA?$AA?$AA@ 201100f0     libucrt:lcidtoname_downlevel.obj
 0002:000200fc       ??_C@_1M@FFFIGIGK@?$AAb?$AAg?$AA?9?$AAB?$AAG?$AA?$AA@ 201100fc     libucrt:lcidtoname_downlevel.obj
 0002:00020108       ??_C@_1M@BJNKEDC@?$AAc?$AAa?$AA?9?$AAE?$AAS?$AA?$AA@ 20110108     libucrt:lcidtoname_downlevel.obj
 0002:00020114       ??_C@_1M@IJJHFJHA@?$AAc?$AAs?$AA?9?$AAC?$AAZ?$AA?$AA@ 20110114     libucrt:lcidtoname_downlevel.obj
 0002:00020120       ??_C@_1M@CLPEOBGI@?$AAd?$AAa?$AA?9?$AAD?$AAK?$AA?$AA@ 20110120     libucrt:lcidtoname_downlevel.obj
 0002:0002012c       ??_C@_1M@MCMADGCB@?$AAd?$AAe?$AA?9?$AAD?$AAE?$AA?$AA@ 2011012c     libucrt:lcidtoname_downlevel.obj
 0002:00020138       ??_C@_1M@OOCKEMAM@?$AAe?$AAl?$AA?9?$AAG?$AAR?$AA?$AA@ 20110138     libucrt:lcidtoname_downlevel.obj
 0002:00020144       ??_C@_1M@DDNJFGID@?$AAf?$AAi?$AA?9?$AAF?$AAI?$AA?$AA@ 20110144     libucrt:lcidtoname_downlevel.obj
 0002:00020150       ??_C@_1M@GLIPPMAC@?$AAf?$AAr?$AA?9?$AAF?$AAR?$AA?$AA@ 20110150     libucrt:lcidtoname_downlevel.obj
 0002:0002015c       ??_C@_1M@GFMCHPE@?$AAh?$AAe?$AA?9?$AAI?$AAL?$AA?$AA@ 2011015c     libucrt:lcidtoname_downlevel.obj
 0002:00020168       ??_C@_1M@MHLPGNKM@?$AAh?$AAu?$AA?9?$AAH?$AAU?$AA?$AA@ 20110168     libucrt:lcidtoname_downlevel.obj
 0002:00020174       ??_C@_1M@LPDDNNPN@?$AAi?$AAs?$AA?9?$AAI?$AAS?$AA?$AA@ 20110174     libucrt:lcidtoname_downlevel.obj
 0002:00020180       ??_C@_1M@MADIPODN@?$AAi?$AAt?$AA?9?$AAI?$AAT?$AA?$AA@ 20110180     libucrt:lcidtoname_downlevel.obj
 0002:0002018c       ??_C@_1M@IHBJJGG@?$AAn?$AAl?$AA?9?$AAN?$AAL?$AA?$AA@ 2011018c     libucrt:lcidtoname_downlevel.obj
 0002:00020198       ??_C@_1M@EANAGDL@?$AAn?$AAb?$AA?9?$AAN?$AAO?$AA?$AA@ 20110198     libucrt:lcidtoname_downlevel.obj
 0002:000201a4       ??_C@_1M@NEIEMEGP@?$AAp?$AAl?$AA?9?$AAP?$AAL?$AA?$AA@ 201101a4     libucrt:lcidtoname_downlevel.obj
 0002:000201b0       ??_C@_1M@BOCFIGEP@?$AAp?$AAt?$AA?9?$AAB?$AAR?$AA?$AA@ 201101b0     libucrt:lcidtoname_downlevel.obj
 0002:000201bc       ??_C@_1M@IMPFOPBG@?$AAr?$AAo?$AA?9?$AAR?$AAO?$AA?$AA@ 201101bc     libucrt:lcidtoname_downlevel.obj
 0002:000201c8       ??_C@_1M@IDNNEJMM@?$AAr?$AAu?$AA?9?$AAR?$AAU?$AA?$AA@ 201101c8     libucrt:lcidtoname_downlevel.obj
 0002:000201d4       ??_C@_1M@LILEEOGM@?$AAh?$AAr?$AA?9?$AAH?$AAR?$AA?$AA@ 201101d4     libucrt:lcidtoname_downlevel.obj
 0002:000201e0       ??_C@_1M@FKIFEHPB@?$AAs?$AAk?$AA?9?$AAS?$AAK?$AA?$AA@ 201101e0     libucrt:lcidtoname_downlevel.obj
 0002:000201ec       ??_C@_1M@LJMAMNPJ@?$AAs?$AAq?$AA?9?$AAA?$AAL?$AA?$AA@ 201101ec     libucrt:lcidtoname_downlevel.obj
 0002:000201f8       ??_C@_1M@GIAKDKJK@?$AAs?$AAv?$AA?9?$AAS?$AAE?$AA?$AA@ 201101f8     libucrt:lcidtoname_downlevel.obj
 0002:00020204       ??_C@_1M@MKJKIKCL@?$AAt?$AAh?$AA?9?$AAT?$AAH?$AA?$AA@ 20110204     libucrt:lcidtoname_downlevel.obj
 0002:00020210       ??_C@_1M@MFLCCMPB@?$AAt?$AAr?$AA?9?$AAT?$AAR?$AA?$AA@ 20110210     libucrt:lcidtoname_downlevel.obj
 0002:0002021c       ??_C@_1M@OIJHDKJN@?$AAu?$AAr?$AA?9?$AAP?$AAK?$AA?$AA@ 2011021c     libucrt:lcidtoname_downlevel.obj
 0002:00020228       ??_C@_1M@LHIPCIEK@?$AAi?$AAd?$AA?9?$AAI?$AAD?$AA?$AA@ 20110228     libucrt:lcidtoname_downlevel.obj
 0002:00020234       ??_C@_1M@MFMOBGI@?$AAu?$AAk?$AA?9?$AAU?$AAA?$AA?$AA@ 20110234     libucrt:lcidtoname_downlevel.obj
 0002:00020240       ??_C@_1M@OBGLJIPL@?$AAb?$AAe?$AA?9?$AAB?$AAY?$AA?$AA@ 20110240     libucrt:lcidtoname_downlevel.obj
 0002:0002024c       ??_C@_1M@BCFAJEAD@?$AAs?$AAl?$AA?9?$AAS?$AAI?$AA?$AA@ 2011024c     libucrt:lcidtoname_downlevel.obj
 0002:00020258       ??_C@_1M@FKFFEDDN@?$AAe?$AAt?$AA?9?$AAE?$AAE?$AA?$AA@ 20110258     libucrt:lcidtoname_downlevel.obj
 0002:00020264       ??_C@_1M@KGKKAACI@?$AAl?$AAv?$AA?9?$AAL?$AAV?$AA?$AA@ 20110264     libucrt:lcidtoname_downlevel.obj
 0002:00020270       ??_C@_1M@IFGBIJO@?$AAl?$AAt?$AA?9?$AAL?$AAT?$AA?$AA@ 20110270     libucrt:lcidtoname_downlevel.obj
 0002:0002027c       ??_C@_1M@FGEAHEDM@?$AAf?$AAa?$AA?9?$AAI?$AAR?$AA?$AA@ 2011027c     libucrt:lcidtoname_downlevel.obj
 0002:00020288       ??_C@_1M@KBMAIBFN@?$AAv?$AAi?$AA?9?$AAV?$AAN?$AA?$AA@ 20110288     libucrt:lcidtoname_downlevel.obj
 0002:00020294       ??_C@_1M@GPCBKDJK@?$AAh?$AAy?$AA?9?$AAA?$AAM?$AA?$AA@ 20110294     libucrt:lcidtoname_downlevel.obj
 0002:000202a0       ??_C@_1BG@BECMDDJB@?$AAa?$AAz?$AA?9?$AAA?$AAZ?$AA?9?$AAL?$AAa?$AAt?$AAn?$AA?$AA@ 201102a0     libucrt:lcidtoname_downlevel.obj
 0002:000202b8       ??_C@_1M@MAOFCAEA@?$AAe?$AAu?$AA?9?$AAE?$AAS?$AA?$AA@ 201102b8     libucrt:lcidtoname_downlevel.obj
 0002:000202c4       ??_C@_1M@IGHABKPI@?$AAm?$AAk?$AA?9?$AAM?$AAK?$AA?$AA@ 201102c4     libucrt:lcidtoname_downlevel.obj
 0002:000202d0       ??_C@_1M@IAIGNEJG@?$AAt?$AAn?$AA?9?$AAZ?$AAA?$AA?$AA@ 201102d0     libucrt:lcidtoname_downlevel.obj
 0002:000202dc       ??_C@_1M@IIJCOJFA@?$AAx?$AAh?$AA?9?$AAZ?$AAA?$AA?$AA@ 201102dc     libucrt:lcidtoname_downlevel.obj
 0002:000202e8       ??_C@_1M@LGPJHNJH@?$AAz?$AAu?$AA?9?$AAZ?$AAA?$AA?$AA@ 201102e8     libucrt:lcidtoname_downlevel.obj
 0002:000202f4       ??_C@_1M@HOKAOIO@?$AAa?$AAf?$AA?9?$AAZ?$AAA?$AA?$AA@ 201102f4     libucrt:lcidtoname_downlevel.obj
 0002:00020300       ??_C@_1M@DPCLHLIE@?$AAk?$AAa?$AA?9?$AAG?$AAE?$AA?$AA@ 20110300     libucrt:lcidtoname_downlevel.obj
 0002:0002030c       ??_C@_1M@BLKMHJBI@?$AAf?$AAo?$AA?9?$AAF?$AAO?$AA?$AA@ 2011030c     libucrt:lcidtoname_downlevel.obj
 0002:00020318       ??_C@_1M@LGGJAPPB@?$AAh?$AAi?$AA?9?$AAI?$AAN?$AA?$AA@ 20110318     libucrt:lcidtoname_downlevel.obj
 0002:00020324       ??_C@_1M@FIKPIHFE@?$AAm?$AAt?$AA?9?$AAM?$AAT?$AA?$AA@ 20110324     libucrt:lcidtoname_downlevel.obj
 0002:00020330       ??_C@_1M@HEGGPBFA@?$AAs?$AAe?$AA?9?$AAN?$AAO?$AA?$AA@ 20110330     libucrt:lcidtoname_downlevel.obj
 0002:0002033c       ??_C@_1M@EIBJEEPA@?$AAm?$AAs?$AA?9?$AAM?$AAY?$AA?$AA@ 2011033c     libucrt:lcidtoname_downlevel.obj
 0002:00020348       ??_C@_1M@FHLBGMPP@?$AAk?$AAk?$AA?9?$AAK?$AAZ?$AA?$AA@ 20110348     libucrt:lcidtoname_downlevel.obj
 0002:00020354       ??_C@_1M@NGJJLCGI@?$AAk?$AAy?$AA?9?$AAK?$AAG?$AA?$AA@ 20110354     libucrt:lcidtoname_downlevel.obj
 0002:00020360       ??_C@_1M@GIENNBFC@?$AAs?$AAw?$AA?9?$AAK?$AAE?$AA?$AA@ 20110360     libucrt:lcidtoname_downlevel.obj
 0002:0002036c       ??_C@_1BG@NDGMJIMJ@?$AAu?$AAz?$AA?9?$AAU?$AAZ?$AA?9?$AAL?$AAa?$AAt?$AAn?$AA?$AA@ 2011036c     libucrt:lcidtoname_downlevel.obj
 0002:00020384       ??_C@_1M@IDCCIHBC@?$AAt?$AAt?$AA?9?$AAR?$AAU?$AA?$AA@ 20110384     libucrt:lcidtoname_downlevel.obj
 0002:00020390       ??_C@_1M@LOICPMOJ@?$AAb?$AAn?$AA?9?$AAI?$AAN?$AA?$AA@ 20110390     libucrt:lcidtoname_downlevel.obj
 0002:0002039c       ??_C@_1M@KPKKNEAH@?$AAp?$AAa?$AA?9?$AAI?$AAN?$AA?$AA@ 2011039c     libucrt:lcidtoname_downlevel.obj
 0002:000203a8       ??_C@_1M@PJGPPBOG@?$AAg?$AAu?$AA?9?$AAI?$AAN?$AA?$AA@ 201103a8     libucrt:lcidtoname_downlevel.obj
 0002:000203b4       ??_C@_1M@KMKMOPHI@?$AAt?$AAa?$AA?9?$AAI?$AAN?$AA?$AA@ 201103b4     libucrt:lcidtoname_downlevel.obj
 0002:000203c0       ??_C@_1M@KFEHEPAC@?$AAt?$AAe?$AA?9?$AAI?$AAN?$AA?$AA@ 201103c0     libucrt:lcidtoname_downlevel.obj
 0002:000203cc       ??_C@_1M@CDCLMGHI@?$AAk?$AAn?$AA?9?$AAI?$AAN?$AA?$AA@ 201103cc     libucrt:lcidtoname_downlevel.obj
 0002:000203d8       ??_C@_1M@MIODLDKF@?$AAm?$AAl?$AA?9?$AAI?$AAN?$AA?$AA@ 201103d8     libucrt:lcidtoname_downlevel.obj
 0002:000203e4       ??_C@_1M@PBIEACPO@?$AAm?$AAr?$AA?9?$AAI?$AAN?$AA?$AA@ 201103e4     libucrt:lcidtoname_downlevel.obj
 0002:000203f0       ??_C@_1M@NIDEAGPH@?$AAs?$AAa?$AA?9?$AAI?$AAN?$AA?$AA@ 201103f0     libucrt:lcidtoname_downlevel.obj
 0002:000203fc       ??_C@_1M@FHIHCBIO@?$AAm?$AAn?$AA?9?$AAM?$AAN?$AA?$AA@ 201103fc     libucrt:lcidtoname_downlevel.obj
 0002:00020408       ??_C@_1M@JAIJPENP@?$AAc?$AAy?$AA?9?$AAG?$AAB?$AA?$AA@ 20110408     libucrt:lcidtoname_downlevel.obj
 0002:00020414       ??_C@_1M@PHGFBEPN@?$AAg?$AAl?$AA?9?$AAE?$AAS?$AA?$AA@ 20110414     libucrt:lcidtoname_downlevel.obj
 0002:00020420       ??_C@_1O@KPIPDNCP@?$AAk?$AAo?$AAk?$AA?9?$AAI?$AAN?$AA?$AA@ 20110420     libucrt:lcidtoname_downlevel.obj
 0002:00020430       ??_C@_1O@KNHJLDJA@?$AAs?$AAy?$AAr?$AA?9?$AAS?$AAY?$AA?$AA@ 20110430     libucrt:lcidtoname_downlevel.obj
 0002:00020440       ??_C@_1O@MKEKBLAH@?$AAd?$AAi?$AAv?$AA?9?$AAM?$AAV?$AA?$AA@ 20110440     libucrt:lcidtoname_downlevel.obj
 0002:00020450       ??_C@_1O@OHDCKDDF@?$AAq?$AAu?$AAz?$AA?9?$AAB?$AAO?$AA?$AA@ 20110450     libucrt:lcidtoname_downlevel.obj
 0002:00020460       ??_C@_1M@LEPJNLFD@?$AAn?$AAs?$AA?9?$AAZ?$AAA?$AA?$AA@ 20110460     libucrt:lcidtoname_downlevel.obj
 0002:0002046c       ??_C@_1M@OMLEIIJB@?$AAm?$AAi?$AA?9?$AAN?$AAZ?$AA?$AA@ 2011046c     libucrt:lcidtoname_downlevel.obj
 0002:00020478       ??_C@_1M@PMPEAILG@?$AAa?$AAr?$AA?9?$AAI?$AAQ?$AA?$AA@ 20110478     libucrt:lcidtoname_downlevel.obj
 0002:00020484       ??_C@_1M@CNKPNOEE@?$AAd?$AAe?$AA?9?$AAC?$AAH?$AA?$AA@ 20110484     libucrt:lcidtoname_downlevel.obj
 0002:00020490       ??_C@_1M@LKMGMLKO@?$AAe?$AAn?$AA?9?$AAG?$AAB?$AA?$AA@ 20110490     libucrt:lcidtoname_downlevel.obj
 0002:0002049c       ??_C@_1M@PGKJFFGL@?$AAe?$AAs?$AA?9?$AAM?$AAX?$AA?$AA@ 2011049c     libucrt:lcidtoname_downlevel.obj
 0002:000204a8       ??_C@_1M@DNNANBDC@?$AAf?$AAr?$AA?9?$AAB?$AAE?$AA?$AA@ 201104a8     libucrt:lcidtoname_downlevel.obj
 0002:000204b4       ??_C@_1M@HLGMDFHM@?$AAi?$AAt?$AA?9?$AAC?$AAH?$AA?$AA@ 201104b4     libucrt:lcidtoname_downlevel.obj
 0002:000204c0       ??_C@_1M@CLLBGJH@?$AAn?$AAl?$AA?9?$AAB?$AAE?$AA?$AA@ 201104c0     libucrt:lcidtoname_downlevel.obj
 0002:000204cc       ??_C@_1M@BODBOGLF@?$AAn?$AAn?$AA?9?$AAN?$AAO?$AA?$AA@ 201104cc     libucrt:lcidtoname_downlevel.obj
 0002:000204d8       ??_C@_1M@HFFAHKAD@?$AAp?$AAt?$AA?9?$AAP?$AAT?$AA?$AA@ 201104d8     libucrt:lcidtoname_downlevel.obj
 0002:000204e4       ??_C@_1BG@LNOAKHIE@?$AAs?$AAr?$AA?9?$AAS?$AAP?$AA?9?$AAL?$AAa?$AAt?$AAn?$AA?$AA@ 201104e4     libucrt:lcidtoname_downlevel.obj
 0002:000204fc       ??_C@_1M@HBMHBGAK@?$AAs?$AAv?$AA?9?$AAF?$AAI?$AA?$AA@ 201104fc     libucrt:lcidtoname_downlevel.obj
 0002:00020508       ??_C@_1BG@DGCJGJBE@?$AAa?$AAz?$AA?9?$AAA?$AAZ?$AA?9?$AAC?$AAy?$AAr?$AAl?$AA?$AA@ 20110508     libucrt:lcidtoname_downlevel.obj
 0002:00020520       ??_C@_1M@KEJDAAHB@?$AAs?$AAe?$AA?9?$AAS?$AAE?$AA?$AA@ 20110520     libucrt:lcidtoname_downlevel.obj
 0002:0002052c       ??_C@_1M@HEIBJJAD@?$AAm?$AAs?$AA?9?$AAB?$AAN?$AA?$AA@ 2011052c     libucrt:lcidtoname_downlevel.obj
 0002:00020538       ??_C@_1BG@PBGJMCEM@?$AAu?$AAz?$AA?9?$AAU?$AAZ?$AA?9?$AAC?$AAy?$AAr?$AAl?$AA?$AA@ 20110538     libucrt:lcidtoname_downlevel.obj
 0002:00020550       ??_C@_1O@LAOBCMDF@?$AAq?$AAu?$AAz?$AA?9?$AAE?$AAC?$AA?$AA@ 20110550     libucrt:lcidtoname_downlevel.obj
 0002:00020560       ??_C@_1M@POEEMAIO@?$AAa?$AAr?$AA?9?$AAE?$AAG?$AA?$AA@ 20110560     libucrt:lcidtoname_downlevel.obj
 0002:0002056c       ??_C@_1M@EFAKDEDL@?$AAz?$AAh?$AA?9?$AAH?$AAK?$AA?$AA@ 2011056c     libucrt:lcidtoname_downlevel.obj
 0002:00020578       ??_C@_1M@HKKIJHGI@?$AAd?$AAe?$AA?9?$AAA?$AAT?$AA?$AA@ 20110578     libucrt:lcidtoname_downlevel.obj
 0002:00020584       ??_C@_1M@KBFBEHJF@?$AAe?$AAn?$AA?9?$AAA?$AAU?$AA?$AA@ 20110584     libucrt:lcidtoname_downlevel.obj
 0002:00020590       ??_C@_1M@MNPLFAAH@?$AAe?$AAs?$AA?9?$AAE?$AAS?$AA?$AA@ 20110590     libucrt:lcidtoname_downlevel.obj
 0002:0002059c       ??_C@_1M@HJOOJFMA@?$AAf?$AAr?$AA?9?$AAC?$AAA?$AA?$AA@ 2011059c     libucrt:lcidtoname_downlevel.obj
 0002:000205a8       ??_C@_1BG@JPOFPNAB@?$AAs?$AAr?$AA?9?$AAS?$AAP?$AA?9?$AAC?$AAy?$AAr?$AAl?$AA?$AA@ 201105a8     libucrt:lcidtoname_downlevel.obj
 0002:000205c0       ??_C@_1M@LNFOCMOB@?$AAs?$AAe?$AA?9?$AAF?$AAI?$AA?$AA@ 201105c0     libucrt:lcidtoname_downlevel.obj
 0002:000205cc       ??_C@_1O@MGJBOAMB@?$AAq?$AAu?$AAz?$AA?9?$AAP?$AAE?$AA?$AA@ 201105cc     libucrt:lcidtoname_downlevel.obj
 0002:000205dc       ??_C@_1M@GJINLBOK@?$AAa?$AAr?$AA?9?$AAL?$AAY?$AA?$AA@ 201105dc     libucrt:lcidtoname_downlevel.obj
 0002:000205e8       ??_C@_1M@GGMNHJNL@?$AAz?$AAh?$AA?9?$AAS?$AAG?$AA?$AA@ 201105e8     libucrt:lcidtoname_downlevel.obj
 0002:000205f4       ??_C@_1M@HOIKODND@?$AAd?$AAe?$AA?9?$AAL?$AAU?$AA?$AA@ 201105f4     libucrt:lcidtoname_downlevel.obj
 0002:00020600       ??_C@_1M@DDOCCGFG@?$AAe?$AAn?$AA?9?$AAC?$AAA?$AA?$AA@ 20110600     libucrt:lcidtoname_downlevel.obj
 0002:0002060c       ??_C@_1M@BNOEMJLF@?$AAe?$AAs?$AA?9?$AAG?$AAT?$AA?$AA@ 2011060c     libucrt:lcidtoname_downlevel.obj
 0002:00020618       ??_C@_1M@EOGNKEK@?$AAf?$AAr?$AA?9?$AAC?$AAH?$AA?$AA@ 20110618     libucrt:lcidtoname_downlevel.obj
 0002:00020624       ??_C@_1M@FLIDJFHL@?$AAh?$AAr?$AA?9?$AAB?$AAA?$AA?$AA@ 20110624     libucrt:lcidtoname_downlevel.obj
 0002:00020630       ??_C@_1O@FMCELNAJ@?$AAs?$AAm?$AAj?$AA?9?$AAN?$AAO?$AA?$AA@ 20110630     libucrt:lcidtoname_downlevel.obj
 0002:00020640       ??_C@_1M@JHGLJMGJ@?$AAa?$AAr?$AA?9?$AAD?$AAZ?$AA?$AA@ 20110640     libucrt:lcidtoname_downlevel.obj
 0002:0002064c       ??_C@_1M@JKKFDCNP@?$AAz?$AAh?$AA?9?$AAM?$AAO?$AA?$AA@ 2011064c     libucrt:lcidtoname_downlevel.obj
 0002:00020658       ??_C@_1M@GEEFALPE@?$AAd?$AAe?$AA?9?$AAL?$AAI?$AA?$AA@ 20110658     libucrt:lcidtoname_downlevel.obj
 0002:00020664       ??_C@_1M@IGEOFBG@?$AAe?$AAn?$AA?9?$AAN?$AAZ?$AA?$AA@ 20110664     libucrt:lcidtoname_downlevel.obj
 0002:00020670       ??_C@_1M@KDBONEHP@?$AAe?$AAs?$AA?9?$AAC?$AAR?$AA?$AA@ 20110670     libucrt:lcidtoname_downlevel.obj
 0002:0002067c       ??_C@_1M@FHMDOHNN@?$AAf?$AAr?$AA?9?$AAL?$AAU?$AA?$AA@ 2011067c     libucrt:lcidtoname_downlevel.obj
 0002:00020688       ??_C@_1BG@NFKKMAFG@?$AAb?$AAs?$AA?9?$AAB?$AAA?$AA?9?$AAL?$AAa?$AAt?$AAn?$AA?$AA@ 20110688     libucrt:lcidtoname_downlevel.obj
 0002:000206a0       ??_C@_1O@IMNBEMCI@?$AAs?$AAm?$AAj?$AA?9?$AAS?$AAE?$AA?$AA@ 201106a0     libucrt:lcidtoname_downlevel.obj
 0002:000206b0       ??_C@_1M@DHHMBNDP@?$AAa?$AAr?$AA?9?$AAM?$AAA?$AA?$AA@ 201106b0     libucrt:lcidtoname_downlevel.obj
 0002:000206bc       ??_C@_1M@BNBLJCGH@?$AAe?$AAn?$AA?9?$AAI?$AAE?$AA?$AA@ 201106bc     libucrt:lcidtoname_downlevel.obj
 0002:000206c8       ??_C@_1M@GEPAFMDL@?$AAe?$AAs?$AA?9?$AAP?$AAA?$AA?$AA@ 201106c8     libucrt:lcidtoname_downlevel.obj
 0002:000206d4       ??_C@_1M@OJONDMDL@?$AAf?$AAr?$AA?9?$AAM?$AAC?$AA?$AA@ 201106d4     libucrt:lcidtoname_downlevel.obj
 0002:000206e0       ??_C@_1BG@OBCNFJB@?$AAs?$AAr?$AA?9?$AAB?$AAA?$AA?9?$AAL?$AAa?$AAt?$AAn?$AA?$AA@ 201106e0     libucrt:lcidtoname_downlevel.obj
 0002:000206f8       ??_C@_1O@KEMEEGPO@?$AAs?$AAm?$AAa?$AA?9?$AAN?$AAO?$AA?$AA@ 201106f8     libucrt:lcidtoname_downlevel.obj
 0002:00020708       ??_C@_1M@ELMGFODK@?$AAa?$AAr?$AA?9?$AAT?$AAN?$AA?$AA@ 20110708     libucrt:lcidtoname_downlevel.obj
 0002:00020714       ??_C@_1M@BHDLHFAF@?$AAe?$AAn?$AA?9?$AAZ?$AAA?$AA?$AA@ 20110714     libucrt:lcidtoname_downlevel.obj
 0002:00020720       ??_C@_1M@BMGIGLIF@?$AAe?$AAs?$AA?9?$AAD?$AAO?$AA?$AA@ 20110720     libucrt:lcidtoname_downlevel.obj
 0002:0002072c       ??_C@_1BG@CMBHIPBE@?$AAs?$AAr?$AA?9?$AAB?$AAA?$AA?9?$AAC?$AAy?$AAr?$AAl?$AA?$AA@ 2011072c     libucrt:lcidtoname_downlevel.obj
 0002:00020744       ??_C@_1O@HEDBLHNP@?$AAs?$AAm?$AAa?$AA?9?$AAS?$AAE?$AA?$AA@ 20110744     libucrt:lcidtoname_downlevel.obj
 0002:00020754       ??_C@_1M@DAGCADIM@?$AAa?$AAr?$AA?9?$AAO?$AAM?$AA?$AA@ 20110754     libucrt:lcidtoname_downlevel.obj
 0002:00020760       ??_C@_1M@FODLMICG@?$AAe?$AAn?$AA?9?$AAJ?$AAM?$AA?$AA@ 20110760     libucrt:lcidtoname_downlevel.obj
 0002:0002076c       ??_C@_1M@DNMLCIHB@?$AAe?$AAs?$AA?9?$AAV?$AAE?$AA?$AA@ 2011076c     libucrt:lcidtoname_downlevel.obj
 0002:00020778       ??_C@_1O@EOKHMKJK@?$AAs?$AAm?$AAs?$AA?9?$AAF?$AAI?$AA?$AA@ 20110778     libucrt:lcidtoname_downlevel.obj
 0002:00020788       ??_C@_1M@CAFJMKOF@?$AAa?$AAr?$AA?9?$AAY?$AAE?$AA?$AA@ 20110788     libucrt:lcidtoname_downlevel.obj
 0002:00020794       ??_C@_1M@CBFHIJLI@?$AAe?$AAn?$AA?9?$AAC?$AAB?$AA?$AA@ 20110794     libucrt:lcidtoname_downlevel.obj
 0002:000207a0       ??_C@_1M@BGNFLDN@?$AAe?$AAs?$AA?9?$AAC?$AAO?$AA?$AA@ 201107a0     libucrt:lcidtoname_downlevel.obj
 0002:000207ac       ??_C@_1O@JMPHMAMC@?$AAs?$AAm?$AAn?$AA?9?$AAF?$AAI?$AA?$AA@ 201107ac     libucrt:lcidtoname_downlevel.obj
 0002:000207bc       ??_C@_1M@JLANABKE@?$AAa?$AAr?$AA?9?$AAS?$AAY?$AA?$AA@ 201107bc     libucrt:lcidtoname_downlevel.obj
 0002:000207c8       ??_C@_1M@HPKGCFGN@?$AAe?$AAn?$AA?9?$AAB?$AAZ?$AA?$AA@ 201107c8     libucrt:lcidtoname_downlevel.obj
 0002:000207d4       ??_C@_1M@OLJCMLGM@?$AAe?$AAs?$AA?9?$AAP?$AAE?$AA?$AA@ 201107d4     libucrt:lcidtoname_downlevel.obj
 0002:000207e0       ??_C@_1M@MKKGFKLE@?$AAa?$AAr?$AA?9?$AAJ?$AAO?$AA?$AA@ 201107e0     libucrt:lcidtoname_downlevel.obj
 0002:000207ec       ??_C@_1M@EKPGLDNI@?$AAe?$AAn?$AA?9?$AAT?$AAT?$AA?$AA@ 201107ec     libucrt:lcidtoname_downlevel.obj
 0002:000207f8       ??_C@_1M@OONGHFHE@?$AAe?$AAs?$AA?9?$AAA?$AAR?$AA?$AA@ 201107f8     libucrt:lcidtoname_downlevel.obj
 0002:00020804       ??_C@_1M@OOJFGBHE@?$AAa?$AAr?$AA?9?$AAL?$AAB?$AA?$AA@ 20110804     libucrt:lcidtoname_downlevel.obj
 0002:00020810       ??_C@_1M@GCEJHNEG@?$AAe?$AAn?$AA?9?$AAZ?$AAW?$AA?$AA@ 20110810     libucrt:lcidtoname_downlevel.obj
 0002:0002081c       ??_C@_1M@JNOCAHJI@?$AAe?$AAs?$AA?9?$AAE?$AAC?$AA?$AA@ 2011081c     libucrt:lcidtoname_downlevel.obj
 0002:00020828       ??_C@_1M@JEFHPGGB@?$AAa?$AAr?$AA?9?$AAK?$AAW?$AA?$AA@ 20110828     libucrt:lcidtoname_downlevel.obj
 0002:00020834       ??_C@_1M@MLKIBJOJ@?$AAe?$AAn?$AA?9?$AAP?$AAH?$AA?$AA@ 20110834     libucrt:lcidtoname_downlevel.obj
 0002:00020840       ??_C@_1M@BDNIPEND@?$AAe?$AAs?$AA?9?$AAC?$AAL?$AA?$AA@ 20110840     libucrt:lcidtoname_downlevel.obj
 0002:0002084c       ??_C@_1M@MPNMEKBD@?$AAa?$AAr?$AA?9?$AAA?$AAE?$AA?$AA@ 2011084c     libucrt:lcidtoname_downlevel.obj
 0002:00020858       ??_C@_1M@KBJALCPI@?$AAe?$AAs?$AA?9?$AAU?$AAY?$AA?$AA@ 20110858     libucrt:lcidtoname_downlevel.obj
 0002:00020864       ??_C@_1M@LLCCOAGA@?$AAa?$AAr?$AA?9?$AAB?$AAH?$AA?$AA@ 20110864     libucrt:lcidtoname_downlevel.obj
 0002:00020870       ??_C@_1M@PBFNCDEL@?$AAe?$AAs?$AA?9?$AAP?$AAY?$AA?$AA@ 20110870     libucrt:lcidtoname_downlevel.obj
 0002:0002087c       ??_C@_1M@EDGINPNP@?$AAa?$AAr?$AA?9?$AAQ?$AAA?$AA?$AA@ 2011087c     libucrt:lcidtoname_downlevel.obj
 0002:00020888       ??_C@_1M@MKDBIIJI@?$AAe?$AAs?$AA?9?$AAB?$AAO?$AA?$AA@ 20110888     libucrt:lcidtoname_downlevel.obj
 0002:00020894       ??_C@_1M@CPKKEBLD@?$AAe?$AAs?$AA?9?$AAS?$AAV?$AA?$AA@ 20110894     libucrt:lcidtoname_downlevel.obj
 0002:000208a0       ??_C@_1M@NDBGMMJL@?$AAe?$AAs?$AA?9?$AAH?$AAN?$AA?$AA@ 201108a0     libucrt:lcidtoname_downlevel.obj
 0002:000208ac       ??_C@_1M@JIJIBHDP@?$AAe?$AAs?$AA?9?$AAN?$AAI?$AA?$AA@ 201108ac     libucrt:lcidtoname_downlevel.obj
 0002:000208b8       ??_C@_1M@CGFMKEEK@?$AAe?$AAs?$AA?9?$AAP?$AAR?$AA?$AA@ 201108b8     libucrt:lcidtoname_downlevel.obj
 0002:000208c4       ??_C@_1O@ICJHKIIK@?$AAz?$AAh?$AA?9?$AAC?$AAH?$AAT?$AA?$AA@ 201108c4     libucrt:lcidtoname_downlevel.obj
 0002:000208d4       ??_C@_15CLNEJCE@?$AAs?$AAr?$AA?$AA@ 201108d4     libucrt:lcidtoname_downlevel.obj
 0002:00021000       ??_C@_1M@KAHEKEIG@?$AAa?$AAf?$AA?9?$AAz?$AAa?$AA?$AA@ 20111000     libucrt:lcidtoname_downlevel.obj
 0002:0002100c       ??_C@_1M@GIECOABL@?$AAa?$AAr?$AA?9?$AAa?$AAe?$AA?$AA@ 2011100c     libucrt:lcidtoname_downlevel.obj
 0002:00021018       ??_C@_1M@BMLMEKGI@?$AAa?$AAr?$AA?9?$AAb?$AAh?$AA?$AA@ 20111018     libucrt:lcidtoname_downlevel.obj
 0002:00021024       ??_C@_1M@DAPFDGGB@?$AAa?$AAr?$AA?9?$AAd?$AAz?$AA?$AA@ 20111024     libucrt:lcidtoname_downlevel.obj
 0002:00021030       ??_C@_1M@FJNKGKIG@?$AAa?$AAr?$AA?9?$AAe?$AAg?$AA?$AA@ 20111030     libucrt:lcidtoname_downlevel.obj
 0002:0002103c       ??_C@_1M@FLGKKCLO@?$AAa?$AAr?$AA?9?$AAi?$AAq?$AA?$AA@ 2011103c     libucrt:lcidtoname_downlevel.obj
 0002:00021048       ??_C@_1M@GNDIPALM@?$AAa?$AAr?$AA?9?$AAj?$AAo?$AA?$AA@ 20111048     libucrt:lcidtoname_downlevel.obj
 0002:00021054       ??_C@_1M@DDMJFMGJ@?$AAa?$AAr?$AA?9?$AAk?$AAw?$AA?$AA@ 20111054     libucrt:lcidtoname_downlevel.obj
 0002:00021060       ??_C@_1M@EJALMLHM@?$AAa?$AAr?$AA?9?$AAl?$AAb?$AA?$AA@ 20111060     libucrt:lcidtoname_downlevel.obj
 0002:0002106c       ??_C@_1M@MOBDBLOC@?$AAa?$AAr?$AA?9?$AAl?$AAy?$AA?$AA@ 2011106c     libucrt:lcidtoname_downlevel.obj
 0002:00021078       ??_C@_1M@JAOCLHDH@?$AAa?$AAr?$AA?9?$AAm?$AAa?$AA?$AA@ 20111078     libucrt:lcidtoname_downlevel.obj
 0002:00021084       ??_C@_1M@JHPMKJIE@?$AAa?$AAr?$AA?9?$AAo?$AAm?$AA?$AA@ 20111084     libucrt:lcidtoname_downlevel.obj
 0002:00021090       ??_C@_1M@OEPGHFNH@?$AAa?$AAr?$AA?9?$AAq?$AAa?$AA?$AA@ 20111090     libucrt:lcidtoname_downlevel.obj
 0002:0002109c       ??_C@_1M@KJDONENM@?$AAa?$AAr?$AA?9?$AAs?$AAa?$AA?$AA@ 2011109c     libucrt:lcidtoname_downlevel.obj
 0002:000210a8       ??_C@_1M@DMJDKLKM@?$AAa?$AAr?$AA?9?$AAs?$AAy?$AA?$AA@ 201110a8     libucrt:lcidtoname_downlevel.obj
 0002:000210b4       ??_C@_1M@OMFIPEDC@?$AAa?$AAr?$AA?9?$AAt?$AAn?$AA?$AA@ 201110b4     libucrt:lcidtoname_downlevel.obj
 0002:000210c0       ??_C@_1M@IHMHGAON@?$AAa?$AAr?$AA?9?$AAy?$AAe?$AA?$AA@ 201110c0     libucrt:lcidtoname_downlevel.obj
 0002:000210cc       ??_C@_1BG@KDCPGJGB@?$AAa?$AAz?$AA?9?$AAa?$AAz?$AA?9?$AAc?$AAy?$AAr?$AAl?$AA?$AA@ 201110cc     libucrt:lcidtoname_downlevel.obj
 0002:000210e4       ??_C@_1BG@IBCKDDOE@?$AAa?$AAz?$AA?9?$AAa?$AAz?$AA?9?$AAl?$AAa?$AAt?$AAn?$AA?$AA@ 201110e4     libucrt:lcidtoname_downlevel.obj
 0002:000210fc       ??_C@_1M@EGPFDCPD@?$AAb?$AAe?$AA?9?$AAb?$AAy?$AA?$AA@ 201110fc     libucrt:lcidtoname_downlevel.obj
 0002:00021108       ??_C@_1M@PCMGMCGC@?$AAb?$AAg?$AA?9?$AAb?$AAg?$AA?$AA@ 20111108     libucrt:lcidtoname_downlevel.obj
 0002:00021114       ??_C@_1M@BJBMFGOB@?$AAb?$AAn?$AA?9?$AAi?$AAn?$AA?$AA@ 20111114     libucrt:lcidtoname_downlevel.obj
 0002:00021120       ??_C@_1BG@EAKMMACD@?$AAb?$AAs?$AA?9?$AAb?$AAa?$AA?9?$AAl?$AAa?$AAt?$AAn?$AA?$AA@ 20111120     libucrt:lcidtoname_downlevel.obj
 0002:00021138       ??_C@_1M@KGADAODK@?$AAc?$AAa?$AA?9?$AAe?$AAs?$AA?$AA@ 20111138     libucrt:lcidtoname_downlevel.obj
 0002:00021144       ??_C@_1M@COAJPDHI@?$AAc?$AAs?$AA?9?$AAc?$AAz?$AA?$AA@ 20111144     libucrt:lcidtoname_downlevel.obj
 0002:00021150       ??_C@_1M@DHBHFONH@?$AAc?$AAy?$AA?9?$AAg?$AAb?$AA?$AA@ 20111150     libucrt:lcidtoname_downlevel.obj
 0002:0002115c       ??_C@_1M@IMGKELGA@?$AAd?$AAa?$AA?9?$AAd?$AAk?$AA?$AA@ 2011115c     libucrt:lcidtoname_downlevel.obj
 0002:00021168       ??_C@_1M@NNDGDNGA@?$AAd?$AAe?$AA?9?$AAa?$AAt?$AA?$AA@ 20111168     libucrt:lcidtoname_downlevel.obj
 0002:00021174       ??_C@_1M@IKDBHEEM@?$AAd?$AAe?$AA?9?$AAc?$AAh?$AA?$AA@ 20111174     libucrt:lcidtoname_downlevel.obj
 0002:00021180       ??_C@_1M@GFFOJMCJ@?$AAd?$AAe?$AA?9?$AAd?$AAe?$AA?$AA@ 20111180     libucrt:lcidtoname_downlevel.obj
 0002:0002118c       ??_C@_1M@MDNLKBPM@?$AAd?$AAe?$AA?9?$AAl?$AAi?$AA?$AA@ 2011118c     libucrt:lcidtoname_downlevel.obj
 0002:00021198       ??_C@_1M@NJBEEJNL@?$AAd?$AAe?$AA?9?$AAl?$AAu?$AA?$AA@ 20111198     libucrt:lcidtoname_downlevel.obj
 0002:000211a4       ??_C@_1O@GNNELBAP@?$AAd?$AAi?$AAv?$AA?9?$AAm?$AAv?$AA?$AA@ 201111a4     libucrt:lcidtoname_downlevel.obj
 0002:000211b4       ??_C@_1M@EJLEOGAE@?$AAe?$AAl?$AA?9?$AAg?$AAr?$AA?$AA@ 201111b4     libucrt:lcidtoname_downlevel.obj
 0002:000211c0       ??_C@_1M@GMPONJN@?$AAe?$AAn?$AA?9?$AAa?$AAu?$AA?$AA@ 201111c0     libucrt:lcidtoname_downlevel.obj
 0002:000211cc       ??_C@_1M@NIDIIPGF@?$AAe?$AAn?$AA?9?$AAb?$AAz?$AA?$AA@ 201111cc     libucrt:lcidtoname_downlevel.obj
 0002:000211d8       ??_C@_1M@JEHMIMFO@?$AAe?$AAn?$AA?9?$AAc?$AAa?$AA?$AA@ 201111d8     libucrt:lcidtoname_downlevel.obj
 0002:000211e4       ??_C@_1M@IGMJCDLA@?$AAe?$AAn?$AA?9?$AAc?$AAb?$AA?$AA@ 201111e4     libucrt:lcidtoname_downlevel.obj
 0002:000211f0       ??_C@_1M@BNFIGBKG@?$AAe?$AAn?$AA?9?$AAg?$AAb?$AA?$AA@ 201111f0     libucrt:lcidtoname_downlevel.obj
 0002:000211fc       ??_C@_1M@LKIFDIGP@?$AAe?$AAn?$AA?9?$AAi?$AAe?$AA?$AA@ 201111fc     libucrt:lcidtoname_downlevel.obj
 0002:00021208       ??_C@_1M@PJKFGCCO@?$AAe?$AAn?$AA?9?$AAj?$AAm?$AA?$AA@ 20111208     libucrt:lcidtoname_downlevel.obj
 0002:00021214       ??_C@_1M@KPPKEPBO@?$AAe?$AAn?$AA?9?$AAn?$AAz?$AA?$AA@ 20111214     libucrt:lcidtoname_downlevel.obj
 0002:00021220       ??_C@_1M@GMDGLDOB@?$AAe?$AAn?$AA?9?$AAp?$AAh?$AA?$AA@ 20111220     libucrt:lcidtoname_downlevel.obj
 0002:0002122c       ??_C@_1M@ONGIBJNA@?$AAe?$AAn?$AA?9?$AAt?$AAt?$AA?$AA@ 2011122c     libucrt:lcidtoname_downlevel.obj
 0002:00021238       ??_C@_1M@LLODPCMM@?$AAe?$AAn?$AA?9?$AAu?$AAs?$AA?$AA@ 20111238     libucrt:lcidtoname_downlevel.obj
 0002:00021244       ??_C@_1M@LAKFNPAN@?$AAe?$AAn?$AA?9?$AAz?$AAa?$AA?$AA@ 20111244     libucrt:lcidtoname_downlevel.obj
 0002:00021250       ??_C@_1M@MFNHNHEO@?$AAe?$AAn?$AA?9?$AAz?$AAw?$AA?$AA@ 20111250     libucrt:lcidtoname_downlevel.obj
 0002:0002125c       ??_C@_1M@EJEINPHM@?$AAe?$AAs?$AA?9?$AAa?$AAr?$AA?$AA@ 2011125c     libucrt:lcidtoname_downlevel.obj
 0002:00021268       ??_C@_1M@GNKPCCJA@?$AAe?$AAs?$AA?9?$AAb?$AAo?$AA?$AA@ 20111268     libucrt:lcidtoname_downlevel.obj
 0002:00021274       ??_C@_1M@LEEGFONL@?$AAe?$AAs?$AA?9?$AAc?$AAl?$AA?$AA@ 20111274     libucrt:lcidtoname_downlevel.obj
 0002:00021280       ??_C@_1M@KGPDPBDF@?$AAe?$AAs?$AA?9?$AAc?$AAo?$AA?$AA@ 20111280     libucrt:lcidtoname_downlevel.obj
 0002:0002128c       ??_C@_1M@EIAHOHH@?$AAe?$AAs?$AA?9?$AAc?$AAr?$AA?$AA@ 2011128c     libucrt:lcidtoname_downlevel.obj
 0002:00021298       ??_C@_1M@LLPGMBIN@?$AAe?$AAs?$AA?9?$AAd?$AAo?$AA?$AA@ 20111298     libucrt:lcidtoname_downlevel.obj
 0002:000212a4       ??_C@_1M@DKHMKNJA@?$AAe?$AAs?$AA?9?$AAe?$AAc?$AA?$AA@ 201112a4     libucrt:lcidtoname_downlevel.obj
 0002:000212b0       ??_C@_1M@GKGFPKAP@?$AAe?$AAs?$AA?9?$AAe?$AAs?$AA?$AA@ 201112b0     libucrt:lcidtoname_downlevel.obj
 0002:000212bc       ??_C@_1M@LKHKGDLN@?$AAe?$AAs?$AA?9?$AAg?$AAt?$AA?$AA@ 201112bc     libucrt:lcidtoname_downlevel.obj
 0002:000212c8       ??_C@_1M@HEIIGGJD@?$AAe?$AAs?$AA?9?$AAh?$AAn?$AA?$AA@ 201112c8     libucrt:lcidtoname_downlevel.obj
 0002:000212d4       ??_C@_1M@FBDHPPGD@?$AAe?$AAs?$AA?9?$AAm?$AAx?$AA?$AA@ 201112d4     libucrt:lcidtoname_downlevel.obj
 0002:000212e0       ??_C@_1M@DPAGLNDH@?$AAe?$AAs?$AA?9?$AAn?$AAi?$AA?$AA@ 201112e0     libucrt:lcidtoname_downlevel.obj
 0002:000212ec       ??_C@_1M@MDGOPGDD@?$AAe?$AAs?$AA?9?$AAp?$AAa?$AA?$AA@ 201112ec     libucrt:lcidtoname_downlevel.obj
 0002:000212f8       ??_C@_1M@EMAMGBGE@?$AAe?$AAs?$AA?9?$AAp?$AAe?$AA?$AA@ 201112f8     libucrt:lcidtoname_downlevel.obj
 0002:00021304       ??_C@_1M@IBMCAOEC@?$AAe?$AAs?$AA?9?$AAp?$AAr?$AA?$AA@ 20111304     libucrt:lcidtoname_downlevel.obj
 0002:00021310       ??_C@_1M@FGMDIJED@?$AAe?$AAs?$AA?9?$AAp?$AAy?$AA?$AA@ 20111310     libucrt:lcidtoname_downlevel.obj
 0002:0002131c       ??_C@_1M@IIDEOLLL@?$AAe?$AAs?$AA?9?$AAs?$AAv?$AA?$AA@ 2011131c     libucrt:lcidtoname_downlevel.obj
 0002:00021328       ??_C@_1M@GAOBIPA@?$AAe?$AAs?$AA?9?$AAu?$AAy?$AA?$AA@ 20111328     libucrt:lcidtoname_downlevel.obj
 0002:00021334       ??_C@_1M@JKFFICHJ@?$AAe?$AAs?$AA?9?$AAv?$AAe?$AA?$AA@ 20111334     libucrt:lcidtoname_downlevel.obj
 0002:00021340       ??_C@_1M@PNMLOJDF@?$AAe?$AAt?$AA?9?$AAe?$AAe?$AA?$AA@ 20111340     libucrt:lcidtoname_downlevel.obj
 0002:0002134c       ??_C@_1M@GHHLIKEI@?$AAe?$AAu?$AA?9?$AAe?$AAs?$AA?$AA@ 2011134c     libucrt:lcidtoname_downlevel.obj
 0002:00021358       ??_C@_1M@PBNONODE@?$AAf?$AAa?$AA?9?$AAi?$AAr?$AA?$AA@ 20111358     libucrt:lcidtoname_downlevel.obj
 0002:00021364       ??_C@_1M@JEEHPMIL@?$AAf?$AAi?$AA?9?$AAf?$AAi?$AA?$AA@ 20111364     libucrt:lcidtoname_downlevel.obj
 0002:00021370       ??_C@_1M@LMDCNDBA@?$AAf?$AAo?$AA?9?$AAf?$AAo?$AA?$AA@ 20111370     libucrt:lcidtoname_downlevel.obj
 0002:0002137c       ??_C@_1M@JKEOHLDK@?$AAf?$AAr?$AA?9?$AAb?$AAe?$AA?$AA@ 2011137c     libucrt:lcidtoname_downlevel.obj
 0002:00021388       ??_C@_1M@NOHADPMI@?$AAf?$AAr?$AA?9?$AAc?$AAa?$AA?$AA@ 20111388     libucrt:lcidtoname_downlevel.obj
 0002:00021394       ??_C@_1M@KDHIHAEC@?$AAf?$AAr?$AA?9?$AAc?$AAh?$AA?$AA@ 20111394     libucrt:lcidtoname_downlevel.obj
 0002:000213a0       ??_C@_1M@MMBBFGAK@?$AAf?$AAr?$AA?9?$AAf?$AAr?$AA?$AA@ 201113a0     libucrt:lcidtoname_downlevel.obj
 0002:000213ac       ??_C@_1M@PAFNENNF@?$AAf?$AAr?$AA?9?$AAl?$AAu?$AA?$AA@ 201113ac     libucrt:lcidtoname_downlevel.obj
 0002:000213b8       ??_C@_1M@EOHDJGDD@?$AAf?$AAr?$AA?9?$AAm?$AAc?$AA?$AA@ 201113b8     libucrt:lcidtoname_downlevel.obj
 0002:000213c4       ??_C@_1M@FAPLLOPF@?$AAg?$AAl?$AA?9?$AAe?$AAs?$AA?$AA@ 201113c4     libucrt:lcidtoname_downlevel.obj
 0002:000213d0       ??_C@_1M@FOPBFLOO@?$AAg?$AAu?$AA?9?$AAi?$AAn?$AA?$AA@ 201113d0     libucrt:lcidtoname_downlevel.obj
 0002:000213dc       ??_C@_1M@KBMCINPM@?$AAh?$AAe?$AA?9?$AAi?$AAl?$AA?$AA@ 201113dc     libucrt:lcidtoname_downlevel.obj
 0002:000213e8       ??_C@_1M@BBPHKFPJ@?$AAh?$AAi?$AA?9?$AAi?$AAn?$AA?$AA@ 201113e8     libucrt:lcidtoname_downlevel.obj
 0002:000213f4       ??_C@_1M@PMBNDPHD@?$AAh?$AAr?$AA?9?$AAb?$AAa?$AA?$AA@ 201113f4     libucrt:lcidtoname_downlevel.obj
 0002:00021400       ??_C@_1M@BPCKOEGE@?$AAh?$AAr?$AA?9?$AAh?$AAr?$AA?$AA@ 20111400     libucrt:lcidtoname_downlevel.obj
 0002:0002140c       ??_C@_1M@GACBMHKE@?$AAh?$AAu?$AA?9?$AAh?$AAu?$AA?$AA@ 2011140c     libucrt:lcidtoname_downlevel.obj
 0002:00021418       ??_C@_1M@MILPAJJC@?$AAh?$AAy?$AA?9?$AAa?$AAm?$AA?$AA@ 20111418     libucrt:lcidtoname_downlevel.obj
 0002:00021424       ??_C@_1M@BABBICEC@?$AAi?$AAd?$AA?9?$AAi?$AAd?$AA?$AA@ 20111424     libucrt:lcidtoname_downlevel.obj
 0002:00021430       ??_C@_1M@BIKNHHPF@?$AAi?$AAs?$AA?9?$AAi?$AAs?$AA?$AA@ 20111430     libucrt:lcidtoname_downlevel.obj
 0002:0002143c       ??_C@_1M@NMPCJPHE@?$AAi?$AAt?$AA?9?$AAc?$AAh?$AA?$AA@ 2011143c     libucrt:lcidtoname_downlevel.obj
 0002:00021448       ??_C@_1M@GHKGFEDF@?$AAi?$AAt?$AA?9?$AAi?$AAt?$AA?$AA@ 20111448     libucrt:lcidtoname_downlevel.obj
 0002:00021454       ??_C@_1M@NIEJCJJA@?$AAj?$AAa?$AA?9?$AAj?$AAp?$AA?$AA@ 20111454     libucrt:lcidtoname_downlevel.obj
 0002:00021460       ??_C@_1M@JILFNBIM@?$AAk?$AAa?$AA?9?$AAg?$AAe?$AA?$AA@ 20111460     libucrt:lcidtoname_downlevel.obj
 0002:0002146c       ??_C@_1M@PACPMGPH@?$AAk?$AAk?$AA?9?$AAk?$AAz?$AA?$AA@ 2011146c     libucrt:lcidtoname_downlevel.obj
 0002:00021478       ??_C@_1M@IELFGMHA@?$AAk?$AAn?$AA?9?$AAi?$AAn?$AA?$AA@ 20111478     libucrt:lcidtoname_downlevel.obj
 0002:00021484       ??_C@_1O@IBBJHCH@?$AAk?$AAo?$AAk?$AA?9?$AAi?$AAn?$AA?$AA@ 20111484     libucrt:lcidtoname_downlevel.obj
 0002:00021494       ??_C@_1M@DMHAEOGC@?$AAk?$AAo?$AA?9?$AAk?$AAr?$AA?$AA@ 20111494     libucrt:lcidtoname_downlevel.obj
 0002:000214a0       ??_C@_1M@HBAHBIGA@?$AAk?$AAy?$AA?9?$AAk?$AAg?$AA?$AA@ 201114a0     libucrt:lcidtoname_downlevel.obj
 0002:000214ac       ??_C@_1M@KPMILCJG@?$AAl?$AAt?$AA?9?$AAl?$AAt?$AA?$AA@ 201114ac     libucrt:lcidtoname_downlevel.obj
 0002:000214b8       ??_C@_1M@BDEKKCA@?$AAl?$AAv?$AA?9?$AAl?$AAv?$AA?$AA@ 201114b8     libucrt:lcidtoname_downlevel.obj
 0002:000214c4       ??_C@_1M@ELCKCCJJ@?$AAm?$AAi?$AA?9?$AAn?$AAz?$AA?$AA@ 201114c4     libucrt:lcidtoname_downlevel.obj
 0002:000214d0       ??_C@_1M@CBOOLAPA@?$AAm?$AAk?$AA?9?$AAm?$AAk?$AA?$AA@ 201114d0     libucrt:lcidtoname_downlevel.obj
 0002:000214dc       ??_C@_1M@GPHNBJKN@?$AAm?$AAl?$AA?9?$AAi?$AAn?$AA?$AA@ 201114dc     libucrt:lcidtoname_downlevel.obj
 0002:000214e8       ??_C@_1M@PABJILIG@?$AAm?$AAn?$AA?9?$AAm?$AAn?$AA?$AA@ 201114e8     libucrt:lcidtoname_downlevel.obj
 0002:000214f4       ??_C@_1M@FGBKKIPG@?$AAm?$AAr?$AA?9?$AAi?$AAn?$AA?$AA@ 201114f4     libucrt:lcidtoname_downlevel.obj
 0002:00021500       ??_C@_1M@NDBPDDAL@?$AAm?$AAs?$AA?9?$AAb?$AAn?$AA?$AA@ 20111500     libucrt:lcidtoname_downlevel.obj
 0002:0002150c       ??_C@_1M@OPIHOOPI@?$AAm?$AAs?$AA?9?$AAm?$AAy?$AA?$AA@ 2011150c     libucrt:lcidtoname_downlevel.obj
 0002:00021518       ??_C@_1M@PPDBCNFM@?$AAm?$AAt?$AA?9?$AAm?$AAt?$AA?$AA@ 20111518     libucrt:lcidtoname_downlevel.obj
 0002:00021524       ??_C@_1M@KDJDKMDD@?$AAn?$AAb?$AA?9?$AAn?$AAo?$AA?$AA@ 20111524     libucrt:lcidtoname_downlevel.obj
 0002:00021530       ??_C@_1M@KFCFLMJP@?$AAn?$AAl?$AA?9?$AAb?$AAe?$AA?$AA@ 20111530     libucrt:lcidtoname_downlevel.obj
 0002:0002153c       ??_C@_1M@KPOPDDGO@?$AAn?$AAl?$AA?9?$AAn?$AAl?$AA?$AA@ 2011153c     libucrt:lcidtoname_downlevel.obj
 0002:00021548       ??_C@_1M@LJKPEMLN@?$AAn?$AAn?$AA?9?$AAn?$AAo?$AA?$AA@ 20111548     libucrt:lcidtoname_downlevel.obj
 0002:00021554       ??_C@_1M@BDGHHBFL@?$AAn?$AAs?$AA?9?$AAz?$AAa?$AA?$AA@ 20111554     libucrt:lcidtoname_downlevel.obj
 0002:00021560       ??_C@_1M@IDEHOAP@?$AAp?$AAa?$AA?9?$AAi?$AAn?$AA?$AA@ 20111560     libucrt:lcidtoname_downlevel.obj
 0002:0002156c       ??_C@_1M@HDBKGOGH@?$AAp?$AAl?$AA?9?$AAp?$AAl?$AA?$AA@ 2011156c     libucrt:lcidtoname_downlevel.obj
 0002:00021578       ??_C@_1M@LJLLCMEH@?$AAp?$AAt?$AA?9?$AAb?$AAr?$AA?$AA@ 20111578     libucrt:lcidtoname_downlevel.obj
 0002:00021584       ??_C@_1M@NCMONAAL@?$AAp?$AAt?$AA?9?$AAp?$AAt?$AA?$AA@ 20111584     libucrt:lcidtoname_downlevel.obj
 0002:00021590       ??_C@_1O@EAKMAJDN@?$AAq?$AAu?$AAz?$AA?9?$AAb?$AAo?$AA?$AA@ 20111590     libucrt:lcidtoname_downlevel.obj
 0002:000215a0       ??_C@_1O@BHHPIGDN@?$AAq?$AAu?$AAz?$AA?9?$AAe?$AAc?$AA?$AA@ 201115a0     libucrt:lcidtoname_downlevel.obj
 0002:000215b0       ??_C@_1O@GBAPEKMJ@?$AAq?$AAu?$AAz?$AA?9?$AAp?$AAe?$AA?$AA@ 201115b0     libucrt:lcidtoname_downlevel.obj
 0002:000215c0       ??_C@_1M@CLGLEFBO@?$AAr?$AAo?$AA?9?$AAr?$AAo?$AA?$AA@ 201115c0     libucrt:lcidtoname_downlevel.obj
 0002:000215cc       ??_C@_1M@CEEDODME@?$AAr?$AAu?$AA?9?$AAr?$AAu?$AA?$AA@ 201115cc     libucrt:lcidtoname_downlevel.obj
 0002:000215d8       ??_C@_1M@HPKKKMPP@?$AAs?$AAa?$AA?9?$AAi?$AAn?$AA?$AA@ 201115d8     libucrt:lcidtoname_downlevel.obj
 0002:000215e4       ??_C@_1M@BKMAIGOJ@?$AAs?$AAe?$AA?9?$AAf?$AAi?$AA?$AA@ 201115e4     libucrt:lcidtoname_downlevel.obj
 0002:000215f0       ??_C@_1M@NDPIFLFI@?$AAs?$AAe?$AA?9?$AAn?$AAo?$AA?$AA@ 201115f0     libucrt:lcidtoname_downlevel.obj
 0002:000215fc       ??_C@_1M@DANKKHJ@?$AAs?$AAe?$AA?9?$AAs?$AAe?$AA?$AA@ 201115fc     libucrt:lcidtoname_downlevel.obj
 0002:00021608       ??_C@_1M@PNBLONPJ@?$AAs?$AAk?$AA?9?$AAs?$AAk?$AA?$AA@ 20111608     libucrt:lcidtoname_downlevel.obj
 0002:00021614       ??_C@_1M@LFMODOAL@?$AAs?$AAl?$AA?9?$AAs?$AAi?$AA?$AA@ 20111614     libucrt:lcidtoname_downlevel.obj
 0002:00021620       ??_C@_1O@DFKOMPG@?$AAs?$AAm?$AAa?$AA?9?$AAn?$AAo?$AA?$AA@ 20111620     libucrt:lcidtoname_downlevel.obj
 0002:00021630       ??_C@_1O@NDKPBNNH@?$AAs?$AAm?$AAa?$AA?9?$AAs?$AAe?$AA?$AA@ 20111630     libucrt:lcidtoname_downlevel.obj
 0002:00021640       ??_C@_1O@PLLKBHAB@?$AAs?$AAm?$AAj?$AA?9?$AAn?$AAo?$AA?$AA@ 20111640     libucrt:lcidtoname_downlevel.obj
 0002:00021650       ??_C@_1O@CLEPOGCA@?$AAs?$AAm?$AAj?$AA?9?$AAs?$AAe?$AA?$AA@ 20111650     libucrt:lcidtoname_downlevel.obj
 0002:00021660       ??_C@_1O@DLGJGKMK@?$AAs?$AAm?$AAn?$AA?9?$AAf?$AAi?$AA?$AA@ 20111660     libucrt:lcidtoname_downlevel.obj
 0002:00021670       ??_C@_1O@OJDJGAJC@?$AAs?$AAm?$AAs?$AA?9?$AAf?$AAi?$AA?$AA@ 20111670     libucrt:lcidtoname_downlevel.obj
 0002:00021680       ??_C@_1M@BOFOGHPB@?$AAs?$AAq?$AA?9?$AAa?$AAl?$AA?$AA@ 20111680     libucrt:lcidtoname_downlevel.obj
 0002:0002168c       ??_C@_1BG@LJBBIPGB@?$AAs?$AAr?$AA?9?$AAb?$AAa?$AA?9?$AAc?$AAy?$AAr?$AAl?$AA?$AA@ 2011168c     libucrt:lcidtoname_downlevel.obj
 0002:000216a4       ??_C@_1BG@JLBENFOE@?$AAs?$AAr?$AA?9?$AAb?$AAa?$AA?9?$AAl?$AAa?$AAt?$AAn?$AA?$AA@ 201116a4     libucrt:lcidtoname_downlevel.obj
 0002:000216bc       ??_C@_1BG@KODPNHE@?$AAs?$AAr?$AA?9?$AAs?$AAp?$AA?9?$AAc?$AAy?$AAr?$AAl?$AA?$AA@ 201116bc     libucrt:lcidtoname_downlevel.obj
 0002:000216d4       ??_C@_1BG@CIOGKHPB@?$AAs?$AAr?$AA?9?$AAs?$AAp?$AA?9?$AAl?$AAa?$AAt?$AAn?$AA?$AA@ 201116d4     libucrt:lcidtoname_downlevel.obj
 0002:000216ec       ??_C@_1M@NGFJLMAC@?$AAs?$AAv?$AA?9?$AAf?$AAi?$AA?$AA@ 201116ec     libucrt:lcidtoname_downlevel.obj
 0002:000216f8       ??_C@_1M@MPJEJAJC@?$AAs?$AAv?$AA?9?$AAs?$AAe?$AA?$AA@ 201116f8     libucrt:lcidtoname_downlevel.obj
 0002:00021704       ??_C@_1M@MPNDHLFK@?$AAs?$AAw?$AA?9?$AAk?$AAe?$AA?$AA@ 20111704     libucrt:lcidtoname_downlevel.obj
 0002:00021710       ??_C@_1O@KOHBJJI@?$AAs?$AAy?$AAr?$AA?9?$AAs?$AAy?$AA?$AA@ 20111710     libucrt:lcidtoname_downlevel.obj
 0002:00021720       ??_C@_1M@LDCEFHA@?$AAt?$AAa?$AA?9?$AAi?$AAn?$AA?$AA@ 20111720     libucrt:lcidtoname_downlevel.obj
 0002:0002172c       ??_C@_1M@CNJOFAK@?$AAt?$AAe?$AA?9?$AAi?$AAn?$AA?$AA@ 2011172c     libucrt:lcidtoname_downlevel.obj
 0002:00021738       ??_C@_1M@GNAECACD@?$AAt?$AAh?$AA?9?$AAt?$AAh?$AA?$AA@ 20111738     libucrt:lcidtoname_downlevel.obj
 0002:00021744       ??_C@_1M@CHBIHOJO@?$AAt?$AAn?$AA?9?$AAz?$AAa?$AA?$AA@ 20111744     libucrt:lcidtoname_downlevel.obj
 0002:00021750       ??_C@_1M@GCCMIGPJ@?$AAt?$AAr?$AA?9?$AAt?$AAr?$AA?$AA@ 20111750     libucrt:lcidtoname_downlevel.obj
 0002:0002175c       ??_C@_1M@CELMCNBK@?$AAt?$AAt?$AA?9?$AAr?$AAu?$AA?$AA@ 2011175c     libucrt:lcidtoname_downlevel.obj
 0002:00021768       ??_C@_1M@KLMCELGA@?$AAu?$AAk?$AA?9?$AAu?$AAa?$AA?$AA@ 20111768     libucrt:lcidtoname_downlevel.obj
 0002:00021774       ??_C@_1M@EPAJJAJF@?$AAu?$AAr?$AA?9?$AAp?$AAk?$AA?$AA@ 20111774     libucrt:lcidtoname_downlevel.obj
 0002:00021780       ??_C@_1BG@GEGPMCDJ@?$AAu?$AAz?$AA?9?$AAu?$AAz?$AA?9?$AAc?$AAy?$AAr?$AAl?$AA?$AA@ 20111780     libucrt:lcidtoname_downlevel.obj
 0002:00021798       ??_C@_1BG@EGGKJILM@?$AAu?$AAz?$AA?9?$AAu?$AAz?$AA?9?$AAl?$AAa?$AAt?$AAn?$AA?$AA@ 20111798     libucrt:lcidtoname_downlevel.obj
 0002:000217b0       ??_C@_1M@GFOCLFF@?$AAv?$AAi?$AA?9?$AAv?$AAn?$AA?$AA@ 201117b0     libucrt:lcidtoname_downlevel.obj
 0002:000217bc       ??_C@_1M@CPAMEDFI@?$AAx?$AAh?$AA?9?$AAz?$AAa?$AA?$AA@ 201117bc     libucrt:lcidtoname_downlevel.obj
 0002:000217c8       ??_C@_1O@EBKIFIGN@?$AAz?$AAh?$AA?9?$AAc?$AAh?$AAs?$AA?$AA@ 201117c8     libucrt:lcidtoname_downlevel.obj
 0002:000217d8       ??_C@_1O@NMHPGANE@?$AAz?$AAh?$AA?9?$AAc?$AAh?$AAt?$AA?$AA@ 201117d8     libucrt:lcidtoname_downlevel.obj
 0002:000217e8       ??_C@_1M@LPINJOMC@?$AAz?$AAh?$AA?9?$AAc?$AAn?$AA?$AA@ 201117e8     libucrt:lcidtoname_downlevel.obj
 0002:000217f4       ??_C@_1M@OCJEJODD@?$AAz?$AAh?$AA?9?$AAh?$AAk?$AA?$AA@ 201117f4     libucrt:lcidtoname_downlevel.obj
 0002:00021800       ??_C@_1M@DNDLJINH@?$AAz?$AAh?$AA?9?$AAm?$AAo?$AA?$AA@ 20111800     libucrt:lcidtoname_downlevel.obj
 0002:0002180c       ??_C@_1M@MBFDNDND@?$AAz?$AAh?$AA?9?$AAs?$AAg?$AA?$AA@ 2011180c     libucrt:lcidtoname_downlevel.obj
 0002:00021818       ??_C@_1M@IMEPLEPE@?$AAz?$AAh?$AA?9?$AAt?$AAw?$AA?$AA@ 20111818     libucrt:lcidtoname_downlevel.obj
 0002:00021824       ??_C@_1M@BBGHNHJP@?$AAz?$AAu?$AA?9?$AAz?$AAa?$AA?$AA@ 20111824     libucrt:lcidtoname_downlevel.obj
 0002:00021940       __infinity                 20111940     libucrt:87tran.obj
 0002:0002194a       __minfinity                2011194a     libucrt:87tran.obj
 0002:00021954       __logemax                  20111954     libucrt:87tran.obj
 0002:0002197a       __OP_EXPjmptab             2011197a     libucrt:87tran.obj
 0002:0002199c       ??_C@_1BA@BALFACEM@?$AAC?$AAO?$AAN?$AAO?$AAU?$AAT?$AA$?$AA?$AA@ 2011199c     libucrt:initcon.obj
 0002:000219b0       ___acrt_log10_table_t      201119b0     libucrt:log10_tables.obj
 0002:00021dc0       ___acrt_log10_table_cb     20111dc0     libucrt:log10_tables.obj
 0002:00022228       __load_config_used         20112228     LIBCMT:loadcfg.obj
 0002:00022290       ___safe_se_handler_table   20112290     <linker-defined>
 0002:000222a0       ?_TraceLoggingMetadata@?1??_TlgWrite@__vcrt_trace_logging_provider@@YAJPBU_TlgProvider_t@2@PBXPBU_GUID@@2IPAU_EVENT_DATA_DESCRIPTOR@@@Z@4U_TraceLoggingMetadata_t@2@B 201122a0     libvcruntime:telemetry.obj
 0002:00022353       ?_TraceLoggingMetadataEnd@?1??_TlgWrite@__vcrt_trace_logging_provider@@YAJPBU_TlgProvider_t@2@PBXPBU_GUID@@2IPAU_EVENT_DATA_DESCRIPTOR@@@Z@4EB 20112353     libvcruntime:telemetry.obj
 0002:000226d4       ___rtc_iaa                 201126d4     LIBCMT:_initsect_.obj
 0002:000226d8       ___rtc_izz                 201126d8     LIBCMT:_initsect_.obj
 0002:000226dc       ___rtc_taa                 201126dc     LIBCMT:_initsect_.obj
 0002:000226e0       ___rtc_tzz                 201126e0     LIBCMT:_initsect_.obj
 0002:00022adc       __IMPORT_DESCRIPTOR_KERNEL32 20112adc     kernel32:KERNEL32.dll
 0002:00022af0       __IMPORT_DESCRIPTOR_ADVAPI32 20112af0     advapi32:ADVAPI32.dll
 0002:00022b04       __NULL_IMPORT_DESCRIPTOR   20112b04     kernel32:KERNEL32.dll
 0003:00000000       _ctfStateNames             20114000     ai_main.obj
 0003:0000001c       _ctfStateDescriptions      2011401c     ai_main.obj
 0003:00000034       _siegeStateDescriptions    20114034     ai_main.obj
 0003:00000040       _teamplayStateDescriptions 20114040     ai_main.obj
 0003:00000050       _gLastPrintedIndex         20114050     ai_wpnav.obj
 0003:00000058       _botGlobalNavWeaponWeights 20114058     ai_wpnav.obj
 0003:000000a8       _bg_customSiegeSoundNames  201140a8     bg_misc.obj
 0003:00000120       _bgToggleableSurfaces      20114120     bg_misc.obj
 0003:0000019c       _bg_numItems               2011419c     bg_misc.obj
 0003:000001a0       _forcePowerSorted          201141a0     bg_misc.obj
 0003:000001e8       _WeaponReadyLegsAnim       201141e8     bg_misc.obj
 0003:00000234       _forceMasteryLevels        20114234     bg_misc.obj
 0003:00000254       _forceMasteryPoints        20114254     bg_misc.obj
 0003:00000278       _bgForcePowerCost          20114278     bg_misc.obj
 0003:00000398       _WeaponReadyAnim           20114398     bg_misc.obj
 0003:000003e8       _WeaponAttackAnim          201143e8     bg_misc.obj
 0003:00000438       _forcePowerDarkLight       20114438     bg_misc.obj
 0003:00000480       _bg_itemlist               20114480     bg_misc.obj
 0003:00000fe0       _eventnames                20114fe0     bg_misc.obj
 0003:000011b8       _bgNumAllAnims             201151b8     bg_panimate.obj
 0003:000011c0       _animTable                 201151c0     bg_panimate.obj
 0003:00004218       _pm_vehicleaccelerate      20118218     bg_pmove.obj
 0003:0000421c       _pm_spectatorfriction      2011821c     bg_pmove.obj
 0003:00004220       _forceJumpHeight           20118220     bg_pmove.obj
 0003:00004230       _forceJumpStrength         20118230     bg_pmove.obj
 0003:00004240       _pm_stopspeed              20118240     bg_pmove.obj
 0003:00004244       _pm_duckScale              20118244     bg_pmove.obj
 0003:00004248       _pm_swimScale              20118248     bg_pmove.obj
 0003:0000424c       _pm_wadeScale              2011824c     bg_pmove.obj
 0003:00004250       _pm_accelerate             20118250     bg_pmove.obj
 0003:00004254       _pm_airaccelerate          20118254     bg_pmove.obj
 0003:00004258       _pm_wateraccelerate        20118258     bg_pmove.obj
 0003:0000425c       _pm_flyaccelerate          2011825c     bg_pmove.obj
 0003:00004260       _pm_friction               20118260     bg_pmove.obj
 0003:00004264       _pm_waterfriction          20118264     bg_pmove.obj
 0003:00004268       _pm_flightfriction         20118268     bg_pmove.obj
 0003:00004270       _forcePowerNeeded          20118270     bg_pmove.obj
 0003:00004390       _forceSpeedLevels          20118390     bg_pmove.obj
 0003:000043a0       _forceJumpHeightMax        201183a0     bg_pmove.obj
 0003:000043b0       _saberMoveData             201183b0     bg_saber.obj
 0003:00005d00       _bg_parryDebounce          20119d00     bg_saber.obj
 0003:00005d10       _transitionMove            20119d10     bg_saber.obj
 0003:00005e10       _saberMoveTransitionAngle  20119e10     bg_saber.obj
 0003:00005f10       _SaberTable                20119f10     bg_saberLoad.obj
 0003:00005f78       _bgSiegeClassFlagNames     20119f78     bg_saga.obj
 0003:00005fc0       _StanceTable               20119fc0     bg_saga.obj
 0003:00006008       _WPTable                   2011a008     bg_saga.obj
 0003:000060b0       _FPTable                   2011a0b0     bg_saga.obj
 0003:00006148       _HoldableTable             2011a148     bg_saga.obj
 0003:000061b0       _PowerupTable              2011a1b0     bg_saga.obj
 0003:00006238       _classTitles               2011a238     bg_saga.obj
 0003:00006250       _vehWeaponFields           2011a250     bg_vehicleLoad.obj
 0003:00006370       _vehicleFields             2011a370     bg_vehicleLoad.obj
 0003:00006ba4       _VehicleTable              2011aba4     bg_vehicleLoad.obj
 0003:00006bdc       _numVehicleWeapons         2011abdc     bg_vehicleLoad.obj
 0003:00006be0       _WP_MuzzlePoint            2011abe0     bg_weapons.obj
 0003:00006cc8       _weaponData                2011acc8     bg_weapons.obj
 0003:000070f0       _ammoData                  2011b0f0     bg_weapons.obj
 0003:00007180       _modNames                  2011b180     g_combat.obj
 0003:0000722c       _gPainHitLoc               2011b22c     g_combat.obj
 0003:00007230       _hitLocName                2011b230     g_combat.obj
 0003:00007290       _setTable                  2011b290     g_ICARUScb.obj
 0003:00007930       _weaponFromMOD             2011b930     g_log.obj
 0003:000079e0       _weaponNameFromIndex       2011b9e0     g_log.obj
 0003:00008934       _BMS_MID                   2011c934     g_mover.obj
 0003:00008938       _BMS_END                   2011c938     g_mover.obj
 0003:0000893c       _gSiegeBeginTime           2011c93c     g_saga.obj
 0003:00008940       _fields                    2011c940     g_spawn.obj
 0003:00008ea0       _spawns                    2011cea0     g_spawn.obj
 0003:00009644       _NPCDEBUG_RED              2011d644     NPC.obj
 0003:00009650       _NPCDEBUG_GREEN            2011d650     NPC.obj
 0003:0000965c       _NPCDEBUG_BLUE             2011d65c     NPC.obj
 0003:00009668       _NPCDEBUG_LIGHT_BLUE       2011d668     NPC.obj
 0003:00009690       _TeamTable                 2011d690     NPC_stats.obj
 0003:000096b8       _ClassTable                2011d6b8     NPC_stats.obj
 0003:00009880       _BSTable                   2011d880     NPC_stats.obj
 0003:000098d8       _BSETTable                 2011d8d8     NPC_stats.obj
 0003:00009970       _TeamNames                 2011d970     NPC_stats.obj
 0003:00009980       _ClassNames                2011d980     NPC_stats.obj
 0003:00009a60       _bytedirs                  2011da60     q_math.obj
 0003:0000a1f8       _colorBlack                2011e1f8     q_math.obj
 0003:0000a208       _colorRed                  2011e208     q_math.obj
 0003:0000a218       _colorGreen                2011e218     q_math.obj
 0003:0000a228       _colorBlue                 2011e228     q_math.obj
 0003:0000a238       _colorYellow               2011e238     q_math.obj
 0003:0000a248       _colorMagenta              2011e248     q_math.obj
 0003:0000a258       _colorCyan                 2011e258     q_math.obj
 0003:0000a268       _colorWhite                2011e268     q_math.obj
 0003:0000a278       _colorLtGrey               2011e278     q_math.obj
 0003:0000a288       _colorMdGrey               2011e288     q_math.obj
 0003:0000a298       _colorDkGrey               2011e298     q_math.obj
 0003:0000a2a8       _colorLtBlue               2011e2a8     q_math.obj
 0003:0000a2b8       _colorDkBlue               2011e2b8     q_math.obj
 0003:0000a2c8       _g_color_table             2011e2c8     q_math.obj
 0003:0000a348       _axisDefault               2011e348     q_math.obj
 0003:0000a370       _forcePushPullRadius       2011e370     w_force.obj
 0003:0000a388       __fltused                  2011e388     LIBCMT:fltused.obj
 0003:0000a390       ___isa_enabled             2011e390     LIBCMT:_cpu_disp_.obj
 0003:0000a3a0       ___scrt_native_dllmain_reason 2011e3a0     LIBCMT:utility.obj
 0003:0000a3b0       ___security_cookie_complement 2011e3b0     LIBCMT:gs_cookie.obj
 0003:0000a3b4       ___security_cookie         2011e3b4     LIBCMT:gs_cookie.obj
 0003:0000a410       __NLG_Destination          2011e410     libvcruntime:_exsup_.obj
 0003:0000a420       ___abort_behavior          2011e420     libucrt:abort.obj
 0003:0000a438       ___acrt_initial_locale_data 2011e438     libucrt:nlsdata.obj
 0003:0000a4f0       ___acrt_initial_locale_pointers 2011e4f0     libucrt:nlsdata.obj
 0003:0000a4f8       ___acrt_wide_c_locale_string 2011e4f8     libucrt:nlsdata.obj
 0003:0000a500       __iob                      2011e500     libucrt:_file.obj
 0003:0000a6a8       __mbctype                  2011e6a8     libucrt:mbctype.obj
 0003:0000a7b0       __mbcasemap                2011e7b0     libucrt:mbctype.obj
 0003:0000a8b0       ___acrt_initial_multibyte_data 2011e8b0     libucrt:mbctype.obj
 0003:0000aad0       ___acrt_current_multibyte_data 2011ead0     libucrt:mbctype.obj
 0003:0000aae0       ___globallocalestatus      2011eae0     libucrt:glstatus.obj
 0003:0000aae4       ___acrt_lconv_static_decimal 2011eae4     libucrt:localeconv.obj
 0003:0000aae8       ___acrt_lconv_static_W_decimal 2011eae8     libucrt:localeconv.obj
 0003:0000aaf0       ___acrt_lconv_c            2011eaf0     libucrt:localeconv.obj
 0003:0000ab40       ___dcrt_lowio_console_output_handle 2011eb40     libucrt:initcon.obj
 0003:0000ab60       _gUpdateVars               2011eb60     ai_main.obj
 0003:0000ab6c       _gSpawnPointNum            2011eb6c     ai_wpnav.obj
 0003:0000ab70       _gWPRenderTime             2011eb70     ai_wpnav.obj
 0003:0000ab74       _gDeactivated              2011eb74     ai_wpnav.obj
 0003:0000ab78       _gBotEdit                  2011eb78     ai_wpnav.obj
 0003:0000ab7c       _gWPRenderedFrame          2011eb7c     ai_wpnav.obj
 0003:0000ab80       _gWPNum                    2011eb80     ai_wpnav.obj
 0003:0000ab84       _gLevelFlags               2011eb84     ai_wpnav.obj
 0003:002e7254       _BGPAFtextLoaded           203fb254     bg_panimate.obj
 0003:002e7264       _pm_entSelf                203fb264     bg_pmove.obj
 0003:002e7268       _pm_entVeh                 203fb268     bg_pmove.obj
 0003:002e726c       _gPMDoSlowFall             203fb26c     bg_pmove.obj
 0003:002e7270       _pm_cancelOutZoom          203fb270     bg_pmove.obj
 0003:002e7274       _c_pmove                   203fb274     bg_pmove.obj
 0003:00307330       _bgNumSiegeClasses         2041b330     bg_saga.obj
 0003:00307334       _bgNumSiegeTeams           2041b334     bg_saga.obj
 0003:00307338       _siege_valid               2041b338     bg_saga.obj
 0003:0030733c       _team1Theme                2041b33c     bg_saga.obj
 0003:00307340       _team2Theme                2041b340     bg_saga.obj
 0003:00307344       _numVehicles               2041b344     bg_vehicleLoad.obj
 0003:003093d0       _gJMSaberEnt               2041d3d0     g_client.obj
 0003:003093d4       _g2SaberInstance           2041d3d4     g_client.obj
 0003:003097f8       _g_dontPenalizeTeam        2041d7f8     g_cmds.obj
 0003:003097fc       _g_preventTeamBegin        2041d7fc     g_cmds.obj
 0003:00309c00       _gPainMOD                  2041dc00     g_combat.obj
 0003:00309c04       _gGAvoidDismember          2041dc04     g_combat.obj
 0003:00309c0c       _player_locked             2041dc0c     g_ICARUScb.obj
 0003:00309c30       _g_dontFrickinCheck        2041dc30     g_main.obj
 0003:00309c34       _gDoSlowMoDuel             2041dc34     g_main.obj
 0003:00309c38       _gSlowMoDuelTime           2041dc38     g_main.obj
 0003:00309c3c       _gQueueScoreMessage        2041dc3c     g_main.obj
 0003:00309c40       _gQueueScoreMessageTime    2041dc40     g_main.obj
 0003:00309c44       _g_noPDuelCheck            2041dc44     g_main.obj
 0003:00309c48       _gDidDuelStuff             2041dc48     g_main.obj
 0003:00309c4c       _eventClearTime            2041dc4c     g_main.obj
 0003:00309c50       _killPlayerTimer           2041dc50     g_main.obj
 0003:00309c54       _gDuelExit                 2041dc54     g_main.obj
 0003:00309c58       _g_endPDuel                2041dc58     g_main.obj
 0003:00309c5c       _g_duelPrintTimer          2041dc5c     g_main.obj
 0003:00309c60       _g_LastFrameTime           2041dc60     g_main.obj
 0003:00309c64       _g_TimeSinceLastFrame      2041dc64     g_main.obj
 0003:00309c68       _g_siegeRespawnCheck       2041dc68     g_main.obj
 0003:00309c6c       _g_duelAssigning           2041dc6c     g_main.obj
 0003:0034a080       _gEscaping                 2045e080     g_misc.obj
 0003:0034a084       _gEscapeTime               2045e084     g_misc.obj
 0003:003645d4       _BMS_START                 204785d4     g_mover.obj
 0003:003645d8       _fatalErrors               204785d8     g_nav.obj
 0003:003645dc       _fatalErrorPointer         204785dc     g_nav.obj
 0003:003645e0       _navCalculatePaths         204785e0     g_nav.obj
 0003:003645e4       _NAVDEBUG_showNodes        204785e4     g_nav.obj
 0003:003645e8       _NAVDEBUG_showRadius       204785e8     g_nav.obj
 0003:003645ec       _NAVDEBUG_showEdges        204785ec     g_nav.obj
 0003:003645f0       _NAVDEBUG_showTestPath     204785f0     g_nav.obj
 0003:003645f4       _NAVDEBUG_showEnemyPath    204785f4     g_nav.obj
 0003:003645f8       _NAVDEBUG_showCombatPoints 204785f8     g_nav.obj
 0003:003645fc       _NAVDEBUG_showNavGoals     204785fc     g_nav.obj
 0003:00364600       _NAVDEBUG_showCollision    20478600     g_nav.obj
 0003:00364604       _NAVDEBUG_curGoal          20478604     g_nav.obj
 0003:0038ce10       _g_siegePersistant         204a0e10     g_saga.obj
 0003:0038ce1c       _imperial_goals_required   204a0e1c     g_saga.obj
 0003:0038ce20       _imperial_goals_completed  204a0e20     g_saga.obj
 0003:0038ce24       _rebel_goals_required      204a0e24     g_saga.obj
 0003:0038ce28       _rebel_goals_completed     204a0e28     g_saga.obj
 0003:0038ce2c       _imperial_time_limit       204a0e2c     g_saga.obj
 0003:0038ce30       _rebel_time_limit          204a0e30     g_saga.obj
 0003:0038ce34       _gImperialCountdown        204a0e34     g_saga.obj
 0003:0038ce38       _gRebelCountdown           204a0e38     g_saga.obj
 0003:0038ce3c       _rebel_attackers           204a0e3c     g_saga.obj
 0003:0038ce40       _imperial_attackers        204a0e40     g_saga.obj
 0003:0038ce44       _gSiegeRoundBegun          204a0e44     g_saga.obj
 0003:0038ce48       _gSiegeRoundEnded          204a0e48     g_saga.obj
 0003:0038ce4c       _g_preroundState           204a0e4c     g_saga.obj
 0003:00391650       _precachedKyle             204a5650     g_spawn.obj
 0003:0039365c       _numNewICARUSEnts          204a765c     g_target.obj
 0003:00393670       _remapCount                204a7670     g_utils.obj
 0003:00393674       _gG2KillNum                204a7674     g_utils.obj
 0003:003b17cc       _enemyDist                 204c57cc     NPC_AI_Wampa.obj
 0003:003b17d0       _showBBoxes                204c57d0     NPC_spawn.obj
 0003:003b17d4       _vec3_origin               204c57d4     q_math.obj
 0003:003c7a2c       _speedLoopSound            204dba2c     w_force.obj
 0003:003c7a30       _rageLoopSound             204dba30     w_force.obj
 0003:003c7a34       _protectLoopSound          204dba34     w_force.obj
 0003:003c7a38       _absorbLoopSound           204dba38     w_force.obj
 0003:003c7a3c       _seeLoopSound              204dba3c     w_force.obj
 0003:003c7a40       _ysalamiriLoopSound        204dba40     w_force.obj
 0003:003c7a48       _saberSpinSound            204dba48     w_saber.obj
 0003:003c7f08       ___isa_available           204dbf08     LIBCMT:_cpu_disp_.obj
 0003:003c7f0c       ___favor                   204dbf0c     LIBCMT:_cpu_disp_.obj
 0003:003c7f14       ___scrt_current_native_startup_state 204dbf14     LIBCMT:utility.obj
 0003:003c7f18       ___scrt_native_startup_lock 204dbf18     LIBCMT:utility.obj
 0003:003c7f38       ?__type_info_root_node@@3U__type_info_node@@A 204dbf38     LIBCMT:tncleanup.obj
 0003:003c7f40       ___scrt_debugger_hook_flag 204dbf40     LIBCMT:utility_desktop.obj
 0003:003c82dc       ___pPurecall               204dc2dc     libvcruntime:purevirt_data.obj
 0003:003c82e0       ?pArgList@UnDecorator@@0PAVReplicator@@A 204dc2e0     libvcruntime:undname.obj
 0003:003c82e4       ?pZNameList@UnDecorator@@0PAVReplicator@@A 204dc2e4     libvcruntime:undname.obj
 0003:003c82e8       ?pTemplateArgList@UnDecorator@@0PAVReplicator@@A 204dc2e8     libvcruntime:undname.obj
 0003:003c82ec       ?gName@UnDecorator@@0PBDB  204dc2ec     libvcruntime:undname.obj
 0003:003c82f0       ?name@UnDecorator@@0PBDB   204dc2f0     libvcruntime:undname.obj
 0003:003c82f4       ?outputString@UnDecorator@@0PADA 204dc2f4     libvcruntime:undname.obj
 0003:003c82f8       ?maxStringLength@UnDecorator@@0HA 204dc2f8     libvcruntime:undname.obj
 0003:003c82fc       ?disableFlags@UnDecorator@@0KA 204dc2fc     libvcruntime:undname.obj
 0003:003c8300       ?fExplicitTemplateParams@UnDecorator@@0_NA 204dc300     libvcruntime:undname.obj
 0003:003c8301       ?fGetTemplateArgumentList@UnDecorator@@0_NA 204dc301     libvcruntime:undname.obj
 0003:003c8304       ?m_pGetParameter@UnDecorator@@0P6APADJ@ZA 204dc304     libvcruntime:undname.obj
 0003:003c8328       __environ_table            204dc328     libucrt:environment_initialization.obj
 0003:003c832c       __wenviron_table           204dc32c     libucrt:environment_initialization.obj
 0003:003c8330       ___dcrt_initial_wide_environment 204dc330     libucrt:environment_initialization.obj
 0003:003c8334       ___dcrt_initial_narrow_environment 204dc334     libucrt:environment_initialization.obj
 0003:003c8338       ___acrt_atexit_table       204dc338     libucrt:onexit.obj
 0003:003c8344       ___acrt_at_quick_exit_table 204dc344     libucrt:onexit.obj
 0003:003c8358       ___acrt_locale_changed_data 204dc358     libucrt:wsetlocale.obj
 0003:003c835c       ___acrt_current_locale_data 204dc35c     libucrt:nlsdata.obj
 0003:003c8360       __nstream                  204dc360     libucrt:_file.obj
 0003:003c8364       ___piob                    204dc364     libucrt:_file.obj
 0003:003c8368       ___pioinfo                 204dc368     libucrt:ioinit.obj
 0003:003c8568       __nhandle                  204dc568     libucrt:ioinit.obj
 0003:003c8570       ___acrt_stdout_buffer      204dc570     libucrt:_sftbuf.obj
 0003:003c8574       ___acrt_stderr_buffer      204dc574     libucrt:_sftbuf.obj
 0003:003c8794       ___mblocalename            204dc794     libucrt:mbctype.obj
 0003:003c8798       ___mbcodepage              204dc798     libucrt:mbctype.obj
 0003:003c879c       ___ismbcodepage            204dc79c     libucrt:mbctype.obj
 0003:003c87a0       ___mbulinfo                204dc7a0     libucrt:mbctype.obj
 0003:003c87b4       ___acrt_heap               204dc7b4     libucrt:heap_handle.obj
 0003:003c87b8       ___argv                    204dc7b8     libucrt:argv_data.obj
 0003:003c87bc       ___wargv                   204dc7bc     libucrt:argv_data.obj
 0003:003c87c0       __acmdln                   204dc7c0     libucrt:argv_data.obj
 0003:003c87c4       __wcmdln                   204dc7c4     libucrt:argv_data.obj
 0003:003c87e0       ___fastflag                204dc7e0     libucrt:fp_flags.obj
 0003:003c87e4       ___acrt_lconv_static_null  204dc7e4     libucrt:localeconv.obj
 0003:003c87e8       ___acrt_lconv_static_W_null 204dc7e8     libucrt:localeconv.obj
 0003:003c8800       _NPCFile                   204dc800     <common>
 0003:003c8840       _NPCParms                  204dc840     <common>
 0003:003e8840       _npcParseBuffer            204fc840     <common>
 0003:00408840       _gNPCPtrs                  2051c840     <common>
 0003:00409840       _frameNavInfo              2051d840     <common>
 0003:004098a0       _groupSpeechDebounceTime   2051d8a0     <common>
 0003:004098b0       _enemyVisibility           2051d8b0     <common>
 0003:004098c0       _ucmd                      2051d8c0     <common>
 0003:004098dc       _client                    2051d8dc     <common>
 0003:004098e0       _NPCInfo                   2051d8e0     <common>
 0003:004098e4       _NPC                       2051d8e4     <common>
 0003:00409900       __saved_ucmd               2051d900     <common>
 0003:0040991c       __saved_client             2051d91c     <common>
 0003:00409920       __saved_NPCInfo            2051d920     <common>
 0003:00409924       __saved_NPC                2051d924     <common>
 0003:00409940       _gG2KillIndex              2051d940     <common>
 0003:00409d40       _gClPtrs                   2051dd40     <common>
 0003:0040ad40       _remappedShaders           2051ed40     <common>
 0003:0040ef40       _gTrigFallSound            20522f40     <common>
 0003:0040ef44       _g_timerFreeList           20522f44     <common>
 0003:0040ef60       _g_timers                  20522f60     <common>
 0003:0040ff60       _g_timerPool               20523f60     <common>
 0003:0043ff60       _teamgame                  20553f60     <common>
 0003:0043ff7c       _g_cullDistance            20553f7c     <common>
 0003:0043ff80       _fatalErrorString          20553f80     <common>
 0003:00440f80       _pushed_p                  20554f80     <common>
 0003:00440fa0       _pushed                    20554fa0     <common>
 0003:00448fa0       _refTagOwnerMap            2055cfa0     <common>
 0003:0048d1e0       _g_showDuelHealths         205a11e0     <common>
 0003:0048d300       _g_powerDuelEndHealth      205a1300     <common>
 0003:0048d420       _g_powerDuelStartHealth    205a1420     <common>
 0003:0048d540       _g_austrian                205a1540     <common>
 0003:0048d660       _g_siegeTeam2              205a1660     <common>
 0003:0048d780       _g_siegeTeam1              205a1780     <common>
 0003:0048d8a0       _d_noIntermissionWait      205a18a0     <common>
 0003:0048d9c0       _d_patched                 205a19c0     <common>
 0003:0048dae0       _d_altRoutes               205a1ae0     <common>
 0003:0048dc00       _g_saberDebugBox           205a1c00     <common>
 0003:0048dd20       _bg_fighterAltControl      205a1d20     <common>
 0003:0048de40       _g_siegeTeamSwitch         205a1e40     <common>
 0003:0048df60       _g_saberDebugPrint         205a1f60     <common>
 0003:0048e080       _g_saberDmgDelay_Wound     205a2080     <common>
 0003:0048e1a0       _g_saberDmgDelay_Idle      205a21a0     <common>
 0003:0048e2c0       _g_saberDmgVelocityScale   205a22c0     <common>
 0003:0048e3e0       _g_timeouttospec           205a23e0     <common>
 0003:0048e500       _g_forceDodge              205a2500     <common>
 0003:0048e620       _g_dismember               205a2620     <common>
 0003:0048e740       _g_singlePlayer            205a2740     <common>
 0003:0048e860       _g_enableBreath            205a2860     <common>
 0003:0048e980       _g_enableDust              205a2980     <common>
 0003:0048eaa0       _g_rankings                205a2aa0     <common>
 0003:0048ebc0       _pmove_msec                205a2bc0     <common>
 0003:0048ece0       _pmove_fixed               205a2ce0     <common>
 0003:0048ee00       _g_smoothClients           205a2e00     <common>
 0003:0048ef20       _g_blueteam                205a2f20     <common>
 0003:0048f040       _g_redteam                 205a3040     <common>
 0003:0048f160       _g_filterBan               205a3160     <common>
 0003:0048f280       _g_banIPs                  205a3280     <common>
 0003:0048f3a0       _g_teamForceBalance        205a33a0     <common>
 0003:0048f4c0       _g_teamAutoJoin            205a34c0     <common>
 0003:0048f5e0       _g_allowVote               205a35e0     <common>
 0003:0048f700       _g_blood                   205a3700     <common>
 0003:0048f820       _g_doWarmup                205a3820     <common>
 0003:0048f940       _g_warmup                  205a3940     <common>
 0003:0048fa60       _g_motd                    205a3a60     <common>
 0003:0048fb80       _g_synchronousClients      205a3b80     <common>
 0003:0048fca0       _g_adaptRespawn            205a3ca0     <common>
 0003:0048fdc0       _g_weaponTeamRespawn       205a3dc0     <common>
 0003:0048fee0       _g_weaponRespawn           205a3ee0     <common>
 0003:00490000       _g_debugServerSkel         205a4000     <common>
 0003:00490120       _g_debugDamage             205a4120     <common>
 0003:00490240       _g_debugAlloc              205a4240     <common>
 0003:00490360       _g_debugMove               205a4360     <common>
 0003:00490480       _g_inactivity              205a4480     <common>
 0003:004905a0       _g_siegeRespawn            205a45a0     <common>
 0003:004906c0       _g_forcerespawn            205a46c0     <common>
 0003:004907e0       _g_quadfactor              205a47e0     <common>
 0003:00490900       _g_knockback               205a4900     <common>
 0003:00490a20       _g_speed                   205a4a20     <common>
 0003:00490b40       _g_gravity                 205a4b40     <common>
 0003:00490c60       _g_needpass                205a4c60     <common>
 0003:00490d80       _g_password                205a4d80     <common>
 0003:00490ea0       _g_friendlySaber           205a4ea0     <common>
 0003:00490fc0       _g_friendlyFire            205a4fc0     <common>
 0003:004910e0       _d_saberInterpolate        205a50e0     <common>
 0003:00491200       _g_capturelimit            205a5200     <common>
 0003:00491320       _g_timelimit               205a5320     <common>
 0003:00491440       _g_duel_fraglimit          205a5440     <common>
 0003:00491560       _g_fraglimit               205a5560     <common>
 0003:00491680       _g_duelWeaponDisable       205a5680     <common>
 0003:004917a0       _g_fraglimitVoteCorrection 205a57a0     <common>
 0003:004918c0       _g_allowDuelSuicide        205a58c0     <common>
 0003:004919e0       _g_weaponDisable           205a59e0     <common>
 0003:00491b00       _g_forcePowerDisable       205a5b00     <common>
 0003:00491c20       _g_spawnInvulnerability    205a5c20     <common>
 0003:00491d40       _g_forceRegenTime          205a5d40     <common>
 0003:00491e60       _g_svfps                   205a5e60     <common>
 0003:00491f80       _g_RMG                     205a5f80     <common>
 0003:004920a0       _g_useWhileThrowing        205a60a0     <common>
 0003:004921c0       _g_saberDamageScale        205a61c0     <common>
 0003:004922e0       _g_slowmoDuelEnd           205a62e0     <common>
 0003:00492400       _g_logClientInfo           205a6400     <common>
 0003:00492520       _g_allowHighPingDuelist    205a6520     <common>
 0003:00492640       _g_locationBasedDamage     205a6640     <common>
 0003:00492760       _g_g2TraceLod              205a6760     <common>
 0003:00492880       _d_projectileGhoul2Collision 205a6880     <common>
 0003:004929a0       _d_perPlayerGhoul2         205a69a0     <common>
 0003:00492ac0       _g_noSpecMove              205a6ac0     <common>
 0003:00492be0       _g_stepSlideFix            205a6be0     <common>
 0003:00492d00       _g_debugMelee              205a6d00     <common>
 0003:00492e20       _d_siegeSeekerNPC          205a6e20     <common>
 0003:00492f40       _d_saberBoxTraceSize       205a6f40     <common>
 0003:00493060       _d_saberAlwaysBoxTrace     205a7060     <common>
 0003:00493180       _g_saberBladeFaces         205a7180     <common>
 0003:004932a0       _d_saberGhoul2Collision    205a72a0     <common>
 0003:004933c0       _d_powerDuelPrint          205a73c0     <common>
 0003:004934e0       _d_saberKickTweak          205a74e0     <common>
 0003:00493600       _g_saberTraceSaberFirst    205a7600     <common>
 0003:00493720       _g_saberLockFactor         205a7720     <common>
 0003:00493840       _g_saberLocking            205a7840     <common>
 0003:00493960       _g_armBreakage             205a7960     <common>
 0003:00493a80       _g_allowNPC                205a7a80     <common>
 0003:00493ba0       _g_privateDuel             205a7ba0     <common>
 0003:00493cc0       _g_forceBasedTeams         205a7cc0     <common>
 0003:00493de0       _g_maxForceRank            205a7de0     <common>
 0003:00493f00       _g_dmflags                 205a7f00     <common>
 0003:00494020       _g_autoMapCycle            205a8020     <common>
 0003:00494140       _g_trueJedi                205a8140     <common>
 0003:00494260       _g_restarted               205a8260     <common>
 0003:00494380       _g_maxGameClients          205a8380     <common>
 0003:004944a0       _g_maxclients              205a84a0     <common>
 0003:004945c0       _g_cheats                  205a85c0     <common>
 0003:004946e0       _g_developer               205a86e0     <common>
 0003:00494800       _g_dedicated               205a8800     <common>
 0003:00494920       _g_gametype                205a8920     <common>
 0003:00494a40       _g_entities                205a8a40     <common>
 0003:0060fa40       _level                     20723a40     <common>
 0003:0061abc0       _g_spskill                 2072ebc0     <common>
 0003:0061ace0       _d_slowmodeath             2072ece0     <common>
 0003:0061ae00       _d_asynchronousGroupAI     2072ee00     <common>
 0003:0061af20       _d_noGroupAI               2072ef20     <common>
 0003:0061b040       _d_JediAI                  2072f040     <common>
 0003:0061b160       _d_saberCombat             2072f160     <common>
 0003:0061b280       _debugNoRoam               2072f280     <common>
 0003:0061b3a0       _debugBreak                2072f3a0     <common>
 0003:0061b4c0       _debugNPCAimingBeam        2072f4c0     <common>
 0003:0061b5e0       _debugNPCFreeze            2072f5e0     <common>
 0003:0061b700       _debugNPCAI                2072f700     <common>
 0003:0061b820       _d_saberStanceDebug        2072f820     <common>
 0003:0061b940       _g_saberWallDamageScale    2072f940     <common>
 0003:0061ba60       _g_saberLockRandomNess     2072fa60     <common>
 0003:0061bb80       _g_debugSaberLocks         2072fb80     <common>
 0003:0061bca0       _d_saberSPStyleDamage      2072fca0     <common>
 0003:0061bdc0       _g_saberRestrictForce      2072fdc0     <common>
 0003:0061bee0       _g_saberRealisticCombat    2072fee0     <common>
 0003:0061c000       _g_listEntity              20730000     <common>
 0003:0061c120       _g_podiumDrop              20730120     <common>
 0003:0061c240       _g_podiumDist              20730240     <common>
 0003:0061c360       _g_statLogFile             20730360     <common>
 0003:0061c480       _g_statLog                 20730480     <common>
 0003:0061c5a0       _g_logSync                 207305a0     <common>
 0003:0061c6c0       _g_log                     207306c0     <common>
 0003:0061c7e0       _g_MaxHolocronCarry        207307e0     <common>
 0003:0061c900       _g_clients                 20730900     <common>
 0003:00651300       _gSharedBuffer             20765300     <common>
 0003:00653300       _g_ff_objectives           20767300     <common>
 0003:00653420       _G_WeaponLogItems          20767420     <common>
 0003:00653c20       _G_WeaponLogPowerups       20767c20     <common>
 0003:00654220       _G_WeaponLogClientTouch    20768220     <common>
 0003:006542a0       _G_WeaponLogLastTime       207682a0     <common>
 0003:00654320       _G_WeaponLogTime           20768320     <common>
 0003:00654ca0       _G_WeaponLogFrags          20768ca0     <common>
 0003:00655ca0       _G_WeaponLogDeaths         20769ca0     <common>
 0003:00656620       _G_WeaponLogKills          2076a620     <common>
 0003:00657ba0       _G_WeaponLogDamage         2076bba0     <common>
 0003:00659120       _G_WeaponLogFired          2076d120     <common>
 0003:00659aa0       _G_WeaponLogPickups        2076daa0     <common>
 0003:0065a420       _itemRegistered            2076e420     <common>
 0003:0065a820       ?_OptionsStorage@?1??__local_stdio_printf_options@@9@9 2076e820     <common>
 0003:0065a830       _gPainPoint                2076e830     <common>
 0003:0065a840       _bot_minplayers            2076e840     <common>
 0003:0065a950       _g_numArenas               2076e950     <common>
 0003:0065a960       _g_vehWeaponInfo           2076e960     <common>
 0003:0065af60       _VehicleParms              2076ef60     <common>
 0003:0066af80       _VehWeaponParms            2077ef80     <common>
 0003:0066ef80       _g_vehicleInfo             20782f80     <common>
 0003:00672200       _siege_info                20786200     <common>
 0003:00676200       _bgSiegeTeams              2078a200     <common>
 0003:00678680       _bgSiegeClasses            2078c680     <common>
 0003:006a8c80       _pml                       207bcc80     <common>
 0003:006a8d04       _pm                        207bcd04     <common>
 0003:006a8d20       _bgAllAnims                207bcd20     <common>
 0003:006a9160       _bgHumanoidAnimations      207bd160     <common>
 0003:006abb98       ?_OptionsStorage@?1??__local_stdio_scanf_options@@9@9 207bfb98     <common>
 0003:006abba0       _nodenum                   207bfba0     <common>
 0003:006abbc0       _nodetable                 207bfbc0     <common>
 0003:0071bbc0       _gWPArray                  2082fbc0     <common>
 0003:0071fbc0       _gSpawnPoints              20833bc0     <common>
 0003:0071fcc0       _gBotChatBuffer            20833cc0     <common>
 0003:0075fcc0       _droppedBlueFlag           20873cc0     <common>
 0003:0075fcc4       _droppedRedFlag            20873cc4     <common>
 0003:0075fce0       _bot_getinthecarrr         20873ce0     <common>
 0003:0075fe00       _bot_normgpath             20873e00     <common>
 0003:0075ff20       _bot_pvstype               20873f20     <common>
 0003:00760040       _gBotEventTracker          20874040     <common>
 0003:00760240       _numbots                   20874240     <common>
 0003:00760260       _botstates                 20874260     <common>
 0003:007602e0       _floattime                 208742e0     <common>
 0003:007602e4       _eFlagBlue                 208742e4     <common>
 0003:007602e8       _eFlagRed                  208742e8     <common>
 0003:007602ec       _oFlagBlue                 208742ec     <common>
 0003:007602f0       _flagBlue                  208742f0     <common>
 0003:007602f4       _oFlagRed                  208742f4     <common>
 0003:007602f8       _flagRed                   208742f8     <common>
 0003:00760300       _bot_wp_visconnect         20874300     <common>
 0003:00760420       _bot_wp_distconnect        20874420     <common>
 0003:00760540       _bot_wp_clearweight        20874540     <common>
 0003:00760660       _bot_wp_edit               20874660     <common>
 0003:00760780       _bot_wp_info               20874780     <common>
 0003:007608a0       _bot_camp                  208748a0     <common>
 0003:007609c0       _bot_attachments           208749c0     <common>
 0003:00760ae0       _bot_honorableduelacceptance 20874ae0     <common>
 0003:00760c00       _bot_forgimmick            20874c00     <common>
 0003:00760d20       _bot_forcepowers           20874d20     <common>
 0003:00760e30       ___scrt_ucrt_dll_is_in_use 20874e30     <common>
 0003:00760e34       ___dyn_tls_init_callback   20874e34     <common>
 0003:00760e38       __pDestructExceptionObject 20874e38     <common>
 0003:00760e3c       ___use_sse2_mathfcns       20874e3c     <common>
 0003:00760e40       __pmatherr                 20874e40     <common>

 entry point at        0001:000d9dd7

 Static symbols

 0000:ff775000       .debug$S                   20000000     kernel32:KERNEL32.dll
 0000:ff775000       .debug$S                   20000000     kernel32:KERNEL32.dll
 0000:ff775000       .debug$S                   20000000     kernel32:KERNEL32.dll
 0000:ff775000       .debug$S                   20000000     jampgamex86.exp
 0000:ff775000       .debug$S                   20000000     kernel32:KERNEL32.dll
 0000:ff775000       .debug$S                   20000000     kernel32:KERNEL32.dll
 0000:ff775000       .debug$S                   20000000     kernel32:KERNEL32.dll
 0000:ff775000       .debug$S                   20000000     kernel32:KERNEL32.dll
 0000:ff775000       .debug$S                   20000000     kernel32:KERNEL32.dll
 0000:ff775000       .debug$S                   20000000     kernel32:KERNEL32.dll
 0000:ff775000       .debug$S                   20000000     kernel32:KERNEL32.dll
 0000:ff775000       .debug$S                   20000000     kernel32:KERNEL32.dll
 0000:ff775000       .debug$S                   20000000     kernel32:KERNEL32.dll
 0000:ff775000       .debug$S                   20000000     kernel32:KERNEL32.dll
 0000:ff775000       .debug$S                   20000000     kernel32:KERNEL32.dll
 0000:ff775000       .debug$S                   20000000     kernel32:KERNEL32.dll
 0000:ff775000       .debug$S                   20000000     kernel32:KERNEL32.dll
 0000:ff775000       .debug$S                   20000000     kernel32:KERNEL32.dll
 0000:ff775000       .debug$S                   20000000     kernel32:KERNEL32.dll
 0000:ff775000       .debug$S                   20000000     kernel32:KERNEL32.dll
 0000:ff775000       .debug$S                   20000000     kernel32:KERNEL32.dll
 0000:ff775000       .debug$S                   20000000     kernel32:KERNEL32.dll
 0000:ff775000       .debug$S                   20000000     kernel32:KERNEL32.dll
 0000:ff775000       .debug$S                   20000000     kernel32:KERNEL32.dll
 0000:ff775000       .debug$S                   20000000     kernel32:KERNEL32.dll
 0000:ff775000       .debug$S                   20000000     kernel32:KERNEL32.dll
 0000:ff775000       .debug$S                   20000000     kernel32:KERNEL32.dll
 0000:ff775000       .debug$S                   20000000     kernel32:KERNEL32.dll
 0000:ff775000       .debug$S                   20000000     kernel32:KERNEL32.dll
 0000:ff775000       .debug$S                   20000000     kernel32:KERNEL32.dll
 0000:ff775000       .debug$S                   20000000     kernel32:KERNEL32.dll
 0000:ff775000       .debug$S                   20000000     kernel32:KERNEL32.dll
 0000:ff775000       .debug$S                   20000000     kernel32:KERNEL32.dll
 0000:ff775000       .debug$S                   20000000     kernel32:KERNEL32.dll
 0000:ff775000       .debug$S                   20000000     kernel32:KERNEL32.dll
 0000:ff775000       .debug$S                   20000000     kernel32:KERNEL32.dll
 0000:ff775000       .debug$S                   20000000     kernel32:KERNEL32.dll
 0000:ff775000       .debug$S                   20000000     kernel32:KERNEL32.dll
 0000:ff775000       .debug$S                   20000000     kernel32:KERNEL32.dll
 0000:ff775000       .debug$S                   20000000     kernel32:KERNEL32.dll
 0000:ff775000       .debug$S                   20000000     kernel32:KERNEL32.dll
 0000:ff775000       .debug$S                   20000000     kernel32:KERNEL32.dll
 0000:ff775000       .debug$S                   20000000     kernel32:KERNEL32.dll
 0000:ff775000       .debug$S                   20000000     kernel32:KERNEL32.dll
 0000:ff775000       .debug$S                   20000000     kernel32:KERNEL32.dll
 0000:ff775000       .debug$S                   20000000     kernel32:KERNEL32.dll
 0000:ff775000       .debug$S                   20000000     kernel32:KERNEL32.dll
 0000:ff775000       .debug$S                   20000000     kernel32:KERNEL32.dll
 0000:ff775000       .debug$S                   20000000     kernel32:KERNEL32.dll
 0000:ff775000       .debug$S                   20000000     kernel32:KERNEL32.dll
 0000:ff775000       .debug$S                   20000000     kernel32:KERNEL32.dll
 0000:ff775000       .debug$S                   20000000     kernel32:KERNEL32.dll
 0000:ff775000       .debug$S                   20000000     kernel32:KERNEL32.dll
 0000:ff775000       .debug$S                   20000000     kernel32:KERNEL32.dll
 0000:ff775000       .debug$S                   20000000     kernel32:KERNEL32.dll
 0000:ff775000       .debug$S                   20000000     kernel32:KERNEL32.dll
 0000:ff775000       .debug$S                   20000000     kernel32:KERNEL32.dll
 0000:ff775000       .debug$S                   20000000     kernel32:KERNEL32.dll
 0000:ff775000       .debug$S                   20000000     kernel32:KERNEL32.dll
 0000:ff775000       .debug$S                   20000000     kernel32:KERNEL32.dll
 0000:ff775000       .debug$S                   20000000     kernel32:KERNEL32.dll
 0000:ff775000       .debug$S                   20000000     kernel32:KERNEL32.dll
 0000:ff775000       .debug$S                   20000000     kernel32:KERNEL32.dll
 0000:ff775000       .debug$S                   20000000     kernel32:KERNEL32.dll
 0000:ff775000       .debug$S                   20000000     kernel32:KERNEL32.dll
 0000:ff775000       .debug$S                   20000000     kernel32:KERNEL32.dll
 0000:ff775000       .debug$S                   20000000     kernel32:KERNEL32.dll
 0000:ff775000       .debug$S                   20000000     kernel32:KERNEL32.dll
 0000:ff775000       .debug$S                   20000000     kernel32:KERNEL32.dll
 0000:ff775000       .debug$S                   20000000     kernel32:KERNEL32.dll
 0000:ff775000       .debug$S                   20000000     kernel32:KERNEL32.dll
 0000:ff775000       .debug$S                   20000000     kernel32:KERNEL32.dll
 0000:ff775000       .debug$S                   20000000     kernel32:KERNEL32.dll
 0000:ff775000       .debug$S                   20000000     kernel32:KERNEL32.dll
 0000:ff775000       .debug$S                   20000000     advapi32:ADVAPI32.dll
 0000:ff775000       .debug$S                   20000000     kernel32:KERNEL32.dll
 0000:ff775000       .debug$S                   20000000     kernel32:KERNEL32.dll
 0000:ff775000       .debug$S                   20000000     kernel32:KERNEL32.dll
 0000:ff775000       .debug$S                   20000000     kernel32:KERNEL32.dll
 0000:ff775000       .debug$S                   20000000     kernel32:KERNEL32.dll
 0000:ff775000       .debug$S                   20000000     kernel32:KERNEL32.dll
 0000:ff775000       .debug$S                   20000000     kernel32:KERNEL32.dll
 0001:00001234       $LN22                      20002234     ai_main.obj
 0001:00001240       $LN17                      20002240     ai_main.obj
 0001:00001e98       $LN21                      20002e98     ai_main.obj
 0001:00003528       $LN15                      20004528     ai_main.obj
 0001:00003530       $LN13                      20004530     ai_main.obj
 0001:000110d0       _AnimateRiders             200120d0 f   AnimalNPC.obj
 0001:00011360       _AnimateVehicle            20012360 f   AnimalNPC.obj
 0001:00011570       _DeathUpdate               20012570 f   AnimalNPC.obj
 0001:00011600       _ProcessMoveCommands       20012600 f   AnimalNPC.obj
 0001:000117c0       _ProcessOrientCommands     200127c0 f   AnimalNPC.obj
 0001:000118b0       _Update                    200128b0 f   AnimalNPC.obj
 0001:00011f28       $LN63                      20012f28     bg_misc.obj
 0001:00012024       $LN30                      20013024     bg_misc.obj
 0001:0001202c       $LN28                      2001302c     bg_misc.obj
 0001:0001241c       $LN23                      2001341c     bg_misc.obj
 0001:00012634       $LN17                      20013634     bg_misc.obj
 0001:00012f54       $LN24                      20013f54     bg_misc.obj
 0001:00012f70       $LN21                      20013f70     bg_misc.obj
 0001:00013f08       $LN14                      20014f08     bg_panimate.obj
 0001:00013f90       $LN15                      20014f90     bg_panimate.obj
 0001:00013fac       $LN13                      20014fac     bg_panimate.obj
 0001:0001407c       $LN8                       2001507c     bg_panimate.obj
 0001:00014084       $LN6                       20015084     bg_panimate.obj
 0001:000141d0       $LN10                      200151d0     bg_panimate.obj
 0001:000141d8       $LN7                       200151d8     bg_panimate.obj
 0001:00014210       $LN11                      20015210     bg_panimate.obj
 0001:00014218       $LN8                       20015218     bg_panimate.obj
 0001:00014378       $LN8                       20015378     bg_panimate.obj
 0001:00014380       $LN6                       20015380     bg_panimate.obj
 0001:000143e0       $LN9                       200153e0     bg_panimate.obj
 0001:00014544       $LN9                       20015544     bg_panimate.obj
 0001:0001454c       $LN7                       2001554c     bg_panimate.obj
 0001:000145e4       $LN15                      200155e4     bg_panimate.obj
 0001:000145ec       $LN12                      200155ec     bg_panimate.obj
 0001:0001464c       $LN16                      2001564c     bg_panimate.obj
 0001:00014654       $LN13                      20015654     bg_panimate.obj
 0001:0001468c       $LN8                       2001568c     bg_panimate.obj
 0001:00014694       $LN6                       20015694     bg_panimate.obj
 0001:0001474c       $LN38                      2001574c     bg_panimate.obj
 0001:00014754       $LN35                      20015754     bg_panimate.obj
 0001:00014784       $LN39                      20015784     bg_panimate.obj
 0001:0001478c       $LN36                      2001578c     bg_panimate.obj
 0001:0001485c       $LN9                       2001585c     bg_panimate.obj
 0001:00014864       $LN7                       20015864     bg_panimate.obj
 0001:000148a8       $LN11                      200158a8     bg_panimate.obj
 0001:00014d34       $LN10                      20015d34     bg_panimate.obj
 0001:00014d3c       $LN7                       20015d3c     bg_panimate.obj
 0001:00014d7c       $LN11                      20015d7c     bg_panimate.obj
 0001:00014d84       $LN8                       20015d84     bg_panimate.obj
 0001:00014eb8       $LN10                      20015eb8     bg_panimate.obj
 0001:00014ec0       $LN8                       20015ec0     bg_panimate.obj
 0001:000153fc       $LN12                      200163fc     bg_panimate.obj
 0001:00015404       $LN9                       20016404     bg_panimate.obj
 0001:00015504       $LN13                      20016504     bg_panimate.obj
 0001:0001550c       $LN10                      2001650c     bg_panimate.obj
 0001:000155f0       _BG_StartLegsAnim          200165f0 f   bg_panimate.obj
 0001:000156ac       $LN8                       200166ac     bg_panimate.obj
 0001:000156b4       $LN6                       200166b4     bg_panimate.obj
 0001:0001573c       $LN8                       2001673c     bg_panimate.obj
 0001:00015744       $LN6                       20016744     bg_panimate.obj
 0001:00015994       $LN10                      20016994     bg_panimate.obj
 0001:000159a0       $LN8                       200169a0     bg_panimate.obj
 0001:00015a9c       $LN8                       20016a9c     bg_panimate.obj
 0001:00015aa4       $LN6                       20016aa4     bg_panimate.obj
 0001:00015b34       $LN13                      20016b34     bg_panimate.obj
 0001:00015bb0       $LN14                      20016bb0     bg_panimate.obj
 0001:00016064       $LN58                      20017064     bg_pmove.obj
 0001:00016080       $LN59                      20017080     bg_pmove.obj
 0001:000161e8       $LN39                      200171e8     bg_pmove.obj
 0001:0001621c       $LN35                      2001721c     bg_pmove.obj
 0001:000162a0       _BG_G2ClientNeckAngles     200172a0 f   bg_pmove.obj
 0001:00016480       _BG_G2ClientSpineAngles    20017480 f   bg_pmove.obj
 0001:000179cc       $LN9                       200189cc     bg_pmove.obj
 0001:000179d4       $LN7                       200189d4     bg_pmove.obj
 0001:00017a20       $LN8                       20018a20     bg_pmove.obj
 0001:00017a28       $LN6                       20018a28     bg_pmove.obj
 0001:00017af0       _BG_SwingAngles            20018af0 f   bg_pmove.obj
 0001:00018410       _PM_Accelerate             20019410 f   bg_pmove.obj
 0001:00018a6c       $LN39                      20019a6c     bg_pmove.obj
 0001:000199c4       $LN100                     2001a9c4     bg_pmove.obj
 0001:000199dc       $LN88                      2001a9dc     bg_pmove.obj
 0001:00019a28       $LN101                     2001aa28     bg_pmove.obj
 0001:00019a3c       $LN89                      2001aa3c     bg_pmove.obj
 0001:00019a70       _PM_AirMove                2001aa70 f   bg_pmove.obj
 0001:00019df0       _PM_Animate                2001adf0 f   bg_pmove.obj
 0001:00019ff0       _PM_CheckDuck              2001aff0 f   bg_pmove.obj
 0001:0001a650       _PM_CheckJump              2001b650 f   bg_pmove.obj
 0001:0001bf08       $LN217                     2001cf08     bg_pmove.obj
 0001:0001bf1c       $LN184                     2001cf1c     bg_pmove.obj
 0001:0001bf28       $LN218                     2001cf28     bg_pmove.obj
 0001:0001bf38       $LN185                     2001cf38     bg_pmove.obj
 0001:0001bf60       _PM_CheckWaterJump         2001cf60 f   bg_pmove.obj
 0001:0001c1a0       _PM_CmdForSaberMoves       2001d1a0 f   bg_pmove.obj
 0001:0001c4c0       _PM_CorrectAllSolid        2001d4c0 f   bg_pmove.obj
 0001:0001c6a0       _PM_CrashLand              2001d6a0 f   bg_pmove.obj
 0001:0001cca4       $LN95                      2001dca4     bg_pmove.obj
 0001:0001ccc0       _PM_CrashLandEffect        2001dcc0 f   bg_pmove.obj
 0001:0001cd90       $LN16                      2001dd90     bg_pmove.obj
 0001:0001cda8       $LN14                      2001dda8     bg_pmove.obj
 0001:0001cdc0       _PM_DeadMove               2001ddc0 f   bg_pmove.obj
 0001:0001ce90       _PM_DoChargedWeapons       2001de90 f   bg_pmove.obj
 0001:0001d354       $LN66                      2001e354     bg_pmove.obj
 0001:0001d390       _PM_DropTimers             2001e390 f   bg_pmove.obj
 0001:0001d4a0       _PM_FlyMove                2001e4a0 f   bg_pmove.obj
 0001:0001d690       _PM_FlyVehicleMove         2001e690 f   bg_pmove.obj
 0001:0001db50       _PM_Footsteps              2001eb50 f   bg_pmove.obj
 0001:0001e400       _PM_Friction               2001f400 f   bg_pmove.obj
 0001:0001e6f8       $LN20                      2001f6f8     bg_pmove.obj
 0001:0001e760       _PM_GroundTrace            2001f760 f   bg_pmove.obj
 0001:0001ebb0       _PM_GroundTraceMissed      2001fbb0 f   bg_pmove.obj
 0001:0001f2b0       _PM_JumpForDir             200202b0 f   bg_pmove.obj
 0001:0001f384       $LN10                      20020384     bg_pmove.obj
 0001:0001f38c       $LN8                       2002038c     bg_pmove.obj
 0001:0001f520       _PM_NoclipMove             20020520 f   bg_pmove.obj
 0001:0001fb9c       $LN8                       20020b9c     bg_pmove.obj
 0001:0001fba4       $LN6                       20020ba4     bg_pmove.obj
 0001:0001fc10       _PM_SetMovementDir         20020c10 f   bg_pmove.obj
 0001:0001fe00       _PM_SetVehicleAngles       20020e00 f   bg_pmove.obj
 0001:00020180       _PM_SetWaterLevel          20021180 f   bg_pmove.obj
 0001:00020300       _PM_TryRoll                20021300 f   bg_pmove.obj
 0001:00021268       $LN81                      20022268     bg_pmove.obj
 0001:00021290       $LN74                      20022290     bg_pmove.obj
 0001:000212b0       _PM_WalkMove               200222b0 f   bg_pmove.obj
 0001:000218ec       $LN8                       200228ec     bg_pmove.obj
 0001:000218f4       $LN6                       200228f4     bg_pmove.obj
 0001:00021920       _PM_WaterEvents            20022920 f   bg_pmove.obj
 0001:00021b10       _PM_WaterJumpMove          20022b10 f   bg_pmove.obj
 0001:00021b60       _PM_WaterMove              20022b60 f   bg_pmove.obj
 0001:00021e90       _PM_Weapon                 20022e90 f   bg_pmove.obj
 0001:00023390       $LN357                     20024390     bg_pmove.obj
 0001:000233d0       $LN358                     200243d0     bg_pmove.obj
 0001:000233e8       $LN328                     200243e8     bg_pmove.obj
 0001:000233f4       $LN359                     200243f4     bg_pmove.obj
 0001:00024c8c       $LN14                      20025c8c     bg_saber.obj
 0001:00024c98       $LN12                      20025c98     bg_saber.obj
 0001:00024e3c       $LN13                      20025e3c     bg_saber.obj
 0001:00024e58       $LN11                      20025e58     bg_saber.obj
 0001:000254ec       $LN29                      200264ec     bg_saber.obj
 0001:000254f4       $LN26                      200264f4     bg_saber.obj
 0001:00026b08       $LN40                      20027b08     bg_saber.obj
 0001:00026b1c       $LN35                      20027b1c     bg_saber.obj
 0001:00026bf8       $LN23                      20027bf8     bg_saber.obj
 0001:00026d4c       $LN32                      20027d4c     bg_saber.obj
 0001:00026d60       $LN28                      20027d60     bg_saber.obj
 0001:00029680       $LN636                     2002a680     bg_saber.obj
 0001:0002969c       $LN637                     2002a69c     bg_saber.obj
 0001:000296d0       $LN638                     2002a6d0     bg_saber.obj
 0001:000296e0       $LN639                     2002a6e0     bg_saber.obj
 0001:000296fc       $LN640                     2002a6fc     bg_saber.obj
 0001:00029704       $LN604                     2002a704     bg_saber.obj
 0001:0002e090       _BG_ParseVehWeaponParm     2002f090 f   bg_vehicleLoad.obj
 0001:0002e330       $LN45                      2002f330     bg_vehicleLoad.obj
 0001:0002e370       _BG_ParseVehicleParm       2002f370 f   bg_vehicleLoad.obj
 0001:0002e5e4       $LN46                      2002f5e4     bg_vehicleLoad.obj
 0001:0002e680       $LN11                      2002f680     bg_vehicleLoad.obj
 0001:0002eb70       $LN55                      2002fb70     bg_vehicleLoad.obj
 0001:0002f730       _AnimateVehicle            20030730 f   FighterNPC.obj
 0001:0002fa20       _Eject                     20030a20 f   FighterNPC.obj
 0001:0002fa40       _FighterDamageRoutine      20030a40 f   FighterNPC.obj
 0001:0002ff30       _FighterNoseMalfunctionCheck 20030f30 f   FighterNPC.obj
 0001:00030290       _FighterWingMalfunctionCheck 20031290 f   FighterNPC.obj
 0001:00030620       _PredictedAngularDecrement 20031620 f   FighterNPC.obj
 0001:000306c0       _ProcessMoveCommands       200316c0 f   FighterNPC.obj
 0001:000312b0       _ProcessOrientCommands     200322b0 f   FighterNPC.obj
 0001:00031b50       _Update                    20032b50 f   FighterNPC.obj
 0001:00031f10       $LN46                      20032f10     g_active.obj
 0001:00031f48       $LN42                      20032f48     g_active.obj
 0001:00034e4c       $LN418                     20035e4c     g_active.obj
 0001:00034e68       $LN419                     20035e68     g_active.obj
 0001:00035c58       $LN45                      20036c58     g_active.obj
 0001:00035c7c       $LN46                      20036c7c     g_active.obj
 0001:00035c84       $LN38                      20036c84     g_active.obj
 0001:00035c90       $LN47                      20036c90     g_active.obj
 0001:00035c98       $LN39                      20036c98     g_active.obj
 0001:00035e78       $LN25                      20036e78     g_active.obj
 0001:00035e90       $LN22                      20036e90     g_active.obj
 0001:00036788       $LN73                      20037788     g_active.obj
 0001:0003679c       $LN74                      2003779c     g_active.obj
 0001:000367b8       $LN75                      200377b8     g_active.obj
 0001:000367d4       $LN76                      200377d4     g_active.obj
 0001:0003681c       $LN8                       2003781c     g_active.obj
 0001:00036824       $LN6                       20037824     g_active.obj
 0001:00036aa0       _G_UpdateForceSightBroadcasts 20037aa0 f   g_active.obj
 0001:00036bd0       _G_UpdateJediMasterBroadcasts 20037bd0 f   g_active.obj
 0001:00036d00       _NPC_GetRunSpeed           20037d00 f   g_active.obj
 0001:00036d5c       $LN11                      20037d5c     g_active.obj
 0001:00036d64       $LN9                       20037d64     g_active.obj
 0001:00036d90       _NPC_GetWalkSpeed          20037d90 f   g_active.obj
 0001:00037460       _AddBotToSpawnQueue        20038460 f   g_bot.obj
 0001:000374b0       _G_AddBot                  200384b0 f   g_bot.obj
 0001:00038290       _G_LoadArenas              20039290 f   g_bot.obj
 0001:000383a0       _G_LoadArenasFromFile      200393a0 f   g_bot.obj
 0001:00038470       _G_LoadBots                20039470 f   g_bot.obj
 0001:00038590       _G_LoadBotsFromFile        20039590 f   g_bot.obj
 0001:00039330       _ClientCleanName           2003a330 f   g_client.obj
 0001:0003b700       _CopyToBodyQue             2003c700 f   g_client.obj
 0001:000423ec       $LN17                      200433ec     g_cmds.obj
 0001:00042400       _Cmd_Tell_f                20043400 f   g_cmds.obj
 0001:00042620       _Cmd_VoiceCommand_f        20043620 f   g_cmds.obj
 0001:00042b90       _G_ClientNumFromNetname    20043b90 f   g_cmds.obj
 0001:000430fc       $LN34                      200440fc     g_cmds.obj
 0001:00043420       _G_SayTo                   20044420 f   g_cmds.obj
 0001:00044708       $LN26                      20045708     g_combat.obj
 0001:00044734       $LN19                      20045734     g_combat.obj
 0001:000447e0       $LN14                      200457e0     g_combat.obj
 0001:00044cd8       $LN38                      20045cd8     g_combat.obj
 0001:00044cf8       $LN34                      20045cf8     g_combat.obj
 0001:00044d10       _G_CheckSpecialDeathAnim   20045d10 f   g_combat.obj
 0001:000451f0       $LN174                     200461f0     g_combat.obj
 0001:00046b64       $LN321                     20047b64     g_combat.obj
 0001:00046b6c       $LN268                     20047b6c     g_combat.obj
 0001:00046b7c       $LN322                     20047b7c     g_combat.obj
 0001:00046b8c       $LN323                     20047b8c     g_combat.obj
 0001:000475d0       $LN24                      200485d0     g_combat.obj
 0001:00047870       $LN20                      20048870     g_combat.obj
 0001:00048530       $LN277                     20049530     g_combat.obj
 0001:00048b8c       $LN9                       20049b8c     g_combat.obj
 0001:00048b94       $LN7                       20049b94     g_combat.obj
 0001:00048da4       $LN27                      20049da4     g_combat.obj
 0001:00048dbc       $LN22                      20049dbc     g_combat.obj
 0001:0004abf8       $LN319                     2004bbf8     g_combat.obj
 0001:0004ac00       $LN291                     2004bc00     g_combat.obj
 0001:0004ac50       $LN320                     2004bc50     g_combat.obj
 0001:0004ac6c       $LN292                     2004bc6c     g_combat.obj
 0001:0004b580       _Q3_GameSideCheckStringCounterIncrement 2004c580 f   g_ICARUScb.obj
 0001:0004b5e0       _Q3_GetAnimBoth            2004c5e0 f   g_ICARUScb.obj
 0001:0004b9f8       $LN110                     2004c9f8     g_ICARUScb.obj
 0001:0004ba60       $LN103                     2004ca60     g_ICARUScb.obj
 0001:0004be40       $LN63                      2004ce40     g_ICARUScb.obj
 0001:0004bec8       $LN58                      2004cec8     g_ICARUScb.obj
 0001:0004c0f4       $LN18                      2004d0f4     g_ICARUScb.obj
 0001:0004c108       $LN12                      2004d108     g_ICARUScb.obj
 0001:0004e538       $LN668                     2004f538     g_ICARUScb.obj
 0001:0004e890       _Q3_SetAngles              2004f890 f   g_ICARUScb.obj
 0001:0004e900       _Q3_SetAnimLower           2004f900 f   g_ICARUScb.obj
 0001:0004e950       _Q3_SetAnimUpper           2004f950 f   g_ICARUScb.obj
 0001:0004e9a0       _Q3_SetArmor               2004f9a0 f   g_ICARUScb.obj
 0001:0004ea00       _Q3_SetBState              2004fa00 f   g_ICARUScb.obj
 0001:0004eb90       _Q3_SetBehaviorSet         2004fb90 f   g_ICARUScb.obj
 0001:0004ec80       $LN32                      2004fc80     g_ICARUScb.obj
 0001:0004ecc0       _Q3_SetCopyOrigin          2004fcc0 f   g_ICARUScb.obj
 0001:0004ed20       _Q3_SetCount               2004fd20 f   g_ICARUScb.obj
 0001:0004edc0       _Q3_SetDefaultBState       2004fdc0 f   g_ICARUScb.obj
 0001:0004ee30       _Q3_SetForwardMove         2004fe30 f   g_ICARUScb.obj
 0001:0004ee90       _Q3_SetFriction            2004fe90 f   g_ICARUScb.obj
 0001:0004eef0       _Q3_SetFullName            2004fef0 f   g_ICARUScb.obj
 0001:0004ef50       _Q3_SetGravity             2004ff50 f   g_ICARUScb.obj
 0001:0004efc0       _Q3_SetHealth              2004ffc0 f   g_ICARUScb.obj
 0001:0004f0f0       _Q3_SetInvisible           200500f0 f   g_ICARUScb.obj
 0001:0004f160       _Q3_SetLockAngle           20050160 f   g_ICARUScb.obj
 0001:0004f250       _Q3_SetOrigin              20050250 f   g_ICARUScb.obj
 0001:0004f350       _Q3_SetOriginOffset        20050350 f   g_ICARUScb.obj
 0001:0004f590       _Q3_SetRightMove           20050590 f   g_ICARUScb.obj
 0001:0004f5f0       _Q3_SetScale               200505f0 f   g_ICARUScb.obj
 0001:0004f650       _Q3_SetSolid               20050650 f   g_ICARUScb.obj
 0001:0004f720       _Q3_SetTarget              20050720 f   g_ICARUScb.obj
 0001:0004f780       _Q3_SetTargetName          20050780 f   g_ICARUScb.obj
 0001:0004f7e0       _Q3_SetTeleportDest        200507e0 f   g_ICARUScb.obj
 0001:0004f860       _Q3_SetTempBState          20050860 f   g_ICARUScb.obj
 0001:0004f8e0       _Q3_SetVelocity            200508e0 f   g_ICARUScb.obj
 0001:0004f9c0       _SetLowerAnim              200509c0 f   g_ICARUScb.obj
 0001:0004fa20       _SetUpperAnim              20050a20 f   g_ICARUScb.obj
 0001:00053810       _SnapVector                20054810 f   g_items.obj
 0001:00053ea4       $LN73                      20054ea4     g_items.obj
 0001:00054100       _pas_find_enemies          20055100 f   g_items.obj
 0001:0005abe0       $LN57                      2005bbe0     g_main.obj
 0001:0005b5a0       _InitShooter_Finish        2005c5a0 f   g_misc.obj
 0001:0005e900       _misc_lightstyle_set       2005f900 f   g_misc.obj
 0001:00060b20       _CacheChunkEffects         20061b20 f   g_mover.obj
 0001:00060ba4       $LN16                      20061ba4     g_mover.obj
 0001:00060bc4       $LN12                      20061bc4     g_mover.obj
 0001:000620c0       _InitBBrush                200630c0 f   g_mover.obj
 0001:0006268c       $LN25                      2006368c     g_mover.obj
 0001:00064780       _Touch_DoorTriggerSpectator 20065780 f   g_mover.obj
 0001:00065ca0       __TlgDefineProvider_annotation__Tlg_Microsoft_CRTProviderProv 20066ca0 f   libvcruntime:telemetry.obj
 0001:00065ca0       _AnimateRiders             20066ca0 f   FighterNPC.obj
 0001:00067430       _NAV_TestBypass            20068430 f   g_nav.obj
 0001:0006b3e0       _SiegeItemRespawnEffect    2006c3e0 f   g_saga.obj
 0001:0006b450       _SiegeItemRespawnOnOriginalSpot 2006c450 f   g_saga.obj
 0001:0006d100       _HandleEntityAdjustment    2006e100 f   g_spawn.obj
 0001:0006dbf0       _AddIP                     2006ebf0 f   g_svcmds.obj
 0001:0006e070       _StringToFilter            2006f070 f   g_svcmds.obj
 0001:0006e2c8       $LN28                      2006f2c8     g_svcmds.obj
 0001:0006e440       _UpdateIPBans              2006f440 f   g_svcmds.obj
 0001:00070900       _target_location_linkup    20071900 f   g_target.obj
 0001:00071350       _SortClients               20072350 f   g_team.obj
 0001:000754b0       _turret_aim                200764b0 f   g_turret.obj
 0001:00075f60       _turret_find_enemies       20076f60 f   g_turret.obj
 0001:00076230       _turret_fire               20077230 f   g_turret.obj
 0001:00076600       _turret_turnoff            20077600 f   g_turret.obj
 0001:00076850       _SnapVector                20077850 f   g_turret_G2.obj
 0001:00076ee0       _turretG2_aim              20077ee0 f   g_turret_G2.obj
 0001:00077890       _turretG2_find_enemies     20078890 f   g_turret_G2.obj
 0001:00077c50       _turretG2_fire             20078c50 f   g_turret_G2.obj
 0001:00078270       _turretG2_turnoff          20079270 f   g_turret_G2.obj
 0001:00078ae0       _G_FindConfigstringIndex   20079ae0 f   g_utils.obj
 0001:00079d00       _G_SpewEntList             2007ad00 f   g_utils.obj
 0001:0007b490       _AttachRiders              2007c490 f   g_vehicles.obj
 0001:0007ba30       _DeathUpdate               2007ca30 f   g_vehicles.obj
 0001:0007c5fc       $LN30                      2007d5fc     g_vehicles.obj
 0001:0007cac4       $LN31                      2007dac4     g_vehicles.obj
 0001:0007d2d0       $LN38                      2007e2d0     g_vehicles.obj
 0001:0007d3d0       _Ghost                     2007e3d0 f   g_vehicles.obj
 0001:0007d7d0       _StartDeathDelay           2007e7d0 f   g_vehicles.obj
 0001:0007d840       _UnGhost                   2007e840 f   g_vehicles.obj
 0001:0007d880       _Update                    2007e880 f   g_vehicles.obj
 0001:0007e330       $LN142                     2007f330     g_vehicles.obj
 0001:0007e340       _UpdateRider               2007f340 f   g_vehicles.obj
 0001:0007ea7c       $LN23                      2007fa7c     g_vehicles.obj
 0001:0007f130       _VEH_TurretFindEnemies     20080130 f   g_vehicleTurret.obj
 0001:00080eb0       $LN76                      20081eb0     g_weapon.obj
 0001:000815b0       _SnapVector                200825b0 f   g_weapon.obj
 0001:000816a0       _WP_BowcasterAltFire       200826a0 f   g_weapon.obj
 0001:00081760       _WP_BowcasterMainFire      20082760 f   g_weapon.obj
 0001:00081ae0       _WP_CreateFlechetteBouncyThing 20082ae0 f   g_weapon.obj
 0001:00081c60       _WP_DEMP2_AltFire          20082c60 f   g_weapon.obj
 0001:00081e30       _WP_DEMP2_MainFire         20082e30 f   g_weapon.obj
 0001:000825f0       _WP_DisruptorMainFire      200835f0 f   g_weapon.obj
 0001:00082c40       _WP_FireBlaster            20083c40 f   g_weapon.obj
 0001:00082da0       _WP_FireBryarPistol        20083da0 f   g_weapon.obj
 0001:00082ef0       _WP_FireConcussion         20083ef0 f   g_weapon.obj
 0001:00083000       _WP_FireConcussionAlt      20084000 f   g_weapon.obj
 0001:00083610       _WP_FireDisruptor          20084610 f   g_weapon.obj
 0001:00083670       _WP_FireEmplaced           20084670 f   g_weapon.obj
 0001:00083b50       _WP_FireRepeater           20084b50 f   g_weapon.obj
 0001:00083c40       _WP_FireRocket             20084c40 f   g_weapon.obj
 0001:00084a30       _WP_FlechetteAltFire       20085a30 f   g_weapon.obj
 0001:00084b50       _WP_FlechetteMainFire      20085b50 f   g_weapon.obj
 0001:00085460       _WP_RepeaterAltFire        20086460 f   g_weapon.obj
 0001:00085560       _WP_RepeaterMainFire       20086560 f   g_weapon.obj
 0001:00085630       _WP_TraceSetStart          20086630 f   g_weapon.obj
 0001:00087a0c       $LN11                      20088a0c     NPC.obj
 0001:00087a14       $LN9                       20088a14     NPC.obj
 0001:00087b80       _DeadThink                 20088b80 f   NPC.obj
 0001:00088068       $LN15                      20089068     NPC.obj
 0001:00088080       $LN12                      20089080     NPC.obj
 0001:00088198       $LN11                      20089198     NPC.obj
 0001:000881a0       $LN7                       200891a0     NPC.obj
 0001:000881f0       $LN15                      200891f0     NPC.obj
 0001:00088208       $LN11                      20089208     NPC.obj
 0001:0008827c       $LN20                      2008927c     NPC.obj
 0001:00088318       $LN11                      20089318     NPC.obj
 0001:00088320       $LN7                       20089320     NPC.obj
 0001:00088358       $LN11                      20089358     NPC.obj
 0001:00088360       $LN7                       20089360     NPC.obj
 0001:00088398       $LN11                      20089398     NPC.obj
 0001:000883a0       $LN7                       200893a0     NPC.obj
 0001:000883d8       $LN11                      200893d8     NPC.obj
 0001:000883e0       $LN7                       200893e0     NPC.obj
 0001:00088420       $LN12                      20089420     NPC.obj
 0001:0008842c       $LN8                       2008942c     NPC.obj
 0001:00088498       $LN11                      20089498     NPC.obj
 0001:000884a0       $LN7                       200894a0     NPC.obj
 0001:000884d8       $LN11                      200894d8     NPC.obj
 0001:000884e0       $LN7                       200894e0     NPC.obj
 0001:00088518       $LN11                      20089518     NPC.obj
 0001:00088520       $LN7                       20089520     NPC.obj
 0001:00088558       $LN11                      20089558     NPC.obj
 0001:00088560       $LN7                       20089560     NPC.obj
 0001:00088598       $LN11                      20089598     NPC.obj
 0001:000885a0       $LN7                       200895a0     NPC.obj
 0001:000885d8       $LN11                      200895d8     NPC.obj
 0001:000885e0       $LN7                       200895e0     NPC.obj
 0001:00088624       $LN13                      20089624     NPC.obj
 0001:00088634       $LN9                       20089634     NPC.obj
 0001:00089000       $LN71                      2008a000     NPC.obj
 0001:0008902c       $LN62                      2008a02c     NPC.obj
 0001:0008b070       _GM_CheckFireState         2008c070 f   NPC_AI_GalakMech.obj
 0001:0008b350       _GM_CheckMoveState         2008c350 f   NPC_AI_GalakMech.obj
 0001:0008b420       _GM_CreateExplosion        2008c420 f   NPC_AI_GalakMech.obj
 0001:0008b7d8       $LN32                      2008c7d8     NPC_AI_GalakMech.obj
 0001:0008b810       _GM_Move                   2008c810 f   NPC_AI_GalakMech.obj
 0001:0008cb28       $LN144                     2008db28     NPC_AI_GalakMech.obj
 0001:0008d1d0       _Grenadier_CheckMoveState  2008e1d0 f   NPC_AI_Grenadier.obj
 0001:0008d420       _Grenadier_Move            2008e420 f   NPC_AI_Grenadier.obj
 0001:000907e0       _Jedi_AdjustSaberAnimLevel 200917e0 f   NPC_AI_Jedi.obj
 0001:000908f0       _Jedi_Advance              200918f0 f   NPC_AI_Jedi.obj
 0001:00090990       _Jedi_Aggression           20091990 f   NPC_AI_Jedi.obj
 0001:00090a00       _Jedi_AggressionErosion    20091a00 f   NPC_AI_Jedi.obj
 0001:00090b40       _Jedi_Attack               20091b40 f   NPC_AI_Jedi.obj
 0001:00091570       _Jedi_AttackDecide         20092570 f   NPC_AI_Jedi.obj
 0001:00091900       _Jedi_BattleTaunt          20092900 f   NPC_AI_Jedi.obj
 0001:00091d50       _Jedi_CheckDecreaseSaberAnimLevel 20092d50 f   NPC_AI_Jedi.obj
 0001:00091df0       _Jedi_CheckEnemyMovement   20092df0 f   NPC_AI_Jedi.obj
 0001:00092db0       _Jedi_CheckJumps           20093db0 f   NPC_AI_Jedi.obj
 0001:000930b0       _Jedi_ClearPathToSpot      200940b0 f   NPC_AI_Jedi.obj
 0001:00093490       _Jedi_Combat               20094490 f   NPC_AI_Jedi.obj
 0001:000938f0       _Jedi_CombatDistance       200948f0 f   NPC_AI_Jedi.obj
 0001:000948c0       _Jedi_CombatIdle           200958c0 f   NPC_AI_Jedi.obj
 0001:00094aa0       _Jedi_CombatTimersUpdate   20095aa0 f   NPC_AI_Jedi.obj
 0001:00095070       _Jedi_DebounceDirectionChanges 20096070 f   NPC_AI_Jedi.obj
 0001:00095540       _Jedi_EvasionSaber         20096540 f   NPC_AI_Jedi.obj
 0001:00095de0       $LN102                     20096de0     NPC_AI_Jedi.obj
 0001:00095de8       $LN85                      20096de8     NPC_AI_Jedi.obj
 0001:00095e00       _Jedi_FaceEnemy            20096e00 f   NPC_AI_Jedi.obj
 0001:00096160       _Jedi_Hunt                 20097160 f   NPC_AI_Jedi.obj
 0001:000961d0       _Jedi_Jump                 200971d0 f   NPC_AI_Jedi.obj
 0001:000966a0       _Jedi_Jumping              200976a0 f   NPC_AI_Jedi.obj
 0001:00096700       _Jedi_Move                 20097700 f   NPC_AI_Jedi.obj
 0001:000967d0       _Jedi_Patrol               200977d0 f   NPC_AI_Jedi.obj
 0001:00096d80       _Jedi_Rage                 20097d80 f   NPC_AI_Jedi.obj
 0001:00097040       _Jedi_Retreat              20098040 f   NPC_AI_Jedi.obj
 0001:00097070       _Jedi_SaberBlock           20098070 f   NPC_AI_Jedi.obj
 0001:000988c0       _Jedi_SetEnemyInfo         200998c0 f   NPC_AI_Jedi.obj
 0001:00098b30       _Jedi_Strafe               20099b30 f   NPC_AI_Jedi.obj
 0001:00098c80       _Jedi_TimersApply          20099c80 f   NPC_AI_Jedi.obj
 0001:00098e00       _Jedi_TryJump              20099e00 f   NPC_AI_Jedi.obj
 0001:0009cde0       $LN55                      2009dde0     NPC_AI_Rancor.obj
 0001:0009cdf8       $LN48                      2009ddf8     NPC_AI_Rancor.obj
 0001:000a0be0       _Sniper_CheckFireState     200a1be0 f   NPC_AI_Sniper.obj
 0001:000a0d80       _Sniper_CheckMoveState     200a1d80 f   NPC_AI_Sniper.obj
 0001:000a1600       _Sniper_Move               200a2600 f   NPC_AI_Sniper.obj
 0001:000a1790       _Sniper_ResolveBlockedShot 200a2790 f   NPC_AI_Sniper.obj
 0001:000a3220       _NPC_ST_InvestigateEvent   200a4220 f   NPC_AI_Stormtrooper.obj
 0001:000a3dd0       _NPC_ST_SleepShuffle       200a4dd0 f   NPC_AI_Stormtrooper.obj
 0001:000a3f60       _ST_CheckFireState         200a4f60 f   NPC_AI_Stormtrooper.obj
 0001:000a42d0       _ST_CheckMoveState         200a52d0 f   NPC_AI_Stormtrooper.obj
 0001:000a5bbc       $LN69                      200a6bbc     NPC_AI_Stormtrooper.obj
 0001:000a5bd0       _ST_HoldPosition           200a6bd0 f   NPC_AI_Stormtrooper.obj
 0001:000a5d30       _ST_LookAround             200a6d30 f   NPC_AI_Stormtrooper.obj
 0001:000a5e70       _ST_Move                   200a6e70 f   NPC_AI_Stormtrooper.obj
 0001:000a5f70       _ST_OffsetLook             200a6f70 f   NPC_AI_Stormtrooper.obj
 0001:000a61a0       _ST_Speech                 200a71a0 f   NPC_AI_Stormtrooper.obj
 0001:000a63d0       $LN37                      200a73d0     NPC_AI_Stormtrooper.obj
 0001:000a6750       _VectorCompare             200a7750 f   bg_slidemove.obj
 0001:000a6750       _VectorCompare             200a7750 f   bg_pmove.obj
 0001:000a6750       _VectorCompare             200a7750 f   NPC_AI_Stormtrooper.obj
 0001:000a6750       _VectorCompare             200a7750 f   NPC_AI_Sniper.obj
 0001:000a6750       _VectorCompare             200a7750 f   NPC_utils.obj
 0001:000a6750       _VectorCompare             200a7750 f   w_saber.obj
 0001:000a6750       _VectorCompare             200a7750 f   g_missile.obj
 0001:000a6750       _VectorCompare             200a7750 f   NPC_AI_GalakMech.obj
 0001:000a6750       _VectorCompare             200a7750 f   NPC_AI_Jedi.obj
 0001:000a6750       _VectorCompare             200a7750 f   g_active.obj
 0001:000a6750       _VectorCompare             200a7750 f   g_combat.obj
 0001:000a76d0       $LN96                      200a86d0     NPC_AI_Utils.obj
 0001:000aa8c8       $LN28                      200ab8c8     NPC_behavior.obj
 0001:000abda4       $LN77                      200acda4     NPC_combat.obj
 0001:000ac178       $LN49                      200ad178     NPC_combat.obj
 0001:000ac194       $LN42                      200ad194     NPC_combat.obj
 0001:000ac1c8       $LN50                      200ad1c8     NPC_combat.obj
 0001:000ac1e0       $LN43                      200ad1e0     NPC_combat.obj
 0001:000ad180       _NPC_CollectCombatPoints   200ae180 f   NPC_combat.obj
 0001:000adaa4       $LN17                      200aeaa4     NPC_combat.obj
 0001:000af830       _NPC_CheckAttacker         200b0830 f   NPC_reactions.obj
 0001:000b0468       $LN100                     200b1468     NPC_reactions.obj
 0001:000b0498       $LN92                      200b1498     NPC_reactions.obj
 0001:000b0dd0       _G_CheckSightEvents        200b1dd0 f   NPC_senses.obj
 0001:000b0ee0       _G_CheckSoundEvents        200b1ee0 f   NPC_senses.obj
 0001:000b2d80       $LN24                      200b3d80     NPC_spawn.obj
 0001:000b2dbc       $LN22                      200b3dbc     NPC_spawn.obj
 0001:000b334c       $LN69                      200b434c     NPC_spawn.obj
 0001:000b3358       $LN67                      200b4358     NPC_spawn.obj
 0001:000b4338       $LN84                      200b5338     NPC_spawn.obj
 0001:000b5bd0       $LN11                      200b6bd0     NPC_spawn.obj
 0001:000b8f50       _TranslateRankName         200b9f50 f   NPC_stats.obj
 0001:000b9524       $LN40                      200ba524     NPC_utils.obj
 0001:000bcd30       _ProcessMoveCommands       200bdd30 f   SpeederNPC.obj
 0001:000be2a0       _AnimateVehicle            200bf2a0 f   WalkerNPC.obj
 0001:000be390       _Board                     200bf390 f   WalkerNPC.obj
 0001:000be390       _Board                     200bf390 f   FighterNPC.obj
 0001:000be400       _ProcessMoveCommands       200bf400 f   WalkerNPC.obj
 0001:000be580       _ProcessOrientCommands     200bf580 f   WalkerNPC.obj
 0001:000be680       _RegisterAssets            200bf680 f   WalkerNPC.obj
 0001:000c3140       $LN332                     200c4140     w_force.obj
 0001:000c3148       $LN315                     200c4148     w_force.obj
 0001:000c4ac8       $LN12                      200c5ac8     w_force.obj
 0001:000c4ad0       $LN9                       200c5ad0     w_force.obj
 0001:000c4ae8       $LN13                      200c5ae8     w_force.obj
 0001:000c4af0       $LN10                      200c5af0     w_force.obj
 0001:000c5168       $LN41                      200c6168     w_force.obj
 0001:000c51b0       _RemoveTrickedEnt          200c61b0 f   w_force.obj
 0001:000c5d64       $LN127                     200c6d64     w_force.obj
 0001:000c5e70       _WP_ForcePowerRun          200c6e70 f   w_force.obj
 0001:000c63b4       $LN101                     200c73b4     w_force.obj
 0001:000c6878       $LN66                      200c7878     w_force.obj
 0001:000c6bd0       $LN40                      200c7bd0     w_force.obj
 0001:000c6d90       $LN43                      200c7d90     w_force.obj
 0001:000c6d98       $LN36                      200c7d98     w_force.obj
 0001:000c8bb0       _WP_UpdateMindtrickEnts    200c9bb0 f   w_force.obj
 0001:000c8df0       _CheckSaberDamage          200c9df0 f   w_saber.obj
 0001:000cb590       _CheckThrownSaberDamaged   200cc590 f   w_saber.obj
 0001:000cbfb0       _G_BuildSaberFaces         200ccfb0 f   w_saber.obj
 0001:000ccb50       _G_CheckLookTarget         200cdb50 f   w_saber.obj
 0001:000ccdb0       _G_ClientIdleInWorld       200cddb0 f   w_saber.obj
 0001:000ccf90       _G_G2NPCAngles             200cdf90 f   w_saber.obj
 0001:000cd240       _G_G2PlayerAngles          200ce240 f   w_saber.obj
 0001:000cd770       _G_G2TraceCollide          200ce770 f   w_saber.obj
 0001:000cd9a0       _G_GetAnimPoint            200ce9a0 f   w_saber.obj
 0001:000cda70       _G_GetAttackDamage         200cea70 f   w_saber.obj
 0001:000cdb70       _G_GetParryForBlock        200ceb70 f   w_saber.obj
 0001:000cdbd0       $LN17                      200cebd0     w_saber.obj
 0001:000cdc00       _G_GrabSomeMofos           200cec00 f   w_saber.obj
 0001:000cdfa0       _G_KickDownable            200cefa0 f   w_saber.obj
 0001:000ce020       _G_KickSomeMofos           200cf020 f   w_saber.obj
 0001:000ce6b4       $LN86                      200cf6b4     w_saber.obj
 0001:000ce6f0       _G_KickTrace               200cf6f0 f   w_saber.obj
 0001:000cea8c       $LN11                      200cfa8c     w_saber.obj
 0001:000ceaa0       _G_PowerLevelForSaberAnim  200cfaa0 f   w_saber.obj
 0001:000cefb8       $LN171                     200cffb8     w_saber.obj
 0001:000cf044       $LN160                     200d0044     w_saber.obj
 0001:000cf13c       $LN172                     200d013c     w_saber.obj
 0001:000cf158       $LN161                     200d0158     w_saber.obj
 0001:000cfb30       _G_SaberAttackPower        200d0b30 f   w_saber.obj
 0001:000cfca0       _G_SaberCollide            200d0ca0 f   w_saber.obj
 0001:000cfec0       _G_SaberFaceCollisionCheck 200d0ec0 f   w_saber.obj
 0001:000d09c0       _G_TossTheMofo             200d19c0 f   w_saber.obj
 0001:000d0e00       _SaberAttacking            200d1e00 f   w_saber.obj
 0001:000d1170       _SetSaberBoxSize           200d2170 f   w_saber.obj
 0001:000d20e0       _WP_GetSaberDeflectionAngle 200d30e0 f   w_saber.obj
 0001:000d2440       $LN67                      200d3440     w_saber.obj
 0001:000d249c       $LN11                      200d349c     w_saber.obj
 0001:000d6370       _WP_SabersCheckLock2       200d7370 f   w_saber.obj
 0001:000d7380       $LN665                     200d8380     w_saber.obj
 0001:000d739c       $LN666                     200d839c     w_saber.obj
 0001:000d86e0       _saberCheckRadiusDamage    200d96e0 f   w_saber.obj
 0001:000d9090       _saberMoveBack             200da090 f   w_saber.obj
 0001:000d94a0       $$000000                   200da4a0     LIBCMT:chkstk.obj
 0001:000d94d0       $$000000                   200da4d0     LIBCMT:_ftol2_.obj
 0001:000d9730       $$000000                   200da730     LIBCMT:_ftol3_.obj
 0001:000d9ab0       $$000000                   200daab0     LIBCMT:_svml_dfloor2_dispatch_.obj
 0001:000d9ac2       ?dllmain_crt_dispatch@@YGHQAUHINSTANCE__@@KQAX@Z 200daac2 f   LIBCMT:dll_dllmain.obj
 0001:000d9b15       ?dllmain_crt_process_attach@@YAHQAUHINSTANCE__@@QAX@Z 200dab15 f   LIBCMT:dll_dllmain.obj
 0001:000d9c27       ?dllmain_crt_process_detach@@YAH_N@Z 200dac27 f   LIBCMT:dll_dllmain.obj
 0001:000d9ca4       ?dllmain_dispatch@@YAHQAUHINSTANCE__@@KQAX@Z 200daca4 f   LIBCMT:dll_dllmain.obj
 0001:000d9dad       ?dllmain_raw@@YGHQAUHINSTANCE__@@KQAX@Z 200dadad f   LIBCMT:dll_dllmain.obj
 0001:000d9e00       $$000000                   200dae00     LIBCMT:_svml_dfloor2_sse2_.obj
 0001:000d9e50       $$000000                   200dae50     LIBCMT:_svml_dfloor2_sse4_.obj
 0001:000d9e60       ?find_pe_section@@YAPAU_IMAGE_SECTION_HEADER@@QAEI@Z 200dae60 f   LIBCMT:utility.obj
 0001:000da3e0       $$000000                   200db3e0     LIBCMT:_sehprolg4_.obj
 0001:000da580       $$000000                   200db580     libvcruntime:strchr.obj
 0001:000da6b0       $$000000                   200db6b0     libvcruntime:strstr.obj
 0001:000da920       $$000000                   200db920     libvcruntime:memset.obj
 0001:000daa80       $$000000                   200dba80     libvcruntime:memcpy.obj
 0001:000dace4       TrailingUpVec              200dbce4     libvcruntime:memcpy.obj
 0001:000dad90       TrailingDownVec            200dbd90     libvcruntime:memcpy.obj
 0001:000db000       $$000000                   200dc000     libvcruntime:memmove.obj
 0001:000db264       TrailingUpVec              200dc264     libvcruntime:memmove.obj
 0001:000db310       TrailingDownVec            200dc310     libvcruntime:memmove.obj
 0001:000db574       ?__telemetry_getfilename@@YAXPAUHINSTANCE__@@PA_WK@Z 200dc574 f   libvcruntime:telemetry.obj
 0001:000db710       _ValidateLocalCookies      200dc710 f   libvcruntime:_chandler4_.obj
 0001:000db95a       ?try_get_function@@YAPAXW4function_id@?A0x1821e63c@@QBDQBW4module_id@2@2@Z 200dc95a f   libvcruntime:winapi_downlevel.obj
 0001:000db9fa       ?try_get_module@@YAPAUHINSTANCE__@@W4module_id@?A0x1821e63c@@@Z 200dc9fa f   libvcruntime:winapi_downlevel.obj
 0001:000dbd10       $$000000                   200dcd10     libvcruntime:_exsup4_.obj
 0001:000dbda0       __unwind_handler4          200dcda0 f   libvcruntime:_exsup4_.obj
 0001:000dc010       $$000000                   200dd010     libvcruntime:_exsup_.obj
 0001:000dc030       __unwind_handler           200dd030 f   libvcruntime:_exsup_.obj
 0001:000dc180       $$000000                   200dd180     libucrt:sqrt_sse2_precise.obj
 0001:000dc43f       ??$common_atof_l@D@@YANQBDQAU__crt_locale_pointers@@@Z 200dd43f f   libucrt:atof.obj
 0001:000dccc6       $LN38                      200ddcc6     libucrt:atof.obj
 0001:000dcdca       $LN21                      200dddca     libucrt:atof.obj
 0001:000dce75       ??R<lambda_af0d5e41dc07595f2c52435db9a0efad>@@QBE_NXZ 200dde75 f   libucrt:atof.obj
 0001:000dce75       ??R<lambda_952f81e62542d0a726c252b8c2136a43>@@QBE_NXZ 200dde75 f   libucrt:atof.obj
 0001:000dce75       ??R<lambda_3a2f1c4b88a94fdfdc7bccff06592946>@@QBE_NXZ 200dde75 f   libucrt:atof.obj
 0001:000df838       _memcpy_s                  200e0838 f   libucrt:mbctype.obj
 0001:000df838       _memcpy_s                  200e0838 f   libucrt:atof.obj
 0001:000df838       _memcpy_s                  200e0838 f   libucrt:cfout.obj
 0001:000dfe27       ??$common_vsscanf@D@@YAH_KQBDI1QAU__crt_locale_pointers@@QAD@Z 200e0e27 f   libucrt:input.obj
 0001:000e0e5d       ??R<lambda_79c077965043167fb4fbb9f601780f11>@@QBE_NXZ 200e1e5d f   libucrt:input.obj
 0001:000e0e5d       ??R<lambda_24bca0711811e6233a81aece93ea4a83>@@QBE_NXZ 200e1e5d f   libucrt:input.obj
 0001:000e0e5d       ??R<lambda_4794eb6df3f6f7d20e048423b4e04b2b>@@QBE_NXZ 200e1e5d f   libucrt:input.obj
 0001:000e1187       $LN22                      200e2187     libucrt:input.obj
 0001:000e1900       $LN18                      200e2900     libucrt:input.obj
 0001:000e1b00       $$000000                   200e2b00     libucrt:87ctriga.obj
 0001:000e1b20       $$000000                   200e2b20     libucrt:cos_sse2_precise.obj
 0001:000e1ce0       $$000000                   200e2ce0     libucrt:sin_sse2_precise.obj
 0001:000e1eb0       $$000000                   200e2eb0     libucrt:ceil_pentium4.obj
 0001:000e1fd0       $$000000                   200e2fd0     libucrt:floor_pentium4.obj
 0001:000e20d0       $$000000                   200e30d0     libucrt:strncpy.obj
 0001:000e21f4       ??$common_tox_l@$1?internal_islower_l@@YA_NHQAU__crt_locale_pointers@@@Z$1?internal_map_upper@@YAHH0@Z@@YAHHKQAU__crt_locale_pointers@@@Z 200e31f4 f   libucrt:tolower_toupper.obj
 0001:000e233e       ??$common_tox_l@$1?internal_isupper_l@@YA_NHQAU__crt_locale_pointers@@@Z$1?internal_map_lower@@YAHH0@Z@@YAHHKQAU__crt_locale_pointers@@@Z 200e333e f   libucrt:tolower_toupper.obj
 0001:000e2488       ?internal_islower_l@@YA_NHQAU__crt_locale_pointers@@@Z 200e3488 f   libucrt:tolower_toupper.obj
 0001:000e24a5       ?internal_isupper_l@@YA_NHQAU__crt_locale_pointers@@@Z 200e34a5 f   libucrt:tolower_toupper.obj
 0001:000e2556       ??$common_vsprintf@Vstandard_base@__crt_stdio_output@@D@@YAH_KQADIQBDQAU__crt_locale_pointers@@1@Z 200e3556 f   libucrt:output.obj
 0001:000e2c2a       $LN54                      200e3c2a     libucrt:output.obj
 0001:000e3148       $LN19                      200e4148     libucrt:output.obj
 0001:000e37d0       ?shortsort@@YAXPAD0IP6AHPBX1@Z@Z 200e47d0 f   libucrt:qsort.obj
 0001:000e3870       ?swap@@YAXPAD0I@Z          200e4870 f   libucrt:qsort.obj
 0001:000e3c50       $$000000                   200e4c50     libucrt:acos_sse2_precise.obj
 0001:000e4170       $$000000                   200e5170     libucrt:87fmod.obj
 0001:000e4a8d       ?atexit_exception_filter@@YAHK@Z 200e5a8d f   libucrt:exit.obj
 0001:000e4aa0       ?common_exit@@YAXHW4_crt_exit_cleanup_mode@@W4_crt_exit_return_mode@@@Z 200e5aa0 f   libucrt:exit.obj
 0001:000e4bb9       ?exit_or_terminate_process@@YAXI@Z 200e5bb9 f   libucrt:exit.obj
 0001:000e4bfa       ?is_managed_app@@YA_NXZ    200e5bfa f   libucrt:exit.obj
 0001:000e4c3e       ?try_cor_exit_process@@YAXI@Z 200e5c3e f   libucrt:exit.obj
 0001:000e4ce2       ??$common_initialize_environment_nolock@D@@YAHXZ 200e5ce2 f   libucrt:environment_initialization.obj
 0001:000e4d3b       ??$create_environment@D@@YAQAPADQAD@Z 200e5d3b f   libucrt:environment_initialization.obj
 0001:000e4e0c       ??$free_environment@_W@@YAXQAPA_W@Z 200e5e0c f   libucrt:environment_initialization.obj
 0001:000e4e0c       ??$free_environment@D@@YAXQAPAD@Z 200e5e0c f   libucrt:environment_initialization.obj
 0001:000e4e7b       ??$uninitialize_environment_internal@D@@YAXAAPAPAD@Z 200e5e7b f   libucrt:environment_initialization.obj
 0001:000e4e96       ??$uninitialize_environment_internal@_W@@YAXAAPAPA_W@Z 200e5e96 f   libucrt:environment_initialization.obj
 0001:000e4ffe       ??R<lambda_275893d493268fdec8709772e3fcec0e>@@QBEHXZ 200e5ffe f   libucrt:onexit.obj
 0001:000e511e       ??R<lambda_4e60a939b0d047cfe11ddc22648dfba9>@@QBEHXZ 200e611e f   libucrt:onexit.obj
 0001:000e52f3       _initialize_global_variables 200e62f3 f   libucrt:initialization.obj
 0001:000e5305       _initialize_c              200e6305 f   libucrt:initialization.obj
 0001:000e531f       _uninitialize_environment  200e631f f   libucrt:initialization.obj
 0001:000e5327       _initialize_pointers       200e6327 f   libucrt:initialization.obj
 0001:000e5364       _uninitialize_vcruntime    200e6364 f   libucrt:initialization.obj
 0001:000e536d       _uninitialize_allocated_memory 200e636d f   libucrt:initialization.obj
 0001:000e5800       ?construct_ptd@@YAXQAU__acrt_ptd@@QAPAU__crt_locale_data@@@Z 200e6800 f   libucrt:per_thread_data.obj
 0001:000e5879       ?destroy_fls@@YGXPAX@Z     200e6879 f   libucrt:per_thread_data.obj
 0001:000e589a       ?destroy_ptd@@YAXQAU__acrt_ptd@@@Z 200e689a f   libucrt:per_thread_data.obj
 0001:000e5943       ?replace_current_thread_locale_nolock@@YAXQAU__acrt_ptd@@QAU__crt_locale_data@@@Z 200e6943 f   libucrt:per_thread_data.obj
 0001:000e5d30       $$000000                   200e6d30     libucrt:sqrt.obj
 0001:000e672e       ?initialize_inherited_file_handles_nolock@@YAXXZ 200e772e f   libucrt:ioinit.obj
 0001:000e67e4       ?initialize_stdio_handles_nolock@@YAXXZ 200e77e4 f   libucrt:ioinit.obj
 0001:000e6920       $$000000                   200e7920     libucrt:87triga.obj
 0001:000e69d0       $$000000                   200e79d0     libucrt:87cdisp.obj
 0001:000e6c60       $$000000                   200e7c60     libucrt:cos.obj
 0001:000e6d90       $$000000                   200e7d90     libucrt:sin.obj
 0001:000e706c       ?__acrt_LCMapStringA_stat@@YAHPAU__crt_locale_pointers@@PB_WKPBDHPADHHH@Z 200e806c f   libucrt:lcmapstringa.obj
 0001:000e765c       ?fp_format_a@@YAHQBNPADIQADIH_NIQAU__crt_locale_pointers@@@Z 200e865c f   libucrt:cvt.obj
 0001:000e795f       ?fp_format_e@@YAHQBNQADI1IH_NIQAU__crt_locale_pointers@@@Z 200e895f f   libucrt:cvt.obj
 0001:000e79fa       ?fp_format_e_internal@@YAHQADIH_NIQAU_strflt@@1QAU__crt_locale_pointers@@@Z 200e89fa f   libucrt:cvt.obj
 0001:000e7b45       ?fp_format_f@@YAHQBNQADI1IHQAU__crt_locale_pointers@@@Z 200e8b45 f   libucrt:cvt.obj
 0001:000e7bd2       ?fp_format_f_internal@@YAHQADIHQAU_strflt@@_NQAU__crt_locale_pointers@@@Z 200e8bd2 f   libucrt:cvt.obj
 0001:000e7ca9       ?fp_format_g@@YAHQBNQADI1IH_NIQAU__crt_locale_pointers@@@Z 200e8ca9 f   libucrt:cvt.obj
 0001:000e7d71       ?fp_format_nan_or_infinity@@YAHW4__acrt_fp_class@@_NPADI1@Z 200e8d71 f   libucrt:cvt.obj
 0001:000e7e69       ?shift_bytes@@YAXQADI0H@Z  200e8e69 f   libucrt:cvt.obj
 0001:000e8000       $$000000                   200e9000     libucrt:acos.obj
 0001:000e8150       $$000000                   200e9150     libucrt:87disp.obj
 0001:000e8667       ?try_get_function@@YAPAXW4function_id@?A0x352e5c4b@@QBDQBW4module_id@2@2@Z 200e9667 f   libucrt:winapi_thunks.obj
 0001:000e8703       ?try_get_module@@YAPAUHINSTANCE__@@W4module_id@?A0x352e5c4b@@@Z 200e9703 f   libucrt:winapi_thunks.obj
 0001:000e8b6d       ??R<lambda_ad1ced32f4ac17aa236e5ef05d6b3b7c>@@QBEXXZ 200e9b6d f   libucrt:mbctype.obj
 0001:000e8c31       ?CPtoLocaleName@@YAPB_WH@Z 200e9c31 f   libucrt:mbctype.obj
 0001:000e8c6f       ?getSystemCP@@YAHH@Z       200e9c6f f   libucrt:mbctype.obj
 0001:000e8ce2       ?setSBCS@@YAXPAU__crt_multibyte_data@@@Z 200e9ce2 f   libucrt:mbctype.obj
 0001:000e8d47       ?setSBUpLow@@YAXPAU__crt_multibyte_data@@@Z 200e9d47 f   libucrt:mbctype.obj
 0001:000e8edb       ?setmbcp_internal@@YAHH_N@Z 200e9edb f   libucrt:mbctype.obj
 0001:000e9290       ?find_end_of_double_null_terminated_sequence@@YAPB_WQB_W@Z 200ea290 f   libucrt:get_environment_from_os.obj
 0001:000e93f6       _uninitialize_c            200ea3f6 f   libucrt:initialization.obj
 0001:000e93f6       _initialize_environment    200ea3f6 f   libucrt:initialization.obj
 0001:000e93f6       _report_memory_leaks       200ea3f6 f   libucrt:initialization.obj
 0001:000e93f6       _uninitialize_global_state_isolation 200ea3f6 f   libucrt:initialization.obj
 0001:000e93f6       _initialize_global_state_isolation 200ea3f6 f   libucrt:initialization.obj
 0001:000e95f5       ?get_global_action_nolock@@YAPAP6AXH@ZH@Z 200ea5f5 f   libucrt:signal.obj
 0001:000e9637       ?siglookup@@YAPAU__crt_signal_action_t@@HQAU1@@Z 200ea637 f   libucrt:signal.obj
 0001:000e9c60       $$000000                   200eac60     libucrt:genexcep.obj
 0001:000e9cc0       $$000000                   200eacc0     libucrt:common.obj
 0001:000e9f69       ___get_abstract_control_sse2 200eaf69 f   libucrt:_fenvutils.obj
 0001:000e9fe6       ___get_abstract_control_x87 200eafe6 f   libucrt:_fenvutils.obj
 0001:000ea059       ___get_machine_control     200eb059 f   libucrt:_fenvutils.obj
 0001:000ea0ca       ___get_machine_control_sse2 200eb0ca f   libucrt:_fenvutils.obj
 0001:000ea14a       ___get_machine_status_sse2 200eb14a f   libucrt:_fenvutils.obj
 0001:000ea1ab       ___get_machine_status_x87  200eb1ab f   libucrt:_fenvutils.obj
 0001:000ea55e       ?free_crt_array_internal@@YAXQAPBXI@Z 200eb55e f   libucrt:inittime.obj
 0001:000ea7d4       _common_flush_all          200eb7d4 f   libucrt:fflush.obj
 0001:000eac80       $$000000                   200ebc80     libucrt:cos_pentium4.obj
 0001:000eae30       $$000000                   200ebe30     libucrt:sin_pentium4.obj
 0001:000ec510       $$000000                   200ed510     libucrt:acos_pentium4.obj
 0001:000eca64       ?GetTableIndexFromLocaleName@@YAHPB_W@Z 200eda64 f   libucrt:lcidtoname_downlevel.obj
 0001:000ecb4c       ?initialize_multibyte@@YAHXZ 200edb4c f   libucrt:multibyte_initializer.obj
 0001:000ece1c       ?write_double_translated_ansi_nolock@@YA?AUwrite_result@?A0x47fa6670@@HQBDI@Z 200ede1c f   libucrt:write.obj
 0001:000ecfcf       ?write_double_translated_unicode_nolock@@YA?AUwrite_result@?A0x47fa6670@@QBDI@Z 200edfcf f   libucrt:write.obj
 0001:000ed03c       ?write_requires_double_translation_nolock@@YA_NH@Z 200ee03c f   libucrt:write.obj
 0001:000ed0b2       ?write_text_ansi_nolock@@YA?AUwrite_result@?A0x47fa6670@@HQBDI@Z 200ee0b2 f   libucrt:write.obj
 0001:000ed191       ?write_text_utf16le_nolock@@YA?AUwrite_result@?A0x47fa6670@@HQBDI@Z 200ee191 f   libucrt:write.obj
 0001:000ed27f       ?write_text_utf8_nolock@@YA?AUwrite_result@?A0x47fa6670@@HQBDI@Z 200ee27f f   libucrt:write.obj
 0001:000ed760       $$000000                   200ee760     libucrt:log10.obj
 0001:000ed8b0       ??$common_lseek_nolock@_J@@YA_JH_JH@Z 200ee8b0 f   libucrt:lseek.obj
 0001:000edc70       $$000000                   200eec70     libucrt:log10_pentium4.obj
 0001:000edf00       $$000000                   200eef00     libucrt:87tran.obj
 0001:000ee100       $$000000                   200ef100     libucrt:_strnicm.obj
 0001:000ee540       $$000000                   200ef540     LIBCMT:ulldvrm.obj
 0001:000ee5e0       $$000000                   200ef5e0     LIBCMT:llmul.obj
 0001:000ee620       $$000000                   200ef620     LIBCMT:llshl.obj
 0001:000ee640       $$000000                   200ef640     LIBCMT:ullshr.obj
 0001:000ee660       $$000000                   200ef660     LIBCMT:_sehprolg4gs_.obj
 0001:000ee6c0       $$000000                   200ef6c0     LIBCMT:alloca16.obj
 0001:000ee6f0       $$000000                   200ef6f0     LIBCMT:lldvrm.obj
 0001:000ee7d0       $$000000                   200ef7d0     libvcruntime:strrchr.obj
 0002:0001a680       _Int32ToUInt32             2010a680     LIBCMT:_ftol3_.obj
 0002:0001a688       _DP2to32                   2010a688     LIBCMT:_ftol3_.obj
 0002:0001a690       _MantissaMask              2010a690     LIBCMT:_ftol3_.obj
 0002:0001a698       _IntegerBit                2010a698     LIBCMT:_ftol3_.obj
 0002:0001a6a0       _SignBit64                 2010a6a0     LIBCMT:_ftol3_.obj
 0002:0001a6a8       _MinFP64                   2010a6a8     LIBCMT:_ftol3_.obj
 0002:0001a6b0       _MinInt64                  2010a6b0     LIBCMT:_ftol3_.obj
 0002:0001a6b8       _MaxInt64                  2010a6b8     LIBCMT:_ftol3_.obj
 0002:0001a6c0       _MaxUInt64                 2010a6c0     LIBCMT:_ftol3_.obj
 0002:0001a6c8       _MaxFP32                   2010a6c8     LIBCMT:_ftol3_.obj
 0002:0001a6d0       _MinFP32                   2010a6d0     LIBCMT:_ftol3_.obj
 0002:0001a6d8       _MinSubInexact             2010a6d8     LIBCMT:_ftol3_.obj
 0002:0001a6e0       _FpExcptTable              2010a6e0     LIBCMT:_ftol3_.obj
 0002:0001a6f0       _i1075                     2010a6f0     LIBCMT:_ftol3_.obj
 0002:0001a6f4       _i1087                     2010a6f4     LIBCMT:_ftol3_.obj
 0002:0001a6f8       _x0800                     2010a6f8     LIBCMT:_ftol3_.obj
 0002:0001a6fc       _x17FF                     2010a6fc     LIBCMT:_ftol3_.obj
 0002:0001a700       _CWMask                    2010a700     LIBCMT:_ftol3_.obj
 0002:0001a708       _GS_ExceptionPointers      2010a708     LIBCMT:gs_report.obj
 0002:0001a738       ?module_names@?A0x1821e63c@@3QBQB_WB 2010a738     libvcruntime:winapi_downlevel.obj
 0002:0001a7e8       ?candidate_modules@?1??try_get_EventRegister@@YAP6GKPBU_GUID@@P6GX0KE_K1PAU_EVENT_FILTER_DESCRIPTOR@@PAX@Z3PA_K@ZXZ@4QBW4module_id@?A0x1821e63c@@B 2010a7e8     libvcruntime:winapi_downlevel.obj
 0002:0001a7fc       ?candidate_modules@?1??try_get_EventSetInformation@@YAP6GK_KW4_EVENT_INFO_CLASS@@PAXK@ZXZ@4QBW4module_id@?A0x1821e63c@@B 2010a7fc     libvcruntime:winapi_downlevel.obj
 0002:0001a814       ?candidate_modules@?1??try_get_EventUnregister@@YAP6GK_K@ZXZ@4QBW4module_id@?A0x1821e63c@@B 2010a814     libvcruntime:winapi_downlevel.obj
 0002:0001a828       ?candidate_modules@?1??try_get_EventWriteTransfer@@YAP6GK_KPBU_EVENT_DESCRIPTOR@@PBU_GUID@@2KPAU_EVENT_DATA_DESCRIPTOR@@@ZXZ@4QBW4module_id@?A0x1821e63c@@B 2010a828     libvcruntime:winapi_downlevel.obj
 0002:0001a840       ?candidate_modules@?1??try_get_FlsAlloc@@YAP6GKP6GXPAX@Z@ZXZ@4QBW4module_id@?A0x1821e63c@@B 2010a840     libvcruntime:winapi_downlevel.obj
 0002:0001a854       ?candidate_modules@?1??try_get_FlsFree@@YAP6GHK@ZXZ@4QBW4module_id@?A0x1821e63c@@B 2010a854     libvcruntime:winapi_downlevel.obj
 0002:0001a864       ?candidate_modules@?1??try_get_FlsGetValue@@YAP6GPAXK@ZXZ@4QBW4module_id@?A0x1821e63c@@B 2010a864     libvcruntime:winapi_downlevel.obj
 0002:0001a878       ?candidate_modules@?1??try_get_FlsSetValue@@YAP6GHKPAX@ZXZ@4QBW4module_id@?A0x1821e63c@@B 2010a878     libvcruntime:winapi_downlevel.obj
 0002:0001a88c       ?candidate_modules@?1??try_get_InitializeCriticalSectionEx@@YAP6GHPAU_RTL_CRITICAL_SECTION@@KK@ZXZ@4QBW4module_id@?A0x1821e63c@@B 2010a88c     libvcruntime:winapi_downlevel.obj
 0002:0001a8b0       ?tokenTable@@3QBQBDB       2010a8b0     libvcruntime:undname.obj
 0002:0001a8e8       ?nameTable@@3QBQBDB        2010a8e8     libvcruntime:undname.obj
 0002:0001aa2c       ?rttiTable@@3QBQBDB        2010aa2c     libvcruntime:undname.obj
 0002:0001bc10       SC_1                       2010bc10     libucrt:cos_sse2_precise.obj
 0002:0001bc20       SC_2                       2010bc20     libucrt:cos_sse2_precise.obj
 0002:0001bc30       SC_3                       2010bc30     libucrt:cos_sse2_precise.obj
 0002:0001bc40       SC_4                       2010bc40     libucrt:cos_sse2_precise.obj
 0002:0001bc50       PI32INV                    2010bc50     libucrt:cos_sse2_precise.obj
 0002:0001bc58       SHIFTER                    2010bc58     libucrt:cos_sse2_precise.obj
 0002:0001bc60       P_2                        2010bc60     libucrt:cos_sse2_precise.obj
 0002:0001bc70       P_1                        2010bc70     libucrt:cos_sse2_precise.obj
 0002:0001bc78       P_3                        2010bc78     libucrt:cos_sse2_precise.obj
 0002:0001bc80       TWO_POW_55                 2010bc80     libucrt:cos_sse2_precise.obj
 0002:0001bc88       TWO_POW_M55                2010bc88     libucrt:cos_sse2_precise.obj
 0002:0001bc90       ALL_ONES                   2010bc90     libucrt:cos_sse2_precise.obj
 0002:0001bc98       NEG_ZERO                   2010bc98     libucrt:cos_sse2_precise.obj
 0002:0001bca0       ONE                        2010bca0     libucrt:cos_sse2_precise.obj
 0002:0001bcb0       SIGN_MASK                  2010bcb0     libucrt:cos_sse2_precise.obj
 0002:0001bcc0       SC_1                       2010bcc0     libucrt:sin_sse2_precise.obj
 0002:0001bcd0       SC_2                       2010bcd0     libucrt:sin_sse2_precise.obj
 0002:0001bce0       SC_3                       2010bce0     libucrt:sin_sse2_precise.obj
 0002:0001bcf0       SC_4                       2010bcf0     libucrt:sin_sse2_precise.obj
 0002:0001bd00       PI32INV                    2010bd00     libucrt:sin_sse2_precise.obj
 0002:0001bd08       SHIFTER                    2010bd08     libucrt:sin_sse2_precise.obj
 0002:0001bd10       P_2                        2010bd10     libucrt:sin_sse2_precise.obj
 0002:0001bd20       P_1                        2010bd20     libucrt:sin_sse2_precise.obj
 0002:0001bd28       P_3                        2010bd28     libucrt:sin_sse2_precise.obj
 0002:0001bd30       TWO_POW_55                 2010bd30     libucrt:sin_sse2_precise.obj
 0002:0001bd38       TWO_POW_M55                2010bd38     libucrt:sin_sse2_precise.obj
 0002:0001bd40       ALL_ONES                   2010bd40     libucrt:sin_sse2_precise.obj
 0002:0001bd48       NEG_ZERO                   2010bd48     libucrt:sin_sse2_precise.obj
 0002:0001bd50       ONE                        2010bd50     libucrt:sin_sse2_precise.obj
 0002:0001bd60       _One                       2010bd60     libucrt:ceil_pentium4.obj
 0002:0001bd70       _Bns                       2010bd70     libucrt:ceil_pentium4.obj
 0002:0001bd80       _Zero                      2010bd80     libucrt:ceil_pentium4.obj
 0002:0001bd90       _S                         2010bd90     libucrt:ceil_pentium4.obj
 0002:0001bda0       _NegZero                   2010bda0     libucrt:ceil_pentium4.obj
 0002:0001bdb0       _One                       2010bdb0     libucrt:floor_pentium4.obj
 0002:0001bdc0       _Bns                       2010bdc0     libucrt:floor_pentium4.obj
 0002:0001bdd0       _NegOne                    2010bdd0     libucrt:floor_pentium4.obj
 0002:0001bde0       _NegZero                   2010bde0     libucrt:floor_pentium4.obj
 0002:0001bdf0       _S                         2010bdf0     libucrt:floor_pentium4.obj
 0002:0001be80       Shifter                    2010be80     libucrt:acos_sse2_precise.obj
 0002:0001be90       PI_BY_2                    2010be90     libucrt:acos_sse2_precise.obj
 0002:0001bea0       NEG_PI                     2010bea0     libucrt:acos_sse2_precise.obj
 0002:0001beb0       PI                         2010beb0     libucrt:acos_sse2_precise.obj
 0002:0001bec0       SIGNMASK                   2010bec0     libucrt:acos_sse2_precise.obj
 0002:0001bed0       HALFMASK                   2010bed0     libucrt:acos_sse2_precise.obj
 0002:0001bee0       HALFMASK2                  2010bee0     libucrt:acos_sse2_precise.obj
 0002:0001bef0       cv                         2010bef0     libucrt:acos_sse2_precise.obj
 0002:0001bf10       cv2                        2010bf10     libucrt:acos_sse2_precise.obj
 0002:0001bf50       ABSVALMASK                 2010bf50     libucrt:acos_sse2_precise.obj
 0002:0001bf58       TMASK                      2010bf58     libucrt:acos_sse2_precise.obj
 0002:0001bf60       ONEMASK                    2010bf60     libucrt:acos_sse2_precise.obj
 0002:0001bf68       ONE_BY_2                   2010bf68     libucrt:acos_sse2_precise.obj
 0002:0001bf70       EMIN                       2010bf70     libucrt:acos_sse2_precise.obj
 0002:0001bf78       MAX_ARG                    2010bf78     libucrt:acos_sse2_precise.obj
 0002:0001bf80       MIN_ARG                    2010bf80     libucrt:acos_sse2_precise.obj
 0002:0001bf88       INF                        2010bf88     libucrt:acos_sse2_precise.obj
 0002:0001bf90       ZERO                       2010bf90     libucrt:acos_sse2_precise.obj
 0002:0001bf98       ALPHA                      2010bf98     libucrt:acos_sse2_precise.obj
 0002:0001c098       ?_names@?1??_get_fname@@9@9 2010c098     libucrt:fpexcept.obj
 0002:0001c270       ___acrt_initializers       2010c270     libucrt:initialization.obj
 0002:0001c2f0       _NAME_                     2010c2f0     libucrt:sqrt.obj
 0002:0001c2f8       _errtable                  2010c2f8     libucrt:errno.obj
 0002:0001cf70       DblMax                     2010cf70     libucrt:87cdisp.obj
 0002:0001cf78       DblMin                     2010cf78     libucrt:87cdisp.obj
 0002:0001cf80       IeeeAdjO                   2010cf80     libucrt:87cdisp.obj
 0002:0001cf88       IeeeAdjU                   2010cf88     libucrt:87cdisp.obj
 0002:0001cf90       _infinity                  2010cf90     libucrt:87cdisp.obj
 0002:0001cf98       _zero                      2010cf98     libucrt:87cdisp.obj
 0002:0001cfa0       _NAME_                     2010cfa0     libucrt:cos.obj
 0002:0001d7b0       _NAME_                     2010d7b0     libucrt:sin.obj
 0002:0001d800       _NAME_                     2010d800     libucrt:acos.obj
 0002:0001ef2e       One                        2010ef2e     libucrt:87disp.obj
 0002:0001ef36       Three                      2010ef36     libucrt:87disp.obj
 0002:0001ef3e       XAMtoTagTab                2010ef3e     libucrt:87disp.obj
 0002:0001ef68       _over                      2010ef68     libucrt:fpctrl.obj
 0002:0001ef74       _under                     2010ef74     libucrt:fpctrl.obj
 0002:0001ef80       _module_names              2010ef80     libucrt:winapi_thunks.obj
 0002:0001f420       ?candidate_modules@?1??try_get_FlsAlloc@@YAP6GKP6GXPAX@Z@ZXZ@4QBW4module_id@?A0x352e5c4b@@B 2010f420     libucrt:winapi_thunks.obj
 0002:0001f428       ?candidate_modules@?1??try_get_FlsFree@@YAP6GHK@ZXZ@4QBW4module_id@?A0x352e5c4b@@B 2010f428     libucrt:winapi_thunks.obj
 0002:0001f430       ?candidate_modules@?1??try_get_FlsGetValue@@YAP6GPAXK@ZXZ@4QBW4module_id@?A0x352e5c4b@@B 2010f430     libucrt:winapi_thunks.obj
 0002:0001f438       ?candidate_modules@?1??try_get_FlsSetValue@@YAP6GHKPAX@ZXZ@4QBW4module_id@?A0x352e5c4b@@B 2010f438     libucrt:winapi_thunks.obj
 0002:0001f440       ?candidate_modules@?1??try_get_GetCurrentPackageId@@YAP6GJPAIPAE@ZXZ@4QBW4module_id@?A0x352e5c4b@@B 2010f440     libucrt:winapi_thunks.obj
 0002:0001f45c       ?candidate_modules@?1??try_get_InitializeCriticalSectionEx@@YAP6GHPAU_RTL_CRITICAL_SECTION@@KK@ZXZ@4QBW4module_id@?A0x352e5c4b@@B 2010f45c     libucrt:winapi_thunks.obj
 0002:0001f464       ?candidate_modules@?1??try_get_LCMapStringEx@@YAP6GHPB_WK0HPA_WHPAU_nlsversioninfo@@PAXJ@ZXZ@4QBW4module_id@?A0x352e5c4b@@B 2010f464     libucrt:winapi_thunks.obj
 0002:0001f47c       ?candidate_modules@?1??try_get_LocaleNameToLCID@@YAP6GKPB_WK@ZXZ@4QBW4module_id@?A0x352e5c4b@@B 2010f47c     libucrt:winapi_thunks.obj
 0002:0001f498       __mb_locale_names          2010f498     libucrt:mbctype.obj
 0002:0001f4e0       One                        2010f4e0     libucrt:common.obj
 0002:0001f4f4       DblMax                     2010f4f4     libucrt:common.obj
 0002:0001f4fc       DblMin                     2010f4fc     libucrt:common.obj
 0002:0001f504       IeeeAdjO                   2010f504     libucrt:common.obj
 0002:0001f50c       IeeeAdjU                   2010f50c     libucrt:common.obj
 0002:0001f514       _infinity                  2010f514     libucrt:common.obj
 0002:0001f51c       _zero                      2010f51c     libucrt:common.obj
 0002:0001f530       SC_1                       2010f530     libucrt:cos_pentium4.obj
 0002:0001f540       SC_2                       2010f540     libucrt:cos_pentium4.obj
 0002:0001f550       SC_3                       2010f550     libucrt:cos_pentium4.obj
 0002:0001f560       SC_4                       2010f560     libucrt:cos_pentium4.obj
 0002:0001f570       PI32INV                    2010f570     libucrt:cos_pentium4.obj
 0002:0001f578       SHIFTER                    2010f578     libucrt:cos_pentium4.obj
 0002:0001f580       P_2                        2010f580     libucrt:cos_pentium4.obj
 0002:0001f590       P_1                        2010f590     libucrt:cos_pentium4.obj
 0002:0001f598       P_3                        2010f598     libucrt:cos_pentium4.obj
 0002:0001f5a0       TWO_POW_55                 2010f5a0     libucrt:cos_pentium4.obj
 0002:0001f5a8       TWO_POW_M55                2010f5a8     libucrt:cos_pentium4.obj
 0002:0001f5b0       ALL_ONES                   2010f5b0     libucrt:cos_pentium4.obj
 0002:0001f5b8       NEG_ZERO                   2010f5b8     libucrt:cos_pentium4.obj
 0002:0001f5c0       ONE                        2010f5c0     libucrt:cos_pentium4.obj
 0002:0001f5d0       SIGN_MASK                  2010f5d0     libucrt:cos_pentium4.obj
 0002:0001f5e0       SC_1                       2010f5e0     libucrt:sin_pentium4.obj
 0002:0001f5f0       SC_2                       2010f5f0     libucrt:sin_pentium4.obj
 0002:0001f600       SC_3                       2010f600     libucrt:sin_pentium4.obj
 0002:0001f610       SC_4                       2010f610     libucrt:sin_pentium4.obj
 0002:0001f620       PI32INV                    2010f620     libucrt:sin_pentium4.obj
 0002:0001f628       SHIFTER                    2010f628     libucrt:sin_pentium4.obj
 0002:0001f630       P_2                        2010f630     libucrt:sin_pentium4.obj
 0002:0001f640       P_1                        2010f640     libucrt:sin_pentium4.obj
 0002:0001f648       P_3                        2010f648     libucrt:sin_pentium4.obj
 0002:0001f650       TWO_POW_55                 2010f650     libucrt:sin_pentium4.obj
 0002:0001f658       TWO_POW_M55                2010f658     libucrt:sin_pentium4.obj
 0002:0001f660       ALL_ONES                   2010f660     libucrt:sin_pentium4.obj
 0002:0001f668       NEG_ZERO                   2010f668     libucrt:sin_pentium4.obj
 0002:0001f670       ONE                        2010f670     libucrt:sin_pentium4.obj
 0002:0001f6a0       Shifter                    2010f6a0     libucrt:acos_pentium4.obj
 0002:0001f6b0       PI_BY_2                    2010f6b0     libucrt:acos_pentium4.obj
 0002:0001f6c0       NEG_PI                     2010f6c0     libucrt:acos_pentium4.obj
 0002:0001f6d0       PI                         2010f6d0     libucrt:acos_pentium4.obj
 0002:0001f6e0       SIGNMASK                   2010f6e0     libucrt:acos_pentium4.obj
 0002:0001f6f0       HALFMASK                   2010f6f0     libucrt:acos_pentium4.obj
 0002:0001f700       HALFMASK2                  2010f700     libucrt:acos_pentium4.obj
 0002:0001f710       cv                         2010f710     libucrt:acos_pentium4.obj
 0002:0001f730       cv2                        2010f730     libucrt:acos_pentium4.obj
 0002:0001f770       ABSVALMASK                 2010f770     libucrt:acos_pentium4.obj
 0002:0001f778       TMASK                      2010f778     libucrt:acos_pentium4.obj
 0002:0001f780       ONEMASK                    2010f780     libucrt:acos_pentium4.obj
 0002:0001f788       ONE_BY_2                   2010f788     libucrt:acos_pentium4.obj
 0002:0001f790       EMIN                       2010f790     libucrt:acos_pentium4.obj
 0002:0001f798       MAX_ARG                    2010f798     libucrt:acos_pentium4.obj
 0002:0001f7a0       MIN_ARG                    2010f7a0     libucrt:acos_pentium4.obj
 0002:0001f7a8       INF                        2010f7a8     libucrt:acos_pentium4.obj
 0002:0001f7b0       ZERO                       2010f7b0     libucrt:acos_pentium4.obj
 0002:0001f7b8       ALPHA                      2010f7b8     libucrt:acos_pentium4.obj
 0002:0001f7c0       _LcidToLocaleNameTable     2010f7c0     libucrt:lcidtoname_downlevel.obj
 0002:000208e0       _LocaleNameToIndexTable    201108e0     libucrt:lcidtoname_downlevel.obj
 0002:00021830       LOG_name                   20111830     libucrt:log10.obj
 0002:00021840       emask                      20111840     libucrt:log10_pentium4.obj
 0002:00021850       CC                         20111850     libucrt:log10_pentium4.obj
 0002:00021860       Magic                      20111860     libucrt:log10_pentium4.obj
 0002:00021870       hi_mask                    20111870     libucrt:log10_pentium4.obj
 0002:00021880       LOG10_2                    20111880     libucrt:log10_pentium4.obj
 0002:00021890       place_L                    20111890     libucrt:log10_pentium4.obj
 0002:000218b0       One                        201118b0     libucrt:log10_pentium4.obj
 0002:000218c0       Zero                       201118c0     libucrt:log10_pentium4.obj
 0002:000218d0       Two52                      201118d0     libucrt:log10_pentium4.obj
 0002:000218e0       Infs                       201118e0     libucrt:log10_pentium4.obj
 0002:000218f0       NaN                        201118f0     libucrt:log10_pentium4.obj
 0002:00021900       coeff                      20111900     libucrt:log10_pentium4.obj
 0002:0002195e       _log2max                   2011195e     libucrt:87tran.obj
 0002:00021968       _smallarg                  20111968     libucrt:87tran.obj
 0002:00021972       _half                      20111972     libucrt:87tran.obj
 0002:000222b0       ?_TlgEvent@?3??__telemetry_main_invoke_trigger@@9@4U<unnamed-type-_TlgEvent>@?3??1@YAXQAUHINSTANCE__@@@Z@B 201122b0     libvcruntime:telemetry.obj
 0002:000222ec       ?_TlgEvent@?3??__telemetry_main_return_trigger@@9@4U<unnamed-type-_TlgEvent>@?3??1@YAXQAUHINSTANCE__@@@Z@B 201122ec     libvcruntime:telemetry.obj
 0002:00022327       ?_Tlg_Microsoft_CRTProviderProv_Meta@@3U<unnamed-type-_Tlg_Microsoft_CRTProviderProv_Meta>@@B 20112327     libvcruntime:telemetry.obj
 0002:000226e8       __sehtable$?dllmain_crt_process_attach@@YAHQAUHINSTANCE__@@QAX@Z 201126e8     LIBCMT:dll_dllmain.obj
 0002:00022708       __sehtable$?dllmain_crt_process_detach@@YAH_N@Z 20112708     LIBCMT:dll_dllmain.obj
 0002:00022728       __sehtable$?dllmain_dispatch@@YAHQAUHINSTANCE__@@KQAX@Z 20112728     LIBCMT:dll_dllmain.obj
 0002:00022748       __sehtable$___scrt_is_nonwritable_in_current_image 20112748     LIBCMT:utility.obj
 0002:00022768       __sehtable$?common_exit@@YAXHW4_crt_exit_cleanup_mode@@W4_crt_exit_return_mode@@@Z 20112768     libucrt:exit.obj
 0002:00022790       __sehtable$??$?RV<lambda_800076c951b434888f4765a74a194fcc>@@AAV<lambda_4e60a939b0d047cfe11ddc22648dfba9>@@V<lambda_6dbb1268764f43b569ce7b67e331d33a>@@@?$__crt_seh_guarded_call@H@@QAEH$$QAV<lambda_800076c951b434888f4765a74a194fcc>@@AAV<lambda_4e60a939b0d047cfe11ddc22648dfba9>@@$$QAV<lambda_6dbb1268764f43b569ce7b67e331d33a>@@@Z 20112790     libucrt:onexit.obj
 0002:000227b0       __sehtable$??$?RV<lambda_995298e7d72eb4c2aab26c0585b3abe5>@@AAV<lambda_275893d493268fdec8709772e3fcec0e>@@V<lambda_293819299cbf9a7022e18b56a874bb5c>@@@?$__crt_seh_guarded_call@H@@QAEH$$QAV<lambda_995298e7d72eb4c2aab26c0585b3abe5>@@AAV<lambda_275893d493268fdec8709772e3fcec0e>@@$$QAV<lambda_293819299cbf9a7022e18b56a874bb5c>@@@Z 201127b0     libucrt:onexit.obj
 0002:000227d0       __sehtable$_terminate      201127d0     libucrt:terminate.obj
 0002:000227f0       __sehtable$??$?RV<lambda_9df27f884b057bc3edfc946cb5b7cf47>@@AAV<lambda_e69574bed617af4e071282c136b37893>@@V<lambda_cc0d902bcbbeb830f749456577db4721>@@@?$__crt_seh_guarded_call@X@@QAEX$$QAV<lambda_9df27f884b057bc3edfc946cb5b7cf47>@@AAV<lambda_e69574bed617af4e071282c136b37893>@@$$QAV<lambda_cc0d902bcbbeb830f749456577db4721>@@@Z 201127f0     libucrt:per_thread_data.obj
 0002:00022810       __sehtable$??$?RV<lambda_3518db117f0e7cdb002338c5d3c47b6c>@@AAV<lambda_b2ea41f6bbb362cd97d94c6828d90b61>@@V<lambda_abdedf541bb04549bc734292b4a045d4>@@@?$__crt_seh_guarded_call@X@@QAEX$$QAV<lambda_3518db117f0e7cdb002338c5d3c47b6c>@@AAV<lambda_b2ea41f6bbb362cd97d94c6828d90b61>@@$$QAV<lambda_abdedf541bb04549bc734292b4a045d4>@@@Z 20112810     libucrt:per_thread_data.obj
 0002:00022830       __sehtable$??$?RV<lambda_51b6e8b1eb166f2a3faf91f424b38130>@@AAV<lambda_6250bd4b2a391816dd638c3bf72b0bcb>@@V<lambda_0b5a4a3e68152e1d9b943535f5f47bed>@@@?$__crt_seh_guarded_call@X@@QAEX$$QAV<lambda_51b6e8b1eb166f2a3faf91f424b38130>@@AAV<lambda_6250bd4b2a391816dd638c3bf72b0bcb>@@$$QAV<lambda_0b5a4a3e68152e1d9b943535f5f47bed>@@@Z 20112830     libucrt:per_thread_data.obj
 0002:00022850       __sehtable$??$?RV<lambda_5b71d36f03204c0beab531769a5b5694>@@AAV<lambda_be2b3da3f62db62e9dad5dc70221a656>@@V<lambda_8f9ce462984622f9bf76b59e2aaaf805>@@@?$__crt_seh_guarded_call@X@@QAEX$$QAV<lambda_5b71d36f03204c0beab531769a5b5694>@@AAV<lambda_be2b3da3f62db62e9dad5dc70221a656>@@$$QAV<lambda_8f9ce462984622f9bf76b59e2aaaf805>@@@Z 20112850     libucrt:per_thread_data.obj
 0002:00022870       __sehtable$___acrt_uninitialize_locale 20112870     libucrt:wsetlocale.obj
 0002:00022890       __sehtable$___acrt_initialize_lowio 20112890     libucrt:ioinit.obj
 0002:000228b0       __sehtable$___acrt_update_thread_multibyte_data 201128b0     libucrt:mbctype.obj
 0002:000228d0       __sehtable$??$?RV<lambda_978dc153c237d78434369da87b74ff60>@@AAV<lambda_ad1ced32f4ac17aa236e5ef05d6b3b7c>@@V<lambda_4a8533e2866a575feecb8298ce776b0d>@@@?$__crt_seh_guarded_call@X@@QAEX$$QAV<lambda_978dc153c237d78434369da87b74ff60>@@AAV<lambda_ad1ced32f4ac17aa236e5ef05d6b3b7c>@@$$QAV<lambda_4a8533e2866a575feecb8298ce776b0d>@@@Z 201128d0     libucrt:mbctype.obj
 0002:000228f0       __sehtable$__query_new_handler 201128f0     libucrt:new_handler.obj
 0002:00022910       __sehtable$_raise          20112910     libucrt:signal.obj
 0002:00022930       __sehtable$??$?RV<lambda_a048d3beccc847880fc8490e18b82769>@@AAV<lambda_ec61778202f4f5fc7e7711acc23c3bca>@@V<lambda_f7496a158712204296dd6628a163878e>@@@?$__crt_seh_guarded_call@P6AXH@Z@@QAEP6AXH@Z$$QAV<lambda_a048d3beccc847880fc8490e18b82769>@@AAV<lambda_ec61778202f4f5fc7e7711acc23c3bca>@@$$QAV<lambda_f7496a158712204296dd6628a163878e>@@@Z 20112930     libucrt:signal.obj
 0002:00022950       __sehtable$___acrt_update_thread_locale_data 20112950     libucrt:locale_refcounting.obj
 0002:00022970       __sehtable$__fcloseall     20112970     libucrt:closeall.obj
 0002:00022990       __sehtable$_common_flush_all 20112990     libucrt:fflush.obj
 0002:000229b8       __sehtable$___acrt_lowio_ensure_fh_exists 201129b8     libucrt:osfinfo.obj
 0002:000229d8       __sehtable$_fclose         201129d8     libucrt:fclose.obj
 0002:000229f8       __sehtable$??$?RV<lambda_61cee617f5178ae960314fd4d05640a0>@@AAV<lambda_6978c1fb23f02e42e1d9e99668cc68aa>@@V<lambda_9cd88cf8ad10232537feb2133f08c833>@@@?$__crt_seh_guarded_call@H@@QAEH$$QAV<lambda_61cee617f5178ae960314fd4d05640a0>@@AAV<lambda_6978c1fb23f02e42e1d9e99668cc68aa>@@$$QAV<lambda_9cd88cf8ad10232537feb2133f08c833>@@@Z 201129f8     libucrt:commit.obj
 0002:00022a18       __sehtable$__write         20112a18     libucrt:write.obj
 0002:00022a38       __sehtable$??$?RV<lambda_123407a5e2ac06da108355a851863b7a>@@AAV<lambda_2fe9b910cf3cbf4a0ab98a02ba45b3ec>@@V<lambda_ae55bdf541ad94d75914d381c370e64d>@@@?$__crt_seh_guarded_call@H@@QAEH$$QAV<lambda_123407a5e2ac06da108355a851863b7a>@@AAV<lambda_2fe9b910cf3cbf4a0ab98a02ba45b3ec>@@$$QAV<lambda_ae55bdf541ad94d75914d381c370e64d>@@@Z 20112a38     libucrt:close.obj
 0002:00022a58       __sehtable$__IsNonwritableInCurrentImage 20112a58     LIBCMT:pesect.obj
 0002:00022a80       .edata                     20112a80     jampgamex86.exp
 0002:00022aa8       rgpv                       20112aa8     jampgamex86.exp
 0002:00022ab0       rgszName                   20112ab0     jampgamex86.exp
 0002:00022ab8       rgwOrd                     20112ab8     jampgamex86.exp
 0002:00022abc       szName                     20112abc     jampgamex86.exp
 0002:00022acc       $N00001                    20112acc     jampgamex86.exp
 0002:00022ad5       $N00002                    20112ad5     jampgamex86.exp
 0002:00023088       .idata$6                   20113088     kernel32:KERNEL32.dll
 0002:000230aa       .idata$6                   201130aa     advapi32:ADVAPI32.dll
 0003:000011b0       _bg_poolTail               201151b0     bg_misc.obj
 0003:00004200       ?headClampMinAngles@?1??BG_G2PlayerAngles@@9@9 20118200     bg_pmove.obj
 0003:0000420c       ?headClampMaxAngles@?1??BG_G2PlayerAngles@@9@9 2011820c     bg_pmove.obj
 0003:00007118       ?range@?1??G_TouchTriggers@@9@9 2011b118     g_active.obj
 0003:00007124       _playerMins                2011b124     g_client.obj
 0003:00007130       _playerMaxs                2011b130     g_client.obj
 0003:0000713c       _gc_orders                 2011b13c     g_cmds.obj
 0003:00007158       _gameNames                 2011b158     g_cmds.obj
 0003:00007a30       _gameCvarTable             2011ba30     g_main.obj
 0003:0000892c       _gameCvarTableSize         2011c92c     g_main.obj
 0003:00008930       ?lastMod@?1??CheckCvars@@9@9 2011c930     g_main.obj
 0003:00009448       ?gametypeNames@?1??G_SpawnGEntityFromSpawnVars@@9@9 2011d448     g_spawn.obj
 0003:00009470       _defaultStyles             2011d470     g_spawn.obj
 0003:000095f0       _syscall                   2011d5f0     g_syscalls.obj
 0003:000095f4       _ctfFlagStatusRemap        2011d5f4     g_team.obj
 0003:000095fc       ?VEC_UP@?1??G_SetMovedir@@9@9 2011d5fc     g_utils.obj
 0003:00009608       ?VEC_DOWN@?1??G_SetMovedir@@9@9 2011d608     g_utils.obj
 0003:00009614       _playerMins                2011d614     g_utils.obj
 0003:00009620       _playerMaxs                2011d620     g_utils.obj
 0003:0000962c       ?MOVEDIR_UP@?1??G_SetMovedir@@9@9 2011d62c     g_utils.obj
 0003:00009638       ?MOVEDIR_DOWN@?1??G_SetMovedir@@9@9 2011d638     g_utils.obj
 0003:00009674       _shieldMins                2011d674     NPC_AI_GalakMech.obj
 0003:00009680       _shieldMaxs                2011d680     NPC_AI_GalakMech.obj
 0003:0000a36c       _holdrand                  2011e36c     q_math.obj
 0003:0000a380       _saberClashEventParm       2011e380     w_saber.obj
 0003:0000a384       _saberHitFraction          2011e384     w_saber.obj
 0003:0000a3c0       ?_Tlg_Microsoft_CRTProviderProv@@3U_TlgProvider_t@__vcrt_trace_logging_provider@@A 2011e3c0     libvcruntime:telemetry.obj
 0003:0000a400       ?__vcrt_flsindex@@3KA      2011e400     libvcruntime:per_thread_data.obj
 0003:0000a424       ___acrt_flsindex           2011e424     libucrt:per_thread_data.obj
 0003:0000a430       _errno_no_memory           2011e430     libucrt:errno.obj
 0003:0000a434       _doserrno_no_memory        2011e434     libucrt:errno.obj
 0003:0000a5b0       ___rgctypeflag             2011e5b0     libucrt:mbctype.obj
 0003:0000a5b8       ___rgcode_page_info        2011e5b8     libucrt:mbctype.obj
 0003:0000ab64       ?local_time@?1??BotAIStartFrame@@9@9 2011eb64     ai_main.obj
 0003:0000ab68       ?lastbotthink_time@?1??BotAIStartFrame@@9@9 2011eb68     ai_main.obj
 0003:0000ab88       ?i@?1??SnapVector@@9@9     2011eb88     bg_misc.obj
 0003:0000ab8c       ?f@?1??SnapVector@@9@9     2011eb8c     bg_misc.obj
 0003:0000ab90       _bg_pool                   2011eb90     bg_misc.obj
 0003:002e7250       _bg_poolSize               203fb250     bg_misc.obj
 0003:002e7258       ?thoracicAngles@?1??BG_G2PlayerAngles@@9@9 203fb258     bg_pmove.obj
 0003:002e7278       _pm_flying                 203fb278     bg_pmove.obj
 0003:002e727c       ?oldLookAngles@?1??BG_UpdateLookAngles@@9@9 203fb27c     bg_pmove.obj
 0003:002e7288       ?lookAnglesDiff@?1??BG_UpdateLookAngles@@9@9 203fb288     bg_pmove.obj
 0003:002e7294       ?ang@?1??BG_UpdateLookAngles@@9@9 203fb294     bg_pmove.obj
 0003:002e7298       ?dir@?1??BG_G2PlayerAngles@@9@9 203fb298     bg_pmove.obj
 0003:002e729c       ?i@?1??BG_G2PlayerAngles@@9@9 203fb29c     bg_pmove.obj
 0003:002e72a0       ?dif@?1??BG_G2PlayerAngles@@9@9 203fb2a0     bg_pmove.obj
 0003:002e72a4       ?dest@?1??BG_G2PlayerAngles@@9@9 203fb2a4     bg_pmove.obj
 0003:002e72a8       ?speed@?1??BG_G2PlayerAngles@@9@9 203fb2a8     bg_pmove.obj
 0003:002e72ac       ?eyeAngles@?1??BG_G2PlayerAngles@@9@9 203fb2ac     bg_pmove.obj
 0003:002e72b8       ?neckAngles@?1??BG_G2PlayerAngles@@9@9 203fb2b8     bg_pmove.obj
 0003:002e72c4       ?velocity@?1??BG_G2PlayerAngles@@9@9 203fb2c4     bg_pmove.obj
 0003:002e72d0       ?torsoAngles@?1??BG_G2PlayerAngles@@9@9 203fb2d0     bg_pmove.obj
 0003:002e72dc       ?headAngles@?1??BG_G2PlayerAngles@@9@9 203fb2dc     bg_pmove.obj
 0003:002e72e8       ?velPos@?1??BG_G2PlayerAngles@@9@9 203fb2e8     bg_pmove.obj
 0003:002e72f4       ?velAng@?1??BG_G2PlayerAngles@@9@9 203fb2f4     bg_pmove.obj
 0003:002e7300       ?ulAngles@?1??BG_G2PlayerAngles@@9@9 203fb300     bg_pmove.obj
 0003:002e730c       ?llAngles@?1??BG_G2PlayerAngles@@9@9 203fb30c     bg_pmove.obj
 0003:002e7318       ?viewAngles@?1??BG_G2PlayerAngles@@9@9 203fb318     bg_pmove.obj
 0003:002e7324       ?angles@?1??BG_G2PlayerAngles@@9@9 203fb324     bg_pmove.obj
 0003:002e7330       _SaberParms                203fb330     bg_saberLoad.obj
 0003:002f7330       _bgSaberParseTBuffer       2040b330     bg_saberLoad.obj
 0003:00307348       _g_numBots                 2041b348     g_bot.obj
 0003:0030734c       ?checkminimumplayers_time@?1??G_CheckMinimumPlayers@@9@9 2041b34c     g_bot.obj
 0003:00307350       _g_botInfos                2041b350     g_bot.obj
 0003:00308350       _g_arenaInfos              2041c350     g_bot.obj
 0003:00309350       _botSpawnQueue             2041d350     g_bot.obj
 0003:003093d8       ?sTemp@?4??ClientConnect@@9@9 2041d3d8     g_client.obj
 0003:003097d8       ?f@?1??G_UpdateClientAnims@@9@9 2041d7d8     g_client.obj
 0003:003097dc       ?torsoAnim@?1??G_UpdateClientAnims@@9@9 2041d7dc     g_client.obj
 0003:003097e0       ?legsAnim@?1??G_UpdateClientAnims@@9@9 2041d7e0     g_client.obj
 0003:003097e4       ?firstFrame@?1??G_UpdateClientAnims@@9@9 2041d7e4     g_client.obj
 0003:003097e8       ?lastFrame@?1??G_UpdateClientAnims@@9@9 2041d7e8     g_client.obj
 0003:003097ec       ?aFlags@?1??G_UpdateClientAnims@@9@9 2041d7ec     g_client.obj
 0003:003097f0       ?animSpeed@?1??G_UpdateClientAnims@@9@9 2041d7f0     g_client.obj
 0003:003097f4       ?lAnimSpeedScale@?1??G_UpdateClientAnims@@9@9 2041d7f4     g_client.obj
 0003:00309800       ?line@?1??ConcatArgs@@9@9  2041d800     g_cmds.obj
 0003:00309c08       ?i@?HB@??player_die@@9@9   2041dc08     g_combat.obj
 0003:00309c10       ?i@?1??SnapVector@@9@9     2041dc10     g_items.obj
 0003:00309c14       ?f@?1??SnapVector@@9@9     2041dc14     g_items.obj
 0003:00309c18       _shieldLoopSound           2041dc18     g_items.obj
 0003:00309c1c       _shieldAttachSound         2041dc1c     g_items.obj
 0003:00309c20       _shieldActivateSound       2041dc20     g_items.obj
 0003:00309c24       _shieldDeactivateSound     2041dc24     g_items.obj
 0003:00309c28       _shieldDamageSound         2041dc28     g_items.obj
 0003:00309c2c       ?shieldItem@?1??PlaceShield@@9@9 2041dc2c     g_items.obj
 0003:00309c70       ?text@?1??G_GetStringEdString@@9@9 2041dc70     g_main.obj
 0003:0030a070       _navCalcPathTime           2041e070     g_main.obj
 0003:0030a078       _memoryPool                2041e078     g_mem.obj
 0003:0034a078       _allocPoint                2045e078     g_mem.obj
 0003:0034a088       _g_shooterClients          2045e088     g_misc.obj
 0003:003645c8       _g_shooterClientInit       204785c8     g_misc.obj
 0003:003645cc       ?i@?1??SnapVector@@9@9     204785cc     g_missile.obj
 0003:003645d0       ?f@?1??SnapVector@@9@9     204785d0     g_missile.obj
 0003:00364608       _numStoredWaypoints        20478608     g_nav.obj
 0003:00364610       _tempWaypointList          20478610     g_nav.obj
 0003:0038ce50       _team1                     204a0e50     g_saga.obj
 0003:0038d050       _team2                     204a1050     g_saga.obj
 0003:0038d250       _gParseObjectives          204a1250     g_saga.obj
 0003:00391250       _gObjectiveCfgStr          204a5250     g_saga.obj
 0003:00391658       _ipFilters                 204a5658     g_svcmds.obj
 0003:00393658       _numIPFilters              204a7658     g_svcmds.obj
 0003:00393660       ?i@?1??SnapVector@@9@9     204a7660     g_turret.obj
 0003:00393664       ?f@?1??SnapVector@@9@9     204a7664     g_turret.obj
 0003:00393668       ?i@?1??SnapVector@@9@9     204a7668     g_turret_G2.obj
 0003:0039366c       ?f@?1??SnapVector@@9@9     204a766c     g_turret_G2.obj
 0003:00393678       ?i@?1??SnapVector@@9@9     204a7678     g_utils.obj
 0003:0039367c       ?f@?1??SnapVector@@9@9     204a767c     g_utils.obj
 0003:00393680       ?buff@?1??BuildShaderStateConfig@@9@9 204a7680     g_utils.obj
 0003:00394680       _g_vehiclePool             204a8680     g_utils.obj
 0003:003b0280       _g_vehiclePoolOccupied     204c4280     g_utils.obj
 0003:003b0480       _g_vehiclePoolInit         204c4480     g_utils.obj
 0003:003b0484       ?index@?1??tv@@9@9         204c4484     g_utils.obj
 0003:003b0488       ?vecs@?1??tv@@9@9          204c4488     g_utils.obj
 0003:003b04e8       ?index@?1??vtos@@9@9       204c44e8     g_utils.obj
 0003:003b04f0       ?str@?1??vtos@@9@9         204c44f0     g_utils.obj
 0003:003b05f0       ?tr@?1??G_ClearTrace@@9@9  204c45f0     g_utils.obj
 0003:003b0620       ?i@?1??SnapVector@@9@9     204c4620     g_weapon.obj
 0003:003b0624       ?f@?1??SnapVector@@9@9     204c4624     g_weapon.obj
 0003:003b0628       _s_quadFactor              204c4628     g_weapon.obj
 0003:003b062c       _forward                   204c462c     g_weapon.obj
 0003:003b0638       _vright                    204c4638     g_weapon.obj
 0003:003b0644       _up                        204c4644     g_weapon.obj
 0003:003b0650       _muzzle                    204c4650     g_weapon.obj
 0003:003b0660       _ent_list                  204c4660     g_weapon.obj
 0003:003b1660       _enemyLOS4                 204c5660     NPC_AI_GalakMech.obj
 0003:003b1664       _enemyCS4                  204c5664     NPC_AI_GalakMech.obj
 0003:003b1668       _hitAlly4                  204c5668     NPC_AI_GalakMech.obj
 0003:003b166c       _faceEnemy4                204c566c     NPC_AI_GalakMech.obj
 0003:003b1670       _move4                     204c5670     NPC_AI_GalakMech.obj
 0003:003b1674       _shoot4                    204c5674     NPC_AI_GalakMech.obj
 0003:003b1678       _enemyDist4                204c5678     NPC_AI_GalakMech.obj
 0003:003b167c       _impactPos4                204c567c     NPC_AI_GalakMech.obj
 0003:003b1688       _enemyLOS3                 204c5688     NPC_AI_Grenadier.obj
 0003:003b168c       _enemyCS3                  204c568c     NPC_AI_Grenadier.obj
 0003:003b1690       _faceEnemy3                204c5690     NPC_AI_Grenadier.obj
 0003:003b1694       _move3                     204c5694     NPC_AI_Grenadier.obj
 0003:003b1698       _shoot3                    204c5698     NPC_AI_Grenadier.obj
 0003:003b169c       _enemyDist3                204c569c     NPC_AI_Grenadier.obj
 0003:003b16a0       ?forward@?1??ImperialProbe_FireBlaster@@9@9 204c56a0     NPC_AI_ImperialProbe.obj
 0003:003b16ac       ?vright@?1??ImperialProbe_FireBlaster@@9@9 204c56ac     NPC_AI_ImperialProbe.obj
 0003:003b16b8       ?up@?1??ImperialProbe_FireBlaster@@9@9 204c56b8     NPC_AI_ImperialProbe.obj
 0003:003b16c4       _jediSpeechDebounceTime    204c56c4     NPC_AI_Jedi.obj
 0003:003b16d4       ?forward@?1??Mark1_FireBlaster@@9@9 204c56d4     NPC_AI_Mark1.obj
 0003:003b16e0       ?vright@?1??Mark1_FireBlaster@@9@9 204c56e0     NPC_AI_Mark1.obj
 0003:003b16ec       ?up@?1??Mark1_FireBlaster@@9@9 204c56ec     NPC_AI_Mark1.obj
 0003:003b16f8       ?forward@?1??Mark1_FireRocket@@9@9 204c56f8     NPC_AI_Mark1.obj
 0003:003b1704       ?vright@?1??Mark1_FireRocket@@9@9 204c5704     NPC_AI_Mark1.obj
 0003:003b1710       ?up@?1??Mark1_FireRocket@@9@9 204c5710     NPC_AI_Mark1.obj
 0003:003b171c       ?forward@?1??Mark2_FireBlaster@@9@9 204c571c     NPC_AI_Mark2.obj
 0003:003b1728       ?vright@?1??Mark2_FireBlaster@@9@9 204c5728     NPC_AI_Mark2.obj
 0003:003b1734       ?up@?1??Mark2_FireBlaster@@9@9 204c5734     NPC_AI_Mark2.obj
 0003:003b1740       ?forward@?1??Remote_Fire@@9@9 204c5740     NPC_AI_Remote.obj
 0003:003b174c       ?vright@?1??Remote_Fire@@9@9 204c574c     NPC_AI_Remote.obj
 0003:003b1758       ?up@?1??Remote_Fire@@9@9   204c5758     NPC_AI_Remote.obj
 0003:003b1764       ?forward@?1??Sentry_Fire@@9@9 204c5764     NPC_AI_Sentry.obj
 0003:003b1770       ?vright@?1??Sentry_Fire@@9@9 204c5770     NPC_AI_Sentry.obj
 0003:003b177c       ?up@?1??Sentry_Fire@@9@9   204c577c     NPC_AI_Sentry.obj
 0003:003b1788       _enemyLOS2                 204c5788     NPC_AI_Sniper.obj
 0003:003b178c       _enemyCS2                  204c578c     NPC_AI_Sniper.obj
 0003:003b1790       _faceEnemy2                204c5790     NPC_AI_Sniper.obj
 0003:003b1794       _move2                     204c5794     NPC_AI_Sniper.obj
 0003:003b1798       _shoot2                    204c5798     NPC_AI_Sniper.obj
 0003:003b179c       _enemyDist2                204c579c     NPC_AI_Sniper.obj
 0003:003b17a0       _enemyLOS                  204c57a0     NPC_AI_Stormtrooper.obj
 0003:003b17a4       _enemyCS                   204c57a4     NPC_AI_Stormtrooper.obj
 0003:003b17a8       _enemyInFOV                204c57a8     NPC_AI_Stormtrooper.obj
 0003:003b17ac       _hitAlly                   204c57ac     NPC_AI_Stormtrooper.obj
 0003:003b17b0       _faceEnemy                 204c57b0     NPC_AI_Stormtrooper.obj
 0003:003b17b4       _move                      204c57b4     NPC_AI_Stormtrooper.obj
 0003:003b17b8       _shoot                     204c57b8     NPC_AI_Stormtrooper.obj
 0003:003b17bc       _enemyDist                 204c57bc     NPC_AI_Stormtrooper.obj
 0003:003b17c0       _impactPos                 204c57c0     NPC_AI_Stormtrooper.obj
 0003:003b17e0       ?bops_initialized@?1??BoxOnPlaneSide@@9@9 204c57e0     q_math.obj
 0003:003b17e4       ?Ljmptab@?1??BoxOnPlaneSide@@9@9 204c57e4     q_math.obj
 0003:003b1804       ?sr@?1??AngleVectors@@9@9  204c5804     q_math.obj
 0003:003b1808       ?sp@?1??AngleVectors@@9@9  204c5808     q_math.obj
 0003:003b180c       ?sy@?1??AngleVectors@@9@9  204c580c     q_math.obj
 0003:003b1810       ?cr@?1??AngleVectors@@9@9  204c5810     q_math.obj
 0003:003b1814       ?cp@?1??AngleVectors@@9@9  204c5814     q_math.obj
 0003:003b1818       ?cy@?1??AngleVectors@@9@9  204c5818     q_math.obj
 0003:003b1820       _com_token                 204c5820     q_shared.obj
 0003:003b1c20       _com_parsename             204c5c20     q_shared.obj
 0003:003b2020       _com_lines                 204c6020     q_shared.obj
 0003:003b2024       ?index@?1??va@@9@9         204c6024     q_shared.obj
 0003:003b2028       ?string@?1??COM_ParseError@@9@9 204c6028     q_shared.obj
 0003:003b3028       ?string@?1??COM_ParseWarning@@9@9 204c7028     q_shared.obj
 0003:003b4028       ?string@?1??va@@9@9        204c8028     q_shared.obj
 0003:003c3a28       ?value@?1??Info_ValueForKey@@9@9 204d7a28     q_shared.obj
 0003:003c7a28       ?valueindex@?1??Info_ValueForKey@@9@9 204dba28     q_shared.obj
 0003:003c7a4c       _saberClashPos             204dba4c     w_saber.obj
 0003:003c7a58       ?faces@?1??G_BuildSaberFaces@@9@9 204dba58     w_saber.obj
 0003:003c7c08       ?planeEq@?1??G_SaberFaceCollisionCheck@@9@9 204dbc08     w_saber.obj
 0003:003c7c18       ?side@?1??G_SaberFaceCollisionCheck@@9@9 204dbc18     w_saber.obj
 0003:003c7c1c       ?side2@?1??G_SaberFaceCollisionCheck@@9@9 204dbc1c     w_saber.obj
 0003:003c7c20       ?dist@?1??G_SaberFaceCollisionCheck@@9@9 204dbc20     w_saber.obj
 0003:003c7c24       ?dir@?1??G_SaberFaceCollisionCheck@@9@9 204dbc24     w_saber.obj
 0003:003c7c30       ?point@?1??G_SaberFaceCollisionCheck@@9@9 204dbc30     w_saber.obj
 0003:003c7c3c       ?extruded@?4??G_SaberFaceCollisionCheck@@9@9 204dbc3c     w_saber.obj
 0003:003c7c48       ?minPoint@?4??G_SaberFaceCollisionCheck@@9@9 204dbc48     w_saber.obj
 0003:003c7c54       ?maxPoint@?4??G_SaberFaceCollisionCheck@@9@9 204dbc54     w_saber.obj
 0003:003c7c60       ?planeNormal@?4??G_SaberFaceCollisionCheck@@9@9 204dbc60     w_saber.obj
 0003:003c7c6c       ?facing@?4??G_SaberFaceCollisionCheck@@9@9 204dbc6c     w_saber.obj
 0003:003c7c70       ?i@?1??G_SaberCollide@@9@9 204dbc70     w_saber.obj
 0003:003c7c74       ?j@?1??G_SaberCollide@@9@9 204dbc74     w_saber.obj
 0003:003c7c78       _victimEntityNum           204dbc78     w_saber.obj
 0003:003c7cb8       _totalDmg                  204dbcb8     w_saber.obj
 0003:003c7cf8       _dmgDir                    204dbcf8     w_saber.obj
 0003:003c7db8       _dmgSpot                   204dbdb8     w_saber.obj
 0003:003c7e78       _numVictims                204dbe78     w_saber.obj
 0003:003c7e7c       _saberDoClashEffect        204dbe7c     w_saber.obj
 0003:003c7e80       _saberClashNorm            204dbe80     w_saber.obj
 0003:003c7e8c       _saberHitWall              204dbe8c     w_saber.obj
 0003:003c7e90       _saberHitSaber             204dbe90     w_saber.obj
 0003:003c7e94       ?tr@?1??CheckSaberDamage@@9@9 204dbe94     w_saber.obj
 0003:003c7ec4       ?dir@?1??CheckSaberDamage@@9@9 204dbec4     w_saber.obj
 0003:003c7ed0       ?saberTrMins@?1??CheckSaberDamage@@9@9 204dbed0     w_saber.obj
 0003:003c7edc       ?saberTrMaxs@?1??CheckSaberDamage@@9@9 204dbedc     w_saber.obj
 0003:003c7ee8       ?lastValidStart@?1??CheckSaberDamage@@9@9 204dbee8     w_saber.obj
 0003:003c7ef4       ?lastValidEnd@?1??CheckSaberDamage@@9@9 204dbef4     w_saber.obj
 0003:003c7f00       ?selfSaberLevel@?1??CheckSaberDamage@@9@9 204dbf00     w_saber.obj
 0003:003c7f04       ?otherSaberLevel@?1??CheckSaberDamage@@9@9 204dbf04     w_saber.obj
 0003:003c7f10       ?__proc_attached@@3HA      204dbf10     LIBCMT:dll_dllmain.obj
 0003:003c7f1c       ?module_local_atexit_table@@3U_onexit_table_t@@A 204dbf1c     LIBCMT:utility.obj
 0003:003c7f28       ?module_local_at_quick_exit_table@@3U_onexit_table_t@@A 204dbf28     LIBCMT:utility.obj
 0003:003c7f34       ?is_initialized_as_dll@@3_NA 204dbf34     LIBCMT:utility.obj
 0003:003c7f48       _GS_ExceptionRecord        204dbf48     LIBCMT:gs_report.obj
 0003:003c7f98       _GS_ContextRecord          204dbf98     LIBCMT:gs_report.obj
 0003:003c8264       ?module_handles@@3PAPAUHINSTANCE__@@A 204dc264     libvcruntime:winapi_downlevel.obj
 0003:003c8274       ?encoded_function_pointers@@3PAPAXA 204dc274     libvcruntime:winapi_downlevel.obj
 0003:003c8298       ?__vcrt_startup_thread_ptd@@3U__vcrt_ptd@@A 204dc298     libvcruntime:per_thread_data.obj
 0003:003c82c0       ___vcrt_lock_table         204dc2c0     libvcruntime:locks.obj
 0003:003c82d8       ___vcrt_locks_initialized  204dc2d8     libvcruntime:locks.obj
 0003:003c8308       ?heap@@3V_HeapManager@@A   204dc308     libvcruntime:undname.obj
 0003:003c831c       _c_termination_complete    204dc31c     libucrt:exit.obj
 0003:003c8320       _thread_local_exit_callback_func 204dc320     libucrt:exit.obj
 0003:003c8324       ?c_exit_complete@?5??common_exit@@YAXHW4_crt_exit_cleanup_mode@@W4_crt_exit_return_mode@@@Z@4_NA 204dc324     libucrt:exit.obj
 0003:003c8350       __pmatherr_set             204dc350     libucrt:libm_error.obj
 0003:003c8354       ___acrt_invalid_parameter_handler 204dc354     libucrt:invalid_parameter.obj
 0003:003c856c       _enable_percent_n          204dc56c     libucrt:printf_count_output.obj
 0003:003c8578       _user_matherr              204dc578     libucrt:matherr.obj
 0003:003c8580       ___acrt_lock_table         204dc580     libucrt:locks.obj
 0003:003c86b8       ___acrt_locks_initialized  204dc6b8     libucrt:locks.obj
 0003:003c86c0       _module_handles            204dc6c0     libucrt:winapi_thunks.obj
 0003:003c8710       _encoded_function_pointers 204dc710     libucrt:winapi_thunks.obj
 0003:003c8790       ?state_cache@?1??__acrt_is_packaged_app@@9@4JA 204dc790     libucrt:winapi_thunks.obj
 0003:003c87ac       _fSystemSet                204dc7ac     libucrt:mbctype.obj
 0003:003c87b0       ?initialized@?1??__acrt_initialize_multibyte@@9@4_NA 204dc7b0     libucrt:mbctype.obj
 0003:003c87c8       ___acrt_new_handler        204dc7c8     libucrt:new_handler.obj
 0003:003c87cc       _ctrlc_action              204dc7cc     libucrt:signal.obj
 0003:003c87d0       _ctrlbreak_action          204dc7d0     libucrt:signal.obj
 0003:003c87d4       _abort_action              204dc7d4     libucrt:signal.obj
 0003:003c87d8       _term_action               204dc7d8     libucrt:signal.obj
 0003:003c87dc       ___acrt_global_new_mode    204dc7dc     libucrt:new_mode.obj
 0003:003c87ec       ___acrt_app_type           204dc7ec     libucrt:report_runtime_error.obj
 0004:00000000       __guard_fids____dcrt_uninitialize_environments_nolock 20875000     libucrt:environment_initialization.obj
 0004:00000008       __guard_fids__             20875008     libucrt:initialization.obj
 0004:00000068       __guard_fids____acrt_initialize_ptd 20875068     libucrt:per_thread_data.obj
 0004:0000006c       __guard_fids____libm_error_support 2087506c     libucrt:libm_error.obj
 0004:00000070       __guard_fids__             20875070     libucrt:locale_initializer.obj
 0004:00000074       __guard_fids__             20875074     libucrt:stdio_initializer.obj
 0004:00000078       __guard_fids__             20875078     libucrt:stdio_initializer.obj
 0004:0000007c       __guard_fids__             2087507c     libucrt:sse2_initializer.obj
 0004:00000080       __guard_fids__             20875080     libucrt:multibyte_initializer.obj
 0004:00000084       __guard_fids__             20875084     libucrt:console_output_initializer.obj
 0004:00000088       __guard_fids_?dllmain_crt_process_attach@@YAHQAUHINSTANCE__@@QAX@Z 20875088     LIBCMT:dll_dllmain.obj
 0004:00000090       __guard_fids_?dllmain_dispatch@@YAHQAUHINSTANCE__@@KQAX@Z 20875090     LIBCMT:dll_dllmain.obj
 0004:00000094       __guard_fids__             20875094     LIBCMT:guard_support.obj
 0004:00000098       __guard_fids__             20875098     libvcruntime:telemetry.obj
 0004:0000009c       __guard_fids_?TraceLoggingRegister@__vcrt_trace_logging_provider@@YAJPBU_TlgProvider_t@1@PBU_GUID@@P6GX1KE_K2PAU_EVENT_FILTER_DESCRIPTOR@@PAX@Z4@Z 2087509c     libvcruntime:telemetry.obj
 0004:000000a0       __guard_fids____vcrt_initialize_ptd 208750a0     libvcruntime:per_thread_data.obj
 0005:00000000       _2il0floatpacket_4         20876000     LIBCMT:_svml_dfloor2_sse2_.obj
 0005:00000010       _2il0floatpacket_5         20876010     LIBCMT:_svml_dfloor2_sse2_.obj
 0005:00000020       _2il0floatpacket_6         20876020     LIBCMT:_svml_dfloor2_sse2_.obj
 0006:000000a0       $R000000                   208770a0     JK2game.res
 0006:000003c8       $R000328                   208773c8     JK2game.res
